ARM GAS   			page 1


   1              	 .cpu cortex-m4
   2              	 .arch armv7e-m
   3              	 .fpu fpv4-sp-d16
   4              	 .eabi_attribute 27,1
   5              	 .eabi_attribute 28,1
   6              	 .eabi_attribute 23,1
   7              	 .eabi_attribute 24,1
   8              	 .eabi_attribute 25,1
   9              	 .eabi_attribute 26,1
  10              	 .eabi_attribute 30,2
  11              	 .eabi_attribute 34,1
  12              	 .eabi_attribute 18,4
  13              	 .file "stm32g4xx_hal_adc_ex.c"
  14              	 .text
  15              	.Ltext0:
  16              	 .cfi_sections .debug_frame
  17              	 .file 1 "Drivers/STM32G4xx_HAL_Driver/Src/stm32g4xx_hal_adc_ex.c"
  18              	 .section .text.HAL_ADCEx_Calibration_Start,"ax",%progbits
  19              	 .align 1
  20              	 .p2align 2,,3
  21              	 .global HAL_ADCEx_Calibration_Start
  22              	 .syntax unified
  23              	 .thumb
  24              	 .thumb_func
  26              	HAL_ADCEx_Calibration_Start:
  27              	.LVL0:
  28              	.LFB361:
   1:Drivers/STM32G4xx_HAL_Driver/Src/stm32g4xx_hal_adc_ex.c **** /**
   2:Drivers/STM32G4xx_HAL_Driver/Src/stm32g4xx_hal_adc_ex.c ****   ******************************************************************************
   3:Drivers/STM32G4xx_HAL_Driver/Src/stm32g4xx_hal_adc_ex.c ****   * @file    stm32g4xx_hal_adc_ex.c
   4:Drivers/STM32G4xx_HAL_Driver/Src/stm32g4xx_hal_adc_ex.c ****   * @author  MCD Application Team
   5:Drivers/STM32G4xx_HAL_Driver/Src/stm32g4xx_hal_adc_ex.c ****   * @brief   This file provides firmware functions to manage the following
   6:Drivers/STM32G4xx_HAL_Driver/Src/stm32g4xx_hal_adc_ex.c ****   *          functionalities of the Analog to Digital Converter (ADC)
   7:Drivers/STM32G4xx_HAL_Driver/Src/stm32g4xx_hal_adc_ex.c ****   *          peripheral:
   8:Drivers/STM32G4xx_HAL_Driver/Src/stm32g4xx_hal_adc_ex.c ****   *           + Peripheral Control functions
   9:Drivers/STM32G4xx_HAL_Driver/Src/stm32g4xx_hal_adc_ex.c ****   *          Other functions (generic functions) are available in file
  10:Drivers/STM32G4xx_HAL_Driver/Src/stm32g4xx_hal_adc_ex.c ****   *          "stm32g4xx_hal_adc.c".
  11:Drivers/STM32G4xx_HAL_Driver/Src/stm32g4xx_hal_adc_ex.c ****   *
  12:Drivers/STM32G4xx_HAL_Driver/Src/stm32g4xx_hal_adc_ex.c ****   ******************************************************************************
  13:Drivers/STM32G4xx_HAL_Driver/Src/stm32g4xx_hal_adc_ex.c ****   * @attention
  14:Drivers/STM32G4xx_HAL_Driver/Src/stm32g4xx_hal_adc_ex.c ****   *
  15:Drivers/STM32G4xx_HAL_Driver/Src/stm32g4xx_hal_adc_ex.c ****   * Copyright (c) 2019 STMicroelectronics.
  16:Drivers/STM32G4xx_HAL_Driver/Src/stm32g4xx_hal_adc_ex.c ****   * All rights reserved.
  17:Drivers/STM32G4xx_HAL_Driver/Src/stm32g4xx_hal_adc_ex.c ****   *
  18:Drivers/STM32G4xx_HAL_Driver/Src/stm32g4xx_hal_adc_ex.c ****   * This software is licensed under terms that can be found in the LICENSE file
  19:Drivers/STM32G4xx_HAL_Driver/Src/stm32g4xx_hal_adc_ex.c ****   * in the root directory of this software component.
  20:Drivers/STM32G4xx_HAL_Driver/Src/stm32g4xx_hal_adc_ex.c ****   * If no LICENSE file comes with this software, it is provided AS-IS.
  21:Drivers/STM32G4xx_HAL_Driver/Src/stm32g4xx_hal_adc_ex.c ****   *
  22:Drivers/STM32G4xx_HAL_Driver/Src/stm32g4xx_hal_adc_ex.c ****   ******************************************************************************
  23:Drivers/STM32G4xx_HAL_Driver/Src/stm32g4xx_hal_adc_ex.c ****   @verbatim
  24:Drivers/STM32G4xx_HAL_Driver/Src/stm32g4xx_hal_adc_ex.c ****   [..]
  25:Drivers/STM32G4xx_HAL_Driver/Src/stm32g4xx_hal_adc_ex.c ****   (@) Sections "ADC peripheral features" and "How to use this driver" are
  26:Drivers/STM32G4xx_HAL_Driver/Src/stm32g4xx_hal_adc_ex.c ****       available in file of generic functions "stm32g4xx_hal_adc.c".
  27:Drivers/STM32G4xx_HAL_Driver/Src/stm32g4xx_hal_adc_ex.c ****   [..]
  28:Drivers/STM32G4xx_HAL_Driver/Src/stm32g4xx_hal_adc_ex.c ****   @endverbatim
  29:Drivers/STM32G4xx_HAL_Driver/Src/stm32g4xx_hal_adc_ex.c ****   ******************************************************************************
  30:Drivers/STM32G4xx_HAL_Driver/Src/stm32g4xx_hal_adc_ex.c ****   */
ARM GAS   			page 2


  31:Drivers/STM32G4xx_HAL_Driver/Src/stm32g4xx_hal_adc_ex.c **** 
  32:Drivers/STM32G4xx_HAL_Driver/Src/stm32g4xx_hal_adc_ex.c **** /* Includes ------------------------------------------------------------------*/
  33:Drivers/STM32G4xx_HAL_Driver/Src/stm32g4xx_hal_adc_ex.c **** #include "stm32g4xx_hal.h"
  34:Drivers/STM32G4xx_HAL_Driver/Src/stm32g4xx_hal_adc_ex.c **** 
  35:Drivers/STM32G4xx_HAL_Driver/Src/stm32g4xx_hal_adc_ex.c **** /** @addtogroup STM32G4xx_HAL_Driver
  36:Drivers/STM32G4xx_HAL_Driver/Src/stm32g4xx_hal_adc_ex.c ****   * @{
  37:Drivers/STM32G4xx_HAL_Driver/Src/stm32g4xx_hal_adc_ex.c ****   */
  38:Drivers/STM32G4xx_HAL_Driver/Src/stm32g4xx_hal_adc_ex.c **** 
  39:Drivers/STM32G4xx_HAL_Driver/Src/stm32g4xx_hal_adc_ex.c **** /** @defgroup ADCEx ADCEx
  40:Drivers/STM32G4xx_HAL_Driver/Src/stm32g4xx_hal_adc_ex.c ****   * @brief ADC Extended HAL module driver
  41:Drivers/STM32G4xx_HAL_Driver/Src/stm32g4xx_hal_adc_ex.c ****   * @{
  42:Drivers/STM32G4xx_HAL_Driver/Src/stm32g4xx_hal_adc_ex.c ****   */
  43:Drivers/STM32G4xx_HAL_Driver/Src/stm32g4xx_hal_adc_ex.c **** 
  44:Drivers/STM32G4xx_HAL_Driver/Src/stm32g4xx_hal_adc_ex.c **** #ifdef HAL_ADC_MODULE_ENABLED
  45:Drivers/STM32G4xx_HAL_Driver/Src/stm32g4xx_hal_adc_ex.c **** 
  46:Drivers/STM32G4xx_HAL_Driver/Src/stm32g4xx_hal_adc_ex.c **** /* Private typedef -----------------------------------------------------------*/
  47:Drivers/STM32G4xx_HAL_Driver/Src/stm32g4xx_hal_adc_ex.c **** /* Private define ------------------------------------------------------------*/
  48:Drivers/STM32G4xx_HAL_Driver/Src/stm32g4xx_hal_adc_ex.c **** 
  49:Drivers/STM32G4xx_HAL_Driver/Src/stm32g4xx_hal_adc_ex.c **** /** @defgroup ADCEx_Private_Constants ADC Extended Private Constants
  50:Drivers/STM32G4xx_HAL_Driver/Src/stm32g4xx_hal_adc_ex.c ****   * @{
  51:Drivers/STM32G4xx_HAL_Driver/Src/stm32g4xx_hal_adc_ex.c ****   */
  52:Drivers/STM32G4xx_HAL_Driver/Src/stm32g4xx_hal_adc_ex.c **** 
  53:Drivers/STM32G4xx_HAL_Driver/Src/stm32g4xx_hal_adc_ex.c **** #define ADC_JSQR_FIELDS      ((ADC_JSQR_JL | ADC_JSQR_JEXTSEL | ADC_JSQR_JEXTEN |\
  54:Drivers/STM32G4xx_HAL_Driver/Src/stm32g4xx_hal_adc_ex.c ****                                ADC_JSQR_JSQ1  | ADC_JSQR_JSQ2 |\
  55:Drivers/STM32G4xx_HAL_Driver/Src/stm32g4xx_hal_adc_ex.c ****                                ADC_JSQR_JSQ3 | ADC_JSQR_JSQ4 ))           /*!< ADC_JSQR fields of p
  56:Drivers/STM32G4xx_HAL_Driver/Src/stm32g4xx_hal_adc_ex.c ****                              be updated anytime once the ADC is enabled */
  57:Drivers/STM32G4xx_HAL_Driver/Src/stm32g4xx_hal_adc_ex.c **** 
  58:Drivers/STM32G4xx_HAL_Driver/Src/stm32g4xx_hal_adc_ex.c **** /* Fixed timeout value for ADC calibration.                                   */
  59:Drivers/STM32G4xx_HAL_Driver/Src/stm32g4xx_hal_adc_ex.c **** /* Values defined to be higher than worst cases: low clock frequency,         */
  60:Drivers/STM32G4xx_HAL_Driver/Src/stm32g4xx_hal_adc_ex.c **** /* maximum prescalers.                                                        */
  61:Drivers/STM32G4xx_HAL_Driver/Src/stm32g4xx_hal_adc_ex.c **** /* Ex of profile low frequency : f_ADC at f_CPU/3968 (minimum value           */
  62:Drivers/STM32G4xx_HAL_Driver/Src/stm32g4xx_hal_adc_ex.c **** /* considering both possible ADC clocking scheme:                             */
  63:Drivers/STM32G4xx_HAL_Driver/Src/stm32g4xx_hal_adc_ex.c **** /*        - ADC clock from synchronous clock with AHB prescaler 512,          */
  64:Drivers/STM32G4xx_HAL_Driver/Src/stm32g4xx_hal_adc_ex.c **** /*          ADC prescaler 4.                                                  */
  65:Drivers/STM32G4xx_HAL_Driver/Src/stm32g4xx_hal_adc_ex.c **** /*           Ratio max = 512 *4 = 2048                                        */
  66:Drivers/STM32G4xx_HAL_Driver/Src/stm32g4xx_hal_adc_ex.c **** /*        - ADC clock from asynchronous clock (PLLP) with prescaler 256.      */
  67:Drivers/STM32G4xx_HAL_Driver/Src/stm32g4xx_hal_adc_ex.c **** /*          Highest CPU clock PLL (PLLR).                                     */
  68:Drivers/STM32G4xx_HAL_Driver/Src/stm32g4xx_hal_adc_ex.c **** /*           Ratio max = PLLRmax /PPLPmin * 256 = (VCO/2) / (VCO/31) * 256    */
  69:Drivers/STM32G4xx_HAL_Driver/Src/stm32g4xx_hal_adc_ex.c **** /*                     = 3968 )                                               */
  70:Drivers/STM32G4xx_HAL_Driver/Src/stm32g4xx_hal_adc_ex.c **** /* Calibration_time MAX = 81 / f_ADC                                          */
  71:Drivers/STM32G4xx_HAL_Driver/Src/stm32g4xx_hal_adc_ex.c **** /*                      = 81 / (f_CPU/3938) = 318978 CPU cycles               */
  72:Drivers/STM32G4xx_HAL_Driver/Src/stm32g4xx_hal_adc_ex.c **** #define ADC_CALIBRATION_TIMEOUT         (318978UL)   /*!< ADC calibration time-out value (unit: CPU
  73:Drivers/STM32G4xx_HAL_Driver/Src/stm32g4xx_hal_adc_ex.c **** 
  74:Drivers/STM32G4xx_HAL_Driver/Src/stm32g4xx_hal_adc_ex.c **** /**
  75:Drivers/STM32G4xx_HAL_Driver/Src/stm32g4xx_hal_adc_ex.c ****   * @}
  76:Drivers/STM32G4xx_HAL_Driver/Src/stm32g4xx_hal_adc_ex.c ****   */
  77:Drivers/STM32G4xx_HAL_Driver/Src/stm32g4xx_hal_adc_ex.c **** 
  78:Drivers/STM32G4xx_HAL_Driver/Src/stm32g4xx_hal_adc_ex.c **** /* Private macro -------------------------------------------------------------*/
  79:Drivers/STM32G4xx_HAL_Driver/Src/stm32g4xx_hal_adc_ex.c **** /* Private variables ---------------------------------------------------------*/
  80:Drivers/STM32G4xx_HAL_Driver/Src/stm32g4xx_hal_adc_ex.c **** /* Private function prototypes -----------------------------------------------*/
  81:Drivers/STM32G4xx_HAL_Driver/Src/stm32g4xx_hal_adc_ex.c **** /* Exported functions --------------------------------------------------------*/
  82:Drivers/STM32G4xx_HAL_Driver/Src/stm32g4xx_hal_adc_ex.c **** 
  83:Drivers/STM32G4xx_HAL_Driver/Src/stm32g4xx_hal_adc_ex.c **** /** @defgroup ADCEx_Exported_Functions ADC Extended Exported Functions
  84:Drivers/STM32G4xx_HAL_Driver/Src/stm32g4xx_hal_adc_ex.c ****   * @{
  85:Drivers/STM32G4xx_HAL_Driver/Src/stm32g4xx_hal_adc_ex.c ****   */
  86:Drivers/STM32G4xx_HAL_Driver/Src/stm32g4xx_hal_adc_ex.c **** 
  87:Drivers/STM32G4xx_HAL_Driver/Src/stm32g4xx_hal_adc_ex.c **** /** @defgroup ADCEx_Exported_Functions_Group1 Extended Input and Output operation functions
ARM GAS   			page 3


  88:Drivers/STM32G4xx_HAL_Driver/Src/stm32g4xx_hal_adc_ex.c ****   * @brief    Extended IO operation functions
  89:Drivers/STM32G4xx_HAL_Driver/Src/stm32g4xx_hal_adc_ex.c ****   *
  90:Drivers/STM32G4xx_HAL_Driver/Src/stm32g4xx_hal_adc_ex.c **** @verbatim
  91:Drivers/STM32G4xx_HAL_Driver/Src/stm32g4xx_hal_adc_ex.c ****  ===============================================================================
  92:Drivers/STM32G4xx_HAL_Driver/Src/stm32g4xx_hal_adc_ex.c ****                       ##### IO operation functions #####
  93:Drivers/STM32G4xx_HAL_Driver/Src/stm32g4xx_hal_adc_ex.c ****  ===============================================================================
  94:Drivers/STM32G4xx_HAL_Driver/Src/stm32g4xx_hal_adc_ex.c ****     [..]  This section provides functions allowing to:
  95:Drivers/STM32G4xx_HAL_Driver/Src/stm32g4xx_hal_adc_ex.c **** 
  96:Drivers/STM32G4xx_HAL_Driver/Src/stm32g4xx_hal_adc_ex.c ****       (+) Perform the ADC self-calibration for single or differential ending.
  97:Drivers/STM32G4xx_HAL_Driver/Src/stm32g4xx_hal_adc_ex.c ****       (+) Get calibration factors for single or differential ending.
  98:Drivers/STM32G4xx_HAL_Driver/Src/stm32g4xx_hal_adc_ex.c ****       (+) Set calibration factors for single or differential ending.
  99:Drivers/STM32G4xx_HAL_Driver/Src/stm32g4xx_hal_adc_ex.c **** 
 100:Drivers/STM32G4xx_HAL_Driver/Src/stm32g4xx_hal_adc_ex.c ****       (+) Start conversion of ADC group injected.
 101:Drivers/STM32G4xx_HAL_Driver/Src/stm32g4xx_hal_adc_ex.c ****       (+) Stop conversion of ADC group injected.
 102:Drivers/STM32G4xx_HAL_Driver/Src/stm32g4xx_hal_adc_ex.c ****       (+) Poll for conversion complete on ADC group injected.
 103:Drivers/STM32G4xx_HAL_Driver/Src/stm32g4xx_hal_adc_ex.c ****       (+) Get result of ADC group injected channel conversion.
 104:Drivers/STM32G4xx_HAL_Driver/Src/stm32g4xx_hal_adc_ex.c ****       (+) Start conversion of ADC group injected and enable interruptions.
 105:Drivers/STM32G4xx_HAL_Driver/Src/stm32g4xx_hal_adc_ex.c ****       (+) Stop conversion of ADC group injected and disable interruptions.
 106:Drivers/STM32G4xx_HAL_Driver/Src/stm32g4xx_hal_adc_ex.c **** 
 107:Drivers/STM32G4xx_HAL_Driver/Src/stm32g4xx_hal_adc_ex.c ****       (+) When multimode feature is available, start multimode and enable DMA transfer.
 108:Drivers/STM32G4xx_HAL_Driver/Src/stm32g4xx_hal_adc_ex.c ****       (+) Stop multimode and disable ADC DMA transfer.
 109:Drivers/STM32G4xx_HAL_Driver/Src/stm32g4xx_hal_adc_ex.c ****       (+) Get result of multimode conversion.
 110:Drivers/STM32G4xx_HAL_Driver/Src/stm32g4xx_hal_adc_ex.c **** 
 111:Drivers/STM32G4xx_HAL_Driver/Src/stm32g4xx_hal_adc_ex.c **** @endverbatim
 112:Drivers/STM32G4xx_HAL_Driver/Src/stm32g4xx_hal_adc_ex.c ****   * @{
 113:Drivers/STM32G4xx_HAL_Driver/Src/stm32g4xx_hal_adc_ex.c ****   */
 114:Drivers/STM32G4xx_HAL_Driver/Src/stm32g4xx_hal_adc_ex.c **** 
 115:Drivers/STM32G4xx_HAL_Driver/Src/stm32g4xx_hal_adc_ex.c **** /**
 116:Drivers/STM32G4xx_HAL_Driver/Src/stm32g4xx_hal_adc_ex.c ****   * @brief  Perform an ADC automatic self-calibration
 117:Drivers/STM32G4xx_HAL_Driver/Src/stm32g4xx_hal_adc_ex.c ****   *         Calibration prerequisite: ADC must be disabled (execute this
 118:Drivers/STM32G4xx_HAL_Driver/Src/stm32g4xx_hal_adc_ex.c ****   *         function before HAL_ADC_Start() or after HAL_ADC_Stop() ).
 119:Drivers/STM32G4xx_HAL_Driver/Src/stm32g4xx_hal_adc_ex.c ****   * @param  hadc       ADC handle
 120:Drivers/STM32G4xx_HAL_Driver/Src/stm32g4xx_hal_adc_ex.c ****   * @param  SingleDiff Selection of single-ended or differential input
 121:Drivers/STM32G4xx_HAL_Driver/Src/stm32g4xx_hal_adc_ex.c ****   *         This parameter can be one of the following values:
 122:Drivers/STM32G4xx_HAL_Driver/Src/stm32g4xx_hal_adc_ex.c ****   *           @arg @ref ADC_SINGLE_ENDED       Channel in mode input single ended
 123:Drivers/STM32G4xx_HAL_Driver/Src/stm32g4xx_hal_adc_ex.c ****   *           @arg @ref ADC_DIFFERENTIAL_ENDED Channel in mode input differential ended
 124:Drivers/STM32G4xx_HAL_Driver/Src/stm32g4xx_hal_adc_ex.c ****   * @retval HAL status
 125:Drivers/STM32G4xx_HAL_Driver/Src/stm32g4xx_hal_adc_ex.c ****   */
 126:Drivers/STM32G4xx_HAL_Driver/Src/stm32g4xx_hal_adc_ex.c **** HAL_StatusTypeDef HAL_ADCEx_Calibration_Start(ADC_HandleTypeDef *hadc, uint32_t SingleDiff)
 127:Drivers/STM32G4xx_HAL_Driver/Src/stm32g4xx_hal_adc_ex.c **** {
  29              	 .loc 1 127 1 view-0
  30              	 .cfi_startproc
  31              	 
  32              	 
 128:Drivers/STM32G4xx_HAL_Driver/Src/stm32g4xx_hal_adc_ex.c ****   HAL_StatusTypeDef tmp_hal_status;
  33              	 .loc 1 128 3 view .LVU1
 129:Drivers/STM32G4xx_HAL_Driver/Src/stm32g4xx_hal_adc_ex.c ****   __IO uint32_t wait_loop_index = 0UL;
  34              	 .loc 1 129 3 view .LVU2
 127:Drivers/STM32G4xx_HAL_Driver/Src/stm32g4xx_hal_adc_ex.c ****   HAL_StatusTypeDef tmp_hal_status;
  35              	 .loc 1 127 1 is_stmt 0 view .LVU3
  36 0000 30B5     	 push {r4,r5,lr}
  37              	 .cfi_def_cfa_offset 12
  38              	 .cfi_offset 4,-12
  39              	 .cfi_offset 5,-8
  40              	 .cfi_offset 14,-4
 130:Drivers/STM32G4xx_HAL_Driver/Src/stm32g4xx_hal_adc_ex.c **** 
 131:Drivers/STM32G4xx_HAL_Driver/Src/stm32g4xx_hal_adc_ex.c ****   /* Check the parameters */
ARM GAS   			page 4


 132:Drivers/STM32G4xx_HAL_Driver/Src/stm32g4xx_hal_adc_ex.c ****   assert_param(IS_ADC_ALL_INSTANCE(hadc->Instance));
 133:Drivers/STM32G4xx_HAL_Driver/Src/stm32g4xx_hal_adc_ex.c ****   assert_param(IS_ADC_SINGLE_DIFFERENTIAL(SingleDiff));
 134:Drivers/STM32G4xx_HAL_Driver/Src/stm32g4xx_hal_adc_ex.c **** 
 135:Drivers/STM32G4xx_HAL_Driver/Src/stm32g4xx_hal_adc_ex.c ****   /* Process locked */
 136:Drivers/STM32G4xx_HAL_Driver/Src/stm32g4xx_hal_adc_ex.c ****   __HAL_LOCK(hadc);
  41              	 .loc 1 136 3 view .LVU4
  42 0002 90F85830 	 ldrb r3,[r0,#88]
 127:Drivers/STM32G4xx_HAL_Driver/Src/stm32g4xx_hal_adc_ex.c ****   HAL_StatusTypeDef tmp_hal_status;
  43              	 .loc 1 127 1 view .LVU5
  44 0006 83B0     	 sub sp,sp,#12
  45              	 .cfi_def_cfa_offset 24
 129:Drivers/STM32G4xx_HAL_Driver/Src/stm32g4xx_hal_adc_ex.c **** 
  46              	 .loc 1 129 17 view .LVU6
  47 0008 0022     	 movs r2,#0
  48              	 .loc 1 136 3 view .LVU7
  49 000a 012B     	 cmp r3,#1
 129:Drivers/STM32G4xx_HAL_Driver/Src/stm32g4xx_hal_adc_ex.c **** 
  50              	 .loc 1 129 17 view .LVU8
  51 000c 0192     	 str r2,[sp,#4]
 132:Drivers/STM32G4xx_HAL_Driver/Src/stm32g4xx_hal_adc_ex.c ****   assert_param(IS_ADC_SINGLE_DIFFERENTIAL(SingleDiff));
  52              	 .loc 1 132 3 is_stmt 1 view .LVU9
 133:Drivers/STM32G4xx_HAL_Driver/Src/stm32g4xx_hal_adc_ex.c **** 
  53              	 .loc 1 133 3 view .LVU10
  54              	 .loc 1 136 3 view .LVU11
  55              	 .loc 1 136 3 view .LVU12
  56 000e 3FD0     	 beq .L8
  57              	 .loc 1 136 3 discriminator 2 view .LVU13
  58 0010 0123     	 movs r3,#1
  59 0012 80F85830 	 strb r3,[r0,#88]
  60              	 .loc 1 136 3 discriminator 2 view .LVU14
 137:Drivers/STM32G4xx_HAL_Driver/Src/stm32g4xx_hal_adc_ex.c **** 
 138:Drivers/STM32G4xx_HAL_Driver/Src/stm32g4xx_hal_adc_ex.c ****   /* Calibration prerequisite: ADC must be disabled. */
 139:Drivers/STM32G4xx_HAL_Driver/Src/stm32g4xx_hal_adc_ex.c **** 
 140:Drivers/STM32G4xx_HAL_Driver/Src/stm32g4xx_hal_adc_ex.c ****   /* Disable the ADC (if not already disabled) */
 141:Drivers/STM32G4xx_HAL_Driver/Src/stm32g4xx_hal_adc_ex.c ****   tmp_hal_status = ADC_Disable(hadc);
  61              	 .loc 1 141 3 view .LVU15
  62 0016 0446     	 mov r4,r0
  63 0018 0D46     	 mov r5,r1
  64              	 .loc 1 141 20 is_stmt 0 view .LVU16
  65 001a FFF7FEFF 	 bl ADC_Disable
  66              	.LVL1:
 142:Drivers/STM32G4xx_HAL_Driver/Src/stm32g4xx_hal_adc_ex.c **** 
 143:Drivers/STM32G4xx_HAL_Driver/Src/stm32g4xx_hal_adc_ex.c ****   /* Check if ADC is effectively disabled */
 144:Drivers/STM32G4xx_HAL_Driver/Src/stm32g4xx_hal_adc_ex.c ****   if (tmp_hal_status == HAL_OK)
  67              	 .loc 1 144 3 is_stmt 1 view .LVU17
 145:Drivers/STM32G4xx_HAL_Driver/Src/stm32g4xx_hal_adc_ex.c ****   {
 146:Drivers/STM32G4xx_HAL_Driver/Src/stm32g4xx_hal_adc_ex.c ****     /* Set ADC state */
 147:Drivers/STM32G4xx_HAL_Driver/Src/stm32g4xx_hal_adc_ex.c ****     ADC_STATE_CLR_SET(hadc->State,
  68              	 .loc 1 147 5 is_stmt 0 view .LVU18
  69 001e E36D     	 ldr r3,[r4,#92]
 144:Drivers/STM32G4xx_HAL_Driver/Src/stm32g4xx_hal_adc_ex.c ****   {
  70              	 .loc 1 144 6 view .LVU19
  71 0020 E8B9     	 cbnz r0,.L3
  72              	 .loc 1 147 5 is_stmt 1 view .LVU20
  73 0022 23F48853 	 bic r3,r3,#4352
  74 0026 23F00203 	 bic r3,r3,#2
 148:Drivers/STM32G4xx_HAL_Driver/Src/stm32g4xx_hal_adc_ex.c ****                       HAL_ADC_STATE_REG_BUSY | HAL_ADC_STATE_INJ_BUSY,
ARM GAS   			page 5


 149:Drivers/STM32G4xx_HAL_Driver/Src/stm32g4xx_hal_adc_ex.c ****                       HAL_ADC_STATE_BUSY_INTERNAL);
 150:Drivers/STM32G4xx_HAL_Driver/Src/stm32g4xx_hal_adc_ex.c **** 
 151:Drivers/STM32G4xx_HAL_Driver/Src/stm32g4xx_hal_adc_ex.c ****     /* Start ADC calibration in mode single-ended or differential */
 152:Drivers/STM32G4xx_HAL_Driver/Src/stm32g4xx_hal_adc_ex.c ****     LL_ADC_StartCalibration(hadc->Instance, SingleDiff);
  75              	 .loc 1 152 5 is_stmt 0 view .LVU21
  76 002a 2268     	 ldr r2,[r4]
 147:Drivers/STM32G4xx_HAL_Driver/Src/stm32g4xx_hal_adc_ex.c ****                       HAL_ADC_STATE_REG_BUSY | HAL_ADC_STATE_INJ_BUSY,
  77              	 .loc 1 147 5 view .LVU22
  78 002c 43F00203 	 orr r3,r3,#2
  79 0030 E365     	 str r3,[r4,#92]
  80              	 .loc 1 152 5 is_stmt 1 view .LVU23
  81              	.LVL2:
  82              	.LBB304:
  83              	.LBI304:
  84              	 .file 2 "Drivers/STM32G4xx_HAL_Driver/Inc/stm32g4xx_ll_adc.h"
   1:Drivers/STM32G4xx_HAL_Driver/Inc/stm32g4xx_ll_adc.h **** /**
   2:Drivers/STM32G4xx_HAL_Driver/Inc/stm32g4xx_ll_adc.h ****   ******************************************************************************
   3:Drivers/STM32G4xx_HAL_Driver/Inc/stm32g4xx_ll_adc.h ****   * @file    stm32g4xx_ll_adc.h
   4:Drivers/STM32G4xx_HAL_Driver/Inc/stm32g4xx_ll_adc.h ****   * @author  MCD Application Team
   5:Drivers/STM32G4xx_HAL_Driver/Inc/stm32g4xx_ll_adc.h ****   * @brief   Header file of ADC LL module.
   6:Drivers/STM32G4xx_HAL_Driver/Inc/stm32g4xx_ll_adc.h ****   ******************************************************************************
   7:Drivers/STM32G4xx_HAL_Driver/Inc/stm32g4xx_ll_adc.h ****   * @attention
   8:Drivers/STM32G4xx_HAL_Driver/Inc/stm32g4xx_ll_adc.h ****   *
   9:Drivers/STM32G4xx_HAL_Driver/Inc/stm32g4xx_ll_adc.h ****   * Copyright (c) 2019 STMicroelectronics.
  10:Drivers/STM32G4xx_HAL_Driver/Inc/stm32g4xx_ll_adc.h ****   * All rights reserved.
  11:Drivers/STM32G4xx_HAL_Driver/Inc/stm32g4xx_ll_adc.h ****   *
  12:Drivers/STM32G4xx_HAL_Driver/Inc/stm32g4xx_ll_adc.h ****   * This software is licensed under terms that can be found in the LICENSE file
  13:Drivers/STM32G4xx_HAL_Driver/Inc/stm32g4xx_ll_adc.h ****   * in the root directory of this software component.
  14:Drivers/STM32G4xx_HAL_Driver/Inc/stm32g4xx_ll_adc.h ****   * If no LICENSE file comes with this software, it is provided AS-IS.
  15:Drivers/STM32G4xx_HAL_Driver/Inc/stm32g4xx_ll_adc.h ****   *
  16:Drivers/STM32G4xx_HAL_Driver/Inc/stm32g4xx_ll_adc.h ****   ******************************************************************************
  17:Drivers/STM32G4xx_HAL_Driver/Inc/stm32g4xx_ll_adc.h ****   */
  18:Drivers/STM32G4xx_HAL_Driver/Inc/stm32g4xx_ll_adc.h **** 
  19:Drivers/STM32G4xx_HAL_Driver/Inc/stm32g4xx_ll_adc.h **** /* Define to prevent recursive inclusion -------------------------------------*/
  20:Drivers/STM32G4xx_HAL_Driver/Inc/stm32g4xx_ll_adc.h **** #ifndef STM32G4xx_LL_ADC_H
  21:Drivers/STM32G4xx_HAL_Driver/Inc/stm32g4xx_ll_adc.h **** #define STM32G4xx_LL_ADC_H
  22:Drivers/STM32G4xx_HAL_Driver/Inc/stm32g4xx_ll_adc.h **** 
  23:Drivers/STM32G4xx_HAL_Driver/Inc/stm32g4xx_ll_adc.h **** #ifdef __cplusplus
  24:Drivers/STM32G4xx_HAL_Driver/Inc/stm32g4xx_ll_adc.h **** extern "C" {
  25:Drivers/STM32G4xx_HAL_Driver/Inc/stm32g4xx_ll_adc.h **** #endif
  26:Drivers/STM32G4xx_HAL_Driver/Inc/stm32g4xx_ll_adc.h **** 
  27:Drivers/STM32G4xx_HAL_Driver/Inc/stm32g4xx_ll_adc.h **** /* Includes ------------------------------------------------------------------*/
  28:Drivers/STM32G4xx_HAL_Driver/Inc/stm32g4xx_ll_adc.h **** #include "stm32g4xx.h"
  29:Drivers/STM32G4xx_HAL_Driver/Inc/stm32g4xx_ll_adc.h **** 
  30:Drivers/STM32G4xx_HAL_Driver/Inc/stm32g4xx_ll_adc.h **** /** @addtogroup STM32G4xx_LL_Driver
  31:Drivers/STM32G4xx_HAL_Driver/Inc/stm32g4xx_ll_adc.h ****   * @{
  32:Drivers/STM32G4xx_HAL_Driver/Inc/stm32g4xx_ll_adc.h ****   */
  33:Drivers/STM32G4xx_HAL_Driver/Inc/stm32g4xx_ll_adc.h **** 
  34:Drivers/STM32G4xx_HAL_Driver/Inc/stm32g4xx_ll_adc.h **** #if defined (ADC1) || defined (ADC2) || defined (ADC3) || defined (ADC4) || defined (ADC5)
  35:Drivers/STM32G4xx_HAL_Driver/Inc/stm32g4xx_ll_adc.h **** 
  36:Drivers/STM32G4xx_HAL_Driver/Inc/stm32g4xx_ll_adc.h **** /** @defgroup ADC_LL ADC
  37:Drivers/STM32G4xx_HAL_Driver/Inc/stm32g4xx_ll_adc.h ****   * @{
  38:Drivers/STM32G4xx_HAL_Driver/Inc/stm32g4xx_ll_adc.h ****   */
  39:Drivers/STM32G4xx_HAL_Driver/Inc/stm32g4xx_ll_adc.h **** 
  40:Drivers/STM32G4xx_HAL_Driver/Inc/stm32g4xx_ll_adc.h **** /* Private types -------------------------------------------------------------*/
  41:Drivers/STM32G4xx_HAL_Driver/Inc/stm32g4xx_ll_adc.h **** /* Private variables ---------------------------------------------------------*/
  42:Drivers/STM32G4xx_HAL_Driver/Inc/stm32g4xx_ll_adc.h **** 
ARM GAS   			page 6


  43:Drivers/STM32G4xx_HAL_Driver/Inc/stm32g4xx_ll_adc.h **** /* Private constants ---------------------------------------------------------*/
  44:Drivers/STM32G4xx_HAL_Driver/Inc/stm32g4xx_ll_adc.h **** /** @defgroup ADC_LL_Private_Constants ADC Private Constants
  45:Drivers/STM32G4xx_HAL_Driver/Inc/stm32g4xx_ll_adc.h ****   * @{
  46:Drivers/STM32G4xx_HAL_Driver/Inc/stm32g4xx_ll_adc.h ****   */
  47:Drivers/STM32G4xx_HAL_Driver/Inc/stm32g4xx_ll_adc.h **** 
  48:Drivers/STM32G4xx_HAL_Driver/Inc/stm32g4xx_ll_adc.h **** /* Internal mask for ADC group regular sequencer:                             */
  49:Drivers/STM32G4xx_HAL_Driver/Inc/stm32g4xx_ll_adc.h **** /* To select into literal LL_ADC_REG_RANK_x the relevant bits for:            */
  50:Drivers/STM32G4xx_HAL_Driver/Inc/stm32g4xx_ll_adc.h **** /* - sequencer register offset                                                */
  51:Drivers/STM32G4xx_HAL_Driver/Inc/stm32g4xx_ll_adc.h **** /* - sequencer rank bits position into the selected register                  */
  52:Drivers/STM32G4xx_HAL_Driver/Inc/stm32g4xx_ll_adc.h **** 
  53:Drivers/STM32G4xx_HAL_Driver/Inc/stm32g4xx_ll_adc.h **** /* Internal register offset for ADC group regular sequencer configuration */
  54:Drivers/STM32G4xx_HAL_Driver/Inc/stm32g4xx_ll_adc.h **** /* (offset placed into a spare area of literal definition) */
  55:Drivers/STM32G4xx_HAL_Driver/Inc/stm32g4xx_ll_adc.h **** #define ADC_SQR1_REGOFFSET                 (0x00000000UL)
  56:Drivers/STM32G4xx_HAL_Driver/Inc/stm32g4xx_ll_adc.h **** #define ADC_SQR2_REGOFFSET                 (0x00000100UL)
  57:Drivers/STM32G4xx_HAL_Driver/Inc/stm32g4xx_ll_adc.h **** #define ADC_SQR3_REGOFFSET                 (0x00000200UL)
  58:Drivers/STM32G4xx_HAL_Driver/Inc/stm32g4xx_ll_adc.h **** #define ADC_SQR4_REGOFFSET                 (0x00000300UL)
  59:Drivers/STM32G4xx_HAL_Driver/Inc/stm32g4xx_ll_adc.h **** 
  60:Drivers/STM32G4xx_HAL_Driver/Inc/stm32g4xx_ll_adc.h **** #define ADC_REG_SQRX_REGOFFSET_MASK        (ADC_SQR1_REGOFFSET | ADC_SQR2_REGOFFSET \
  61:Drivers/STM32G4xx_HAL_Driver/Inc/stm32g4xx_ll_adc.h ****                                             | ADC_SQR3_REGOFFSET | ADC_SQR4_REGOFFSET)
  62:Drivers/STM32G4xx_HAL_Driver/Inc/stm32g4xx_ll_adc.h **** #define ADC_SQRX_REGOFFSET_POS             (8UL) /* Position of bits ADC_SQRx_REGOFFSET in ADC_REG_
  63:Drivers/STM32G4xx_HAL_Driver/Inc/stm32g4xx_ll_adc.h **** #define ADC_REG_RANK_ID_SQRX_MASK          (ADC_CHANNEL_ID_NUMBER_MASK_POSBIT0)
  64:Drivers/STM32G4xx_HAL_Driver/Inc/stm32g4xx_ll_adc.h **** 
  65:Drivers/STM32G4xx_HAL_Driver/Inc/stm32g4xx_ll_adc.h **** /* Definition of ADC group regular sequencer bits information to be inserted  */
  66:Drivers/STM32G4xx_HAL_Driver/Inc/stm32g4xx_ll_adc.h **** /* into ADC group regular sequencer ranks literals definition.                */
  67:Drivers/STM32G4xx_HAL_Driver/Inc/stm32g4xx_ll_adc.h **** #define ADC_REG_RANK_1_SQRX_BITOFFSET_POS  (ADC_SQR1_SQ1_Pos)
  68:Drivers/STM32G4xx_HAL_Driver/Inc/stm32g4xx_ll_adc.h **** #define ADC_REG_RANK_2_SQRX_BITOFFSET_POS  (ADC_SQR1_SQ2_Pos)
  69:Drivers/STM32G4xx_HAL_Driver/Inc/stm32g4xx_ll_adc.h **** #define ADC_REG_RANK_3_SQRX_BITOFFSET_POS  (ADC_SQR1_SQ3_Pos)
  70:Drivers/STM32G4xx_HAL_Driver/Inc/stm32g4xx_ll_adc.h **** #define ADC_REG_RANK_4_SQRX_BITOFFSET_POS  (ADC_SQR1_SQ4_Pos)
  71:Drivers/STM32G4xx_HAL_Driver/Inc/stm32g4xx_ll_adc.h **** #define ADC_REG_RANK_5_SQRX_BITOFFSET_POS  (ADC_SQR2_SQ5_Pos)
  72:Drivers/STM32G4xx_HAL_Driver/Inc/stm32g4xx_ll_adc.h **** #define ADC_REG_RANK_6_SQRX_BITOFFSET_POS  (ADC_SQR2_SQ6_Pos)
  73:Drivers/STM32G4xx_HAL_Driver/Inc/stm32g4xx_ll_adc.h **** #define ADC_REG_RANK_7_SQRX_BITOFFSET_POS  (ADC_SQR2_SQ7_Pos)
  74:Drivers/STM32G4xx_HAL_Driver/Inc/stm32g4xx_ll_adc.h **** #define ADC_REG_RANK_8_SQRX_BITOFFSET_POS  (ADC_SQR2_SQ8_Pos)
  75:Drivers/STM32G4xx_HAL_Driver/Inc/stm32g4xx_ll_adc.h **** #define ADC_REG_RANK_9_SQRX_BITOFFSET_POS  (ADC_SQR2_SQ9_Pos)
  76:Drivers/STM32G4xx_HAL_Driver/Inc/stm32g4xx_ll_adc.h **** #define ADC_REG_RANK_10_SQRX_BITOFFSET_POS (ADC_SQR3_SQ10_Pos)
  77:Drivers/STM32G4xx_HAL_Driver/Inc/stm32g4xx_ll_adc.h **** #define ADC_REG_RANK_11_SQRX_BITOFFSET_POS (ADC_SQR3_SQ11_Pos)
  78:Drivers/STM32G4xx_HAL_Driver/Inc/stm32g4xx_ll_adc.h **** #define ADC_REG_RANK_12_SQRX_BITOFFSET_POS (ADC_SQR3_SQ12_Pos)
  79:Drivers/STM32G4xx_HAL_Driver/Inc/stm32g4xx_ll_adc.h **** #define ADC_REG_RANK_13_SQRX_BITOFFSET_POS (ADC_SQR3_SQ13_Pos)
  80:Drivers/STM32G4xx_HAL_Driver/Inc/stm32g4xx_ll_adc.h **** #define ADC_REG_RANK_14_SQRX_BITOFFSET_POS (ADC_SQR3_SQ14_Pos)
  81:Drivers/STM32G4xx_HAL_Driver/Inc/stm32g4xx_ll_adc.h **** #define ADC_REG_RANK_15_SQRX_BITOFFSET_POS (ADC_SQR4_SQ15_Pos)
  82:Drivers/STM32G4xx_HAL_Driver/Inc/stm32g4xx_ll_adc.h **** #define ADC_REG_RANK_16_SQRX_BITOFFSET_POS (ADC_SQR4_SQ16_Pos)
  83:Drivers/STM32G4xx_HAL_Driver/Inc/stm32g4xx_ll_adc.h **** 
  84:Drivers/STM32G4xx_HAL_Driver/Inc/stm32g4xx_ll_adc.h **** 
  85:Drivers/STM32G4xx_HAL_Driver/Inc/stm32g4xx_ll_adc.h **** 
  86:Drivers/STM32G4xx_HAL_Driver/Inc/stm32g4xx_ll_adc.h **** /* Internal mask for ADC group injected sequencer:                            */
  87:Drivers/STM32G4xx_HAL_Driver/Inc/stm32g4xx_ll_adc.h **** /* To select into literal LL_ADC_INJ_RANK_x the relevant bits for:            */
  88:Drivers/STM32G4xx_HAL_Driver/Inc/stm32g4xx_ll_adc.h **** /* - data register offset                                                     */
  89:Drivers/STM32G4xx_HAL_Driver/Inc/stm32g4xx_ll_adc.h **** /* - sequencer rank bits position into the selected register                  */
  90:Drivers/STM32G4xx_HAL_Driver/Inc/stm32g4xx_ll_adc.h **** 
  91:Drivers/STM32G4xx_HAL_Driver/Inc/stm32g4xx_ll_adc.h **** /* Internal register offset for ADC group injected data register */
  92:Drivers/STM32G4xx_HAL_Driver/Inc/stm32g4xx_ll_adc.h **** /* (offset placed into a spare area of literal definition) */
  93:Drivers/STM32G4xx_HAL_Driver/Inc/stm32g4xx_ll_adc.h **** #define ADC_JDR1_REGOFFSET                 (0x00000000UL)
  94:Drivers/STM32G4xx_HAL_Driver/Inc/stm32g4xx_ll_adc.h **** #define ADC_JDR2_REGOFFSET                 (0x00000100UL)
  95:Drivers/STM32G4xx_HAL_Driver/Inc/stm32g4xx_ll_adc.h **** #define ADC_JDR3_REGOFFSET                 (0x00000200UL)
  96:Drivers/STM32G4xx_HAL_Driver/Inc/stm32g4xx_ll_adc.h **** #define ADC_JDR4_REGOFFSET                 (0x00000300UL)
  97:Drivers/STM32G4xx_HAL_Driver/Inc/stm32g4xx_ll_adc.h **** 
  98:Drivers/STM32G4xx_HAL_Driver/Inc/stm32g4xx_ll_adc.h **** #define ADC_INJ_JDRX_REGOFFSET_MASK        (ADC_JDR1_REGOFFSET | ADC_JDR2_REGOFFSET \
  99:Drivers/STM32G4xx_HAL_Driver/Inc/stm32g4xx_ll_adc.h ****                                             | ADC_JDR3_REGOFFSET | ADC_JDR4_REGOFFSET)
ARM GAS   			page 7


 100:Drivers/STM32G4xx_HAL_Driver/Inc/stm32g4xx_ll_adc.h **** #define ADC_INJ_RANK_ID_JSQR_MASK          (ADC_CHANNEL_ID_NUMBER_MASK_POSBIT0)
 101:Drivers/STM32G4xx_HAL_Driver/Inc/stm32g4xx_ll_adc.h **** #define ADC_JDRX_REGOFFSET_POS             (8UL) /* Position of bits ADC_JDRx_REGOFFSET in ADC_INJ_
 102:Drivers/STM32G4xx_HAL_Driver/Inc/stm32g4xx_ll_adc.h **** 
 103:Drivers/STM32G4xx_HAL_Driver/Inc/stm32g4xx_ll_adc.h **** /* Definition of ADC group injected sequencer bits information to be inserted */
 104:Drivers/STM32G4xx_HAL_Driver/Inc/stm32g4xx_ll_adc.h **** /* into ADC group injected sequencer ranks literals definition.               */
 105:Drivers/STM32G4xx_HAL_Driver/Inc/stm32g4xx_ll_adc.h **** #define ADC_INJ_RANK_1_JSQR_BITOFFSET_POS  (ADC_JSQR_JSQ1_Pos)
 106:Drivers/STM32G4xx_HAL_Driver/Inc/stm32g4xx_ll_adc.h **** #define ADC_INJ_RANK_2_JSQR_BITOFFSET_POS  (ADC_JSQR_JSQ2_Pos)
 107:Drivers/STM32G4xx_HAL_Driver/Inc/stm32g4xx_ll_adc.h **** #define ADC_INJ_RANK_3_JSQR_BITOFFSET_POS  (ADC_JSQR_JSQ3_Pos)
 108:Drivers/STM32G4xx_HAL_Driver/Inc/stm32g4xx_ll_adc.h **** #define ADC_INJ_RANK_4_JSQR_BITOFFSET_POS  (ADC_JSQR_JSQ4_Pos)
 109:Drivers/STM32G4xx_HAL_Driver/Inc/stm32g4xx_ll_adc.h **** 
 110:Drivers/STM32G4xx_HAL_Driver/Inc/stm32g4xx_ll_adc.h **** 
 111:Drivers/STM32G4xx_HAL_Driver/Inc/stm32g4xx_ll_adc.h **** 
 112:Drivers/STM32G4xx_HAL_Driver/Inc/stm32g4xx_ll_adc.h **** /* Internal mask for ADC group regular trigger:                               */
 113:Drivers/STM32G4xx_HAL_Driver/Inc/stm32g4xx_ll_adc.h **** /* To select into literal LL_ADC_REG_TRIG_x the relevant bits for:            */
 114:Drivers/STM32G4xx_HAL_Driver/Inc/stm32g4xx_ll_adc.h **** /* - regular trigger source                                                   */
 115:Drivers/STM32G4xx_HAL_Driver/Inc/stm32g4xx_ll_adc.h **** /* - regular trigger edge                                                     */
 116:Drivers/STM32G4xx_HAL_Driver/Inc/stm32g4xx_ll_adc.h **** #define ADC_REG_TRIG_EXT_EDGE_DEFAULT      (ADC_CFGR_EXTEN_0) /* Trigger edge set to rising edge (d
 117:Drivers/STM32G4xx_HAL_Driver/Inc/stm32g4xx_ll_adc.h ****                                                                  compatibility with some ADC on oth
 118:Drivers/STM32G4xx_HAL_Driver/Inc/stm32g4xx_ll_adc.h ****                                                                  having this setting set by HW defa
 119:Drivers/STM32G4xx_HAL_Driver/Inc/stm32g4xx_ll_adc.h **** 
 120:Drivers/STM32G4xx_HAL_Driver/Inc/stm32g4xx_ll_adc.h **** /* Mask containing trigger source masks for each of possible                  */
 121:Drivers/STM32G4xx_HAL_Driver/Inc/stm32g4xx_ll_adc.h **** /* trigger edge selection duplicated with shifts [0; 4; 8; 12]                */
 122:Drivers/STM32G4xx_HAL_Driver/Inc/stm32g4xx_ll_adc.h **** /* corresponding to {SW start; ext trigger; ext trigger; ext trigger}.        */
 123:Drivers/STM32G4xx_HAL_Driver/Inc/stm32g4xx_ll_adc.h **** #define ADC_REG_TRIG_SOURCE_MASK           (((LL_ADC_REG_TRIG_SOFTWARE & ADC_CFGR_EXTSEL) << (4U * 
 124:Drivers/STM32G4xx_HAL_Driver/Inc/stm32g4xx_ll_adc.h ****                                             ((ADC_CFGR_EXTSEL)                            << (4U * 
 125:Drivers/STM32G4xx_HAL_Driver/Inc/stm32g4xx_ll_adc.h ****                                             ((ADC_CFGR_EXTSEL)                            << (4U * 
 126:Drivers/STM32G4xx_HAL_Driver/Inc/stm32g4xx_ll_adc.h ****                                             ((ADC_CFGR_EXTSEL)                            << (4U * 
 127:Drivers/STM32G4xx_HAL_Driver/Inc/stm32g4xx_ll_adc.h **** 
 128:Drivers/STM32G4xx_HAL_Driver/Inc/stm32g4xx_ll_adc.h **** /* Mask containing trigger edge masks for each of possible                    */
 129:Drivers/STM32G4xx_HAL_Driver/Inc/stm32g4xx_ll_adc.h **** /* trigger edge selection duplicated with shifts [0; 4; 8; 12]                */
 130:Drivers/STM32G4xx_HAL_Driver/Inc/stm32g4xx_ll_adc.h **** /* corresponding to {SW start; ext trigger; ext trigger; ext trigger}.        */
 131:Drivers/STM32G4xx_HAL_Driver/Inc/stm32g4xx_ll_adc.h **** #define ADC_REG_TRIG_EDGE_MASK             (((LL_ADC_REG_TRIG_SOFTWARE & ADC_CFGR_EXTEN) << (4U * 0
 132:Drivers/STM32G4xx_HAL_Driver/Inc/stm32g4xx_ll_adc.h ****                                             ((ADC_REG_TRIG_EXT_EDGE_DEFAULT)             << (4U * 1
 133:Drivers/STM32G4xx_HAL_Driver/Inc/stm32g4xx_ll_adc.h ****                                             ((ADC_REG_TRIG_EXT_EDGE_DEFAULT)             << (4U * 2
 134:Drivers/STM32G4xx_HAL_Driver/Inc/stm32g4xx_ll_adc.h ****                                             ((ADC_REG_TRIG_EXT_EDGE_DEFAULT)             << (4U * 3
 135:Drivers/STM32G4xx_HAL_Driver/Inc/stm32g4xx_ll_adc.h **** 
 136:Drivers/STM32G4xx_HAL_Driver/Inc/stm32g4xx_ll_adc.h **** /* Definition of ADC group regular trigger bits information.                  */
 137:Drivers/STM32G4xx_HAL_Driver/Inc/stm32g4xx_ll_adc.h **** #define ADC_REG_TRIG_EXTSEL_BITOFFSET_POS  (ADC_CFGR_EXTSEL_Pos)
 138:Drivers/STM32G4xx_HAL_Driver/Inc/stm32g4xx_ll_adc.h **** #define ADC_REG_TRIG_EXTEN_BITOFFSET_POS   (ADC_CFGR_EXTEN_Pos)
 139:Drivers/STM32G4xx_HAL_Driver/Inc/stm32g4xx_ll_adc.h **** 
 140:Drivers/STM32G4xx_HAL_Driver/Inc/stm32g4xx_ll_adc.h **** 
 141:Drivers/STM32G4xx_HAL_Driver/Inc/stm32g4xx_ll_adc.h **** 
 142:Drivers/STM32G4xx_HAL_Driver/Inc/stm32g4xx_ll_adc.h **** /* Internal mask for ADC group injected trigger:                              */
 143:Drivers/STM32G4xx_HAL_Driver/Inc/stm32g4xx_ll_adc.h **** /* To select into literal LL_ADC_INJ_TRIG_x the relevant bits for:            */
 144:Drivers/STM32G4xx_HAL_Driver/Inc/stm32g4xx_ll_adc.h **** /* - injected trigger source                                                  */
 145:Drivers/STM32G4xx_HAL_Driver/Inc/stm32g4xx_ll_adc.h **** /* - injected trigger edge                                                    */
 146:Drivers/STM32G4xx_HAL_Driver/Inc/stm32g4xx_ll_adc.h **** #define ADC_INJ_TRIG_EXT_EDGE_DEFAULT      (ADC_JSQR_JEXTEN_0) /* Trigger edge set to rising edge (
 147:Drivers/STM32G4xx_HAL_Driver/Inc/stm32g4xx_ll_adc.h ****                                                                   compatibility with some ADC on ot
 148:Drivers/STM32G4xx_HAL_Driver/Inc/stm32g4xx_ll_adc.h ****                                                                   having this setting set by HW def
 149:Drivers/STM32G4xx_HAL_Driver/Inc/stm32g4xx_ll_adc.h **** 
 150:Drivers/STM32G4xx_HAL_Driver/Inc/stm32g4xx_ll_adc.h **** /* Mask containing trigger source masks for each of possible                  */
 151:Drivers/STM32G4xx_HAL_Driver/Inc/stm32g4xx_ll_adc.h **** /* trigger edge selection duplicated with shifts [0; 4; 8; 12]                */
 152:Drivers/STM32G4xx_HAL_Driver/Inc/stm32g4xx_ll_adc.h **** /* corresponding to {SW start; ext trigger; ext trigger; ext trigger}.        */
 153:Drivers/STM32G4xx_HAL_Driver/Inc/stm32g4xx_ll_adc.h **** #define ADC_INJ_TRIG_SOURCE_MASK           (((LL_ADC_INJ_TRIG_SOFTWARE & ADC_JSQR_JEXTSEL)  << (4U 
 154:Drivers/STM32G4xx_HAL_Driver/Inc/stm32g4xx_ll_adc.h ****                                             ((ADC_JSQR_JEXTSEL)                             << (4U 
 155:Drivers/STM32G4xx_HAL_Driver/Inc/stm32g4xx_ll_adc.h ****                                             ((ADC_JSQR_JEXTSEL)                             << (4U 
 156:Drivers/STM32G4xx_HAL_Driver/Inc/stm32g4xx_ll_adc.h ****                                             ((ADC_JSQR_JEXTSEL)                             << (4U 
ARM GAS   			page 8


 157:Drivers/STM32G4xx_HAL_Driver/Inc/stm32g4xx_ll_adc.h **** 
 158:Drivers/STM32G4xx_HAL_Driver/Inc/stm32g4xx_ll_adc.h **** /* Mask containing trigger edge masks for each of possible                    */
 159:Drivers/STM32G4xx_HAL_Driver/Inc/stm32g4xx_ll_adc.h **** /* trigger edge selection duplicated with shifts [0; 4; 8; 12]                */
 160:Drivers/STM32G4xx_HAL_Driver/Inc/stm32g4xx_ll_adc.h **** /* corresponding to {SW start; ext trigger; ext trigger; ext trigger}.        */
 161:Drivers/STM32G4xx_HAL_Driver/Inc/stm32g4xx_ll_adc.h **** #define ADC_INJ_TRIG_EDGE_MASK             (((LL_ADC_INJ_TRIG_SOFTWARE & ADC_JSQR_JEXTEN) << (4U * 
 162:Drivers/STM32G4xx_HAL_Driver/Inc/stm32g4xx_ll_adc.h ****                                             ((ADC_INJ_TRIG_EXT_EDGE_DEFAULT)              << (4U * 
 163:Drivers/STM32G4xx_HAL_Driver/Inc/stm32g4xx_ll_adc.h ****                                             ((ADC_INJ_TRIG_EXT_EDGE_DEFAULT)              << (4U * 
 164:Drivers/STM32G4xx_HAL_Driver/Inc/stm32g4xx_ll_adc.h ****                                             ((ADC_INJ_TRIG_EXT_EDGE_DEFAULT)              << (4U * 
 165:Drivers/STM32G4xx_HAL_Driver/Inc/stm32g4xx_ll_adc.h **** 
 166:Drivers/STM32G4xx_HAL_Driver/Inc/stm32g4xx_ll_adc.h **** /* Definition of ADC group injected trigger bits information.                 */
 167:Drivers/STM32G4xx_HAL_Driver/Inc/stm32g4xx_ll_adc.h **** #define ADC_INJ_TRIG_EXTSEL_BITOFFSET_POS  (ADC_JSQR_JEXTSEL_Pos)
 168:Drivers/STM32G4xx_HAL_Driver/Inc/stm32g4xx_ll_adc.h **** #define ADC_INJ_TRIG_EXTEN_BITOFFSET_POS   (ADC_JSQR_JEXTEN_Pos)
 169:Drivers/STM32G4xx_HAL_Driver/Inc/stm32g4xx_ll_adc.h **** 
 170:Drivers/STM32G4xx_HAL_Driver/Inc/stm32g4xx_ll_adc.h **** 
 171:Drivers/STM32G4xx_HAL_Driver/Inc/stm32g4xx_ll_adc.h **** 
 172:Drivers/STM32G4xx_HAL_Driver/Inc/stm32g4xx_ll_adc.h **** 
 173:Drivers/STM32G4xx_HAL_Driver/Inc/stm32g4xx_ll_adc.h **** 
 174:Drivers/STM32G4xx_HAL_Driver/Inc/stm32g4xx_ll_adc.h **** 
 175:Drivers/STM32G4xx_HAL_Driver/Inc/stm32g4xx_ll_adc.h **** /* Internal mask for ADC channel:                                             */
 176:Drivers/STM32G4xx_HAL_Driver/Inc/stm32g4xx_ll_adc.h **** /* To select into literal LL_ADC_CHANNEL_x the relevant bits for:             */
 177:Drivers/STM32G4xx_HAL_Driver/Inc/stm32g4xx_ll_adc.h **** /* - channel identifier defined by number                                     */
 178:Drivers/STM32G4xx_HAL_Driver/Inc/stm32g4xx_ll_adc.h **** /* - channel identifier defined by bitfield                                   */
 179:Drivers/STM32G4xx_HAL_Driver/Inc/stm32g4xx_ll_adc.h **** /* - channel differentiation between external channels (connected to          */
 180:Drivers/STM32G4xx_HAL_Driver/Inc/stm32g4xx_ll_adc.h **** /*   GPIO pins) and internal channels (connected to internal paths)           */
 181:Drivers/STM32G4xx_HAL_Driver/Inc/stm32g4xx_ll_adc.h **** /* - channel sampling time defined by SMPRx register offset                   */
 182:Drivers/STM32G4xx_HAL_Driver/Inc/stm32g4xx_ll_adc.h **** /*   and SMPx bits positions into SMPRx register                              */
 183:Drivers/STM32G4xx_HAL_Driver/Inc/stm32g4xx_ll_adc.h **** #define ADC_CHANNEL_ID_NUMBER_MASK         (ADC_CFGR_AWD1CH)
 184:Drivers/STM32G4xx_HAL_Driver/Inc/stm32g4xx_ll_adc.h **** #define ADC_CHANNEL_ID_BITFIELD_MASK       (ADC_AWD2CR_AWD2CH)
 185:Drivers/STM32G4xx_HAL_Driver/Inc/stm32g4xx_ll_adc.h **** #define ADC_CHANNEL_ID_NUMBER_BITOFFSET_POS (ADC_CFGR_AWD1CH_Pos)
 186:Drivers/STM32G4xx_HAL_Driver/Inc/stm32g4xx_ll_adc.h **** #define ADC_CHANNEL_ID_MASK                (ADC_CHANNEL_ID_NUMBER_MASK | ADC_CHANNEL_ID_BITFIELD_MA
 187:Drivers/STM32G4xx_HAL_Driver/Inc/stm32g4xx_ll_adc.h ****                                             | ADC_CHANNEL_ID_INTERNAL_CH_MASK)
 188:Drivers/STM32G4xx_HAL_Driver/Inc/stm32g4xx_ll_adc.h **** /* Equivalent mask of ADC_CHANNEL_NUMBER_MASK aligned on register LSB (bit 0) */
 189:Drivers/STM32G4xx_HAL_Driver/Inc/stm32g4xx_ll_adc.h **** #define ADC_CHANNEL_ID_NUMBER_MASK_POSBIT0 (ADC_SQR2_SQ5) /* Equivalent to shift: (ADC_CHANNEL_NUMB
 190:Drivers/STM32G4xx_HAL_Driver/Inc/stm32g4xx_ll_adc.h ****   >> [Position of bitfield "ADC_CHANNEL_NUMBER_MASK" in register]) */
 191:Drivers/STM32G4xx_HAL_Driver/Inc/stm32g4xx_ll_adc.h **** 
 192:Drivers/STM32G4xx_HAL_Driver/Inc/stm32g4xx_ll_adc.h **** /* Channel differentiation between external and internal channels */
 193:Drivers/STM32G4xx_HAL_Driver/Inc/stm32g4xx_ll_adc.h **** #define ADC_CHANNEL_ID_INTERNAL_CH         (0x80000000UL) /* Marker of internal channel */
 194:Drivers/STM32G4xx_HAL_Driver/Inc/stm32g4xx_ll_adc.h **** #define ADC_CHANNEL_ID_INTERNAL_CH_2       (0x00080000UL) /* Marker of internal channel for other A
 195:Drivers/STM32G4xx_HAL_Driver/Inc/stm32g4xx_ll_adc.h ****                                                              of different ADC internal channels map
 196:Drivers/STM32G4xx_HAL_Driver/Inc/stm32g4xx_ll_adc.h ****                                                              number on different ADC instances */
 197:Drivers/STM32G4xx_HAL_Driver/Inc/stm32g4xx_ll_adc.h **** #define ADC_CHANNEL_ID_INTERNAL_CH_MASK    (ADC_CHANNEL_ID_INTERNAL_CH | ADC_CHANNEL_ID_INTERNAL_CH
 198:Drivers/STM32G4xx_HAL_Driver/Inc/stm32g4xx_ll_adc.h **** 
 199:Drivers/STM32G4xx_HAL_Driver/Inc/stm32g4xx_ll_adc.h **** /* Internal register offset for ADC channel sampling time configuration */
 200:Drivers/STM32G4xx_HAL_Driver/Inc/stm32g4xx_ll_adc.h **** /* (offset placed into a spare area of literal definition) */
 201:Drivers/STM32G4xx_HAL_Driver/Inc/stm32g4xx_ll_adc.h **** #define ADC_SMPR1_REGOFFSET                (0x00000000UL)
 202:Drivers/STM32G4xx_HAL_Driver/Inc/stm32g4xx_ll_adc.h **** #define ADC_SMPR2_REGOFFSET                (0x02000000UL)
 203:Drivers/STM32G4xx_HAL_Driver/Inc/stm32g4xx_ll_adc.h **** #define ADC_CHANNEL_SMPRX_REGOFFSET_MASK   (ADC_SMPR1_REGOFFSET | ADC_SMPR2_REGOFFSET)
 204:Drivers/STM32G4xx_HAL_Driver/Inc/stm32g4xx_ll_adc.h **** #define ADC_SMPRX_REGOFFSET_POS            (25UL)           /* Position of bits ADC_SMPRx_REGOFFSET
 205:Drivers/STM32G4xx_HAL_Driver/Inc/stm32g4xx_ll_adc.h ****                                                                in ADC_CHANNEL_SMPRX_REGOFFSET_MASK 
 206:Drivers/STM32G4xx_HAL_Driver/Inc/stm32g4xx_ll_adc.h **** 
 207:Drivers/STM32G4xx_HAL_Driver/Inc/stm32g4xx_ll_adc.h **** #define ADC_CHANNEL_SMPx_BITOFFSET_MASK    (0x01F00000UL)
 208:Drivers/STM32G4xx_HAL_Driver/Inc/stm32g4xx_ll_adc.h **** #define ADC_CHANNEL_SMPx_BITOFFSET_POS     (20UL)           /* Equivalent to bitfield "ADC_CHANNEL_
 209:Drivers/STM32G4xx_HAL_Driver/Inc/stm32g4xx_ll_adc.h ****                                                                position in register */
 210:Drivers/STM32G4xx_HAL_Driver/Inc/stm32g4xx_ll_adc.h **** 
 211:Drivers/STM32G4xx_HAL_Driver/Inc/stm32g4xx_ll_adc.h **** /* Definition of channels ID number information to be inserted into           */
 212:Drivers/STM32G4xx_HAL_Driver/Inc/stm32g4xx_ll_adc.h **** /* channels literals definition.                                              */
 213:Drivers/STM32G4xx_HAL_Driver/Inc/stm32g4xx_ll_adc.h **** #define ADC_CHANNEL_0_NUMBER               (0x00000000UL)
ARM GAS   			page 9


 214:Drivers/STM32G4xx_HAL_Driver/Inc/stm32g4xx_ll_adc.h **** #define ADC_CHANNEL_1_NUMBER               (ADC_CFGR_AWD1CH_0)
 215:Drivers/STM32G4xx_HAL_Driver/Inc/stm32g4xx_ll_adc.h **** #define ADC_CHANNEL_2_NUMBER               (ADC_CFGR_AWD1CH_1)
 216:Drivers/STM32G4xx_HAL_Driver/Inc/stm32g4xx_ll_adc.h **** #define ADC_CHANNEL_3_NUMBER               (ADC_CFGR_AWD1CH_1 | ADC_CFGR_AWD1CH_0)
 217:Drivers/STM32G4xx_HAL_Driver/Inc/stm32g4xx_ll_adc.h **** #define ADC_CHANNEL_4_NUMBER               (ADC_CFGR_AWD1CH_2)
 218:Drivers/STM32G4xx_HAL_Driver/Inc/stm32g4xx_ll_adc.h **** #define ADC_CHANNEL_5_NUMBER               (ADC_CFGR_AWD1CH_2 | ADC_CFGR_AWD1CH_0)
 219:Drivers/STM32G4xx_HAL_Driver/Inc/stm32g4xx_ll_adc.h **** #define ADC_CHANNEL_6_NUMBER               (ADC_CFGR_AWD1CH_2 | ADC_CFGR_AWD1CH_1)
 220:Drivers/STM32G4xx_HAL_Driver/Inc/stm32g4xx_ll_adc.h **** #define ADC_CHANNEL_7_NUMBER               (ADC_CFGR_AWD1CH_2 | ADC_CFGR_AWD1CH_1 | ADC_CFGR_AWD1CH
 221:Drivers/STM32G4xx_HAL_Driver/Inc/stm32g4xx_ll_adc.h **** #define ADC_CHANNEL_8_NUMBER               (ADC_CFGR_AWD1CH_3)
 222:Drivers/STM32G4xx_HAL_Driver/Inc/stm32g4xx_ll_adc.h **** #define ADC_CHANNEL_9_NUMBER               (ADC_CFGR_AWD1CH_3 | ADC_CFGR_AWD1CH_0)
 223:Drivers/STM32G4xx_HAL_Driver/Inc/stm32g4xx_ll_adc.h **** #define ADC_CHANNEL_10_NUMBER              (ADC_CFGR_AWD1CH_3 | ADC_CFGR_AWD1CH_1)
 224:Drivers/STM32G4xx_HAL_Driver/Inc/stm32g4xx_ll_adc.h **** #define ADC_CHANNEL_11_NUMBER              (ADC_CFGR_AWD1CH_3 | ADC_CFGR_AWD1CH_1 | ADC_CFGR_AWD1CH
 225:Drivers/STM32G4xx_HAL_Driver/Inc/stm32g4xx_ll_adc.h **** #define ADC_CHANNEL_12_NUMBER              (ADC_CFGR_AWD1CH_3 | ADC_CFGR_AWD1CH_2)
 226:Drivers/STM32G4xx_HAL_Driver/Inc/stm32g4xx_ll_adc.h **** #define ADC_CHANNEL_13_NUMBER              (ADC_CFGR_AWD1CH_3 | ADC_CFGR_AWD1CH_2 | ADC_CFGR_AWD1CH
 227:Drivers/STM32G4xx_HAL_Driver/Inc/stm32g4xx_ll_adc.h **** #define ADC_CHANNEL_14_NUMBER              (ADC_CFGR_AWD1CH_3 | ADC_CFGR_AWD1CH_2 | ADC_CFGR_AWD1CH
 228:Drivers/STM32G4xx_HAL_Driver/Inc/stm32g4xx_ll_adc.h **** #define ADC_CHANNEL_15_NUMBER              (ADC_CFGR_AWD1CH_3 | ADC_CFGR_AWD1CH_2 | \
 229:Drivers/STM32G4xx_HAL_Driver/Inc/stm32g4xx_ll_adc.h ****                                             ADC_CFGR_AWD1CH_1 | ADC_CFGR_AWD1CH_0)
 230:Drivers/STM32G4xx_HAL_Driver/Inc/stm32g4xx_ll_adc.h **** #define ADC_CHANNEL_16_NUMBER              (ADC_CFGR_AWD1CH_4)
 231:Drivers/STM32G4xx_HAL_Driver/Inc/stm32g4xx_ll_adc.h **** #define ADC_CHANNEL_17_NUMBER              (ADC_CFGR_AWD1CH_4 | ADC_CFGR_AWD1CH_0)
 232:Drivers/STM32G4xx_HAL_Driver/Inc/stm32g4xx_ll_adc.h **** #define ADC_CHANNEL_18_NUMBER              (ADC_CFGR_AWD1CH_4 | ADC_CFGR_AWD1CH_1)
 233:Drivers/STM32G4xx_HAL_Driver/Inc/stm32g4xx_ll_adc.h **** 
 234:Drivers/STM32G4xx_HAL_Driver/Inc/stm32g4xx_ll_adc.h **** /* Definition of channels ID bitfield information to be inserted into         */
 235:Drivers/STM32G4xx_HAL_Driver/Inc/stm32g4xx_ll_adc.h **** /* channels literals definition.                                              */
 236:Drivers/STM32G4xx_HAL_Driver/Inc/stm32g4xx_ll_adc.h **** #define ADC_CHANNEL_0_BITFIELD             (ADC_AWD2CR_AWD2CH_0)
 237:Drivers/STM32G4xx_HAL_Driver/Inc/stm32g4xx_ll_adc.h **** #define ADC_CHANNEL_1_BITFIELD             (ADC_AWD2CR_AWD2CH_1)
 238:Drivers/STM32G4xx_HAL_Driver/Inc/stm32g4xx_ll_adc.h **** #define ADC_CHANNEL_2_BITFIELD             (ADC_AWD2CR_AWD2CH_2)
 239:Drivers/STM32G4xx_HAL_Driver/Inc/stm32g4xx_ll_adc.h **** #define ADC_CHANNEL_3_BITFIELD             (ADC_AWD2CR_AWD2CH_3)
 240:Drivers/STM32G4xx_HAL_Driver/Inc/stm32g4xx_ll_adc.h **** #define ADC_CHANNEL_4_BITFIELD             (ADC_AWD2CR_AWD2CH_4)
 241:Drivers/STM32G4xx_HAL_Driver/Inc/stm32g4xx_ll_adc.h **** #define ADC_CHANNEL_5_BITFIELD             (ADC_AWD2CR_AWD2CH_5)
 242:Drivers/STM32G4xx_HAL_Driver/Inc/stm32g4xx_ll_adc.h **** #define ADC_CHANNEL_6_BITFIELD             (ADC_AWD2CR_AWD2CH_6)
 243:Drivers/STM32G4xx_HAL_Driver/Inc/stm32g4xx_ll_adc.h **** #define ADC_CHANNEL_7_BITFIELD             (ADC_AWD2CR_AWD2CH_7)
 244:Drivers/STM32G4xx_HAL_Driver/Inc/stm32g4xx_ll_adc.h **** #define ADC_CHANNEL_8_BITFIELD             (ADC_AWD2CR_AWD2CH_8)
 245:Drivers/STM32G4xx_HAL_Driver/Inc/stm32g4xx_ll_adc.h **** #define ADC_CHANNEL_9_BITFIELD             (ADC_AWD2CR_AWD2CH_9)
 246:Drivers/STM32G4xx_HAL_Driver/Inc/stm32g4xx_ll_adc.h **** #define ADC_CHANNEL_10_BITFIELD            (ADC_AWD2CR_AWD2CH_10)
 247:Drivers/STM32G4xx_HAL_Driver/Inc/stm32g4xx_ll_adc.h **** #define ADC_CHANNEL_11_BITFIELD            (ADC_AWD2CR_AWD2CH_11)
 248:Drivers/STM32G4xx_HAL_Driver/Inc/stm32g4xx_ll_adc.h **** #define ADC_CHANNEL_12_BITFIELD            (ADC_AWD2CR_AWD2CH_12)
 249:Drivers/STM32G4xx_HAL_Driver/Inc/stm32g4xx_ll_adc.h **** #define ADC_CHANNEL_13_BITFIELD            (ADC_AWD2CR_AWD2CH_13)
 250:Drivers/STM32G4xx_HAL_Driver/Inc/stm32g4xx_ll_adc.h **** #define ADC_CHANNEL_14_BITFIELD            (ADC_AWD2CR_AWD2CH_14)
 251:Drivers/STM32G4xx_HAL_Driver/Inc/stm32g4xx_ll_adc.h **** #define ADC_CHANNEL_15_BITFIELD            (ADC_AWD2CR_AWD2CH_15)
 252:Drivers/STM32G4xx_HAL_Driver/Inc/stm32g4xx_ll_adc.h **** #define ADC_CHANNEL_16_BITFIELD            (ADC_AWD2CR_AWD2CH_16)
 253:Drivers/STM32G4xx_HAL_Driver/Inc/stm32g4xx_ll_adc.h **** #define ADC_CHANNEL_17_BITFIELD            (ADC_AWD2CR_AWD2CH_17)
 254:Drivers/STM32G4xx_HAL_Driver/Inc/stm32g4xx_ll_adc.h **** #define ADC_CHANNEL_18_BITFIELD            (ADC_AWD2CR_AWD2CH_18)
 255:Drivers/STM32G4xx_HAL_Driver/Inc/stm32g4xx_ll_adc.h **** 
 256:Drivers/STM32G4xx_HAL_Driver/Inc/stm32g4xx_ll_adc.h **** /* Definition of channels sampling time information to be inserted into       */
 257:Drivers/STM32G4xx_HAL_Driver/Inc/stm32g4xx_ll_adc.h **** /* channels literals definition.                                              */
 258:Drivers/STM32G4xx_HAL_Driver/Inc/stm32g4xx_ll_adc.h **** /* Value shifted are equivalent to bitfield "ADC_SMPRx_SMPy" position         */
 259:Drivers/STM32G4xx_HAL_Driver/Inc/stm32g4xx_ll_adc.h **** /* in register.                                                               */
 260:Drivers/STM32G4xx_HAL_Driver/Inc/stm32g4xx_ll_adc.h **** #define ADC_CHANNEL_0_SMP                  (ADC_SMPR1_REGOFFSET | (( 0UL) << ADC_CHANNEL_SMPx_BITOF
 261:Drivers/STM32G4xx_HAL_Driver/Inc/stm32g4xx_ll_adc.h **** #define ADC_CHANNEL_1_SMP                  (ADC_SMPR1_REGOFFSET | (( 3UL) << ADC_CHANNEL_SMPx_BITOF
 262:Drivers/STM32G4xx_HAL_Driver/Inc/stm32g4xx_ll_adc.h **** #define ADC_CHANNEL_2_SMP                  (ADC_SMPR1_REGOFFSET | (( 6UL) << ADC_CHANNEL_SMPx_BITOF
 263:Drivers/STM32G4xx_HAL_Driver/Inc/stm32g4xx_ll_adc.h **** #define ADC_CHANNEL_3_SMP                  (ADC_SMPR1_REGOFFSET | (( 9UL) << ADC_CHANNEL_SMPx_BITOF
 264:Drivers/STM32G4xx_HAL_Driver/Inc/stm32g4xx_ll_adc.h **** #define ADC_CHANNEL_4_SMP                  (ADC_SMPR1_REGOFFSET | ((12UL) << ADC_CHANNEL_SMPx_BITOF
 265:Drivers/STM32G4xx_HAL_Driver/Inc/stm32g4xx_ll_adc.h **** #define ADC_CHANNEL_5_SMP                  (ADC_SMPR1_REGOFFSET | ((15UL) << ADC_CHANNEL_SMPx_BITOF
 266:Drivers/STM32G4xx_HAL_Driver/Inc/stm32g4xx_ll_adc.h **** #define ADC_CHANNEL_6_SMP                  (ADC_SMPR1_REGOFFSET | ((18UL) << ADC_CHANNEL_SMPx_BITOF
 267:Drivers/STM32G4xx_HAL_Driver/Inc/stm32g4xx_ll_adc.h **** #define ADC_CHANNEL_7_SMP                  (ADC_SMPR1_REGOFFSET | ((21UL) << ADC_CHANNEL_SMPx_BITOF
 268:Drivers/STM32G4xx_HAL_Driver/Inc/stm32g4xx_ll_adc.h **** #define ADC_CHANNEL_8_SMP                  (ADC_SMPR1_REGOFFSET | ((24UL) << ADC_CHANNEL_SMPx_BITOF
 269:Drivers/STM32G4xx_HAL_Driver/Inc/stm32g4xx_ll_adc.h **** #define ADC_CHANNEL_9_SMP                  (ADC_SMPR1_REGOFFSET | ((27UL) << ADC_CHANNEL_SMPx_BITOF
 270:Drivers/STM32G4xx_HAL_Driver/Inc/stm32g4xx_ll_adc.h **** #define ADC_CHANNEL_10_SMP                 (ADC_SMPR2_REGOFFSET | (( 0UL) << ADC_CHANNEL_SMPx_BITOF
ARM GAS   			page 10


 271:Drivers/STM32G4xx_HAL_Driver/Inc/stm32g4xx_ll_adc.h **** #define ADC_CHANNEL_11_SMP                 (ADC_SMPR2_REGOFFSET | (( 3UL) << ADC_CHANNEL_SMPx_BITOF
 272:Drivers/STM32G4xx_HAL_Driver/Inc/stm32g4xx_ll_adc.h **** #define ADC_CHANNEL_12_SMP                 (ADC_SMPR2_REGOFFSET | (( 6UL) << ADC_CHANNEL_SMPx_BITOF
 273:Drivers/STM32G4xx_HAL_Driver/Inc/stm32g4xx_ll_adc.h **** #define ADC_CHANNEL_13_SMP                 (ADC_SMPR2_REGOFFSET | (( 9UL) << ADC_CHANNEL_SMPx_BITOF
 274:Drivers/STM32G4xx_HAL_Driver/Inc/stm32g4xx_ll_adc.h **** #define ADC_CHANNEL_14_SMP                 (ADC_SMPR2_REGOFFSET | ((12UL) << ADC_CHANNEL_SMPx_BITOF
 275:Drivers/STM32G4xx_HAL_Driver/Inc/stm32g4xx_ll_adc.h **** #define ADC_CHANNEL_15_SMP                 (ADC_SMPR2_REGOFFSET | ((15UL) << ADC_CHANNEL_SMPx_BITOF
 276:Drivers/STM32G4xx_HAL_Driver/Inc/stm32g4xx_ll_adc.h **** #define ADC_CHANNEL_16_SMP                 (ADC_SMPR2_REGOFFSET | ((18UL) << ADC_CHANNEL_SMPx_BITOF
 277:Drivers/STM32G4xx_HAL_Driver/Inc/stm32g4xx_ll_adc.h **** #define ADC_CHANNEL_17_SMP                 (ADC_SMPR2_REGOFFSET | ((21UL) << ADC_CHANNEL_SMPx_BITOF
 278:Drivers/STM32G4xx_HAL_Driver/Inc/stm32g4xx_ll_adc.h **** #define ADC_CHANNEL_18_SMP                 (ADC_SMPR2_REGOFFSET | ((24UL) << ADC_CHANNEL_SMPx_BITOF
 279:Drivers/STM32G4xx_HAL_Driver/Inc/stm32g4xx_ll_adc.h **** 
 280:Drivers/STM32G4xx_HAL_Driver/Inc/stm32g4xx_ll_adc.h **** 
 281:Drivers/STM32G4xx_HAL_Driver/Inc/stm32g4xx_ll_adc.h **** /* Internal mask for ADC mode single or differential ended:                   */
 282:Drivers/STM32G4xx_HAL_Driver/Inc/stm32g4xx_ll_adc.h **** /* To select into literals LL_ADC_SINGLE_ENDED or LL_ADC_SINGLE_DIFFERENTIAL  */
 283:Drivers/STM32G4xx_HAL_Driver/Inc/stm32g4xx_ll_adc.h **** /* the relevant bits for:                                                     */
 284:Drivers/STM32G4xx_HAL_Driver/Inc/stm32g4xx_ll_adc.h **** /* (concatenation of multiple bits used in different registers)               */
 285:Drivers/STM32G4xx_HAL_Driver/Inc/stm32g4xx_ll_adc.h **** /* - ADC calibration: calibration start, calibration factor get or set        */
 286:Drivers/STM32G4xx_HAL_Driver/Inc/stm32g4xx_ll_adc.h **** /* - ADC channels: set each ADC channel ending mode                           */
 287:Drivers/STM32G4xx_HAL_Driver/Inc/stm32g4xx_ll_adc.h **** #define ADC_SINGLEDIFF_CALIB_START_MASK    (ADC_CR_ADCALDIF)
 288:Drivers/STM32G4xx_HAL_Driver/Inc/stm32g4xx_ll_adc.h **** #define ADC_SINGLEDIFF_CALIB_FACTOR_MASK   (ADC_CALFACT_CALFACT_D | ADC_CALFACT_CALFACT_S)
 289:Drivers/STM32G4xx_HAL_Driver/Inc/stm32g4xx_ll_adc.h **** #define ADC_SINGLEDIFF_CHANNEL_MASK        (ADC_CHANNEL_ID_BITFIELD_MASK) /* Equivalent to ADC_DIFS
 290:Drivers/STM32G4xx_HAL_Driver/Inc/stm32g4xx_ll_adc.h **** #define ADC_SINGLEDIFF_CHANNEL_SHIFT_MASK  (ADC_CALFACT_CALFACT_S_4 | ADC_CALFACT_CALFACT_S_3) /* B
 291:Drivers/STM32G4xx_HAL_Driver/Inc/stm32g4xx_ll_adc.h ****                                            to perform of shift when single mode is selected, shift 
 292:Drivers/STM32G4xx_HAL_Driver/Inc/stm32g4xx_ll_adc.h ****                                            channels bits range. */
 293:Drivers/STM32G4xx_HAL_Driver/Inc/stm32g4xx_ll_adc.h **** #define ADC_SINGLEDIFF_CALIB_F_BIT_D_MASK   (0x00010000UL) /* Selection of 1 bit to discriminate di
 294:Drivers/STM32G4xx_HAL_Driver/Inc/stm32g4xx_ll_adc.h ****                                            mask of bit */
 295:Drivers/STM32G4xx_HAL_Driver/Inc/stm32g4xx_ll_adc.h **** #define ADC_SINGLEDIFF_CALIB_F_BIT_D_POS    (16UL)         /* Selection of 1 bit to discriminate di
 296:Drivers/STM32G4xx_HAL_Driver/Inc/stm32g4xx_ll_adc.h ****                                            position of bit */
 297:Drivers/STM32G4xx_HAL_Driver/Inc/stm32g4xx_ll_adc.h **** #define ADC_SINGLEDIFF_CALIB_F_BIT_D_SHIFT4 (ADC_SINGLEDIFF_CALIB_F_BIT_D_POS - 4UL) /* Shift of bi
 298:Drivers/STM32G4xx_HAL_Driver/Inc/stm32g4xx_ll_adc.h ****                                            ADC_SINGLEDIFF_CALIB_F_BIT_D to perform a shift of 4 ran
 299:Drivers/STM32G4xx_HAL_Driver/Inc/stm32g4xx_ll_adc.h **** 
 300:Drivers/STM32G4xx_HAL_Driver/Inc/stm32g4xx_ll_adc.h **** /* Internal mask for ADC analog watchdog:                                     */
 301:Drivers/STM32G4xx_HAL_Driver/Inc/stm32g4xx_ll_adc.h **** /* To select into literals LL_ADC_AWD_CHANNELx_xxx the relevant bits for:     */
 302:Drivers/STM32G4xx_HAL_Driver/Inc/stm32g4xx_ll_adc.h **** /* (concatenation of multiple bits used in different analog watchdogs,        */
 303:Drivers/STM32G4xx_HAL_Driver/Inc/stm32g4xx_ll_adc.h **** /* (feature of several watchdogs not available on all STM32 series)).         */
 304:Drivers/STM32G4xx_HAL_Driver/Inc/stm32g4xx_ll_adc.h **** /* - analog watchdog 1: monitored channel defined by number,                  */
 305:Drivers/STM32G4xx_HAL_Driver/Inc/stm32g4xx_ll_adc.h **** /*   selection of ADC group (ADC groups regular and-or injected).             */
 306:Drivers/STM32G4xx_HAL_Driver/Inc/stm32g4xx_ll_adc.h **** /* - analog watchdog 2 and 3: monitored channel defined by bitfield, no       */
 307:Drivers/STM32G4xx_HAL_Driver/Inc/stm32g4xx_ll_adc.h **** /*   selection on groups.                                                     */
 308:Drivers/STM32G4xx_HAL_Driver/Inc/stm32g4xx_ll_adc.h **** 
 309:Drivers/STM32G4xx_HAL_Driver/Inc/stm32g4xx_ll_adc.h **** /* Internal register offset for ADC analog watchdog channel configuration */
 310:Drivers/STM32G4xx_HAL_Driver/Inc/stm32g4xx_ll_adc.h **** #define ADC_AWD_CR1_REGOFFSET              (0x00000000UL)
 311:Drivers/STM32G4xx_HAL_Driver/Inc/stm32g4xx_ll_adc.h **** #define ADC_AWD_CR2_REGOFFSET              (0x00100000UL)
 312:Drivers/STM32G4xx_HAL_Driver/Inc/stm32g4xx_ll_adc.h **** #define ADC_AWD_CR3_REGOFFSET              (0x00200000UL)
 313:Drivers/STM32G4xx_HAL_Driver/Inc/stm32g4xx_ll_adc.h **** 
 314:Drivers/STM32G4xx_HAL_Driver/Inc/stm32g4xx_ll_adc.h **** /* Register offset gap between AWD1 and AWD2-AWD3 configuration registers */
 315:Drivers/STM32G4xx_HAL_Driver/Inc/stm32g4xx_ll_adc.h **** /* (Set separately as ADC_AWD_CRX_REGOFFSET to spare 32 bits space */
 316:Drivers/STM32G4xx_HAL_Driver/Inc/stm32g4xx_ll_adc.h **** #define ADC_AWD_CR12_REGOFFSETGAP_MASK     (ADC_AWD2CR_AWD2CH_0)
 317:Drivers/STM32G4xx_HAL_Driver/Inc/stm32g4xx_ll_adc.h **** #define ADC_AWD_CR12_REGOFFSETGAP_VAL      (0x00000024UL)
 318:Drivers/STM32G4xx_HAL_Driver/Inc/stm32g4xx_ll_adc.h **** 
 319:Drivers/STM32G4xx_HAL_Driver/Inc/stm32g4xx_ll_adc.h **** #define ADC_AWD_CRX_REGOFFSET_MASK         (ADC_AWD_CR1_REGOFFSET | ADC_AWD_CR2_REGOFFSET | ADC_AWD
 320:Drivers/STM32G4xx_HAL_Driver/Inc/stm32g4xx_ll_adc.h **** 
 321:Drivers/STM32G4xx_HAL_Driver/Inc/stm32g4xx_ll_adc.h **** #define ADC_AWD_CR1_CHANNEL_MASK           (ADC_CFGR_AWD1CH | ADC_CFGR_JAWD1EN | ADC_CFGR_AWD1EN | 
 322:Drivers/STM32G4xx_HAL_Driver/Inc/stm32g4xx_ll_adc.h **** #define ADC_AWD_CR23_CHANNEL_MASK          (ADC_AWD2CR_AWD2CH)
 323:Drivers/STM32G4xx_HAL_Driver/Inc/stm32g4xx_ll_adc.h **** #define ADC_AWD_CR_ALL_CHANNEL_MASK        (ADC_AWD_CR1_CHANNEL_MASK | ADC_AWD_CR23_CHANNEL_MASK)
 324:Drivers/STM32G4xx_HAL_Driver/Inc/stm32g4xx_ll_adc.h **** 
 325:Drivers/STM32G4xx_HAL_Driver/Inc/stm32g4xx_ll_adc.h **** #define ADC_AWD_CRX_REGOFFSET_POS          (20UL)                      /* Position of bits ADC_AWD_
 326:Drivers/STM32G4xx_HAL_Driver/Inc/stm32g4xx_ll_adc.h ****                                                                           in ADC_AWD_CRX_REGOFFSET_
 327:Drivers/STM32G4xx_HAL_Driver/Inc/stm32g4xx_ll_adc.h **** 
ARM GAS   			page 11


 328:Drivers/STM32G4xx_HAL_Driver/Inc/stm32g4xx_ll_adc.h **** /* Internal register offset for ADC analog watchdog threshold configuration */
 329:Drivers/STM32G4xx_HAL_Driver/Inc/stm32g4xx_ll_adc.h **** #define ADC_AWD_TR1_REGOFFSET              (ADC_AWD_CR1_REGOFFSET)
 330:Drivers/STM32G4xx_HAL_Driver/Inc/stm32g4xx_ll_adc.h **** #define ADC_AWD_TR2_REGOFFSET              (ADC_AWD_CR2_REGOFFSET)
 331:Drivers/STM32G4xx_HAL_Driver/Inc/stm32g4xx_ll_adc.h **** #define ADC_AWD_TR3_REGOFFSET              (ADC_AWD_CR3_REGOFFSET)
 332:Drivers/STM32G4xx_HAL_Driver/Inc/stm32g4xx_ll_adc.h **** #define ADC_AWD_TRX_REGOFFSET_MASK         (ADC_AWD_TR1_REGOFFSET | ADC_AWD_TR2_REGOFFSET | ADC_AWD
 333:Drivers/STM32G4xx_HAL_Driver/Inc/stm32g4xx_ll_adc.h **** #define ADC_AWD_TRX_REGOFFSET_POS          (ADC_AWD_CRX_REGOFFSET_POS)      /* Position of bits ADC
 334:Drivers/STM32G4xx_HAL_Driver/Inc/stm32g4xx_ll_adc.h ****                                                                                in ADC_AWD_TRX_REGOF
 335:Drivers/STM32G4xx_HAL_Driver/Inc/stm32g4xx_ll_adc.h **** #define ADC_AWD_TRX_BIT_HIGH_MASK          (0x00010000UL)                   /* Selection of 1 bit t
 336:Drivers/STM32G4xx_HAL_Driver/Inc/stm32g4xx_ll_adc.h ****                                                                                threshold high: mask
 337:Drivers/STM32G4xx_HAL_Driver/Inc/stm32g4xx_ll_adc.h **** #define ADC_AWD_TRX_BIT_HIGH_POS           (16UL)                           /* Selection of 1 bit t
 338:Drivers/STM32G4xx_HAL_Driver/Inc/stm32g4xx_ll_adc.h ****                                                                                threshold high: posi
 339:Drivers/STM32G4xx_HAL_Driver/Inc/stm32g4xx_ll_adc.h **** #define ADC_AWD_TRX_BIT_HIGH_SHIFT4        (ADC_AWD_TRX_BIT_HIGH_POS - 4UL) /* Shift of bit ADC_AWD
 340:Drivers/STM32G4xx_HAL_Driver/Inc/stm32g4xx_ll_adc.h ****                                                                                position to perform 
 341:Drivers/STM32G4xx_HAL_Driver/Inc/stm32g4xx_ll_adc.h **** 
 342:Drivers/STM32G4xx_HAL_Driver/Inc/stm32g4xx_ll_adc.h **** /* Internal mask for ADC offset:                                              */
 343:Drivers/STM32G4xx_HAL_Driver/Inc/stm32g4xx_ll_adc.h **** /* Internal register offset for ADC offset instance configuration */
 344:Drivers/STM32G4xx_HAL_Driver/Inc/stm32g4xx_ll_adc.h **** #define ADC_OFR1_REGOFFSET                 (0x00000000UL)
 345:Drivers/STM32G4xx_HAL_Driver/Inc/stm32g4xx_ll_adc.h **** #define ADC_OFR2_REGOFFSET                 (0x00000001UL)
 346:Drivers/STM32G4xx_HAL_Driver/Inc/stm32g4xx_ll_adc.h **** #define ADC_OFR3_REGOFFSET                 (0x00000002UL)
 347:Drivers/STM32G4xx_HAL_Driver/Inc/stm32g4xx_ll_adc.h **** #define ADC_OFR4_REGOFFSET                 (0x00000003UL)
 348:Drivers/STM32G4xx_HAL_Driver/Inc/stm32g4xx_ll_adc.h **** #define ADC_OFRx_REGOFFSET_MASK            (ADC_OFR1_REGOFFSET | ADC_OFR2_REGOFFSET \
 349:Drivers/STM32G4xx_HAL_Driver/Inc/stm32g4xx_ll_adc.h ****                                             | ADC_OFR3_REGOFFSET | ADC_OFR4_REGOFFSET)
 350:Drivers/STM32G4xx_HAL_Driver/Inc/stm32g4xx_ll_adc.h **** 
 351:Drivers/STM32G4xx_HAL_Driver/Inc/stm32g4xx_ll_adc.h **** 
 352:Drivers/STM32G4xx_HAL_Driver/Inc/stm32g4xx_ll_adc.h **** /* ADC registers bits positions */
 353:Drivers/STM32G4xx_HAL_Driver/Inc/stm32g4xx_ll_adc.h **** #define ADC_CFGR_RES_BITOFFSET_POS         (ADC_CFGR_RES_Pos)
 354:Drivers/STM32G4xx_HAL_Driver/Inc/stm32g4xx_ll_adc.h **** #define ADC_CFGR_AWD1SGL_BITOFFSET_POS     (ADC_CFGR_AWD1SGL_Pos)
 355:Drivers/STM32G4xx_HAL_Driver/Inc/stm32g4xx_ll_adc.h **** #define ADC_CFGR_AWD1EN_BITOFFSET_POS      (ADC_CFGR_AWD1EN_Pos)
 356:Drivers/STM32G4xx_HAL_Driver/Inc/stm32g4xx_ll_adc.h **** #define ADC_CFGR_JAWD1EN_BITOFFSET_POS     (ADC_CFGR_JAWD1EN_Pos)
 357:Drivers/STM32G4xx_HAL_Driver/Inc/stm32g4xx_ll_adc.h **** #define ADC_TR1_HT1_BITOFFSET_POS          (ADC_TR1_HT1_Pos)
 358:Drivers/STM32G4xx_HAL_Driver/Inc/stm32g4xx_ll_adc.h **** 
 359:Drivers/STM32G4xx_HAL_Driver/Inc/stm32g4xx_ll_adc.h **** 
 360:Drivers/STM32G4xx_HAL_Driver/Inc/stm32g4xx_ll_adc.h **** /* ADC registers bits groups */
 361:Drivers/STM32G4xx_HAL_Driver/Inc/stm32g4xx_ll_adc.h **** #define ADC_CR_BITS_PROPERTY_RS            (ADC_CR_ADCAL | ADC_CR_ADEN | ADC_CR_ADDIS \
 362:Drivers/STM32G4xx_HAL_Driver/Inc/stm32g4xx_ll_adc.h ****                                             | ADC_CR_JADSTART | ADC_CR_JADSTP \
 363:Drivers/STM32G4xx_HAL_Driver/Inc/stm32g4xx_ll_adc.h ****                                             | ADC_CR_ADSTART | ADC_CR_ADSTP)            /* ADC regi
 364:Drivers/STM32G4xx_HAL_Driver/Inc/stm32g4xx_ll_adc.h ****                                            HW property "rs": Software can read as well as set this 
 365:Drivers/STM32G4xx_HAL_Driver/Inc/stm32g4xx_ll_adc.h ****                                            Writing '0' has no effect on the bit value. */
 366:Drivers/STM32G4xx_HAL_Driver/Inc/stm32g4xx_ll_adc.h **** 
 367:Drivers/STM32G4xx_HAL_Driver/Inc/stm32g4xx_ll_adc.h **** 
 368:Drivers/STM32G4xx_HAL_Driver/Inc/stm32g4xx_ll_adc.h **** /* ADC internal channels related definitions */
 369:Drivers/STM32G4xx_HAL_Driver/Inc/stm32g4xx_ll_adc.h **** /* Internal voltage reference VrefInt */
 370:Drivers/STM32G4xx_HAL_Driver/Inc/stm32g4xx_ll_adc.h **** #define VREFINT_CAL_ADDR                   ((uint16_t*) (0x1FFF75AAUL)) /* Internal voltage referen
 371:Drivers/STM32G4xx_HAL_Driver/Inc/stm32g4xx_ll_adc.h ****                                            parameter VREFINT_CAL: VrefInt ADC raw data acquired at 
 372:Drivers/STM32G4xx_HAL_Driver/Inc/stm32g4xx_ll_adc.h ****                                            (tolerance: +-5 DegC), Vref+ = 3.0 V (tolerance: +-10 mV
 373:Drivers/STM32G4xx_HAL_Driver/Inc/stm32g4xx_ll_adc.h **** #define VREFINT_CAL_VREF                   (3000UL)                     /* Analog voltage reference
 374:Drivers/STM32G4xx_HAL_Driver/Inc/stm32g4xx_ll_adc.h ****                                            with which VrefInt has been calibrated in production
 375:Drivers/STM32G4xx_HAL_Driver/Inc/stm32g4xx_ll_adc.h ****                                            (tolerance: +-10 mV) (unit: mV). */
 376:Drivers/STM32G4xx_HAL_Driver/Inc/stm32g4xx_ll_adc.h **** /* Temperature sensor */
 377:Drivers/STM32G4xx_HAL_Driver/Inc/stm32g4xx_ll_adc.h **** #define TEMPSENSOR_CAL1_ADDR               ((uint16_t*) (0x1FFF75A8UL)) /* Address of parameter TS_
 378:Drivers/STM32G4xx_HAL_Driver/Inc/stm32g4xx_ll_adc.h ****                                            temperature sensor ADC raw data acquired at temperature 
 379:Drivers/STM32G4xx_HAL_Driver/Inc/stm32g4xx_ll_adc.h ****                                            (tolerance: +-5 DegC), Vref+ = 3.0 V (tolerance: +-10 mV
 380:Drivers/STM32G4xx_HAL_Driver/Inc/stm32g4xx_ll_adc.h **** #define TEMPSENSOR_CAL2_ADDR               ((uint16_t*) (0x1FFF75CAUL)) /* Address of parameter TS_
 381:Drivers/STM32G4xx_HAL_Driver/Inc/stm32g4xx_ll_adc.h ****                                            temperature sensor ADC raw data acquired at temperature 
 382:Drivers/STM32G4xx_HAL_Driver/Inc/stm32g4xx_ll_adc.h ****                                            (tolerance: +-5 DegC), Vref+ = 3.0 V (tolerance: +-10 mV
 383:Drivers/STM32G4xx_HAL_Driver/Inc/stm32g4xx_ll_adc.h **** #define TEMPSENSOR_CAL1_TEMP               (30L)                        /* Temperature at which tem
 384:Drivers/STM32G4xx_HAL_Driver/Inc/stm32g4xx_ll_adc.h ****                                            has been calibrated in production for data into TEMPSENS
ARM GAS   			page 12


 385:Drivers/STM32G4xx_HAL_Driver/Inc/stm32g4xx_ll_adc.h ****                                            (tolerance: +-5 DegC) (unit: DegC). */
 386:Drivers/STM32G4xx_HAL_Driver/Inc/stm32g4xx_ll_adc.h **** #define TEMPSENSOR_CAL2_TEMP               (110L)                       /* Temperature at which tem
 387:Drivers/STM32G4xx_HAL_Driver/Inc/stm32g4xx_ll_adc.h ****                                            has been calibrated in production for data into TEMPSENS
 388:Drivers/STM32G4xx_HAL_Driver/Inc/stm32g4xx_ll_adc.h ****                                            (tolerance: +-5 DegC) (unit: DegC). */
 389:Drivers/STM32G4xx_HAL_Driver/Inc/stm32g4xx_ll_adc.h **** #define TEMPSENSOR_CAL_VREFANALOG          (3000UL)                     /* Analog voltage reference
 390:Drivers/STM32G4xx_HAL_Driver/Inc/stm32g4xx_ll_adc.h ****                                            with which temperature sensor has been calibrated in pro
 391:Drivers/STM32G4xx_HAL_Driver/Inc/stm32g4xx_ll_adc.h ****                                            (tolerance +-10 mV) (unit: mV). */
 392:Drivers/STM32G4xx_HAL_Driver/Inc/stm32g4xx_ll_adc.h **** 
 393:Drivers/STM32G4xx_HAL_Driver/Inc/stm32g4xx_ll_adc.h **** /**
 394:Drivers/STM32G4xx_HAL_Driver/Inc/stm32g4xx_ll_adc.h ****   * @}
 395:Drivers/STM32G4xx_HAL_Driver/Inc/stm32g4xx_ll_adc.h ****   */
 396:Drivers/STM32G4xx_HAL_Driver/Inc/stm32g4xx_ll_adc.h **** 
 397:Drivers/STM32G4xx_HAL_Driver/Inc/stm32g4xx_ll_adc.h **** 
 398:Drivers/STM32G4xx_HAL_Driver/Inc/stm32g4xx_ll_adc.h **** /* Private macros ------------------------------------------------------------*/
 399:Drivers/STM32G4xx_HAL_Driver/Inc/stm32g4xx_ll_adc.h **** /** @defgroup ADC_LL_Private_Macros ADC Private Macros
 400:Drivers/STM32G4xx_HAL_Driver/Inc/stm32g4xx_ll_adc.h ****   * @{
 401:Drivers/STM32G4xx_HAL_Driver/Inc/stm32g4xx_ll_adc.h ****   */
 402:Drivers/STM32G4xx_HAL_Driver/Inc/stm32g4xx_ll_adc.h **** 
 403:Drivers/STM32G4xx_HAL_Driver/Inc/stm32g4xx_ll_adc.h **** /**
 404:Drivers/STM32G4xx_HAL_Driver/Inc/stm32g4xx_ll_adc.h ****   * @brief  Driver macro reserved for internal use: set a pointer to
 405:Drivers/STM32G4xx_HAL_Driver/Inc/stm32g4xx_ll_adc.h ****   *         a register from a register basis from which an offset
 406:Drivers/STM32G4xx_HAL_Driver/Inc/stm32g4xx_ll_adc.h ****   *         is applied.
 407:Drivers/STM32G4xx_HAL_Driver/Inc/stm32g4xx_ll_adc.h ****   * @param  __REG__ Register basis from which the offset is applied.
 408:Drivers/STM32G4xx_HAL_Driver/Inc/stm32g4xx_ll_adc.h ****   * @param  __REG_OFFFSET__ Offset to be applied (unit: number of registers).
 409:Drivers/STM32G4xx_HAL_Driver/Inc/stm32g4xx_ll_adc.h ****   * @retval Pointer to register address
 410:Drivers/STM32G4xx_HAL_Driver/Inc/stm32g4xx_ll_adc.h ****   */
 411:Drivers/STM32G4xx_HAL_Driver/Inc/stm32g4xx_ll_adc.h **** #define __ADC_PTR_REG_OFFSET(__REG__, __REG_OFFFSET__)                         \
 412:Drivers/STM32G4xx_HAL_Driver/Inc/stm32g4xx_ll_adc.h ****   ((__IO uint32_t *)((uint32_t) ((uint32_t)(&(__REG__)) + ((__REG_OFFFSET__) << 2UL))))
 413:Drivers/STM32G4xx_HAL_Driver/Inc/stm32g4xx_ll_adc.h **** 
 414:Drivers/STM32G4xx_HAL_Driver/Inc/stm32g4xx_ll_adc.h **** /**
 415:Drivers/STM32G4xx_HAL_Driver/Inc/stm32g4xx_ll_adc.h ****   * @}
 416:Drivers/STM32G4xx_HAL_Driver/Inc/stm32g4xx_ll_adc.h ****   */
 417:Drivers/STM32G4xx_HAL_Driver/Inc/stm32g4xx_ll_adc.h **** 
 418:Drivers/STM32G4xx_HAL_Driver/Inc/stm32g4xx_ll_adc.h **** 
 419:Drivers/STM32G4xx_HAL_Driver/Inc/stm32g4xx_ll_adc.h **** /* Exported types ------------------------------------------------------------*/
 420:Drivers/STM32G4xx_HAL_Driver/Inc/stm32g4xx_ll_adc.h **** #if defined(USE_FULL_LL_DRIVER)
 421:Drivers/STM32G4xx_HAL_Driver/Inc/stm32g4xx_ll_adc.h **** /** @defgroup ADC_LL_ES_INIT ADC Exported Init structure
 422:Drivers/STM32G4xx_HAL_Driver/Inc/stm32g4xx_ll_adc.h ****   * @{
 423:Drivers/STM32G4xx_HAL_Driver/Inc/stm32g4xx_ll_adc.h ****   */
 424:Drivers/STM32G4xx_HAL_Driver/Inc/stm32g4xx_ll_adc.h **** 
 425:Drivers/STM32G4xx_HAL_Driver/Inc/stm32g4xx_ll_adc.h **** /**
 426:Drivers/STM32G4xx_HAL_Driver/Inc/stm32g4xx_ll_adc.h ****   * @brief  Structure definition of some features of ADC common parameters
 427:Drivers/STM32G4xx_HAL_Driver/Inc/stm32g4xx_ll_adc.h ****   *         and multimode
 428:Drivers/STM32G4xx_HAL_Driver/Inc/stm32g4xx_ll_adc.h ****   *         (all ADC instances belonging to the same ADC common instance).
 429:Drivers/STM32G4xx_HAL_Driver/Inc/stm32g4xx_ll_adc.h ****   * @note   The setting of these parameters by function @ref LL_ADC_CommonInit()
 430:Drivers/STM32G4xx_HAL_Driver/Inc/stm32g4xx_ll_adc.h ****   *         is conditioned to ADC instances state (all ADC instances
 431:Drivers/STM32G4xx_HAL_Driver/Inc/stm32g4xx_ll_adc.h ****   *         sharing the same ADC common instance):
 432:Drivers/STM32G4xx_HAL_Driver/Inc/stm32g4xx_ll_adc.h ****   *         All ADC instances sharing the same ADC common instance must be
 433:Drivers/STM32G4xx_HAL_Driver/Inc/stm32g4xx_ll_adc.h ****   *         disabled.
 434:Drivers/STM32G4xx_HAL_Driver/Inc/stm32g4xx_ll_adc.h ****   */
 435:Drivers/STM32G4xx_HAL_Driver/Inc/stm32g4xx_ll_adc.h **** typedef struct
 436:Drivers/STM32G4xx_HAL_Driver/Inc/stm32g4xx_ll_adc.h **** {
 437:Drivers/STM32G4xx_HAL_Driver/Inc/stm32g4xx_ll_adc.h ****   uint32_t CommonClock;                 /*!< Set parameter common to several ADC: Clock source and 
 438:Drivers/STM32G4xx_HAL_Driver/Inc/stm32g4xx_ll_adc.h ****                                              This parameter can be a value of @ref ADC_LL_EC_COMMON
 439:Drivers/STM32G4xx_HAL_Driver/Inc/stm32g4xx_ll_adc.h ****                                              @note On this STM32 series, if ADC group injected is u
 440:Drivers/STM32G4xx_HAL_Driver/Inc/stm32g4xx_ll_adc.h ****                                                    constraints between ADC clock and AHB clock must
 441:Drivers/STM32G4xx_HAL_Driver/Inc/stm32g4xx_ll_adc.h ****                                                    Refer to reference manual.
ARM GAS   			page 13


 442:Drivers/STM32G4xx_HAL_Driver/Inc/stm32g4xx_ll_adc.h ****                                              This feature can be modified afterwards using unitary 
 443:Drivers/STM32G4xx_HAL_Driver/Inc/stm32g4xx_ll_adc.h ****                                              @ref LL_ADC_SetCommonClock(). */
 444:Drivers/STM32G4xx_HAL_Driver/Inc/stm32g4xx_ll_adc.h **** 
 445:Drivers/STM32G4xx_HAL_Driver/Inc/stm32g4xx_ll_adc.h **** #if defined(ADC_MULTIMODE_SUPPORT)
 446:Drivers/STM32G4xx_HAL_Driver/Inc/stm32g4xx_ll_adc.h ****   uint32_t Multimode;                   /*!< Set ADC multimode configuration to operate in independ
 447:Drivers/STM32G4xx_HAL_Driver/Inc/stm32g4xx_ll_adc.h ****                                              (for devices with several ADC instances).
 448:Drivers/STM32G4xx_HAL_Driver/Inc/stm32g4xx_ll_adc.h ****                                              This parameter can be a value of @ref ADC_LL_EC_MULTI_
 449:Drivers/STM32G4xx_HAL_Driver/Inc/stm32g4xx_ll_adc.h ****                                              This feature can be modified afterwards using unitary 
 450:Drivers/STM32G4xx_HAL_Driver/Inc/stm32g4xx_ll_adc.h ****                                              @ref LL_ADC_SetMultimode(). */
 451:Drivers/STM32G4xx_HAL_Driver/Inc/stm32g4xx_ll_adc.h **** 
 452:Drivers/STM32G4xx_HAL_Driver/Inc/stm32g4xx_ll_adc.h ****   uint32_t MultiDMATransfer;            /*!< Set ADC multimode conversion data transfer: no transfe
 453:Drivers/STM32G4xx_HAL_Driver/Inc/stm32g4xx_ll_adc.h ****                                              This parameter can be a value of @ref ADC_LL_EC_MULTI_
 454:Drivers/STM32G4xx_HAL_Driver/Inc/stm32g4xx_ll_adc.h ****                                              This feature can be modified afterwards using unitary 
 455:Drivers/STM32G4xx_HAL_Driver/Inc/stm32g4xx_ll_adc.h ****                                              @ref LL_ADC_SetMultiDMATransfer(). */
 456:Drivers/STM32G4xx_HAL_Driver/Inc/stm32g4xx_ll_adc.h **** 
 457:Drivers/STM32G4xx_HAL_Driver/Inc/stm32g4xx_ll_adc.h ****   uint32_t MultiTwoSamplingDelay;       /*!< Set ADC multimode delay between 2 sampling phases.
 458:Drivers/STM32G4xx_HAL_Driver/Inc/stm32g4xx_ll_adc.h ****                                              This parameter can be a value of @ref ADC_LL_EC_MULTI_
 459:Drivers/STM32G4xx_HAL_Driver/Inc/stm32g4xx_ll_adc.h ****                                              This feature can be modified afterwards using unitary 
 460:Drivers/STM32G4xx_HAL_Driver/Inc/stm32g4xx_ll_adc.h ****                                              @ref LL_ADC_SetMultiTwoSamplingDelay(). */
 461:Drivers/STM32G4xx_HAL_Driver/Inc/stm32g4xx_ll_adc.h **** #endif /* ADC_MULTIMODE_SUPPORT */
 462:Drivers/STM32G4xx_HAL_Driver/Inc/stm32g4xx_ll_adc.h **** 
 463:Drivers/STM32G4xx_HAL_Driver/Inc/stm32g4xx_ll_adc.h **** } LL_ADC_CommonInitTypeDef;
 464:Drivers/STM32G4xx_HAL_Driver/Inc/stm32g4xx_ll_adc.h **** 
 465:Drivers/STM32G4xx_HAL_Driver/Inc/stm32g4xx_ll_adc.h **** /**
 466:Drivers/STM32G4xx_HAL_Driver/Inc/stm32g4xx_ll_adc.h ****   * @brief  Structure definition of some features of ADC instance.
 467:Drivers/STM32G4xx_HAL_Driver/Inc/stm32g4xx_ll_adc.h ****   * @note   These parameters have an impact on ADC scope: ADC instance.
 468:Drivers/STM32G4xx_HAL_Driver/Inc/stm32g4xx_ll_adc.h ****   *         Affects both group regular and group injected (availability
 469:Drivers/STM32G4xx_HAL_Driver/Inc/stm32g4xx_ll_adc.h ****   *         of ADC group injected depends on STM32 series).
 470:Drivers/STM32G4xx_HAL_Driver/Inc/stm32g4xx_ll_adc.h ****   *         Refer to corresponding unitary functions into
 471:Drivers/STM32G4xx_HAL_Driver/Inc/stm32g4xx_ll_adc.h ****   *         @ref ADC_LL_EF_Configuration_ADC_Instance .
 472:Drivers/STM32G4xx_HAL_Driver/Inc/stm32g4xx_ll_adc.h ****   * @note   The setting of these parameters by function @ref LL_ADC_Init()
 473:Drivers/STM32G4xx_HAL_Driver/Inc/stm32g4xx_ll_adc.h ****   *         is conditioned to ADC state:
 474:Drivers/STM32G4xx_HAL_Driver/Inc/stm32g4xx_ll_adc.h ****   *         ADC instance must be disabled.
 475:Drivers/STM32G4xx_HAL_Driver/Inc/stm32g4xx_ll_adc.h ****   *         This condition is applied to all ADC features, for efficiency
 476:Drivers/STM32G4xx_HAL_Driver/Inc/stm32g4xx_ll_adc.h ****   *         and compatibility over all STM32 series. However, the different
 477:Drivers/STM32G4xx_HAL_Driver/Inc/stm32g4xx_ll_adc.h ****   *         features can be set under different ADC state conditions
 478:Drivers/STM32G4xx_HAL_Driver/Inc/stm32g4xx_ll_adc.h ****   *         (setting possible with ADC enabled without conversion on going,
 479:Drivers/STM32G4xx_HAL_Driver/Inc/stm32g4xx_ll_adc.h ****   *         ADC enabled with conversion on going, ...)
 480:Drivers/STM32G4xx_HAL_Driver/Inc/stm32g4xx_ll_adc.h ****   *         Each feature can be updated afterwards with a unitary function
 481:Drivers/STM32G4xx_HAL_Driver/Inc/stm32g4xx_ll_adc.h ****   *         and potentially with ADC in a different state than disabled,
 482:Drivers/STM32G4xx_HAL_Driver/Inc/stm32g4xx_ll_adc.h ****   *         refer to description of each function for setting
 483:Drivers/STM32G4xx_HAL_Driver/Inc/stm32g4xx_ll_adc.h ****   *         conditioned to ADC state.
 484:Drivers/STM32G4xx_HAL_Driver/Inc/stm32g4xx_ll_adc.h ****   */
 485:Drivers/STM32G4xx_HAL_Driver/Inc/stm32g4xx_ll_adc.h **** typedef struct
 486:Drivers/STM32G4xx_HAL_Driver/Inc/stm32g4xx_ll_adc.h **** {
 487:Drivers/STM32G4xx_HAL_Driver/Inc/stm32g4xx_ll_adc.h ****   uint32_t Resolution;                  /*!< Set ADC resolution.
 488:Drivers/STM32G4xx_HAL_Driver/Inc/stm32g4xx_ll_adc.h ****                                              This parameter can be a value of @ref ADC_LL_EC_RESOLU
 489:Drivers/STM32G4xx_HAL_Driver/Inc/stm32g4xx_ll_adc.h ****                                              This feature can be modified afterwards using unitary 
 490:Drivers/STM32G4xx_HAL_Driver/Inc/stm32g4xx_ll_adc.h ****                                              @ref LL_ADC_SetResolution(). */
 491:Drivers/STM32G4xx_HAL_Driver/Inc/stm32g4xx_ll_adc.h **** 
 492:Drivers/STM32G4xx_HAL_Driver/Inc/stm32g4xx_ll_adc.h ****   uint32_t DataAlignment;               /*!< Set ADC conversion data alignment.
 493:Drivers/STM32G4xx_HAL_Driver/Inc/stm32g4xx_ll_adc.h ****                                              This parameter can be a value of @ref ADC_LL_EC_DATA_A
 494:Drivers/STM32G4xx_HAL_Driver/Inc/stm32g4xx_ll_adc.h ****                                              This feature can be modified afterwards using unitary 
 495:Drivers/STM32G4xx_HAL_Driver/Inc/stm32g4xx_ll_adc.h ****                                              @ref LL_ADC_SetDataAlignment(). */
 496:Drivers/STM32G4xx_HAL_Driver/Inc/stm32g4xx_ll_adc.h **** 
 497:Drivers/STM32G4xx_HAL_Driver/Inc/stm32g4xx_ll_adc.h ****   uint32_t LowPowerMode;                /*!< Set ADC low power mode.
 498:Drivers/STM32G4xx_HAL_Driver/Inc/stm32g4xx_ll_adc.h ****                                              This parameter can be a value of @ref ADC_LL_EC_LP_MOD
ARM GAS   			page 14


 499:Drivers/STM32G4xx_HAL_Driver/Inc/stm32g4xx_ll_adc.h ****                                              This feature can be modified afterwards using unitary 
 500:Drivers/STM32G4xx_HAL_Driver/Inc/stm32g4xx_ll_adc.h ****                                              @ref LL_ADC_SetLowPowerMode(). */
 501:Drivers/STM32G4xx_HAL_Driver/Inc/stm32g4xx_ll_adc.h **** 
 502:Drivers/STM32G4xx_HAL_Driver/Inc/stm32g4xx_ll_adc.h **** } LL_ADC_InitTypeDef;
 503:Drivers/STM32G4xx_HAL_Driver/Inc/stm32g4xx_ll_adc.h **** 
 504:Drivers/STM32G4xx_HAL_Driver/Inc/stm32g4xx_ll_adc.h **** /**
 505:Drivers/STM32G4xx_HAL_Driver/Inc/stm32g4xx_ll_adc.h ****   * @brief  Structure definition of some features of ADC group regular.
 506:Drivers/STM32G4xx_HAL_Driver/Inc/stm32g4xx_ll_adc.h ****   * @note   These parameters have an impact on ADC scope: ADC group regular.
 507:Drivers/STM32G4xx_HAL_Driver/Inc/stm32g4xx_ll_adc.h ****   *         Refer to corresponding unitary functions into
 508:Drivers/STM32G4xx_HAL_Driver/Inc/stm32g4xx_ll_adc.h ****   *         @ref ADC_LL_EF_Configuration_ADC_Group_Regular
 509:Drivers/STM32G4xx_HAL_Driver/Inc/stm32g4xx_ll_adc.h ****   *         (functions with prefix "REG").
 510:Drivers/STM32G4xx_HAL_Driver/Inc/stm32g4xx_ll_adc.h ****   * @note   The setting of these parameters by function @ref LL_ADC_REG_Init()
 511:Drivers/STM32G4xx_HAL_Driver/Inc/stm32g4xx_ll_adc.h ****   *         is conditioned to ADC state:
 512:Drivers/STM32G4xx_HAL_Driver/Inc/stm32g4xx_ll_adc.h ****   *         ADC instance must be disabled.
 513:Drivers/STM32G4xx_HAL_Driver/Inc/stm32g4xx_ll_adc.h ****   *         This condition is applied to all ADC features, for efficiency
 514:Drivers/STM32G4xx_HAL_Driver/Inc/stm32g4xx_ll_adc.h ****   *         and compatibility over all STM32 series. However, the different
 515:Drivers/STM32G4xx_HAL_Driver/Inc/stm32g4xx_ll_adc.h ****   *         features can be set under different ADC state conditions
 516:Drivers/STM32G4xx_HAL_Driver/Inc/stm32g4xx_ll_adc.h ****   *         (setting possible with ADC enabled without conversion on going,
 517:Drivers/STM32G4xx_HAL_Driver/Inc/stm32g4xx_ll_adc.h ****   *         ADC enabled with conversion on going, ...)
 518:Drivers/STM32G4xx_HAL_Driver/Inc/stm32g4xx_ll_adc.h ****   *         Each feature can be updated afterwards with a unitary function
 519:Drivers/STM32G4xx_HAL_Driver/Inc/stm32g4xx_ll_adc.h ****   *         and potentially with ADC in a different state than disabled,
 520:Drivers/STM32G4xx_HAL_Driver/Inc/stm32g4xx_ll_adc.h ****   *         refer to description of each function for setting
 521:Drivers/STM32G4xx_HAL_Driver/Inc/stm32g4xx_ll_adc.h ****   *         conditioned to ADC state.
 522:Drivers/STM32G4xx_HAL_Driver/Inc/stm32g4xx_ll_adc.h ****   */
 523:Drivers/STM32G4xx_HAL_Driver/Inc/stm32g4xx_ll_adc.h **** typedef struct
 524:Drivers/STM32G4xx_HAL_Driver/Inc/stm32g4xx_ll_adc.h **** {
 525:Drivers/STM32G4xx_HAL_Driver/Inc/stm32g4xx_ll_adc.h ****   uint32_t TriggerSource;               /*!< Set ADC group regular conversion trigger source: inter
 526:Drivers/STM32G4xx_HAL_Driver/Inc/stm32g4xx_ll_adc.h ****                                              from external peripheral (timer event, external interr
 527:Drivers/STM32G4xx_HAL_Driver/Inc/stm32g4xx_ll_adc.h ****                                              This parameter can be a value of @ref ADC_LL_EC_REG_TR
 528:Drivers/STM32G4xx_HAL_Driver/Inc/stm32g4xx_ll_adc.h ****                                              @note On this STM32 series, setting trigger source to 
 529:Drivers/STM32G4xx_HAL_Driver/Inc/stm32g4xx_ll_adc.h ****                                                    set trigger polarity to rising edge(default sett
 530:Drivers/STM32G4xx_HAL_Driver/Inc/stm32g4xx_ll_adc.h ****                                                    with some ADC on other STM32 series having this 
 531:Drivers/STM32G4xx_HAL_Driver/Inc/stm32g4xx_ll_adc.h ****                                                    default value).
 532:Drivers/STM32G4xx_HAL_Driver/Inc/stm32g4xx_ll_adc.h ****                                                    In case of need to modify trigger edge, use func
 533:Drivers/STM32G4xx_HAL_Driver/Inc/stm32g4xx_ll_adc.h ****                                                    @ref LL_ADC_REG_SetTriggerEdge().
 534:Drivers/STM32G4xx_HAL_Driver/Inc/stm32g4xx_ll_adc.h ****                                              This feature can be modified afterwards using unitary 
 535:Drivers/STM32G4xx_HAL_Driver/Inc/stm32g4xx_ll_adc.h ****                                              @ref LL_ADC_REG_SetTriggerSource(). */
 536:Drivers/STM32G4xx_HAL_Driver/Inc/stm32g4xx_ll_adc.h **** 
 537:Drivers/STM32G4xx_HAL_Driver/Inc/stm32g4xx_ll_adc.h ****   uint32_t SequencerLength;             /*!< Set ADC group regular sequencer length.
 538:Drivers/STM32G4xx_HAL_Driver/Inc/stm32g4xx_ll_adc.h ****                                              This parameter can be a value of @ref ADC_LL_EC_REG_SE
 539:Drivers/STM32G4xx_HAL_Driver/Inc/stm32g4xx_ll_adc.h ****                                              This feature can be modified afterwards using unitary 
 540:Drivers/STM32G4xx_HAL_Driver/Inc/stm32g4xx_ll_adc.h ****                                              @ref LL_ADC_REG_SetSequencerLength(). */
 541:Drivers/STM32G4xx_HAL_Driver/Inc/stm32g4xx_ll_adc.h **** 
 542:Drivers/STM32G4xx_HAL_Driver/Inc/stm32g4xx_ll_adc.h ****   uint32_t SequencerDiscont;            /*!< Set ADC group regular sequencer discontinuous mode: se
 543:Drivers/STM32G4xx_HAL_Driver/Inc/stm32g4xx_ll_adc.h ****                                              and scan conversions interrupted every selected number
 544:Drivers/STM32G4xx_HAL_Driver/Inc/stm32g4xx_ll_adc.h ****                                              This parameter can be a value of @ref ADC_LL_EC_REG_SE
 545:Drivers/STM32G4xx_HAL_Driver/Inc/stm32g4xx_ll_adc.h ****                                              @note This parameter has an effect only if group regul
 546:Drivers/STM32G4xx_HAL_Driver/Inc/stm32g4xx_ll_adc.h ****                                                     enabled (scan length of 2 ranks or more).
 547:Drivers/STM32G4xx_HAL_Driver/Inc/stm32g4xx_ll_adc.h ****                                              This feature can be modified afterwards using unitary 
 548:Drivers/STM32G4xx_HAL_Driver/Inc/stm32g4xx_ll_adc.h ****                                              @ref LL_ADC_REG_SetSequencerDiscont(). */
 549:Drivers/STM32G4xx_HAL_Driver/Inc/stm32g4xx_ll_adc.h **** 
 550:Drivers/STM32G4xx_HAL_Driver/Inc/stm32g4xx_ll_adc.h ****   uint32_t ContinuousMode;              /*!< Set ADC continuous conversion mode on ADC group regula
 551:Drivers/STM32G4xx_HAL_Driver/Inc/stm32g4xx_ll_adc.h ****                                              conversions are performed in single mode (one conversi
 552:Drivers/STM32G4xx_HAL_Driver/Inc/stm32g4xx_ll_adc.h ****                                              continuous mode (after the first trigger, following co
 553:Drivers/STM32G4xx_HAL_Driver/Inc/stm32g4xx_ll_adc.h ****                                              successively automatically).
 554:Drivers/STM32G4xx_HAL_Driver/Inc/stm32g4xx_ll_adc.h ****                                              This parameter can be a value of @ref ADC_LL_EC_REG_CO
 555:Drivers/STM32G4xx_HAL_Driver/Inc/stm32g4xx_ll_adc.h ****                                              Note: It is not possible to enable both ADC group regu
ARM GAS   			page 15


 556:Drivers/STM32G4xx_HAL_Driver/Inc/stm32g4xx_ll_adc.h ****                                                    and discontinuous mode.
 557:Drivers/STM32G4xx_HAL_Driver/Inc/stm32g4xx_ll_adc.h ****                                              This feature can be modified afterwards using unitary 
 558:Drivers/STM32G4xx_HAL_Driver/Inc/stm32g4xx_ll_adc.h ****                                              @ref LL_ADC_REG_SetContinuousMode(). */
 559:Drivers/STM32G4xx_HAL_Driver/Inc/stm32g4xx_ll_adc.h **** 
 560:Drivers/STM32G4xx_HAL_Driver/Inc/stm32g4xx_ll_adc.h ****   uint32_t DMATransfer;                 /*!< Set ADC group regular conversion data transfer: no tra
 561:Drivers/STM32G4xx_HAL_Driver/Inc/stm32g4xx_ll_adc.h ****                                              by DMA, and DMA requests mode.
 562:Drivers/STM32G4xx_HAL_Driver/Inc/stm32g4xx_ll_adc.h ****                                              This parameter can be a value of @ref ADC_LL_EC_REG_DM
 563:Drivers/STM32G4xx_HAL_Driver/Inc/stm32g4xx_ll_adc.h ****                                              This feature can be modified afterwards using unitary 
 564:Drivers/STM32G4xx_HAL_Driver/Inc/stm32g4xx_ll_adc.h ****                                              @ref LL_ADC_REG_SetDMATransfer(). */
 565:Drivers/STM32G4xx_HAL_Driver/Inc/stm32g4xx_ll_adc.h **** 
 566:Drivers/STM32G4xx_HAL_Driver/Inc/stm32g4xx_ll_adc.h ****   uint32_t Overrun;                     /*!< Set ADC group regular behavior in case of overrun:
 567:Drivers/STM32G4xx_HAL_Driver/Inc/stm32g4xx_ll_adc.h ****                                              data preserved or overwritten.
 568:Drivers/STM32G4xx_HAL_Driver/Inc/stm32g4xx_ll_adc.h ****                                              This parameter can be a value of @ref ADC_LL_EC_REG_OV
 569:Drivers/STM32G4xx_HAL_Driver/Inc/stm32g4xx_ll_adc.h ****                                              This feature can be modified afterwards using unitary 
 570:Drivers/STM32G4xx_HAL_Driver/Inc/stm32g4xx_ll_adc.h ****                                              @ref LL_ADC_REG_SetOverrun(). */
 571:Drivers/STM32G4xx_HAL_Driver/Inc/stm32g4xx_ll_adc.h **** 
 572:Drivers/STM32G4xx_HAL_Driver/Inc/stm32g4xx_ll_adc.h **** } LL_ADC_REG_InitTypeDef;
 573:Drivers/STM32G4xx_HAL_Driver/Inc/stm32g4xx_ll_adc.h **** 
 574:Drivers/STM32G4xx_HAL_Driver/Inc/stm32g4xx_ll_adc.h **** /**
 575:Drivers/STM32G4xx_HAL_Driver/Inc/stm32g4xx_ll_adc.h ****   * @brief  Structure definition of some features of ADC group injected.
 576:Drivers/STM32G4xx_HAL_Driver/Inc/stm32g4xx_ll_adc.h ****   * @note   These parameters have an impact on ADC scope: ADC group injected.
 577:Drivers/STM32G4xx_HAL_Driver/Inc/stm32g4xx_ll_adc.h ****   *         Refer to corresponding unitary functions into
 578:Drivers/STM32G4xx_HAL_Driver/Inc/stm32g4xx_ll_adc.h ****   *         @ref ADC_LL_EF_Configuration_ADC_Group_Regular
 579:Drivers/STM32G4xx_HAL_Driver/Inc/stm32g4xx_ll_adc.h ****   *         (functions with prefix "INJ").
 580:Drivers/STM32G4xx_HAL_Driver/Inc/stm32g4xx_ll_adc.h ****   * @note   The setting of these parameters by function @ref LL_ADC_INJ_Init()
 581:Drivers/STM32G4xx_HAL_Driver/Inc/stm32g4xx_ll_adc.h ****   *         is conditioned to ADC state:
 582:Drivers/STM32G4xx_HAL_Driver/Inc/stm32g4xx_ll_adc.h ****   *         ADC instance must be disabled.
 583:Drivers/STM32G4xx_HAL_Driver/Inc/stm32g4xx_ll_adc.h ****   *         This condition is applied to all ADC features, for efficiency
 584:Drivers/STM32G4xx_HAL_Driver/Inc/stm32g4xx_ll_adc.h ****   *         and compatibility over all STM32 series. However, the different
 585:Drivers/STM32G4xx_HAL_Driver/Inc/stm32g4xx_ll_adc.h ****   *         features can be set under different ADC state conditions
 586:Drivers/STM32G4xx_HAL_Driver/Inc/stm32g4xx_ll_adc.h ****   *         (setting possible with ADC enabled without conversion on going,
 587:Drivers/STM32G4xx_HAL_Driver/Inc/stm32g4xx_ll_adc.h ****   *         ADC enabled with conversion on going, ...)
 588:Drivers/STM32G4xx_HAL_Driver/Inc/stm32g4xx_ll_adc.h ****   *         Each feature can be updated afterwards with a unitary function
 589:Drivers/STM32G4xx_HAL_Driver/Inc/stm32g4xx_ll_adc.h ****   *         and potentially with ADC in a different state than disabled,
 590:Drivers/STM32G4xx_HAL_Driver/Inc/stm32g4xx_ll_adc.h ****   *         refer to description of each function for setting
 591:Drivers/STM32G4xx_HAL_Driver/Inc/stm32g4xx_ll_adc.h ****   *         conditioned to ADC state.
 592:Drivers/STM32G4xx_HAL_Driver/Inc/stm32g4xx_ll_adc.h ****   */
 593:Drivers/STM32G4xx_HAL_Driver/Inc/stm32g4xx_ll_adc.h **** typedef struct
 594:Drivers/STM32G4xx_HAL_Driver/Inc/stm32g4xx_ll_adc.h **** {
 595:Drivers/STM32G4xx_HAL_Driver/Inc/stm32g4xx_ll_adc.h ****   uint32_t TriggerSource;               /*!< Set ADC group injected conversion trigger source: inte
 596:Drivers/STM32G4xx_HAL_Driver/Inc/stm32g4xx_ll_adc.h ****                                              or from external peripheral (timer event, external int
 597:Drivers/STM32G4xx_HAL_Driver/Inc/stm32g4xx_ll_adc.h ****                                              This parameter can be a value of @ref ADC_LL_EC_INJ_TR
 598:Drivers/STM32G4xx_HAL_Driver/Inc/stm32g4xx_ll_adc.h ****                                              @note On this STM32 series, setting trigger source to 
 599:Drivers/STM32G4xx_HAL_Driver/Inc/stm32g4xx_ll_adc.h ****                                                    set trigger polarity to rising edge (default set
 600:Drivers/STM32G4xx_HAL_Driver/Inc/stm32g4xx_ll_adc.h ****                                                    compatibility with some ADC on other STM32 serie
 601:Drivers/STM32G4xx_HAL_Driver/Inc/stm32g4xx_ll_adc.h ****                                                    setting set by HW default value).
 602:Drivers/STM32G4xx_HAL_Driver/Inc/stm32g4xx_ll_adc.h ****                                                    In case of need to modify trigger edge, use func
 603:Drivers/STM32G4xx_HAL_Driver/Inc/stm32g4xx_ll_adc.h ****                                                    @ref LL_ADC_INJ_SetTriggerEdge().
 604:Drivers/STM32G4xx_HAL_Driver/Inc/stm32g4xx_ll_adc.h ****                                              This feature can be modified afterwards using unitary 
 605:Drivers/STM32G4xx_HAL_Driver/Inc/stm32g4xx_ll_adc.h ****                                              @ref LL_ADC_INJ_SetTriggerSource(). */
 606:Drivers/STM32G4xx_HAL_Driver/Inc/stm32g4xx_ll_adc.h **** 
 607:Drivers/STM32G4xx_HAL_Driver/Inc/stm32g4xx_ll_adc.h ****   uint32_t SequencerLength;             /*!< Set ADC group injected sequencer length.
 608:Drivers/STM32G4xx_HAL_Driver/Inc/stm32g4xx_ll_adc.h ****                                              This parameter can be a value of @ref ADC_LL_EC_INJ_SE
 609:Drivers/STM32G4xx_HAL_Driver/Inc/stm32g4xx_ll_adc.h ****                                              This feature can be modified afterwards using unitary 
 610:Drivers/STM32G4xx_HAL_Driver/Inc/stm32g4xx_ll_adc.h ****                                              @ref LL_ADC_INJ_SetSequencerLength(). */
 611:Drivers/STM32G4xx_HAL_Driver/Inc/stm32g4xx_ll_adc.h **** 
 612:Drivers/STM32G4xx_HAL_Driver/Inc/stm32g4xx_ll_adc.h ****   uint32_t SequencerDiscont;            /*!< Set ADC group injected sequencer discontinuous mode: s
ARM GAS   			page 16


 613:Drivers/STM32G4xx_HAL_Driver/Inc/stm32g4xx_ll_adc.h ****                                              and scan conversions interrupted every selected number
 614:Drivers/STM32G4xx_HAL_Driver/Inc/stm32g4xx_ll_adc.h ****                                              This parameter can be a value of @ref ADC_LL_EC_INJ_SE
 615:Drivers/STM32G4xx_HAL_Driver/Inc/stm32g4xx_ll_adc.h ****                                              @note This parameter has an effect only if group injec
 616:Drivers/STM32G4xx_HAL_Driver/Inc/stm32g4xx_ll_adc.h ****                                                    enabled (scan length of 2 ranks or more).
 617:Drivers/STM32G4xx_HAL_Driver/Inc/stm32g4xx_ll_adc.h ****                                              This feature can be modified afterwards using unitary 
 618:Drivers/STM32G4xx_HAL_Driver/Inc/stm32g4xx_ll_adc.h ****                                              @ref LL_ADC_INJ_SetSequencerDiscont(). */
 619:Drivers/STM32G4xx_HAL_Driver/Inc/stm32g4xx_ll_adc.h **** 
 620:Drivers/STM32G4xx_HAL_Driver/Inc/stm32g4xx_ll_adc.h ****   uint32_t TrigAuto;                    /*!< Set ADC group injected conversion trigger: independent
 621:Drivers/STM32G4xx_HAL_Driver/Inc/stm32g4xx_ll_adc.h ****                                              regular.
 622:Drivers/STM32G4xx_HAL_Driver/Inc/stm32g4xx_ll_adc.h ****                                              This parameter can be a value of @ref ADC_LL_EC_INJ_TR
 623:Drivers/STM32G4xx_HAL_Driver/Inc/stm32g4xx_ll_adc.h ****                                              Note: This parameter must be set to set to independent
 624:Drivers/STM32G4xx_HAL_Driver/Inc/stm32g4xx_ll_adc.h ****                                                    trigger source is set to an external trigger.
 625:Drivers/STM32G4xx_HAL_Driver/Inc/stm32g4xx_ll_adc.h ****                                              This feature can be modified afterwards using unitary 
 626:Drivers/STM32G4xx_HAL_Driver/Inc/stm32g4xx_ll_adc.h ****                                              @ref LL_ADC_INJ_SetTrigAuto(). */
 627:Drivers/STM32G4xx_HAL_Driver/Inc/stm32g4xx_ll_adc.h **** 
 628:Drivers/STM32G4xx_HAL_Driver/Inc/stm32g4xx_ll_adc.h **** } LL_ADC_INJ_InitTypeDef;
 629:Drivers/STM32G4xx_HAL_Driver/Inc/stm32g4xx_ll_adc.h **** 
 630:Drivers/STM32G4xx_HAL_Driver/Inc/stm32g4xx_ll_adc.h **** /**
 631:Drivers/STM32G4xx_HAL_Driver/Inc/stm32g4xx_ll_adc.h ****   * @}
 632:Drivers/STM32G4xx_HAL_Driver/Inc/stm32g4xx_ll_adc.h ****   */
 633:Drivers/STM32G4xx_HAL_Driver/Inc/stm32g4xx_ll_adc.h **** #endif /* USE_FULL_LL_DRIVER */
 634:Drivers/STM32G4xx_HAL_Driver/Inc/stm32g4xx_ll_adc.h **** 
 635:Drivers/STM32G4xx_HAL_Driver/Inc/stm32g4xx_ll_adc.h **** /* Exported constants --------------------------------------------------------*/
 636:Drivers/STM32G4xx_HAL_Driver/Inc/stm32g4xx_ll_adc.h **** /** @defgroup ADC_LL_Exported_Constants ADC Exported Constants
 637:Drivers/STM32G4xx_HAL_Driver/Inc/stm32g4xx_ll_adc.h ****   * @{
 638:Drivers/STM32G4xx_HAL_Driver/Inc/stm32g4xx_ll_adc.h ****   */
 639:Drivers/STM32G4xx_HAL_Driver/Inc/stm32g4xx_ll_adc.h **** 
 640:Drivers/STM32G4xx_HAL_Driver/Inc/stm32g4xx_ll_adc.h **** /** @defgroup ADC_LL_EC_FLAG ADC flags
 641:Drivers/STM32G4xx_HAL_Driver/Inc/stm32g4xx_ll_adc.h ****   * @brief    Flags defines which can be used with LL_ADC_ReadReg function
 642:Drivers/STM32G4xx_HAL_Driver/Inc/stm32g4xx_ll_adc.h ****   * @{
 643:Drivers/STM32G4xx_HAL_Driver/Inc/stm32g4xx_ll_adc.h ****   */
 644:Drivers/STM32G4xx_HAL_Driver/Inc/stm32g4xx_ll_adc.h **** #define LL_ADC_FLAG_ADRDY                  ADC_ISR_ADRDY      /*!< ADC flag ADC instance ready */
 645:Drivers/STM32G4xx_HAL_Driver/Inc/stm32g4xx_ll_adc.h **** #define LL_ADC_FLAG_EOC                    ADC_ISR_EOC        /*!< ADC flag ADC group regular end o
 646:Drivers/STM32G4xx_HAL_Driver/Inc/stm32g4xx_ll_adc.h ****                                            conversion */
 647:Drivers/STM32G4xx_HAL_Driver/Inc/stm32g4xx_ll_adc.h **** #define LL_ADC_FLAG_EOS                    ADC_ISR_EOS        /*!< ADC flag ADC group regular end o
 648:Drivers/STM32G4xx_HAL_Driver/Inc/stm32g4xx_ll_adc.h ****                                            conversions */
 649:Drivers/STM32G4xx_HAL_Driver/Inc/stm32g4xx_ll_adc.h **** #define LL_ADC_FLAG_OVR                    ADC_ISR_OVR        /*!< ADC flag ADC group regular overr
 650:Drivers/STM32G4xx_HAL_Driver/Inc/stm32g4xx_ll_adc.h **** #define LL_ADC_FLAG_EOSMP                  ADC_ISR_EOSMP      /*!< ADC flag ADC group regular end o
 651:Drivers/STM32G4xx_HAL_Driver/Inc/stm32g4xx_ll_adc.h **** #define LL_ADC_FLAG_JEOC                   ADC_ISR_JEOC       /*!< ADC flag ADC group injected end 
 652:Drivers/STM32G4xx_HAL_Driver/Inc/stm32g4xx_ll_adc.h ****                                                                    conversion */
 653:Drivers/STM32G4xx_HAL_Driver/Inc/stm32g4xx_ll_adc.h **** #define LL_ADC_FLAG_JEOS                   ADC_ISR_JEOS       /*!< ADC flag ADC group injected end 
 654:Drivers/STM32G4xx_HAL_Driver/Inc/stm32g4xx_ll_adc.h ****                                                                    conversions */
 655:Drivers/STM32G4xx_HAL_Driver/Inc/stm32g4xx_ll_adc.h **** #define LL_ADC_FLAG_JQOVF                  ADC_ISR_JQOVF      /*!< ADC flag ADC group injected cont
 656:Drivers/STM32G4xx_HAL_Driver/Inc/stm32g4xx_ll_adc.h ****                                                                    overflow */
 657:Drivers/STM32G4xx_HAL_Driver/Inc/stm32g4xx_ll_adc.h **** #define LL_ADC_FLAG_AWD1                   ADC_ISR_AWD1       /*!< ADC flag ADC analog watchdog 1 *
 658:Drivers/STM32G4xx_HAL_Driver/Inc/stm32g4xx_ll_adc.h **** #define LL_ADC_FLAG_AWD2                   ADC_ISR_AWD2       /*!< ADC flag ADC analog watchdog 2 *
 659:Drivers/STM32G4xx_HAL_Driver/Inc/stm32g4xx_ll_adc.h **** #define LL_ADC_FLAG_AWD3                   ADC_ISR_AWD3       /*!< ADC flag ADC analog watchdog 3 *
 660:Drivers/STM32G4xx_HAL_Driver/Inc/stm32g4xx_ll_adc.h **** #if defined(ADC_MULTIMODE_SUPPORT)
 661:Drivers/STM32G4xx_HAL_Driver/Inc/stm32g4xx_ll_adc.h **** #define LL_ADC_FLAG_ADRDY_MST              ADC_CSR_ADRDY_MST  /*!< ADC flag ADC multimode master in
 662:Drivers/STM32G4xx_HAL_Driver/Inc/stm32g4xx_ll_adc.h **** #define LL_ADC_FLAG_ADRDY_SLV              ADC_CSR_ADRDY_SLV  /*!< ADC flag ADC multimode slave ins
 663:Drivers/STM32G4xx_HAL_Driver/Inc/stm32g4xx_ll_adc.h **** #define LL_ADC_FLAG_EOC_MST                ADC_CSR_EOC_MST    /*!< ADC flag ADC multimode master gr
 664:Drivers/STM32G4xx_HAL_Driver/Inc/stm32g4xx_ll_adc.h ****                                                                    unitary conversion */
 665:Drivers/STM32G4xx_HAL_Driver/Inc/stm32g4xx_ll_adc.h **** #define LL_ADC_FLAG_EOC_SLV                ADC_CSR_EOC_SLV    /*!< ADC flag ADC multimode slave gro
 666:Drivers/STM32G4xx_HAL_Driver/Inc/stm32g4xx_ll_adc.h ****                                                                    unitary conversion */
 667:Drivers/STM32G4xx_HAL_Driver/Inc/stm32g4xx_ll_adc.h **** #define LL_ADC_FLAG_EOS_MST                ADC_CSR_EOS_MST    /*!< ADC flag ADC multimode master gr
 668:Drivers/STM32G4xx_HAL_Driver/Inc/stm32g4xx_ll_adc.h ****                                                                    sequence conversions */
 669:Drivers/STM32G4xx_HAL_Driver/Inc/stm32g4xx_ll_adc.h **** #define LL_ADC_FLAG_EOS_SLV                ADC_CSR_EOS_SLV    /*!< ADC flag ADC multimode slave gro
ARM GAS   			page 17


 670:Drivers/STM32G4xx_HAL_Driver/Inc/stm32g4xx_ll_adc.h ****                                                                    sequence conversions */
 671:Drivers/STM32G4xx_HAL_Driver/Inc/stm32g4xx_ll_adc.h **** #define LL_ADC_FLAG_OVR_MST                ADC_CSR_OVR_MST    /*!< ADC flag ADC multimode master gr
 672:Drivers/STM32G4xx_HAL_Driver/Inc/stm32g4xx_ll_adc.h ****                                                                    overrun */
 673:Drivers/STM32G4xx_HAL_Driver/Inc/stm32g4xx_ll_adc.h **** #define LL_ADC_FLAG_OVR_SLV                ADC_CSR_OVR_SLV    /*!< ADC flag ADC multimode slave gro
 674:Drivers/STM32G4xx_HAL_Driver/Inc/stm32g4xx_ll_adc.h ****                                                                    overrun */
 675:Drivers/STM32G4xx_HAL_Driver/Inc/stm32g4xx_ll_adc.h **** #define LL_ADC_FLAG_EOSMP_MST              ADC_CSR_EOSMP_MST  /*!< ADC flag ADC multimode master gr
 676:Drivers/STM32G4xx_HAL_Driver/Inc/stm32g4xx_ll_adc.h ****                                                                    sampling phase */
 677:Drivers/STM32G4xx_HAL_Driver/Inc/stm32g4xx_ll_adc.h **** #define LL_ADC_FLAG_EOSMP_SLV              ADC_CSR_EOSMP_SLV  /*!< ADC flag ADC multimode slave gro
 678:Drivers/STM32G4xx_HAL_Driver/Inc/stm32g4xx_ll_adc.h ****                                                                    sampling phase */
 679:Drivers/STM32G4xx_HAL_Driver/Inc/stm32g4xx_ll_adc.h **** #define LL_ADC_FLAG_JEOC_MST               ADC_CSR_JEOC_MST   /*!< ADC flag ADC multimode master gr
 680:Drivers/STM32G4xx_HAL_Driver/Inc/stm32g4xx_ll_adc.h ****                                                                    unitary conversion */
 681:Drivers/STM32G4xx_HAL_Driver/Inc/stm32g4xx_ll_adc.h **** #define LL_ADC_FLAG_JEOC_SLV               ADC_CSR_JEOC_SLV   /*!< ADC flag ADC multimode slave gro
 682:Drivers/STM32G4xx_HAL_Driver/Inc/stm32g4xx_ll_adc.h ****                                                                    unitary conversion */
 683:Drivers/STM32G4xx_HAL_Driver/Inc/stm32g4xx_ll_adc.h **** #define LL_ADC_FLAG_JEOS_MST               ADC_CSR_JEOS_MST   /*!< ADC flag ADC multimode master gr
 684:Drivers/STM32G4xx_HAL_Driver/Inc/stm32g4xx_ll_adc.h ****                                                                    sequence conversions */
 685:Drivers/STM32G4xx_HAL_Driver/Inc/stm32g4xx_ll_adc.h **** #define LL_ADC_FLAG_JEOS_SLV               ADC_CSR_JEOS_SLV   /*!< ADC flag ADC multimode slave gro
 686:Drivers/STM32G4xx_HAL_Driver/Inc/stm32g4xx_ll_adc.h ****                                                                    sequence conversions */
 687:Drivers/STM32G4xx_HAL_Driver/Inc/stm32g4xx_ll_adc.h **** #define LL_ADC_FLAG_JQOVF_MST              ADC_CSR_JQOVF_MST  /*!< ADC flag ADC multimode master gr
 688:Drivers/STM32G4xx_HAL_Driver/Inc/stm32g4xx_ll_adc.h ****                                                                    contexts queue overflow */
 689:Drivers/STM32G4xx_HAL_Driver/Inc/stm32g4xx_ll_adc.h **** #define LL_ADC_FLAG_JQOVF_SLV              ADC_CSR_JQOVF_SLV  /*!< ADC flag ADC multimode slave gro
 690:Drivers/STM32G4xx_HAL_Driver/Inc/stm32g4xx_ll_adc.h ****                                                                    contexts queue overflow */
 691:Drivers/STM32G4xx_HAL_Driver/Inc/stm32g4xx_ll_adc.h **** #define LL_ADC_FLAG_AWD1_MST               ADC_CSR_AWD1_MST   /*!< ADC flag ADC multimode master an
 692:Drivers/STM32G4xx_HAL_Driver/Inc/stm32g4xx_ll_adc.h ****                                                                    of the ADC master */
 693:Drivers/STM32G4xx_HAL_Driver/Inc/stm32g4xx_ll_adc.h **** #define LL_ADC_FLAG_AWD1_SLV               ADC_CSR_AWD1_SLV   /*!< ADC flag ADC multimode slave ana
 694:Drivers/STM32G4xx_HAL_Driver/Inc/stm32g4xx_ll_adc.h ****                                                                    of the ADC slave */
 695:Drivers/STM32G4xx_HAL_Driver/Inc/stm32g4xx_ll_adc.h **** #define LL_ADC_FLAG_AWD2_MST               ADC_CSR_AWD2_MST   /*!< ADC flag ADC multimode master an
 696:Drivers/STM32G4xx_HAL_Driver/Inc/stm32g4xx_ll_adc.h ****                                                                    of the ADC master */
 697:Drivers/STM32G4xx_HAL_Driver/Inc/stm32g4xx_ll_adc.h **** #define LL_ADC_FLAG_AWD2_SLV               ADC_CSR_AWD2_SLV   /*!< ADC flag ADC multimode slave ana
 698:Drivers/STM32G4xx_HAL_Driver/Inc/stm32g4xx_ll_adc.h ****                                                                    of the ADC slave */
 699:Drivers/STM32G4xx_HAL_Driver/Inc/stm32g4xx_ll_adc.h **** #define LL_ADC_FLAG_AWD3_MST               ADC_CSR_AWD3_MST   /*!< ADC flag ADC multimode master an
 700:Drivers/STM32G4xx_HAL_Driver/Inc/stm32g4xx_ll_adc.h ****                                                                    of the ADC master */
 701:Drivers/STM32G4xx_HAL_Driver/Inc/stm32g4xx_ll_adc.h **** #define LL_ADC_FLAG_AWD3_SLV               ADC_CSR_AWD3_SLV   /*!< ADC flag ADC multimode slave ana
 702:Drivers/STM32G4xx_HAL_Driver/Inc/stm32g4xx_ll_adc.h ****                                                                    of the ADC slave */
 703:Drivers/STM32G4xx_HAL_Driver/Inc/stm32g4xx_ll_adc.h **** #endif /* ADC_MULTIMODE_SUPPORT */
 704:Drivers/STM32G4xx_HAL_Driver/Inc/stm32g4xx_ll_adc.h **** /**
 705:Drivers/STM32G4xx_HAL_Driver/Inc/stm32g4xx_ll_adc.h ****   * @}
 706:Drivers/STM32G4xx_HAL_Driver/Inc/stm32g4xx_ll_adc.h ****   */
 707:Drivers/STM32G4xx_HAL_Driver/Inc/stm32g4xx_ll_adc.h **** 
 708:Drivers/STM32G4xx_HAL_Driver/Inc/stm32g4xx_ll_adc.h **** /** @defgroup ADC_LL_EC_IT ADC interruptions for configuration (interruption enable or disable)
 709:Drivers/STM32G4xx_HAL_Driver/Inc/stm32g4xx_ll_adc.h ****   * @brief    IT defines which can be used with LL_ADC_ReadReg and  LL_ADC_WriteReg functions
 710:Drivers/STM32G4xx_HAL_Driver/Inc/stm32g4xx_ll_adc.h ****   * @{
 711:Drivers/STM32G4xx_HAL_Driver/Inc/stm32g4xx_ll_adc.h ****   */
 712:Drivers/STM32G4xx_HAL_Driver/Inc/stm32g4xx_ll_adc.h **** #define LL_ADC_IT_ADRDY                    ADC_IER_ADRDYIE    /*!< ADC interruption ADC instance re
 713:Drivers/STM32G4xx_HAL_Driver/Inc/stm32g4xx_ll_adc.h **** #define LL_ADC_IT_EOC                      ADC_IER_EOCIE      /*!< ADC interruption ADC group regul
 714:Drivers/STM32G4xx_HAL_Driver/Inc/stm32g4xx_ll_adc.h ****                                                                    conversion */
 715:Drivers/STM32G4xx_HAL_Driver/Inc/stm32g4xx_ll_adc.h **** #define LL_ADC_IT_EOS                      ADC_IER_EOSIE      /*!< ADC interruption ADC group regul
 716:Drivers/STM32G4xx_HAL_Driver/Inc/stm32g4xx_ll_adc.h ****                                                                    conversions */
 717:Drivers/STM32G4xx_HAL_Driver/Inc/stm32g4xx_ll_adc.h **** #define LL_ADC_IT_OVR                      ADC_IER_OVRIE      /*!< ADC interruption ADC group regul
 718:Drivers/STM32G4xx_HAL_Driver/Inc/stm32g4xx_ll_adc.h **** #define LL_ADC_IT_EOSMP                    ADC_IER_EOSMPIE    /*!< ADC interruption ADC group regul
 719:Drivers/STM32G4xx_HAL_Driver/Inc/stm32g4xx_ll_adc.h ****                                                                    phase */
 720:Drivers/STM32G4xx_HAL_Driver/Inc/stm32g4xx_ll_adc.h **** #define LL_ADC_IT_JEOC                     ADC_IER_JEOCIE     /*!< ADC interruption ADC group injec
 721:Drivers/STM32G4xx_HAL_Driver/Inc/stm32g4xx_ll_adc.h ****                                                                    conversion */
 722:Drivers/STM32G4xx_HAL_Driver/Inc/stm32g4xx_ll_adc.h **** #define LL_ADC_IT_JEOS                     ADC_IER_JEOSIE     /*!< ADC interruption ADC group injec
 723:Drivers/STM32G4xx_HAL_Driver/Inc/stm32g4xx_ll_adc.h ****                                                                    conversions */
 724:Drivers/STM32G4xx_HAL_Driver/Inc/stm32g4xx_ll_adc.h **** #define LL_ADC_IT_JQOVF                    ADC_IER_JQOVFIE    /*!< ADC interruption ADC group injec
 725:Drivers/STM32G4xx_HAL_Driver/Inc/stm32g4xx_ll_adc.h ****                                                                    overflow */
 726:Drivers/STM32G4xx_HAL_Driver/Inc/stm32g4xx_ll_adc.h **** #define LL_ADC_IT_AWD1                     ADC_IER_AWD1IE     /*!< ADC interruption ADC analog watc
ARM GAS   			page 18


 727:Drivers/STM32G4xx_HAL_Driver/Inc/stm32g4xx_ll_adc.h **** #define LL_ADC_IT_AWD2                     ADC_IER_AWD2IE     /*!< ADC interruption ADC analog watc
 728:Drivers/STM32G4xx_HAL_Driver/Inc/stm32g4xx_ll_adc.h **** #define LL_ADC_IT_AWD3                     ADC_IER_AWD3IE     /*!< ADC interruption ADC analog watc
 729:Drivers/STM32G4xx_HAL_Driver/Inc/stm32g4xx_ll_adc.h **** /**
 730:Drivers/STM32G4xx_HAL_Driver/Inc/stm32g4xx_ll_adc.h ****   * @}
 731:Drivers/STM32G4xx_HAL_Driver/Inc/stm32g4xx_ll_adc.h ****   */
 732:Drivers/STM32G4xx_HAL_Driver/Inc/stm32g4xx_ll_adc.h **** 
 733:Drivers/STM32G4xx_HAL_Driver/Inc/stm32g4xx_ll_adc.h **** /** @defgroup ADC_LL_EC_REGISTERS  ADC registers compliant with specific purpose
 734:Drivers/STM32G4xx_HAL_Driver/Inc/stm32g4xx_ll_adc.h ****   * @{
 735:Drivers/STM32G4xx_HAL_Driver/Inc/stm32g4xx_ll_adc.h ****   */
 736:Drivers/STM32G4xx_HAL_Driver/Inc/stm32g4xx_ll_adc.h **** /* List of ADC registers intended to be used (most commonly) with             */
 737:Drivers/STM32G4xx_HAL_Driver/Inc/stm32g4xx_ll_adc.h **** /* DMA transfer.                                                              */
 738:Drivers/STM32G4xx_HAL_Driver/Inc/stm32g4xx_ll_adc.h **** /* Refer to function @ref LL_ADC_DMA_GetRegAddr().                            */
 739:Drivers/STM32G4xx_HAL_Driver/Inc/stm32g4xx_ll_adc.h **** #define LL_ADC_DMA_REG_REGULAR_DATA        (0x00000000UL)      /* ADC group regular conversion data
 740:Drivers/STM32G4xx_HAL_Driver/Inc/stm32g4xx_ll_adc.h ****                                            (corresponding to register DR) to be used with ADC confi
 741:Drivers/STM32G4xx_HAL_Driver/Inc/stm32g4xx_ll_adc.h ****                                            mode. Without DMA transfer, register accessed by LL func
 742:Drivers/STM32G4xx_HAL_Driver/Inc/stm32g4xx_ll_adc.h ****                                            @ref LL_ADC_REG_ReadConversionData32() and other
 743:Drivers/STM32G4xx_HAL_Driver/Inc/stm32g4xx_ll_adc.h ****                                            functions @ref LL_ADC_REG_ReadConversionDatax() */
 744:Drivers/STM32G4xx_HAL_Driver/Inc/stm32g4xx_ll_adc.h **** #if defined(ADC_MULTIMODE_SUPPORT)
 745:Drivers/STM32G4xx_HAL_Driver/Inc/stm32g4xx_ll_adc.h **** #define LL_ADC_DMA_REG_REGULAR_DATA_MULTI  (0x00000001UL)      /* ADC group regular conversion data
 746:Drivers/STM32G4xx_HAL_Driver/Inc/stm32g4xx_ll_adc.h ****                                            (corresponding to register CDR) to be used with ADC conf
 747:Drivers/STM32G4xx_HAL_Driver/Inc/stm32g4xx_ll_adc.h ****                                            (available on STM32 devices with several ADC instances).
 748:Drivers/STM32G4xx_HAL_Driver/Inc/stm32g4xx_ll_adc.h ****                                            Without DMA transfer, register accessed by LL function
 749:Drivers/STM32G4xx_HAL_Driver/Inc/stm32g4xx_ll_adc.h ****                                            @ref LL_ADC_REG_ReadMultiConversionData32() */
 750:Drivers/STM32G4xx_HAL_Driver/Inc/stm32g4xx_ll_adc.h **** #endif /* ADC_MULTIMODE_SUPPORT */
 751:Drivers/STM32G4xx_HAL_Driver/Inc/stm32g4xx_ll_adc.h **** /**
 752:Drivers/STM32G4xx_HAL_Driver/Inc/stm32g4xx_ll_adc.h ****   * @}
 753:Drivers/STM32G4xx_HAL_Driver/Inc/stm32g4xx_ll_adc.h ****   */
 754:Drivers/STM32G4xx_HAL_Driver/Inc/stm32g4xx_ll_adc.h **** 
 755:Drivers/STM32G4xx_HAL_Driver/Inc/stm32g4xx_ll_adc.h **** /** @defgroup ADC_LL_EC_COMMON_CLOCK_SOURCE  ADC common - Clock source
 756:Drivers/STM32G4xx_HAL_Driver/Inc/stm32g4xx_ll_adc.h ****   * @{
 757:Drivers/STM32G4xx_HAL_Driver/Inc/stm32g4xx_ll_adc.h ****   */
 758:Drivers/STM32G4xx_HAL_Driver/Inc/stm32g4xx_ll_adc.h **** #define LL_ADC_CLOCK_SYNC_PCLK_DIV1        (ADC_CCR_CKMODE_0)                    /*!< ADC synchrono
 759:Drivers/STM32G4xx_HAL_Driver/Inc/stm32g4xx_ll_adc.h ****                                            AHB clock without prescaler */
 760:Drivers/STM32G4xx_HAL_Driver/Inc/stm32g4xx_ll_adc.h **** #define LL_ADC_CLOCK_SYNC_PCLK_DIV2        (ADC_CCR_CKMODE_1)                    /*!< ADC synchrono
 761:Drivers/STM32G4xx_HAL_Driver/Inc/stm32g4xx_ll_adc.h ****                                            AHB clock with prescaler division by 2 */
 762:Drivers/STM32G4xx_HAL_Driver/Inc/stm32g4xx_ll_adc.h **** #define LL_ADC_CLOCK_SYNC_PCLK_DIV4        (ADC_CCR_CKMODE_1 | ADC_CCR_CKMODE_0) /*!< ADC synchrono
 763:Drivers/STM32G4xx_HAL_Driver/Inc/stm32g4xx_ll_adc.h ****                                            AHB clock with prescaler division by 4 */
 764:Drivers/STM32G4xx_HAL_Driver/Inc/stm32g4xx_ll_adc.h **** #define LL_ADC_CLOCK_ASYNC_DIV1            (0x00000000UL)                      /*!< ADC asynchronou
 765:Drivers/STM32G4xx_HAL_Driver/Inc/stm32g4xx_ll_adc.h ****                                            prescaler */
 766:Drivers/STM32G4xx_HAL_Driver/Inc/stm32g4xx_ll_adc.h **** #define LL_ADC_CLOCK_ASYNC_DIV2            (ADC_CCR_PRESC_0)                   /*!< ADC asynchronou
 767:Drivers/STM32G4xx_HAL_Driver/Inc/stm32g4xx_ll_adc.h ****                                            prescaler division by 2 */
 768:Drivers/STM32G4xx_HAL_Driver/Inc/stm32g4xx_ll_adc.h **** #define LL_ADC_CLOCK_ASYNC_DIV4            (ADC_CCR_PRESC_1)                   /*!< ADC asynchronou
 769:Drivers/STM32G4xx_HAL_Driver/Inc/stm32g4xx_ll_adc.h ****                                            prescaler division by 4 */
 770:Drivers/STM32G4xx_HAL_Driver/Inc/stm32g4xx_ll_adc.h **** #define LL_ADC_CLOCK_ASYNC_DIV6            (ADC_CCR_PRESC_1 | ADC_CCR_PRESC_0) /*!< ADC asynchronou
 771:Drivers/STM32G4xx_HAL_Driver/Inc/stm32g4xx_ll_adc.h ****                                            prescaler division by 6 */
 772:Drivers/STM32G4xx_HAL_Driver/Inc/stm32g4xx_ll_adc.h **** #define LL_ADC_CLOCK_ASYNC_DIV8            (ADC_CCR_PRESC_2)                   /*!< ADC asynchronou
 773:Drivers/STM32G4xx_HAL_Driver/Inc/stm32g4xx_ll_adc.h ****                                            prescaler division by 8 */
 774:Drivers/STM32G4xx_HAL_Driver/Inc/stm32g4xx_ll_adc.h **** #define LL_ADC_CLOCK_ASYNC_DIV10           (ADC_CCR_PRESC_2 | ADC_CCR_PRESC_0) /*!< ADC asynchronou
 775:Drivers/STM32G4xx_HAL_Driver/Inc/stm32g4xx_ll_adc.h ****                                            prescaler division by 10 */
 776:Drivers/STM32G4xx_HAL_Driver/Inc/stm32g4xx_ll_adc.h **** #define LL_ADC_CLOCK_ASYNC_DIV12           (ADC_CCR_PRESC_2 | ADC_CCR_PRESC_1) /*!< ADC asynchronou
 777:Drivers/STM32G4xx_HAL_Driver/Inc/stm32g4xx_ll_adc.h ****                                            prescaler division by 12 */
 778:Drivers/STM32G4xx_HAL_Driver/Inc/stm32g4xx_ll_adc.h **** #define LL_ADC_CLOCK_ASYNC_DIV16           (ADC_CCR_PRESC_2 | ADC_CCR_PRESC_1 \
 779:Drivers/STM32G4xx_HAL_Driver/Inc/stm32g4xx_ll_adc.h ****                                             | ADC_CCR_PRESC_0)                  /*!< ADC asynchrono
 780:Drivers/STM32G4xx_HAL_Driver/Inc/stm32g4xx_ll_adc.h ****                                            prescaler division by 16  */
 781:Drivers/STM32G4xx_HAL_Driver/Inc/stm32g4xx_ll_adc.h **** #define LL_ADC_CLOCK_ASYNC_DIV32           (ADC_CCR_PRESC_3)                   /*!< ADC asynchronou
 782:Drivers/STM32G4xx_HAL_Driver/Inc/stm32g4xx_ll_adc.h ****                                            prescaler division by 32 */
 783:Drivers/STM32G4xx_HAL_Driver/Inc/stm32g4xx_ll_adc.h **** #define LL_ADC_CLOCK_ASYNC_DIV64           (ADC_CCR_PRESC_3 | ADC_CCR_PRESC_0) /*!< ADC asynchronou
ARM GAS   			page 19


 784:Drivers/STM32G4xx_HAL_Driver/Inc/stm32g4xx_ll_adc.h ****                                            prescaler division by 64 */
 785:Drivers/STM32G4xx_HAL_Driver/Inc/stm32g4xx_ll_adc.h **** #define LL_ADC_CLOCK_ASYNC_DIV128          (ADC_CCR_PRESC_3 | ADC_CCR_PRESC_1) /*!< ADC asynchronou
 786:Drivers/STM32G4xx_HAL_Driver/Inc/stm32g4xx_ll_adc.h ****                                            prescaler division by 128 */
 787:Drivers/STM32G4xx_HAL_Driver/Inc/stm32g4xx_ll_adc.h **** #define LL_ADC_CLOCK_ASYNC_DIV256          (ADC_CCR_PRESC_3 | ADC_CCR_PRESC_1 \
 788:Drivers/STM32G4xx_HAL_Driver/Inc/stm32g4xx_ll_adc.h ****                                             | ADC_CCR_PRESC_0)                  /*!< ADC asynchrono
 789:Drivers/STM32G4xx_HAL_Driver/Inc/stm32g4xx_ll_adc.h ****                                            prescaler division by 256 */
 790:Drivers/STM32G4xx_HAL_Driver/Inc/stm32g4xx_ll_adc.h **** /**
 791:Drivers/STM32G4xx_HAL_Driver/Inc/stm32g4xx_ll_adc.h ****   * @}
 792:Drivers/STM32G4xx_HAL_Driver/Inc/stm32g4xx_ll_adc.h ****   */
 793:Drivers/STM32G4xx_HAL_Driver/Inc/stm32g4xx_ll_adc.h **** 
 794:Drivers/STM32G4xx_HAL_Driver/Inc/stm32g4xx_ll_adc.h **** /** @defgroup ADC_LL_EC_COMMON_PATH_INTERNAL  ADC common - Measurement path to internal channels
 795:Drivers/STM32G4xx_HAL_Driver/Inc/stm32g4xx_ll_adc.h ****   * @{
 796:Drivers/STM32G4xx_HAL_Driver/Inc/stm32g4xx_ll_adc.h ****   */
 797:Drivers/STM32G4xx_HAL_Driver/Inc/stm32g4xx_ll_adc.h **** /* Note: Other measurement paths to internal channels may be available        */
 798:Drivers/STM32G4xx_HAL_Driver/Inc/stm32g4xx_ll_adc.h **** /*       (connections to other peripherals).                                  */
 799:Drivers/STM32G4xx_HAL_Driver/Inc/stm32g4xx_ll_adc.h **** /*       If they are not listed below, they do not require any specific       */
 800:Drivers/STM32G4xx_HAL_Driver/Inc/stm32g4xx_ll_adc.h **** /*       path enable. In this case, Access to measurement path is done        */
 801:Drivers/STM32G4xx_HAL_Driver/Inc/stm32g4xx_ll_adc.h **** /*       only by selecting the corresponding ADC internal channel.            */
 802:Drivers/STM32G4xx_HAL_Driver/Inc/stm32g4xx_ll_adc.h **** #define LL_ADC_PATH_INTERNAL_NONE          (0x00000000UL)       /*!< ADC measurement paths all disa
 803:Drivers/STM32G4xx_HAL_Driver/Inc/stm32g4xx_ll_adc.h **** #define LL_ADC_PATH_INTERNAL_VREFINT       (ADC_CCR_VREFEN)     /*!< ADC measurement path to intern
 804:Drivers/STM32G4xx_HAL_Driver/Inc/stm32g4xx_ll_adc.h **** #define LL_ADC_PATH_INTERNAL_TEMPSENSOR    (ADC_CCR_VSENSESEL)  /*!< ADC measurement path to intern
 805:Drivers/STM32G4xx_HAL_Driver/Inc/stm32g4xx_ll_adc.h ****                                                                      temperature sensor */
 806:Drivers/STM32G4xx_HAL_Driver/Inc/stm32g4xx_ll_adc.h **** #define LL_ADC_PATH_INTERNAL_VBAT          (ADC_CCR_VBATSEL)    /*!< ADC measurement path to intern
 807:Drivers/STM32G4xx_HAL_Driver/Inc/stm32g4xx_ll_adc.h **** /**
 808:Drivers/STM32G4xx_HAL_Driver/Inc/stm32g4xx_ll_adc.h ****   * @}
 809:Drivers/STM32G4xx_HAL_Driver/Inc/stm32g4xx_ll_adc.h ****   */
 810:Drivers/STM32G4xx_HAL_Driver/Inc/stm32g4xx_ll_adc.h **** 
 811:Drivers/STM32G4xx_HAL_Driver/Inc/stm32g4xx_ll_adc.h **** /** @defgroup ADC_LL_EC_RESOLUTION  ADC instance - Resolution
 812:Drivers/STM32G4xx_HAL_Driver/Inc/stm32g4xx_ll_adc.h ****   * @{
 813:Drivers/STM32G4xx_HAL_Driver/Inc/stm32g4xx_ll_adc.h ****   */
 814:Drivers/STM32G4xx_HAL_Driver/Inc/stm32g4xx_ll_adc.h **** #define LL_ADC_RESOLUTION_12B              (0x00000000UL)                      /*!< ADC resolution 
 815:Drivers/STM32G4xx_HAL_Driver/Inc/stm32g4xx_ll_adc.h **** #define LL_ADC_RESOLUTION_10B              (                 ADC_CFGR_RES_0)   /*!< ADC resolution 
 816:Drivers/STM32G4xx_HAL_Driver/Inc/stm32g4xx_ll_adc.h **** #define LL_ADC_RESOLUTION_8B               (ADC_CFGR_RES_1                 )   /*!< ADC resolution 
 817:Drivers/STM32G4xx_HAL_Driver/Inc/stm32g4xx_ll_adc.h **** #define LL_ADC_RESOLUTION_6B               (ADC_CFGR_RES_1 | ADC_CFGR_RES_0)   /*!< ADC resolution 
 818:Drivers/STM32G4xx_HAL_Driver/Inc/stm32g4xx_ll_adc.h **** /**
 819:Drivers/STM32G4xx_HAL_Driver/Inc/stm32g4xx_ll_adc.h ****   * @}
 820:Drivers/STM32G4xx_HAL_Driver/Inc/stm32g4xx_ll_adc.h ****   */
 821:Drivers/STM32G4xx_HAL_Driver/Inc/stm32g4xx_ll_adc.h **** 
 822:Drivers/STM32G4xx_HAL_Driver/Inc/stm32g4xx_ll_adc.h **** /** @defgroup ADC_LL_EC_DATA_ALIGN  ADC instance - Data alignment
 823:Drivers/STM32G4xx_HAL_Driver/Inc/stm32g4xx_ll_adc.h ****   * @{
 824:Drivers/STM32G4xx_HAL_Driver/Inc/stm32g4xx_ll_adc.h ****   */
 825:Drivers/STM32G4xx_HAL_Driver/Inc/stm32g4xx_ll_adc.h **** #define LL_ADC_DATA_ALIGN_RIGHT            (0x00000000UL)     /*!< ADC conversion data alignment: r
 826:Drivers/STM32G4xx_HAL_Driver/Inc/stm32g4xx_ll_adc.h ****                                            (alignment on data register LSB bit 0)*/
 827:Drivers/STM32G4xx_HAL_Driver/Inc/stm32g4xx_ll_adc.h **** #define LL_ADC_DATA_ALIGN_LEFT             (ADC_CFGR_ALIGN)   /*!< ADC conversion data alignment: l
 828:Drivers/STM32G4xx_HAL_Driver/Inc/stm32g4xx_ll_adc.h ****                                            (alignment on data register MSB bit 15)*/
 829:Drivers/STM32G4xx_HAL_Driver/Inc/stm32g4xx_ll_adc.h **** /**
 830:Drivers/STM32G4xx_HAL_Driver/Inc/stm32g4xx_ll_adc.h ****   * @}
 831:Drivers/STM32G4xx_HAL_Driver/Inc/stm32g4xx_ll_adc.h ****   */
 832:Drivers/STM32G4xx_HAL_Driver/Inc/stm32g4xx_ll_adc.h **** 
 833:Drivers/STM32G4xx_HAL_Driver/Inc/stm32g4xx_ll_adc.h **** /** @defgroup ADC_LL_EC_LP_MODE  ADC instance - Low power mode
 834:Drivers/STM32G4xx_HAL_Driver/Inc/stm32g4xx_ll_adc.h ****   * @{
 835:Drivers/STM32G4xx_HAL_Driver/Inc/stm32g4xx_ll_adc.h ****   */
 836:Drivers/STM32G4xx_HAL_Driver/Inc/stm32g4xx_ll_adc.h **** #define LL_ADC_LP_MODE_NONE                (0x00000000UL)     /*!< No ADC low power mode activated 
 837:Drivers/STM32G4xx_HAL_Driver/Inc/stm32g4xx_ll_adc.h **** #define LL_ADC_LP_AUTOWAIT                 (ADC_CFGR_AUTDLY)  /*!< ADC low power mode auto delay: D
 838:Drivers/STM32G4xx_HAL_Driver/Inc/stm32g4xx_ll_adc.h ****                                            mode, ADC conversions are performed only when necessary
 839:Drivers/STM32G4xx_HAL_Driver/Inc/stm32g4xx_ll_adc.h ****                                            (when previous ADC conversion data is read).
 840:Drivers/STM32G4xx_HAL_Driver/Inc/stm32g4xx_ll_adc.h ****                                            See description with function @ref LL_ADC_SetLowPowerMod
ARM GAS   			page 20


 841:Drivers/STM32G4xx_HAL_Driver/Inc/stm32g4xx_ll_adc.h **** /**
 842:Drivers/STM32G4xx_HAL_Driver/Inc/stm32g4xx_ll_adc.h ****   * @}
 843:Drivers/STM32G4xx_HAL_Driver/Inc/stm32g4xx_ll_adc.h ****   */
 844:Drivers/STM32G4xx_HAL_Driver/Inc/stm32g4xx_ll_adc.h **** 
 845:Drivers/STM32G4xx_HAL_Driver/Inc/stm32g4xx_ll_adc.h **** /** @defgroup ADC_LL_EC_OFFSET_NB  ADC instance - Offset instance
 846:Drivers/STM32G4xx_HAL_Driver/Inc/stm32g4xx_ll_adc.h ****   * @{
 847:Drivers/STM32G4xx_HAL_Driver/Inc/stm32g4xx_ll_adc.h ****   */
 848:Drivers/STM32G4xx_HAL_Driver/Inc/stm32g4xx_ll_adc.h **** #define LL_ADC_OFFSET_1                    ADC_OFR1_REGOFFSET /*!< ADC offset instance 1: ADC chann
 849:Drivers/STM32G4xx_HAL_Driver/Inc/stm32g4xx_ll_adc.h ****                                            to which the offset programmed will be applied (independ
 850:Drivers/STM32G4xx_HAL_Driver/Inc/stm32g4xx_ll_adc.h ****                                            mapped on ADC group regular or injected) */
 851:Drivers/STM32G4xx_HAL_Driver/Inc/stm32g4xx_ll_adc.h **** #define LL_ADC_OFFSET_2                    ADC_OFR2_REGOFFSET /*!< ADC offset instance 2: ADC chann
 852:Drivers/STM32G4xx_HAL_Driver/Inc/stm32g4xx_ll_adc.h ****                                            to which the offset programmed will be applied (independ
 853:Drivers/STM32G4xx_HAL_Driver/Inc/stm32g4xx_ll_adc.h ****                                            mapped on ADC group regular or injected) */
 854:Drivers/STM32G4xx_HAL_Driver/Inc/stm32g4xx_ll_adc.h **** #define LL_ADC_OFFSET_3                    ADC_OFR3_REGOFFSET /*!< ADC offset instance 3: ADC chann
 855:Drivers/STM32G4xx_HAL_Driver/Inc/stm32g4xx_ll_adc.h ****                                            to which the offset programmed will be applied (independ
 856:Drivers/STM32G4xx_HAL_Driver/Inc/stm32g4xx_ll_adc.h ****                                            mapped on ADC group regular or injected) */
 857:Drivers/STM32G4xx_HAL_Driver/Inc/stm32g4xx_ll_adc.h **** #define LL_ADC_OFFSET_4                    ADC_OFR4_REGOFFSET /*!< ADC offset instance 4: ADC chann
 858:Drivers/STM32G4xx_HAL_Driver/Inc/stm32g4xx_ll_adc.h ****                                            to which the offset programmed will be applied (independ
 859:Drivers/STM32G4xx_HAL_Driver/Inc/stm32g4xx_ll_adc.h ****                                            mapped on ADC group regular or injected) */
 860:Drivers/STM32G4xx_HAL_Driver/Inc/stm32g4xx_ll_adc.h **** /**
 861:Drivers/STM32G4xx_HAL_Driver/Inc/stm32g4xx_ll_adc.h ****   * @}
 862:Drivers/STM32G4xx_HAL_Driver/Inc/stm32g4xx_ll_adc.h ****   */
 863:Drivers/STM32G4xx_HAL_Driver/Inc/stm32g4xx_ll_adc.h **** 
 864:Drivers/STM32G4xx_HAL_Driver/Inc/stm32g4xx_ll_adc.h **** /** @defgroup ADC_LL_EC_OFFSET_STATE ADC instance - Offset state
 865:Drivers/STM32G4xx_HAL_Driver/Inc/stm32g4xx_ll_adc.h ****   * @{
 866:Drivers/STM32G4xx_HAL_Driver/Inc/stm32g4xx_ll_adc.h ****   */
 867:Drivers/STM32G4xx_HAL_Driver/Inc/stm32g4xx_ll_adc.h **** #define LL_ADC_OFFSET_DISABLE              (0x00000000UL)         /*!< ADC offset disabled
 868:Drivers/STM32G4xx_HAL_Driver/Inc/stm32g4xx_ll_adc.h ****                                            (setting offset instance wise) */
 869:Drivers/STM32G4xx_HAL_Driver/Inc/stm32g4xx_ll_adc.h **** #define LL_ADC_OFFSET_ENABLE               (ADC_OFR1_OFFSET1_EN)  /*!< ADC offset enabled
 870:Drivers/STM32G4xx_HAL_Driver/Inc/stm32g4xx_ll_adc.h ****                                            (setting offset instance wise) */
 871:Drivers/STM32G4xx_HAL_Driver/Inc/stm32g4xx_ll_adc.h **** /**
 872:Drivers/STM32G4xx_HAL_Driver/Inc/stm32g4xx_ll_adc.h ****   * @}
 873:Drivers/STM32G4xx_HAL_Driver/Inc/stm32g4xx_ll_adc.h ****   */
 874:Drivers/STM32G4xx_HAL_Driver/Inc/stm32g4xx_ll_adc.h **** 
 875:Drivers/STM32G4xx_HAL_Driver/Inc/stm32g4xx_ll_adc.h **** /** @defgroup ADC_LL_EC_OFFSET_SIGN ADC instance - Offset sign
 876:Drivers/STM32G4xx_HAL_Driver/Inc/stm32g4xx_ll_adc.h ****   * @{
 877:Drivers/STM32G4xx_HAL_Driver/Inc/stm32g4xx_ll_adc.h ****   */
 878:Drivers/STM32G4xx_HAL_Driver/Inc/stm32g4xx_ll_adc.h **** #define LL_ADC_OFFSET_SIGN_NEGATIVE        (0x00000000UL)       /*!< ADC offset is negative */
 879:Drivers/STM32G4xx_HAL_Driver/Inc/stm32g4xx_ll_adc.h **** #define LL_ADC_OFFSET_SIGN_POSITIVE        (ADC_OFR1_OFFSETPOS) /*!< ADC offset is positive */
 880:Drivers/STM32G4xx_HAL_Driver/Inc/stm32g4xx_ll_adc.h **** /**
 881:Drivers/STM32G4xx_HAL_Driver/Inc/stm32g4xx_ll_adc.h ****   * @}
 882:Drivers/STM32G4xx_HAL_Driver/Inc/stm32g4xx_ll_adc.h ****   */
 883:Drivers/STM32G4xx_HAL_Driver/Inc/stm32g4xx_ll_adc.h **** 
 884:Drivers/STM32G4xx_HAL_Driver/Inc/stm32g4xx_ll_adc.h **** /** @defgroup ADC_LL_EC_OFFSET_SATURATION ADC instance - Offset saturation mode
 885:Drivers/STM32G4xx_HAL_Driver/Inc/stm32g4xx_ll_adc.h ****   * @{
 886:Drivers/STM32G4xx_HAL_Driver/Inc/stm32g4xx_ll_adc.h ****   */
 887:Drivers/STM32G4xx_HAL_Driver/Inc/stm32g4xx_ll_adc.h **** #define LL_ADC_OFFSET_SATURATION_DISABLE   (0x00000000UL)     /*!< ADC offset saturation is disable
 888:Drivers/STM32G4xx_HAL_Driver/Inc/stm32g4xx_ll_adc.h ****                                            selected offset instance 1, 2, 3 or 4) */
 889:Drivers/STM32G4xx_HAL_Driver/Inc/stm32g4xx_ll_adc.h **** #define LL_ADC_OFFSET_SATURATION_ENABLE    (ADC_OFR1_SATEN)   /*!< ADC offset saturation is enabled
 890:Drivers/STM32G4xx_HAL_Driver/Inc/stm32g4xx_ll_adc.h ****                                            selected offset instance 1, 2, 3 or 4) */
 891:Drivers/STM32G4xx_HAL_Driver/Inc/stm32g4xx_ll_adc.h **** /**
 892:Drivers/STM32G4xx_HAL_Driver/Inc/stm32g4xx_ll_adc.h ****   * @}
 893:Drivers/STM32G4xx_HAL_Driver/Inc/stm32g4xx_ll_adc.h ****   */
 894:Drivers/STM32G4xx_HAL_Driver/Inc/stm32g4xx_ll_adc.h **** /** @defgroup ADC_LL_EC_GROUPS  ADC instance - Groups
 895:Drivers/STM32G4xx_HAL_Driver/Inc/stm32g4xx_ll_adc.h ****   * @{
 896:Drivers/STM32G4xx_HAL_Driver/Inc/stm32g4xx_ll_adc.h ****   */
 897:Drivers/STM32G4xx_HAL_Driver/Inc/stm32g4xx_ll_adc.h **** #define LL_ADC_GROUP_REGULAR               (0x00000001UL)     /*!< ADC group regular (available on 
ARM GAS   			page 21


 898:Drivers/STM32G4xx_HAL_Driver/Inc/stm32g4xx_ll_adc.h **** #define LL_ADC_GROUP_INJECTED              (0x00000002UL)     /*!< ADC group injected (not availabl
 899:Drivers/STM32G4xx_HAL_Driver/Inc/stm32g4xx_ll_adc.h ****                                            devices)*/
 900:Drivers/STM32G4xx_HAL_Driver/Inc/stm32g4xx_ll_adc.h **** #define LL_ADC_GROUP_REGULAR_INJECTED      (0x00000003UL)     /*!< ADC both groups regular and inje
 901:Drivers/STM32G4xx_HAL_Driver/Inc/stm32g4xx_ll_adc.h **** /**
 902:Drivers/STM32G4xx_HAL_Driver/Inc/stm32g4xx_ll_adc.h ****   * @}
 903:Drivers/STM32G4xx_HAL_Driver/Inc/stm32g4xx_ll_adc.h ****   */
 904:Drivers/STM32G4xx_HAL_Driver/Inc/stm32g4xx_ll_adc.h **** 
 905:Drivers/STM32G4xx_HAL_Driver/Inc/stm32g4xx_ll_adc.h **** /** @defgroup ADC_LL_EC_CHANNEL  ADC instance - Channel number
 906:Drivers/STM32G4xx_HAL_Driver/Inc/stm32g4xx_ll_adc.h ****   * @{
 907:Drivers/STM32G4xx_HAL_Driver/Inc/stm32g4xx_ll_adc.h ****   */
 908:Drivers/STM32G4xx_HAL_Driver/Inc/stm32g4xx_ll_adc.h **** #define LL_ADC_CHANNEL_0                   (ADC_CHANNEL_0_NUMBER  | ADC_CHANNEL_0_SMP \
 909:Drivers/STM32G4xx_HAL_Driver/Inc/stm32g4xx_ll_adc.h ****                                             | ADC_CHANNEL_0_BITFIELD)                       /*!< AD
 910:Drivers/STM32G4xx_HAL_Driver/Inc/stm32g4xx_ll_adc.h **** #define LL_ADC_CHANNEL_1                   (ADC_CHANNEL_1_NUMBER  | ADC_CHANNEL_1_SMP \
 911:Drivers/STM32G4xx_HAL_Driver/Inc/stm32g4xx_ll_adc.h ****                                             | ADC_CHANNEL_1_BITFIELD)                       /*!< AD
 912:Drivers/STM32G4xx_HAL_Driver/Inc/stm32g4xx_ll_adc.h **** #define LL_ADC_CHANNEL_2                   (ADC_CHANNEL_2_NUMBER  | ADC_CHANNEL_2_SMP \
 913:Drivers/STM32G4xx_HAL_Driver/Inc/stm32g4xx_ll_adc.h ****                                             | ADC_CHANNEL_2_BITFIELD)                       /*!< AD
 914:Drivers/STM32G4xx_HAL_Driver/Inc/stm32g4xx_ll_adc.h **** #define LL_ADC_CHANNEL_3                   (ADC_CHANNEL_3_NUMBER  | ADC_CHANNEL_3_SMP \
 915:Drivers/STM32G4xx_HAL_Driver/Inc/stm32g4xx_ll_adc.h ****                                             | ADC_CHANNEL_3_BITFIELD)                       /*!< AD
 916:Drivers/STM32G4xx_HAL_Driver/Inc/stm32g4xx_ll_adc.h **** #define LL_ADC_CHANNEL_4                   (ADC_CHANNEL_4_NUMBER  | ADC_CHANNEL_4_SMP \
 917:Drivers/STM32G4xx_HAL_Driver/Inc/stm32g4xx_ll_adc.h ****                                             | ADC_CHANNEL_4_BITFIELD)                       /*!< AD
 918:Drivers/STM32G4xx_HAL_Driver/Inc/stm32g4xx_ll_adc.h **** #define LL_ADC_CHANNEL_5                   (ADC_CHANNEL_5_NUMBER  | ADC_CHANNEL_5_SMP \
 919:Drivers/STM32G4xx_HAL_Driver/Inc/stm32g4xx_ll_adc.h ****                                             | ADC_CHANNEL_5_BITFIELD)                       /*!< AD
 920:Drivers/STM32G4xx_HAL_Driver/Inc/stm32g4xx_ll_adc.h **** #define LL_ADC_CHANNEL_6                   (ADC_CHANNEL_6_NUMBER  | ADC_CHANNEL_6_SMP \
 921:Drivers/STM32G4xx_HAL_Driver/Inc/stm32g4xx_ll_adc.h ****                                             | ADC_CHANNEL_6_BITFIELD)                       /*!< AD
 922:Drivers/STM32G4xx_HAL_Driver/Inc/stm32g4xx_ll_adc.h **** #define LL_ADC_CHANNEL_7                   (ADC_CHANNEL_7_NUMBER  | ADC_CHANNEL_7_SMP \
 923:Drivers/STM32G4xx_HAL_Driver/Inc/stm32g4xx_ll_adc.h ****                                             | ADC_CHANNEL_7_BITFIELD)                       /*!< AD
 924:Drivers/STM32G4xx_HAL_Driver/Inc/stm32g4xx_ll_adc.h **** #define LL_ADC_CHANNEL_8                   (ADC_CHANNEL_8_NUMBER  | ADC_CHANNEL_8_SMP \
 925:Drivers/STM32G4xx_HAL_Driver/Inc/stm32g4xx_ll_adc.h ****                                             | ADC_CHANNEL_8_BITFIELD)                       /*!< AD
 926:Drivers/STM32G4xx_HAL_Driver/Inc/stm32g4xx_ll_adc.h **** #define LL_ADC_CHANNEL_9                   (ADC_CHANNEL_9_NUMBER  | ADC_CHANNEL_9_SMP \
 927:Drivers/STM32G4xx_HAL_Driver/Inc/stm32g4xx_ll_adc.h ****                                             | ADC_CHANNEL_9_BITFIELD)                       /*!< AD
 928:Drivers/STM32G4xx_HAL_Driver/Inc/stm32g4xx_ll_adc.h **** #define LL_ADC_CHANNEL_10                  (ADC_CHANNEL_10_NUMBER | ADC_CHANNEL_10_SMP \
 929:Drivers/STM32G4xx_HAL_Driver/Inc/stm32g4xx_ll_adc.h ****                                             | ADC_CHANNEL_10_BITFIELD)                      /*!< AD
 930:Drivers/STM32G4xx_HAL_Driver/Inc/stm32g4xx_ll_adc.h **** #define LL_ADC_CHANNEL_11                  (ADC_CHANNEL_11_NUMBER | ADC_CHANNEL_11_SMP \
 931:Drivers/STM32G4xx_HAL_Driver/Inc/stm32g4xx_ll_adc.h ****                                             | ADC_CHANNEL_11_BITFIELD)                      /*!< AD
 932:Drivers/STM32G4xx_HAL_Driver/Inc/stm32g4xx_ll_adc.h **** #define LL_ADC_CHANNEL_12                  (ADC_CHANNEL_12_NUMBER | ADC_CHANNEL_12_SMP \
 933:Drivers/STM32G4xx_HAL_Driver/Inc/stm32g4xx_ll_adc.h ****                                             | ADC_CHANNEL_12_BITFIELD)                      /*!< AD
 934:Drivers/STM32G4xx_HAL_Driver/Inc/stm32g4xx_ll_adc.h **** #define LL_ADC_CHANNEL_13                  (ADC_CHANNEL_13_NUMBER | ADC_CHANNEL_13_SMP \
 935:Drivers/STM32G4xx_HAL_Driver/Inc/stm32g4xx_ll_adc.h ****                                             | ADC_CHANNEL_13_BITFIELD)                      /*!< AD
 936:Drivers/STM32G4xx_HAL_Driver/Inc/stm32g4xx_ll_adc.h **** #define LL_ADC_CHANNEL_14                  (ADC_CHANNEL_14_NUMBER | ADC_CHANNEL_14_SMP \
 937:Drivers/STM32G4xx_HAL_Driver/Inc/stm32g4xx_ll_adc.h ****                                             | ADC_CHANNEL_14_BITFIELD)                      /*!< AD
 938:Drivers/STM32G4xx_HAL_Driver/Inc/stm32g4xx_ll_adc.h **** #define LL_ADC_CHANNEL_15                  (ADC_CHANNEL_15_NUMBER | ADC_CHANNEL_15_SMP \
 939:Drivers/STM32G4xx_HAL_Driver/Inc/stm32g4xx_ll_adc.h ****                                             | ADC_CHANNEL_15_BITFIELD)                      /*!< AD
 940:Drivers/STM32G4xx_HAL_Driver/Inc/stm32g4xx_ll_adc.h **** #define LL_ADC_CHANNEL_16                  (ADC_CHANNEL_16_NUMBER | ADC_CHANNEL_16_SMP | \
 941:Drivers/STM32G4xx_HAL_Driver/Inc/stm32g4xx_ll_adc.h ****                                            ADC_CHANNEL_16_BITFIELD)                        /*!< ADC
 942:Drivers/STM32G4xx_HAL_Driver/Inc/stm32g4xx_ll_adc.h **** #define LL_ADC_CHANNEL_17                  (ADC_CHANNEL_17_NUMBER | ADC_CHANNEL_17_SMP | \
 943:Drivers/STM32G4xx_HAL_Driver/Inc/stm32g4xx_ll_adc.h ****                                            ADC_CHANNEL_17_BITFIELD)                        /*!< ADC
 944:Drivers/STM32G4xx_HAL_Driver/Inc/stm32g4xx_ll_adc.h **** #define LL_ADC_CHANNEL_18                  (ADC_CHANNEL_18_NUMBER | ADC_CHANNEL_18_SMP | \
 945:Drivers/STM32G4xx_HAL_Driver/Inc/stm32g4xx_ll_adc.h ****                                            ADC_CHANNEL_18_BITFIELD)                        /*!< ADC
 946:Drivers/STM32G4xx_HAL_Driver/Inc/stm32g4xx_ll_adc.h **** #define LL_ADC_CHANNEL_VREFINT             (LL_ADC_CHANNEL_18 | ADC_CHANNEL_ID_INTERNAL_CH) /*!< AD
 947:Drivers/STM32G4xx_HAL_Driver/Inc/stm32g4xx_ll_adc.h ****                                            connected to VrefInt: Internal voltage reference.
 948:Drivers/STM32G4xx_HAL_Driver/Inc/stm32g4xx_ll_adc.h ****                                            On this STM32 series, ADC channel available on all insta
 949:Drivers/STM32G4xx_HAL_Driver/Inc/stm32g4xx_ll_adc.h **** #define LL_ADC_CHANNEL_TEMPSENSOR_ADC1     (LL_ADC_CHANNEL_16 | ADC_CHANNEL_ID_INTERNAL_CH) /*!< AD
 950:Drivers/STM32G4xx_HAL_Driver/Inc/stm32g4xx_ll_adc.h ****                                            connected to internal temperature sensor.
 951:Drivers/STM32G4xx_HAL_Driver/Inc/stm32g4xx_ll_adc.h ****                                            On this STM32 series, ADC channel available only on ADC1
 952:Drivers/STM32G4xx_HAL_Driver/Inc/stm32g4xx_ll_adc.h **** #define LL_ADC_CHANNEL_TEMPSENSOR_ADC5     (LL_ADC_CHANNEL_4  | ADC_CHANNEL_ID_INTERNAL_CH) /*!< AD
 953:Drivers/STM32G4xx_HAL_Driver/Inc/stm32g4xx_ll_adc.h ****                                            connected to internal temperature sensor.
 954:Drivers/STM32G4xx_HAL_Driver/Inc/stm32g4xx_ll_adc.h ****                                            On this STM32 series, ADC channel available only on ADC5
ARM GAS   			page 22


 955:Drivers/STM32G4xx_HAL_Driver/Inc/stm32g4xx_ll_adc.h ****                                            Refer to device datasheet for ADC5 availability */
 956:Drivers/STM32G4xx_HAL_Driver/Inc/stm32g4xx_ll_adc.h **** #define LL_ADC_CHANNEL_VBAT                (LL_ADC_CHANNEL_17 | ADC_CHANNEL_ID_INTERNAL_CH) /*!< AD
 957:Drivers/STM32G4xx_HAL_Driver/Inc/stm32g4xx_ll_adc.h ****                                            connected to Vbat/3: Vbat voltage through a divider ladd
 958:Drivers/STM32G4xx_HAL_Driver/Inc/stm32g4xx_ll_adc.h ****                                            to have channel voltage always below Vdda. On this STM32
 959:Drivers/STM32G4xx_HAL_Driver/Inc/stm32g4xx_ll_adc.h ****                                            available on all ADC instances but ADC2 & ADC4. Refer to
 960:Drivers/STM32G4xx_HAL_Driver/Inc/stm32g4xx_ll_adc.h ****                                            for ADC4 availability */
 961:Drivers/STM32G4xx_HAL_Driver/Inc/stm32g4xx_ll_adc.h **** #define LL_ADC_CHANNEL_VOPAMP1             (LL_ADC_CHANNEL_13 | ADC_CHANNEL_ID_INTERNAL_CH) /*!< AD
 962:Drivers/STM32G4xx_HAL_Driver/Inc/stm32g4xx_ll_adc.h ****                                            connected to OPAMP1 output.
 963:Drivers/STM32G4xx_HAL_Driver/Inc/stm32g4xx_ll_adc.h ****                                            On this STM32 series, ADC channel available only on ADC1
 964:Drivers/STM32G4xx_HAL_Driver/Inc/stm32g4xx_ll_adc.h **** #define LL_ADC_CHANNEL_VOPAMP2             (LL_ADC_CHANNEL_16 | ADC_CHANNEL_ID_INTERNAL_CH | \
 965:Drivers/STM32G4xx_HAL_Driver/Inc/stm32g4xx_ll_adc.h ****                                            ADC_CHANNEL_ID_INTERNAL_CH_2) /*!< ADC internal channel 
 966:Drivers/STM32G4xx_HAL_Driver/Inc/stm32g4xx_ll_adc.h ****                                            output. On this STM32 series, ADC channel available only
 967:Drivers/STM32G4xx_HAL_Driver/Inc/stm32g4xx_ll_adc.h **** #define LL_ADC_CHANNEL_VOPAMP3_ADC2        (LL_ADC_CHANNEL_18 | ADC_CHANNEL_ID_INTERNAL_CH | \
 968:Drivers/STM32G4xx_HAL_Driver/Inc/stm32g4xx_ll_adc.h ****                                            ADC_CHANNEL_ID_INTERNAL_CH_2) /*!< ADC internal channel 
 969:Drivers/STM32G4xx_HAL_Driver/Inc/stm32g4xx_ll_adc.h ****                                            output. On this STM32 series, ADC channel available only
 970:Drivers/STM32G4xx_HAL_Driver/Inc/stm32g4xx_ll_adc.h **** #define LL_ADC_CHANNEL_VOPAMP3_ADC3        (LL_ADC_CHANNEL_13 | ADC_CHANNEL_ID_INTERNAL_CH | \
 971:Drivers/STM32G4xx_HAL_Driver/Inc/stm32g4xx_ll_adc.h ****                                            ADC_CHANNEL_ID_INTERNAL_CH_2) /*!< ADC internal channel 
 972:Drivers/STM32G4xx_HAL_Driver/Inc/stm32g4xx_ll_adc.h ****                                            output. On this STM32 series, ADC channel available only
 973:Drivers/STM32G4xx_HAL_Driver/Inc/stm32g4xx_ll_adc.h ****                                            Refer to device datasheet for ADC3 availability */
 974:Drivers/STM32G4xx_HAL_Driver/Inc/stm32g4xx_ll_adc.h **** #define LL_ADC_CHANNEL_VOPAMP4             (LL_ADC_CHANNEL_5  | ADC_CHANNEL_ID_INTERNAL_CH) /*!< AD
 975:Drivers/STM32G4xx_HAL_Driver/Inc/stm32g4xx_ll_adc.h **** connected to OPAMP4 output. On this STM32 series, ADC channel available only on ADC5 instance.
 976:Drivers/STM32G4xx_HAL_Driver/Inc/stm32g4xx_ll_adc.h **** Refer to device datasheet for ADC5 & OPAMP4 availability */
 977:Drivers/STM32G4xx_HAL_Driver/Inc/stm32g4xx_ll_adc.h **** #define LL_ADC_CHANNEL_VOPAMP5             (LL_ADC_CHANNEL_3  | ADC_CHANNEL_ID_INTERNAL_CH) /*!< AD
 978:Drivers/STM32G4xx_HAL_Driver/Inc/stm32g4xx_ll_adc.h **** connected to OPAMP5 output. On this STM32 series, ADC channel available only on ADC5 instance.
 979:Drivers/STM32G4xx_HAL_Driver/Inc/stm32g4xx_ll_adc.h **** Refer to device datasheet for ADC5 & OPAMP5 availability */
 980:Drivers/STM32G4xx_HAL_Driver/Inc/stm32g4xx_ll_adc.h **** #define LL_ADC_CHANNEL_VOPAMP6             (LL_ADC_CHANNEL_17 | ADC_CHANNEL_ID_INTERNAL_CH | \
 981:Drivers/STM32G4xx_HAL_Driver/Inc/stm32g4xx_ll_adc.h ****                                            ADC_CHANNEL_ID_INTERNAL_CH_2)                    /*!< AD
 982:Drivers/STM32G4xx_HAL_Driver/Inc/stm32g4xx_ll_adc.h ****                                            connected to OPAMP6 output.
 983:Drivers/STM32G4xx_HAL_Driver/Inc/stm32g4xx_ll_adc.h ****                                            On this STM32 series, ADC channel available only on ADC4
 984:Drivers/STM32G4xx_HAL_Driver/Inc/stm32g4xx_ll_adc.h ****                                            Refer to device datasheet for ADC4 & OPAMP6 availability
 985:Drivers/STM32G4xx_HAL_Driver/Inc/stm32g4xx_ll_adc.h **** /**
 986:Drivers/STM32G4xx_HAL_Driver/Inc/stm32g4xx_ll_adc.h ****   * @}
 987:Drivers/STM32G4xx_HAL_Driver/Inc/stm32g4xx_ll_adc.h ****   */
 988:Drivers/STM32G4xx_HAL_Driver/Inc/stm32g4xx_ll_adc.h **** 
 989:Drivers/STM32G4xx_HAL_Driver/Inc/stm32g4xx_ll_adc.h **** /** @defgroup ADC_LL_EC_REG_TRIGGER_SOURCE  ADC group regular - Trigger source
 990:Drivers/STM32G4xx_HAL_Driver/Inc/stm32g4xx_ll_adc.h ****   * @{
 991:Drivers/STM32G4xx_HAL_Driver/Inc/stm32g4xx_ll_adc.h ****   */
 992:Drivers/STM32G4xx_HAL_Driver/Inc/stm32g4xx_ll_adc.h **** #define LL_ADC_REG_TRIG_SOFTWARE           (0x00000000UL)                                        /*
 993:Drivers/STM32G4xx_HAL_Driver/Inc/stm32g4xx_ll_adc.h ****                                            conversion trigger internal: SW start. */
 994:Drivers/STM32G4xx_HAL_Driver/Inc/stm32g4xx_ll_adc.h **** #define LL_ADC_REG_TRIG_EXT_TIM1_TRGO      (ADC_CFGR_EXTSEL_3 | ADC_CFGR_EXTSEL_0 | \
 995:Drivers/STM32G4xx_HAL_Driver/Inc/stm32g4xx_ll_adc.h ****                                            ADC_REG_TRIG_EXT_EDGE_DEFAULT)                        /*
 996:Drivers/STM32G4xx_HAL_Driver/Inc/stm32g4xx_ll_adc.h ****                                            conversion trigger from external peripheral: TIM1 TRGO.
 997:Drivers/STM32G4xx_HAL_Driver/Inc/stm32g4xx_ll_adc.h ****                                            Trigger edge set to rising edge (default setting). */
 998:Drivers/STM32G4xx_HAL_Driver/Inc/stm32g4xx_ll_adc.h **** #define LL_ADC_REG_TRIG_EXT_TIM1_TRGO2     (ADC_CFGR_EXTSEL_3 | ADC_CFGR_EXTSEL_1 | \
 999:Drivers/STM32G4xx_HAL_Driver/Inc/stm32g4xx_ll_adc.h ****                                            ADC_REG_TRIG_EXT_EDGE_DEFAULT)                        /*
1000:Drivers/STM32G4xx_HAL_Driver/Inc/stm32g4xx_ll_adc.h ****                                            conversion trigger from external peripheral: TIM1 TRGO2.
1001:Drivers/STM32G4xx_HAL_Driver/Inc/stm32g4xx_ll_adc.h ****                                            Trigger edge set to rising edge (default setting). */
1002:Drivers/STM32G4xx_HAL_Driver/Inc/stm32g4xx_ll_adc.h **** #define LL_ADC_REG_TRIG_EXT_TIM1_CH1       (ADC_REG_TRIG_EXT_EDGE_DEFAULT)                       /*
1003:Drivers/STM32G4xx_HAL_Driver/Inc/stm32g4xx_ll_adc.h ****                                            conversion trigger from external peripheral: TIM1 channe
1004:Drivers/STM32G4xx_HAL_Driver/Inc/stm32g4xx_ll_adc.h ****                                            compare: input capture or output capture).
1005:Drivers/STM32G4xx_HAL_Driver/Inc/stm32g4xx_ll_adc.h ****                                            Trigger edge set to rising edge (default setting).
1006:Drivers/STM32G4xx_HAL_Driver/Inc/stm32g4xx_ll_adc.h ****                                            Note: On this STM32 series, this trigger is available on
1007:Drivers/STM32G4xx_HAL_Driver/Inc/stm32g4xx_ll_adc.h ****                                            ADC1/2 instances */
1008:Drivers/STM32G4xx_HAL_Driver/Inc/stm32g4xx_ll_adc.h **** #define LL_ADC_REG_TRIG_EXT_TIM1_CH2       (ADC_CFGR_EXTSEL_0 | ADC_REG_TRIG_EXT_EDGE_DEFAULT)   /*
1009:Drivers/STM32G4xx_HAL_Driver/Inc/stm32g4xx_ll_adc.h ****                                            conversion trigger from external peripheral: TIM1 channe
1010:Drivers/STM32G4xx_HAL_Driver/Inc/stm32g4xx_ll_adc.h ****                                            compare: input capture or output capture).
1011:Drivers/STM32G4xx_HAL_Driver/Inc/stm32g4xx_ll_adc.h ****                                            Trigger edge set to rising edge (default setting).
ARM GAS   			page 23


1012:Drivers/STM32G4xx_HAL_Driver/Inc/stm32g4xx_ll_adc.h ****                                            Note: On this STM32 series, this trigger is available on
1013:Drivers/STM32G4xx_HAL_Driver/Inc/stm32g4xx_ll_adc.h ****                                            ADC1/2 instances */
1014:Drivers/STM32G4xx_HAL_Driver/Inc/stm32g4xx_ll_adc.h **** #define LL_ADC_REG_TRIG_EXT_TIM1_CH3       (ADC_CFGR_EXTSEL_1 | ADC_REG_TRIG_EXT_EDGE_DEFAULT)   /*
1015:Drivers/STM32G4xx_HAL_Driver/Inc/stm32g4xx_ll_adc.h ****                                            conversion trigger from external peripheral: TIM1 channe
1016:Drivers/STM32G4xx_HAL_Driver/Inc/stm32g4xx_ll_adc.h ****                                            compare: input capture or output capture).
1017:Drivers/STM32G4xx_HAL_Driver/Inc/stm32g4xx_ll_adc.h ****                                            Trigger edge set to rising edge (default setting). */
1018:Drivers/STM32G4xx_HAL_Driver/Inc/stm32g4xx_ll_adc.h **** #define LL_ADC_REG_TRIG_EXT_TIM2_TRGO      (ADC_CFGR_EXTSEL_3 | ADC_CFGR_EXTSEL_1 | \
1019:Drivers/STM32G4xx_HAL_Driver/Inc/stm32g4xx_ll_adc.h ****                                            ADC_CFGR_EXTSEL_0 | ADC_REG_TRIG_EXT_EDGE_DEFAULT)    /*
1020:Drivers/STM32G4xx_HAL_Driver/Inc/stm32g4xx_ll_adc.h ****                                            conversion trigger from external peripheral: TIM2 TRGO.
1021:Drivers/STM32G4xx_HAL_Driver/Inc/stm32g4xx_ll_adc.h ****                                            Trigger edge set to rising edge (default setting). */
1022:Drivers/STM32G4xx_HAL_Driver/Inc/stm32g4xx_ll_adc.h **** #define LL_ADC_REG_TRIG_EXT_TIM2_CH1       (ADC_CFGR_EXTSEL_3 | ADC_CFGR_EXTSEL_2 | \
1023:Drivers/STM32G4xx_HAL_Driver/Inc/stm32g4xx_ll_adc.h ****                                            ADC_CFGR_EXTSEL_1 | ADC_CFGR_EXTSEL_0 | \
1024:Drivers/STM32G4xx_HAL_Driver/Inc/stm32g4xx_ll_adc.h ****                                            ADC_REG_TRIG_EXT_EDGE_DEFAULT) /*!<
1025:Drivers/STM32G4xx_HAL_Driver/Inc/stm32g4xx_ll_adc.h ****                                            conversion trigger from external peripheral: TIM2 channe
1026:Drivers/STM32G4xx_HAL_Driver/Inc/stm32g4xx_ll_adc.h ****                                            compare: input capture or output capture).
1027:Drivers/STM32G4xx_HAL_Driver/Inc/stm32g4xx_ll_adc.h ****                                            Trigger edge set to rising edge (default setting).
1028:Drivers/STM32G4xx_HAL_Driver/Inc/stm32g4xx_ll_adc.h ****                                            Note: On this STM32 series, this trigger is available on
1029:Drivers/STM32G4xx_HAL_Driver/Inc/stm32g4xx_ll_adc.h ****                                            ADC3/4/5 instances. Refer to device datasheet for ADCx a
1030:Drivers/STM32G4xx_HAL_Driver/Inc/stm32g4xx_ll_adc.h **** #define LL_ADC_REG_TRIG_EXT_TIM2_CH2       (ADC_CFGR_EXTSEL_1 | ADC_CFGR_EXTSEL_0 | \
1031:Drivers/STM32G4xx_HAL_Driver/Inc/stm32g4xx_ll_adc.h ****                                            ADC_REG_TRIG_EXT_EDGE_DEFAULT)                        /*
1032:Drivers/STM32G4xx_HAL_Driver/Inc/stm32g4xx_ll_adc.h ****                                            conversion trigger from external peripheral: TIM2 channe
1033:Drivers/STM32G4xx_HAL_Driver/Inc/stm32g4xx_ll_adc.h ****                                            compare: input capture or output capture).
1034:Drivers/STM32G4xx_HAL_Driver/Inc/stm32g4xx_ll_adc.h ****                                            Trigger edge set to rising edge (default setting).
1035:Drivers/STM32G4xx_HAL_Driver/Inc/stm32g4xx_ll_adc.h ****                                            Note: On this STM32 series, this trigger is available on
1036:Drivers/STM32G4xx_HAL_Driver/Inc/stm32g4xx_ll_adc.h ****                                            ADC1/2 instances */
1037:Drivers/STM32G4xx_HAL_Driver/Inc/stm32g4xx_ll_adc.h **** #define LL_ADC_REG_TRIG_EXT_TIM2_CH3       (ADC_CFGR_EXTSEL_0 | ADC_REG_TRIG_EXT_EDGE_DEFAULT)   /*
1038:Drivers/STM32G4xx_HAL_Driver/Inc/stm32g4xx_ll_adc.h ****                                            conversion trigger from external peripheral: TIM2 channe
1039:Drivers/STM32G4xx_HAL_Driver/Inc/stm32g4xx_ll_adc.h ****                                            compare: input capture or output capture).
1040:Drivers/STM32G4xx_HAL_Driver/Inc/stm32g4xx_ll_adc.h ****                                            Trigger edge set to rising edge (default setting).
1041:Drivers/STM32G4xx_HAL_Driver/Inc/stm32g4xx_ll_adc.h ****                                            Note: On this STM32 series, this trigger is available on
1042:Drivers/STM32G4xx_HAL_Driver/Inc/stm32g4xx_ll_adc.h ****                                            ADC3/4/5 instances. Refer to device datasheet for ADCx a
1043:Drivers/STM32G4xx_HAL_Driver/Inc/stm32g4xx_ll_adc.h **** #define LL_ADC_REG_TRIG_EXT_TIM3_TRGO      (ADC_CFGR_EXTSEL_2 | ADC_REG_TRIG_EXT_EDGE_DEFAULT)   /*
1044:Drivers/STM32G4xx_HAL_Driver/Inc/stm32g4xx_ll_adc.h ****                                            conversion trigger from external peripheral: TIM3 TRGO.
1045:Drivers/STM32G4xx_HAL_Driver/Inc/stm32g4xx_ll_adc.h ****                                            Trigger edge set to rising edge (default setting). */
1046:Drivers/STM32G4xx_HAL_Driver/Inc/stm32g4xx_ll_adc.h **** #define LL_ADC_REG_TRIG_EXT_TIM3_CH1       (ADC_REG_TRIG_EXT_EDGE_DEFAULT)                       /*
1047:Drivers/STM32G4xx_HAL_Driver/Inc/stm32g4xx_ll_adc.h ****                                            conversion trigger from external peripheral: TIM3 channe
1048:Drivers/STM32G4xx_HAL_Driver/Inc/stm32g4xx_ll_adc.h ****                                            compare: input capture or output capture).
1049:Drivers/STM32G4xx_HAL_Driver/Inc/stm32g4xx_ll_adc.h ****                                            Trigger edge set to rising edge (default setting).
1050:Drivers/STM32G4xx_HAL_Driver/Inc/stm32g4xx_ll_adc.h ****                                            Note: On this STM32 series, this trigger is available on
1051:Drivers/STM32G4xx_HAL_Driver/Inc/stm32g4xx_ll_adc.h ****                                            ADC3/4/5 instances. Refer to device datasheet for ADCx a
1052:Drivers/STM32G4xx_HAL_Driver/Inc/stm32g4xx_ll_adc.h **** #define LL_ADC_REG_TRIG_EXT_TIM3_CH4       (ADC_CFGR_EXTSEL_3 | ADC_CFGR_EXTSEL_2 | \
1053:Drivers/STM32G4xx_HAL_Driver/Inc/stm32g4xx_ll_adc.h ****                                            ADC_CFGR_EXTSEL_1 | ADC_CFGR_EXTSEL_0 | \
1054:Drivers/STM32G4xx_HAL_Driver/Inc/stm32g4xx_ll_adc.h ****                                            ADC_REG_TRIG_EXT_EDGE_DEFAULT)                        /*
1055:Drivers/STM32G4xx_HAL_Driver/Inc/stm32g4xx_ll_adc.h ****                                            conversion trigger from external peripheral: TIM3 channe
1056:Drivers/STM32G4xx_HAL_Driver/Inc/stm32g4xx_ll_adc.h ****                                            compare: input capture or output capture).
1057:Drivers/STM32G4xx_HAL_Driver/Inc/stm32g4xx_ll_adc.h ****                                            Trigger edge set to rising edge (default setting).
1058:Drivers/STM32G4xx_HAL_Driver/Inc/stm32g4xx_ll_adc.h ****                                            Note: On this STM32 series, this trigger is available on
1059:Drivers/STM32G4xx_HAL_Driver/Inc/stm32g4xx_ll_adc.h ****                                            ADC1/2 instances */
1060:Drivers/STM32G4xx_HAL_Driver/Inc/stm32g4xx_ll_adc.h **** #define LL_ADC_REG_TRIG_EXT_TIM4_TRGO      (ADC_CFGR_EXTSEL_3 | ADC_CFGR_EXTSEL_2 | \
1061:Drivers/STM32G4xx_HAL_Driver/Inc/stm32g4xx_ll_adc.h ****                                            ADC_REG_TRIG_EXT_EDGE_DEFAULT)                        /*
1062:Drivers/STM32G4xx_HAL_Driver/Inc/stm32g4xx_ll_adc.h ****                                            conversion trigger from external peripheral: TIM4 TRGO.
1063:Drivers/STM32G4xx_HAL_Driver/Inc/stm32g4xx_ll_adc.h ****                                            Trigger edge set to rising edge (default setting). */
1064:Drivers/STM32G4xx_HAL_Driver/Inc/stm32g4xx_ll_adc.h **** #define LL_ADC_REG_TRIG_EXT_TIM4_CH1       (ADC_CFGR_EXTSEL_2 | ADC_CFGR_EXTSEL_1 | \
1065:Drivers/STM32G4xx_HAL_Driver/Inc/stm32g4xx_ll_adc.h ****                                            ADC_REG_TRIG_EXT_EDGE_DEFAULT)                        /*
1066:Drivers/STM32G4xx_HAL_Driver/Inc/stm32g4xx_ll_adc.h ****                                            conversion trigger from external peripheral: TIM4 channe
1067:Drivers/STM32G4xx_HAL_Driver/Inc/stm32g4xx_ll_adc.h ****                                            compare: input capture or output capture).
1068:Drivers/STM32G4xx_HAL_Driver/Inc/stm32g4xx_ll_adc.h ****                                            Trigger edge set to rising edge (default setting).
ARM GAS   			page 24


1069:Drivers/STM32G4xx_HAL_Driver/Inc/stm32g4xx_ll_adc.h ****                                            Note: On this STM32 series, this trigger is available on
1070:Drivers/STM32G4xx_HAL_Driver/Inc/stm32g4xx_ll_adc.h ****                                            ADC3/4/5 instances. Refer to device datasheet for ADCx a
1071:Drivers/STM32G4xx_HAL_Driver/Inc/stm32g4xx_ll_adc.h **** #define LL_ADC_REG_TRIG_EXT_TIM4_CH4       (ADC_CFGR_EXTSEL_2 | ADC_CFGR_EXTSEL_0 | \
1072:Drivers/STM32G4xx_HAL_Driver/Inc/stm32g4xx_ll_adc.h ****                                            ADC_REG_TRIG_EXT_EDGE_DEFAULT)                        /*
1073:Drivers/STM32G4xx_HAL_Driver/Inc/stm32g4xx_ll_adc.h ****                                            conversion trigger from external peripheral: TIM4 channe
1074:Drivers/STM32G4xx_HAL_Driver/Inc/stm32g4xx_ll_adc.h ****                                            compare: input capture or output capture).
1075:Drivers/STM32G4xx_HAL_Driver/Inc/stm32g4xx_ll_adc.h ****                                            Trigger edge set to rising edge (default setting).
1076:Drivers/STM32G4xx_HAL_Driver/Inc/stm32g4xx_ll_adc.h ****                                            Note: On this STM32 series, this trigger is available on
1077:Drivers/STM32G4xx_HAL_Driver/Inc/stm32g4xx_ll_adc.h ****                                            ADC1/2 instances */
1078:Drivers/STM32G4xx_HAL_Driver/Inc/stm32g4xx_ll_adc.h **** #define LL_ADC_REG_TRIG_EXT_TIM6_TRGO      (ADC_CFGR_EXTSEL_3 | ADC_CFGR_EXTSEL_2 | \
1079:Drivers/STM32G4xx_HAL_Driver/Inc/stm32g4xx_ll_adc.h ****                                            ADC_CFGR_EXTSEL_0 | ADC_REG_TRIG_EXT_EDGE_DEFAULT)    /*
1080:Drivers/STM32G4xx_HAL_Driver/Inc/stm32g4xx_ll_adc.h ****                                            conversion trigger from external peripheral: TIM6 TRGO.
1081:Drivers/STM32G4xx_HAL_Driver/Inc/stm32g4xx_ll_adc.h ****                                            Trigger edge set to rising edge (default setting). */
1082:Drivers/STM32G4xx_HAL_Driver/Inc/stm32g4xx_ll_adc.h **** #define LL_ADC_REG_TRIG_EXT_TIM7_TRGO      (ADC_CFGR_EXTSEL_4 | ADC_CFGR_EXTSEL_3 | \
1083:Drivers/STM32G4xx_HAL_Driver/Inc/stm32g4xx_ll_adc.h ****                                            ADC_CFGR_EXTSEL_2 | ADC_CFGR_EXTSEL_1 | ADC_REG_TRIG_EXT
1084:Drivers/STM32G4xx_HAL_Driver/Inc/stm32g4xx_ll_adc.h ****                                            conversion trigger from external peripheral: TIM7 TRGO.
1085:Drivers/STM32G4xx_HAL_Driver/Inc/stm32g4xx_ll_adc.h ****                                            Trigger edge set to rising edge (default setting). */
1086:Drivers/STM32G4xx_HAL_Driver/Inc/stm32g4xx_ll_adc.h **** #define LL_ADC_REG_TRIG_EXT_TIM8_TRGO      (ADC_CFGR_EXTSEL_2 | ADC_CFGR_EXTSEL_1 | \
1087:Drivers/STM32G4xx_HAL_Driver/Inc/stm32g4xx_ll_adc.h ****                                            ADC_CFGR_EXTSEL_0 | ADC_REG_TRIG_EXT_EDGE_DEFAULT)    /*
1088:Drivers/STM32G4xx_HAL_Driver/Inc/stm32g4xx_ll_adc.h ****                                            conversion trigger from external peripheral: TIM8 TRGO.
1089:Drivers/STM32G4xx_HAL_Driver/Inc/stm32g4xx_ll_adc.h ****                                            Trigger edge set to rising edge (default setting). */
1090:Drivers/STM32G4xx_HAL_Driver/Inc/stm32g4xx_ll_adc.h **** #define LL_ADC_REG_TRIG_EXT_TIM8_TRGO2     (ADC_CFGR_EXTSEL_3 | ADC_REG_TRIG_EXT_EDGE_DEFAULT)   /*
1091:Drivers/STM32G4xx_HAL_Driver/Inc/stm32g4xx_ll_adc.h ****                                            conversion trigger from external peripheral: TIM8 TRGO2.
1092:Drivers/STM32G4xx_HAL_Driver/Inc/stm32g4xx_ll_adc.h ****                                            Trigger edge set to rising edge (default setting). */
1093:Drivers/STM32G4xx_HAL_Driver/Inc/stm32g4xx_ll_adc.h **** #define LL_ADC_REG_TRIG_EXT_TIM8_CH1       (ADC_CFGR_EXTSEL_1 | ADC_CFGR_EXTSEL_0 | \
1094:Drivers/STM32G4xx_HAL_Driver/Inc/stm32g4xx_ll_adc.h ****                                            ADC_REG_TRIG_EXT_EDGE_DEFAULT)                        /*
1095:Drivers/STM32G4xx_HAL_Driver/Inc/stm32g4xx_ll_adc.h ****                                            conversion trigger from external peripheral: TIM8 channe
1096:Drivers/STM32G4xx_HAL_Driver/Inc/stm32g4xx_ll_adc.h ****                                            compare: input capture or output capture).
1097:Drivers/STM32G4xx_HAL_Driver/Inc/stm32g4xx_ll_adc.h ****                                            Trigger edge set to rising edge (default setting).
1098:Drivers/STM32G4xx_HAL_Driver/Inc/stm32g4xx_ll_adc.h ****                                            Note: On this STM32 series, this trigger is available on
1099:Drivers/STM32G4xx_HAL_Driver/Inc/stm32g4xx_ll_adc.h ****                                            ADC3/4/5 instances. Refer to device datasheet for ADCx a
1100:Drivers/STM32G4xx_HAL_Driver/Inc/stm32g4xx_ll_adc.h **** #define LL_ADC_REG_TRIG_EXT_TIM15_TRGO     (ADC_CFGR_EXTSEL_3 | ADC_CFGR_EXTSEL_2 | \
1101:Drivers/STM32G4xx_HAL_Driver/Inc/stm32g4xx_ll_adc.h ****                                            ADC_CFGR_EXTSEL_1 | ADC_REG_TRIG_EXT_EDGE_DEFAULT)    /*
1102:Drivers/STM32G4xx_HAL_Driver/Inc/stm32g4xx_ll_adc.h ****                                            conversion trigger from external peripheral: TIM15 TRGO.
1103:Drivers/STM32G4xx_HAL_Driver/Inc/stm32g4xx_ll_adc.h ****                                            Trigger edge set to rising edge (default setting). */
1104:Drivers/STM32G4xx_HAL_Driver/Inc/stm32g4xx_ll_adc.h **** #define LL_ADC_REG_TRIG_EXT_TIM20_TRGO     (ADC_CFGR_EXTSEL_4 | ADC_REG_TRIG_EXT_EDGE_DEFAULT)  /*!
1105:Drivers/STM32G4xx_HAL_Driver/Inc/stm32g4xx_ll_adc.h ****                                            conversion trigger from external peripheral: TIM20 TRGO.
1106:Drivers/STM32G4xx_HAL_Driver/Inc/stm32g4xx_ll_adc.h ****                                            Trigger edge set to rising edge (default setting).
1107:Drivers/STM32G4xx_HAL_Driver/Inc/stm32g4xx_ll_adc.h ****                                            Note: On this STM32 series, TIM20 is not available on al
1108:Drivers/STM32G4xx_HAL_Driver/Inc/stm32g4xx_ll_adc.h ****                                            Refer to device datasheet for more details */
1109:Drivers/STM32G4xx_HAL_Driver/Inc/stm32g4xx_ll_adc.h **** #define LL_ADC_REG_TRIG_EXT_TIM20_TRGO2    (ADC_CFGR_EXTSEL_4 | ADC_CFGR_EXTSEL_0 | \
1110:Drivers/STM32G4xx_HAL_Driver/Inc/stm32g4xx_ll_adc.h ****                                            ADC_REG_TRIG_EXT_EDGE_DEFAULT)                        /*
1111:Drivers/STM32G4xx_HAL_Driver/Inc/stm32g4xx_ll_adc.h ****                                            conversion trigger from external peripheral: TIM20 TRGO2
1112:Drivers/STM32G4xx_HAL_Driver/Inc/stm32g4xx_ll_adc.h ****                                            Trigger edge set to rising edge (default setting).
1113:Drivers/STM32G4xx_HAL_Driver/Inc/stm32g4xx_ll_adc.h ****                                            Note: On this STM32 series, TIM20 is not available on al
1114:Drivers/STM32G4xx_HAL_Driver/Inc/stm32g4xx_ll_adc.h ****                                            Refer to device datasheet for more details */
1115:Drivers/STM32G4xx_HAL_Driver/Inc/stm32g4xx_ll_adc.h **** #define LL_ADC_REG_TRIG_EXT_TIM20_CH1      (ADC_CFGR_EXTSEL_4 | ADC_CFGR_EXTSEL_1 | \
1116:Drivers/STM32G4xx_HAL_Driver/Inc/stm32g4xx_ll_adc.h ****                                            ADC_REG_TRIG_EXT_EDGE_DEFAULT)                        /*
1117:Drivers/STM32G4xx_HAL_Driver/Inc/stm32g4xx_ll_adc.h ****                                            conversion trigger from external peripheral: TIM20 chann
1118:Drivers/STM32G4xx_HAL_Driver/Inc/stm32g4xx_ll_adc.h ****                                            compare: input capture or output capture).
1119:Drivers/STM32G4xx_HAL_Driver/Inc/stm32g4xx_ll_adc.h ****                                            Trigger edge set to rising edge (default setting).
1120:Drivers/STM32G4xx_HAL_Driver/Inc/stm32g4xx_ll_adc.h ****                                            Note: On this STM32 series, TIM20 is not available on al
1121:Drivers/STM32G4xx_HAL_Driver/Inc/stm32g4xx_ll_adc.h ****                                            Refer to device datasheet for more details */
1122:Drivers/STM32G4xx_HAL_Driver/Inc/stm32g4xx_ll_adc.h **** #define LL_ADC_REG_TRIG_EXT_TIM20_CH2      (ADC_CFGR_EXTSEL_4 | ADC_CFGR_EXTSEL_1 | \
1123:Drivers/STM32G4xx_HAL_Driver/Inc/stm32g4xx_ll_adc.h ****                                            ADC_CFGR_EXTSEL_0 | ADC_REG_TRIG_EXT_EDGE_DEFAULT)    /*
1124:Drivers/STM32G4xx_HAL_Driver/Inc/stm32g4xx_ll_adc.h ****                                            conversion trigger from external peripheral: TIM20 chann
1125:Drivers/STM32G4xx_HAL_Driver/Inc/stm32g4xx_ll_adc.h ****                                            compare: input capture or output capture).
ARM GAS   			page 25


1126:Drivers/STM32G4xx_HAL_Driver/Inc/stm32g4xx_ll_adc.h ****                                            Trigger edge set to rising edge (default setting).
1127:Drivers/STM32G4xx_HAL_Driver/Inc/stm32g4xx_ll_adc.h ****                                            Note: On this STM32 series, this trigger is available on
1128:Drivers/STM32G4xx_HAL_Driver/Inc/stm32g4xx_ll_adc.h ****                                            ADC1/2 instances, and TIM20 is not available on all devi
1129:Drivers/STM32G4xx_HAL_Driver/Inc/stm32g4xx_ll_adc.h ****                                            Refer to device datasheet for more details */
1130:Drivers/STM32G4xx_HAL_Driver/Inc/stm32g4xx_ll_adc.h **** #define LL_ADC_REG_TRIG_EXT_TIM20_CH3      (ADC_CFGR_EXTSEL_4 | ADC_CFGR_EXTSEL_2 | \
1131:Drivers/STM32G4xx_HAL_Driver/Inc/stm32g4xx_ll_adc.h ****                                            ADC_REG_TRIG_EXT_EDGE_DEFAULT)                        /*
1132:Drivers/STM32G4xx_HAL_Driver/Inc/stm32g4xx_ll_adc.h ****                                            conversion trigger from external peripheral: TIM20 chann
1133:Drivers/STM32G4xx_HAL_Driver/Inc/stm32g4xx_ll_adc.h ****                                            compare: input capture or output capture).
1134:Drivers/STM32G4xx_HAL_Driver/Inc/stm32g4xx_ll_adc.h ****                                            Trigger edge set to rising edge (default setting).
1135:Drivers/STM32G4xx_HAL_Driver/Inc/stm32g4xx_ll_adc.h ****                                            Note: On this STM32 series, this trigger is available on
1136:Drivers/STM32G4xx_HAL_Driver/Inc/stm32g4xx_ll_adc.h ****                                            ADC1/2 instances, and TIM20 is not available on all devi
1137:Drivers/STM32G4xx_HAL_Driver/Inc/stm32g4xx_ll_adc.h ****                                            Refer to device datasheet for more details */
1138:Drivers/STM32G4xx_HAL_Driver/Inc/stm32g4xx_ll_adc.h **** #define LL_ADC_REG_TRIG_EXT_HRTIM_TRG1     (ADC_CFGR_EXTSEL_4 | ADC_CFGR_EXTSEL_2 | \
1139:Drivers/STM32G4xx_HAL_Driver/Inc/stm32g4xx_ll_adc.h ****                                            ADC_CFGR_EXTSEL_0 | ADC_REG_TRIG_EXT_EDGE_DEFAULT)    /*
1140:Drivers/STM32G4xx_HAL_Driver/Inc/stm32g4xx_ll_adc.h ****                                            conversion trigger from external peripheral: HRTIMER ADC
1141:Drivers/STM32G4xx_HAL_Driver/Inc/stm32g4xx_ll_adc.h ****                                            Trigger edge set to rising edge (default setting).
1142:Drivers/STM32G4xx_HAL_Driver/Inc/stm32g4xx_ll_adc.h ****                                            Note: On this STM32 series, HRTIM is not available on al
1143:Drivers/STM32G4xx_HAL_Driver/Inc/stm32g4xx_ll_adc.h ****                                            Refer to device datasheet for more details */
1144:Drivers/STM32G4xx_HAL_Driver/Inc/stm32g4xx_ll_adc.h **** #define LL_ADC_REG_TRIG_EXT_HRTIM_TRG2     (ADC_CFGR_EXTSEL_4 | ADC_CFGR_EXTSEL_1 | \
1145:Drivers/STM32G4xx_HAL_Driver/Inc/stm32g4xx_ll_adc.h ****                                            ADC_CFGR_EXTSEL_0 | ADC_REG_TRIG_EXT_EDGE_DEFAULT)    /*
1146:Drivers/STM32G4xx_HAL_Driver/Inc/stm32g4xx_ll_adc.h ****                                            conversion trigger from external peripheral: HRTIMER ADC
1147:Drivers/STM32G4xx_HAL_Driver/Inc/stm32g4xx_ll_adc.h ****                                            Trigger edge set to rising edge (default setting).
1148:Drivers/STM32G4xx_HAL_Driver/Inc/stm32g4xx_ll_adc.h ****                                            Note: On this STM32 series, this trigger is available on
1149:Drivers/STM32G4xx_HAL_Driver/Inc/stm32g4xx_ll_adc.h ****                                            ADC3/4/5 instances, and HRTIM is not available on all de
1150:Drivers/STM32G4xx_HAL_Driver/Inc/stm32g4xx_ll_adc.h ****                                            Refer to device datasheet for more details */
1151:Drivers/STM32G4xx_HAL_Driver/Inc/stm32g4xx_ll_adc.h **** #define LL_ADC_REG_TRIG_EXT_HRTIM_TRG3     (ADC_CFGR_EXTSEL_4 | ADC_CFGR_EXTSEL_2 | \
1152:Drivers/STM32G4xx_HAL_Driver/Inc/stm32g4xx_ll_adc.h ****                                            ADC_CFGR_EXTSEL_1 | ADC_REG_TRIG_EXT_EDGE_DEFAULT)    /*
1153:Drivers/STM32G4xx_HAL_Driver/Inc/stm32g4xx_ll_adc.h ****                                            conversion trigger from external peripheral: HRTIMER ADC
1154:Drivers/STM32G4xx_HAL_Driver/Inc/stm32g4xx_ll_adc.h ****                                            Trigger edge set to rising edge (default setting).
1155:Drivers/STM32G4xx_HAL_Driver/Inc/stm32g4xx_ll_adc.h ****                                            Note: On this STM32 series, HRTIM is not available on al
1156:Drivers/STM32G4xx_HAL_Driver/Inc/stm32g4xx_ll_adc.h ****                                            Refer to device datasheet for more details */
1157:Drivers/STM32G4xx_HAL_Driver/Inc/stm32g4xx_ll_adc.h **** #define LL_ADC_REG_TRIG_EXT_HRTIM_TRG4     (ADC_CFGR_EXTSEL_4 | ADC_CFGR_EXTSEL_2 | \
1158:Drivers/STM32G4xx_HAL_Driver/Inc/stm32g4xx_ll_adc.h ****                                            ADC_REG_TRIG_EXT_EDGE_DEFAULT)                        /*
1159:Drivers/STM32G4xx_HAL_Driver/Inc/stm32g4xx_ll_adc.h ****                                            conversion trigger from external peripheral: HRTIMER ADC
1160:Drivers/STM32G4xx_HAL_Driver/Inc/stm32g4xx_ll_adc.h ****                                            Trigger edge set to rising edge (default setting).
1161:Drivers/STM32G4xx_HAL_Driver/Inc/stm32g4xx_ll_adc.h ****                                            Note: On this STM32 series, this trigger is available on
1162:Drivers/STM32G4xx_HAL_Driver/Inc/stm32g4xx_ll_adc.h ****                                            ADC3/4/5 instances, and HRTIM is not available on all de
1163:Drivers/STM32G4xx_HAL_Driver/Inc/stm32g4xx_ll_adc.h ****                                            Refer to device datasheet for more details */
1164:Drivers/STM32G4xx_HAL_Driver/Inc/stm32g4xx_ll_adc.h **** #define LL_ADC_REG_TRIG_EXT_HRTIM_TRG5     (ADC_CFGR_EXTSEL_4 | ADC_CFGR_EXTSEL_2 | \
1165:Drivers/STM32G4xx_HAL_Driver/Inc/stm32g4xx_ll_adc.h ****                                            ADC_CFGR_EXTSEL_1 | ADC_CFGR_EXTSEL_0 | \
1166:Drivers/STM32G4xx_HAL_Driver/Inc/stm32g4xx_ll_adc.h ****                                            ADC_REG_TRIG_EXT_EDGE_DEFAULT)                        /*
1167:Drivers/STM32G4xx_HAL_Driver/Inc/stm32g4xx_ll_adc.h ****                                            conversion trigger from external peripheral: HRTIMER ADC
1168:Drivers/STM32G4xx_HAL_Driver/Inc/stm32g4xx_ll_adc.h ****                                            Trigger edge set to rising edge (default setting).
1169:Drivers/STM32G4xx_HAL_Driver/Inc/stm32g4xx_ll_adc.h ****                                            Note: On this STM32 series, HRTIM is not available on al
1170:Drivers/STM32G4xx_HAL_Driver/Inc/stm32g4xx_ll_adc.h ****                                            Refer to device datasheet for more details */
1171:Drivers/STM32G4xx_HAL_Driver/Inc/stm32g4xx_ll_adc.h **** #define LL_ADC_REG_TRIG_EXT_HRTIM_TRG6     (ADC_CFGR_EXTSEL_4 | ADC_CFGR_EXTSEL_3 | \
1172:Drivers/STM32G4xx_HAL_Driver/Inc/stm32g4xx_ll_adc.h ****                                            ADC_REG_TRIG_EXT_EDGE_DEFAULT)                        /*
1173:Drivers/STM32G4xx_HAL_Driver/Inc/stm32g4xx_ll_adc.h ****                                            conversion trigger from external peripheral: HRTIMER ADC
1174:Drivers/STM32G4xx_HAL_Driver/Inc/stm32g4xx_ll_adc.h ****                                            Trigger edge set to rising edge (default setting).
1175:Drivers/STM32G4xx_HAL_Driver/Inc/stm32g4xx_ll_adc.h ****                                            Note: On this STM32 series, HRTIM is not available on al
1176:Drivers/STM32G4xx_HAL_Driver/Inc/stm32g4xx_ll_adc.h ****                                            Refer to device datasheet for more details */
1177:Drivers/STM32G4xx_HAL_Driver/Inc/stm32g4xx_ll_adc.h **** #define LL_ADC_REG_TRIG_EXT_HRTIM_TRG7     (ADC_CFGR_EXTSEL_4 | ADC_CFGR_EXTSEL_3 | \
1178:Drivers/STM32G4xx_HAL_Driver/Inc/stm32g4xx_ll_adc.h ****                                            ADC_CFGR_EXTSEL_0 | ADC_REG_TRIG_EXT_EDGE_DEFAULT)    /*
1179:Drivers/STM32G4xx_HAL_Driver/Inc/stm32g4xx_ll_adc.h ****                                            conversion trigger from external peripheral: HRTIMER ADC
1180:Drivers/STM32G4xx_HAL_Driver/Inc/stm32g4xx_ll_adc.h ****                                            Trigger edge set to rising edge (default setting).
1181:Drivers/STM32G4xx_HAL_Driver/Inc/stm32g4xx_ll_adc.h ****                                            Note: On this STM32 series, HRTIM is not available on al
1182:Drivers/STM32G4xx_HAL_Driver/Inc/stm32g4xx_ll_adc.h ****                                            Refer to device datasheet for more details */
ARM GAS   			page 26


1183:Drivers/STM32G4xx_HAL_Driver/Inc/stm32g4xx_ll_adc.h **** #define LL_ADC_REG_TRIG_EXT_HRTIM_TRG8     (ADC_CFGR_EXTSEL_4 | ADC_CFGR_EXTSEL_3 | \
1184:Drivers/STM32G4xx_HAL_Driver/Inc/stm32g4xx_ll_adc.h ****                                            ADC_CFGR_EXTSEL_1 | ADC_REG_TRIG_EXT_EDGE_DEFAULT)    /*
1185:Drivers/STM32G4xx_HAL_Driver/Inc/stm32g4xx_ll_adc.h ****                                            conversion trigger from external peripheral: HRTIMER ADC
1186:Drivers/STM32G4xx_HAL_Driver/Inc/stm32g4xx_ll_adc.h ****                                            Trigger edge set to rising edge (default setting).
1187:Drivers/STM32G4xx_HAL_Driver/Inc/stm32g4xx_ll_adc.h ****                                            Note: On this STM32 series, HRTIM is not available on al
1188:Drivers/STM32G4xx_HAL_Driver/Inc/stm32g4xx_ll_adc.h ****                                            Refer to device datasheet for more details */
1189:Drivers/STM32G4xx_HAL_Driver/Inc/stm32g4xx_ll_adc.h **** #define LL_ADC_REG_TRIG_EXT_HRTIM_TRG9     (ADC_CFGR_EXTSEL_4 | ADC_CFGR_EXTSEL_3 | \
1190:Drivers/STM32G4xx_HAL_Driver/Inc/stm32g4xx_ll_adc.h ****                                            ADC_CFGR_EXTSEL_1 | ADC_CFGR_EXTSEL_0 | \
1191:Drivers/STM32G4xx_HAL_Driver/Inc/stm32g4xx_ll_adc.h ****                                            ADC_REG_TRIG_EXT_EDGE_DEFAULT)                        /*
1192:Drivers/STM32G4xx_HAL_Driver/Inc/stm32g4xx_ll_adc.h ****                                            conversion trigger from external peripheral: HRTIMER ADC
1193:Drivers/STM32G4xx_HAL_Driver/Inc/stm32g4xx_ll_adc.h ****                                            Trigger edge set to rising edge (default setting).
1194:Drivers/STM32G4xx_HAL_Driver/Inc/stm32g4xx_ll_adc.h ****                                            Note: On this STM32 series, HRTIM is not available on al
1195:Drivers/STM32G4xx_HAL_Driver/Inc/stm32g4xx_ll_adc.h ****                                            Refer to device datasheet for more details */
1196:Drivers/STM32G4xx_HAL_Driver/Inc/stm32g4xx_ll_adc.h **** #define LL_ADC_REG_TRIG_EXT_HRTIM_TRG10    (ADC_CFGR_EXTSEL_4 | ADC_CFGR_EXTSEL_3 | \
1197:Drivers/STM32G4xx_HAL_Driver/Inc/stm32g4xx_ll_adc.h ****                                            ADC_CFGR_EXTSEL_2 | ADC_REG_TRIG_EXT_EDGE_DEFAULT)    /*
1198:Drivers/STM32G4xx_HAL_Driver/Inc/stm32g4xx_ll_adc.h ****                                            conversion trigger from external peripheral: HRTIMER ADC
1199:Drivers/STM32G4xx_HAL_Driver/Inc/stm32g4xx_ll_adc.h ****                                            Trigger edge set to rising edge (default setting).
1200:Drivers/STM32G4xx_HAL_Driver/Inc/stm32g4xx_ll_adc.h ****                                            Note: On this STM32 series, HRTIM is not available on al
1201:Drivers/STM32G4xx_HAL_Driver/Inc/stm32g4xx_ll_adc.h ****                                            Refer to device datasheet for more details */
1202:Drivers/STM32G4xx_HAL_Driver/Inc/stm32g4xx_ll_adc.h **** #define LL_ADC_REG_TRIG_EXT_EXTI_LINE11    (ADC_CFGR_EXTSEL_2 | ADC_CFGR_EXTSEL_1 | \
1203:Drivers/STM32G4xx_HAL_Driver/Inc/stm32g4xx_ll_adc.h ****                                            ADC_REG_TRIG_EXT_EDGE_DEFAULT)                        /*
1204:Drivers/STM32G4xx_HAL_Driver/Inc/stm32g4xx_ll_adc.h ****                                            conversion trigger from external peripheral: external in
1205:Drivers/STM32G4xx_HAL_Driver/Inc/stm32g4xx_ll_adc.h ****                                            Trigger edge set to rising edge (default setting).
1206:Drivers/STM32G4xx_HAL_Driver/Inc/stm32g4xx_ll_adc.h ****                                            Note: On this STM32 series, this trigger is available on
1207:Drivers/STM32G4xx_HAL_Driver/Inc/stm32g4xx_ll_adc.h ****                                            ADC1/2 instances */
1208:Drivers/STM32G4xx_HAL_Driver/Inc/stm32g4xx_ll_adc.h **** #define LL_ADC_REG_TRIG_EXT_EXTI_LINE2     (ADC_CFGR_EXTSEL_2 | ADC_CFGR_EXTSEL_0 | \
1209:Drivers/STM32G4xx_HAL_Driver/Inc/stm32g4xx_ll_adc.h ****                                            ADC_REG_TRIG_EXT_EDGE_DEFAULT)                        /*
1210:Drivers/STM32G4xx_HAL_Driver/Inc/stm32g4xx_ll_adc.h ****                                            conversion trigger from external peripheral: external in
1211:Drivers/STM32G4xx_HAL_Driver/Inc/stm32g4xx_ll_adc.h ****                                            Trigger edge set to rising edge (default setting).
1212:Drivers/STM32G4xx_HAL_Driver/Inc/stm32g4xx_ll_adc.h ****                                            Note: On this STM32 series, this trigger is available on
1213:Drivers/STM32G4xx_HAL_Driver/Inc/stm32g4xx_ll_adc.h ****                                            ADC3/4/5 instances. Refer to device datasheet for ADCx a
1214:Drivers/STM32G4xx_HAL_Driver/Inc/stm32g4xx_ll_adc.h **** #define LL_ADC_REG_TRIG_EXT_LPTIM_OUT      (ADC_CFGR_EXTSEL_4 | ADC_CFGR_EXTSEL_3 | \
1215:Drivers/STM32G4xx_HAL_Driver/Inc/stm32g4xx_ll_adc.h ****                                            ADC_CFGR_EXTSEL_2 | ADC_CFGR_EXTSEL_0 | \
1216:Drivers/STM32G4xx_HAL_Driver/Inc/stm32g4xx_ll_adc.h ****                                            ADC_REG_TRIG_EXT_EDGE_DEFAULT)                        /*
1217:Drivers/STM32G4xx_HAL_Driver/Inc/stm32g4xx_ll_adc.h ****                                            conversion trigger from external peripheral: LPTIMER OUT
1218:Drivers/STM32G4xx_HAL_Driver/Inc/stm32g4xx_ll_adc.h ****                                            Trigger edge set to rising edge (default setting). */
1219:Drivers/STM32G4xx_HAL_Driver/Inc/stm32g4xx_ll_adc.h **** /**
1220:Drivers/STM32G4xx_HAL_Driver/Inc/stm32g4xx_ll_adc.h ****   * @}
1221:Drivers/STM32G4xx_HAL_Driver/Inc/stm32g4xx_ll_adc.h ****   */
1222:Drivers/STM32G4xx_HAL_Driver/Inc/stm32g4xx_ll_adc.h **** 
1223:Drivers/STM32G4xx_HAL_Driver/Inc/stm32g4xx_ll_adc.h **** /** @defgroup ADC_LL_EC_REG_TRIGGER_EDGE  ADC group regular - Trigger edge
1224:Drivers/STM32G4xx_HAL_Driver/Inc/stm32g4xx_ll_adc.h ****   * @{
1225:Drivers/STM32G4xx_HAL_Driver/Inc/stm32g4xx_ll_adc.h ****   */
1226:Drivers/STM32G4xx_HAL_Driver/Inc/stm32g4xx_ll_adc.h **** #define LL_ADC_REG_TRIG_EXT_RISING         (ADC_CFGR_EXTEN_0)                      /*!< ADC group r
1227:Drivers/STM32G4xx_HAL_Driver/Inc/stm32g4xx_ll_adc.h ****                                            trigger polarity set to rising edge */
1228:Drivers/STM32G4xx_HAL_Driver/Inc/stm32g4xx_ll_adc.h **** #define LL_ADC_REG_TRIG_EXT_FALLING        (ADC_CFGR_EXTEN_1)                      /*!< ADC group r
1229:Drivers/STM32G4xx_HAL_Driver/Inc/stm32g4xx_ll_adc.h ****                                            trigger polarity set to falling edge */
1230:Drivers/STM32G4xx_HAL_Driver/Inc/stm32g4xx_ll_adc.h **** #define LL_ADC_REG_TRIG_EXT_RISINGFALLING  (ADC_CFGR_EXTEN_1 | ADC_CFGR_EXTEN_0)   /*!< ADC group r
1231:Drivers/STM32G4xx_HAL_Driver/Inc/stm32g4xx_ll_adc.h ****                                            trigger polarity set to both rising and falling edges */
1232:Drivers/STM32G4xx_HAL_Driver/Inc/stm32g4xx_ll_adc.h **** /**
1233:Drivers/STM32G4xx_HAL_Driver/Inc/stm32g4xx_ll_adc.h ****   * @}
1234:Drivers/STM32G4xx_HAL_Driver/Inc/stm32g4xx_ll_adc.h ****   */
1235:Drivers/STM32G4xx_HAL_Driver/Inc/stm32g4xx_ll_adc.h **** 
1236:Drivers/STM32G4xx_HAL_Driver/Inc/stm32g4xx_ll_adc.h **** /** @defgroup ADC_LL_EC_REG_SAMPLING_MODE  ADC group regular - Sampling mode
1237:Drivers/STM32G4xx_HAL_Driver/Inc/stm32g4xx_ll_adc.h ****   * @{
1238:Drivers/STM32G4xx_HAL_Driver/Inc/stm32g4xx_ll_adc.h ****   */
1239:Drivers/STM32G4xx_HAL_Driver/Inc/stm32g4xx_ll_adc.h **** #define LL_ADC_REG_SAMPLING_MODE_NORMAL               (0x00000000UL)       /*!< ADC conversions sam
ARM GAS   			page 27


1240:Drivers/STM32G4xx_HAL_Driver/Inc/stm32g4xx_ll_adc.h ****                                            is defined using  @ref ADC_LL_EC_CHANNEL_SAMPLINGTIME */
1241:Drivers/STM32G4xx_HAL_Driver/Inc/stm32g4xx_ll_adc.h **** #define LL_ADC_REG_SAMPLING_MODE_BULB                 (ADC_CFGR2_BULB)     /*!< ADC conversions sam
1242:Drivers/STM32G4xx_HAL_Driver/Inc/stm32g4xx_ll_adc.h ****                                            immediately after end of conversion, and stops upon trig
1243:Drivers/STM32G4xx_HAL_Driver/Inc/stm32g4xx_ll_adc.h ****                                            Note: First conversion is using minimal sampling time
1244:Drivers/STM32G4xx_HAL_Driver/Inc/stm32g4xx_ll_adc.h ****                                            (see @ref ADC_LL_EC_CHANNEL_SAMPLINGTIME) */
1245:Drivers/STM32G4xx_HAL_Driver/Inc/stm32g4xx_ll_adc.h **** #define LL_ADC_REG_SAMPLING_MODE_TRIGGER_CONTROLED    (ADC_CFGR2_SMPTRIG)  /*!< ADC conversions sam
1246:Drivers/STM32G4xx_HAL_Driver/Inc/stm32g4xx_ll_adc.h ****                                            controlled by trigger events: trigger rising edge for st
1247:Drivers/STM32G4xx_HAL_Driver/Inc/stm32g4xx_ll_adc.h ****                                            trigger falling edge for stop sampling and start convers
1248:Drivers/STM32G4xx_HAL_Driver/Inc/stm32g4xx_ll_adc.h **** /**
1249:Drivers/STM32G4xx_HAL_Driver/Inc/stm32g4xx_ll_adc.h ****   * @}
1250:Drivers/STM32G4xx_HAL_Driver/Inc/stm32g4xx_ll_adc.h ****   */
1251:Drivers/STM32G4xx_HAL_Driver/Inc/stm32g4xx_ll_adc.h **** 
1252:Drivers/STM32G4xx_HAL_Driver/Inc/stm32g4xx_ll_adc.h **** /** @defgroup ADC_LL_EC_REG_CONTINUOUS_MODE  ADC group regular - Continuous mode
1253:Drivers/STM32G4xx_HAL_Driver/Inc/stm32g4xx_ll_adc.h ****   * @{
1254:Drivers/STM32G4xx_HAL_Driver/Inc/stm32g4xx_ll_adc.h ****   */
1255:Drivers/STM32G4xx_HAL_Driver/Inc/stm32g4xx_ll_adc.h **** #define LL_ADC_REG_CONV_SINGLE             (0x00000000UL)     /*!< ADC conversions performed in sin
1256:Drivers/STM32G4xx_HAL_Driver/Inc/stm32g4xx_ll_adc.h ****                                            one conversion per trigger */
1257:Drivers/STM32G4xx_HAL_Driver/Inc/stm32g4xx_ll_adc.h **** #define LL_ADC_REG_CONV_CONTINUOUS         (ADC_CFGR_CONT)    /*!< ADC conversions performed in con
1258:Drivers/STM32G4xx_HAL_Driver/Inc/stm32g4xx_ll_adc.h ****                                            after the first trigger, following conversions launched 
1259:Drivers/STM32G4xx_HAL_Driver/Inc/stm32g4xx_ll_adc.h ****                                            automatically */
1260:Drivers/STM32G4xx_HAL_Driver/Inc/stm32g4xx_ll_adc.h **** /**
1261:Drivers/STM32G4xx_HAL_Driver/Inc/stm32g4xx_ll_adc.h ****   * @}
1262:Drivers/STM32G4xx_HAL_Driver/Inc/stm32g4xx_ll_adc.h ****   */
1263:Drivers/STM32G4xx_HAL_Driver/Inc/stm32g4xx_ll_adc.h **** 
1264:Drivers/STM32G4xx_HAL_Driver/Inc/stm32g4xx_ll_adc.h **** /** @defgroup ADC_LL_EC_REG_DMA_TRANSFER  ADC group regular - DMA transfer of ADC conversion data
1265:Drivers/STM32G4xx_HAL_Driver/Inc/stm32g4xx_ll_adc.h ****   * @{
1266:Drivers/STM32G4xx_HAL_Driver/Inc/stm32g4xx_ll_adc.h ****   */
1267:Drivers/STM32G4xx_HAL_Driver/Inc/stm32g4xx_ll_adc.h **** #define LL_ADC_REG_DMA_TRANSFER_NONE       (0x00000000UL)     /*!< ADC conversions are not transfer
1268:Drivers/STM32G4xx_HAL_Driver/Inc/stm32g4xx_ll_adc.h **** #define LL_ADC_REG_DMA_TRANSFER_LIMITED    (ADC_CFGR_DMAEN)   /*!< ADC conversion data are transfer
1269:Drivers/STM32G4xx_HAL_Driver/Inc/stm32g4xx_ll_adc.h ****                                            in limited mode (one shot mode): DMA transfer requests a
1270:Drivers/STM32G4xx_HAL_Driver/Inc/stm32g4xx_ll_adc.h ****                                            number of DMA data transfers (number of ADC conversions)
1271:Drivers/STM32G4xx_HAL_Driver/Inc/stm32g4xx_ll_adc.h ****                                            This ADC mode is intended to be used with DMA mode non-c
1272:Drivers/STM32G4xx_HAL_Driver/Inc/stm32g4xx_ll_adc.h **** #define LL_ADC_REG_DMA_TRANSFER_UNLIMITED  (ADC_CFGR_DMACFG | ADC_CFGR_DMAEN)    /*!< ADC conversio
1273:Drivers/STM32G4xx_HAL_Driver/Inc/stm32g4xx_ll_adc.h ****                                            transferred by DMA, in unlimited mode: DMA transfer requ
1274:Drivers/STM32G4xx_HAL_Driver/Inc/stm32g4xx_ll_adc.h ****                                            whatever number of DMA data transferred (number of ADC c
1275:Drivers/STM32G4xx_HAL_Driver/Inc/stm32g4xx_ll_adc.h ****                                            This ADC mode is intended to be used with DMA mode circu
1276:Drivers/STM32G4xx_HAL_Driver/Inc/stm32g4xx_ll_adc.h **** /**
1277:Drivers/STM32G4xx_HAL_Driver/Inc/stm32g4xx_ll_adc.h ****   * @}
1278:Drivers/STM32G4xx_HAL_Driver/Inc/stm32g4xx_ll_adc.h ****   */
1279:Drivers/STM32G4xx_HAL_Driver/Inc/stm32g4xx_ll_adc.h **** 
1280:Drivers/STM32G4xx_HAL_Driver/Inc/stm32g4xx_ll_adc.h **** #if defined(ADC_SMPR1_SMPPLUS)
1281:Drivers/STM32G4xx_HAL_Driver/Inc/stm32g4xx_ll_adc.h **** /** @defgroup ADC_LL_EC_SAMPLINGTIME_COMMON_CONFIG ADC instance - ADC sampling time common configur
1282:Drivers/STM32G4xx_HAL_Driver/Inc/stm32g4xx_ll_adc.h ****   * @{
1283:Drivers/STM32G4xx_HAL_Driver/Inc/stm32g4xx_ll_adc.h ****   */
1284:Drivers/STM32G4xx_HAL_Driver/Inc/stm32g4xx_ll_adc.h **** #define LL_ADC_SAMPLINGTIME_COMMON_DEFAULT      (0x00000000UL)      /*!< ADC sampling time let to d
1285:Drivers/STM32G4xx_HAL_Driver/Inc/stm32g4xx_ll_adc.h **** #define LL_ADC_SAMPLINGTIME_COMMON_3C5_REPL_2C5 (ADC_SMPR1_SMPPLUS) /*!< ADC additional sampling ti
1286:Drivers/STM32G4xx_HAL_Driver/Inc/stm32g4xx_ll_adc.h ****                                            cycles replacing 2.5 ADC clock cycles (this applies to a
1287:Drivers/STM32G4xx_HAL_Driver/Inc/stm32g4xx_ll_adc.h ****                                            with selection sampling time 2.5 ADC clock cycles, whate
1288:Drivers/STM32G4xx_HAL_Driver/Inc/stm32g4xx_ll_adc.h ****                                            on ADC groups regular or injected). */
1289:Drivers/STM32G4xx_HAL_Driver/Inc/stm32g4xx_ll_adc.h **** /**
1290:Drivers/STM32G4xx_HAL_Driver/Inc/stm32g4xx_ll_adc.h ****   * @}
1291:Drivers/STM32G4xx_HAL_Driver/Inc/stm32g4xx_ll_adc.h ****   */
1292:Drivers/STM32G4xx_HAL_Driver/Inc/stm32g4xx_ll_adc.h **** #endif /* ADC_SMPR1_SMPPLUS */
1293:Drivers/STM32G4xx_HAL_Driver/Inc/stm32g4xx_ll_adc.h **** 
1294:Drivers/STM32G4xx_HAL_Driver/Inc/stm32g4xx_ll_adc.h **** /** @defgroup ADC_LL_EC_REG_OVR_DATA_BEHAVIOR  ADC group regular - Overrun behavior on conversion d
1295:Drivers/STM32G4xx_HAL_Driver/Inc/stm32g4xx_ll_adc.h ****   * @{
1296:Drivers/STM32G4xx_HAL_Driver/Inc/stm32g4xx_ll_adc.h ****   */
ARM GAS   			page 28


1297:Drivers/STM32G4xx_HAL_Driver/Inc/stm32g4xx_ll_adc.h **** #define LL_ADC_REG_OVR_DATA_PRESERVED      (0x00000000UL)     /*!< ADC group regular behavior in ca
1298:Drivers/STM32G4xx_HAL_Driver/Inc/stm32g4xx_ll_adc.h ****                                                                    data preserved */
1299:Drivers/STM32G4xx_HAL_Driver/Inc/stm32g4xx_ll_adc.h **** #define LL_ADC_REG_OVR_DATA_OVERWRITTEN    (ADC_CFGR_OVRMOD)  /*!< ADC group regular behavior in ca
1300:Drivers/STM32G4xx_HAL_Driver/Inc/stm32g4xx_ll_adc.h ****                                                                    data overwritten */
1301:Drivers/STM32G4xx_HAL_Driver/Inc/stm32g4xx_ll_adc.h **** /**
1302:Drivers/STM32G4xx_HAL_Driver/Inc/stm32g4xx_ll_adc.h ****   * @}
1303:Drivers/STM32G4xx_HAL_Driver/Inc/stm32g4xx_ll_adc.h ****   */
1304:Drivers/STM32G4xx_HAL_Driver/Inc/stm32g4xx_ll_adc.h **** 
1305:Drivers/STM32G4xx_HAL_Driver/Inc/stm32g4xx_ll_adc.h **** /** @defgroup ADC_LL_EC_REG_SEQ_SCAN_LENGTH  ADC group regular - Sequencer scan length
1306:Drivers/STM32G4xx_HAL_Driver/Inc/stm32g4xx_ll_adc.h ****   * @{
1307:Drivers/STM32G4xx_HAL_Driver/Inc/stm32g4xx_ll_adc.h ****   */
1308:Drivers/STM32G4xx_HAL_Driver/Inc/stm32g4xx_ll_adc.h **** #define LL_ADC_REG_SEQ_SCAN_DISABLE        (0x00000000UL)                 /*!< ADC group regular se
1309:Drivers/STM32G4xx_HAL_Driver/Inc/stm32g4xx_ll_adc.h ****                                            (equivalent to sequencer of 1 rank: ADC conversion on on
1310:Drivers/STM32G4xx_HAL_Driver/Inc/stm32g4xx_ll_adc.h **** #define LL_ADC_REG_SEQ_SCAN_ENABLE_2RANKS  (ADC_SQR1_L_0)                 /*!< ADC group regular se
1311:Drivers/STM32G4xx_HAL_Driver/Inc/stm32g4xx_ll_adc.h ****                                            with 2 ranks in the sequence */
1312:Drivers/STM32G4xx_HAL_Driver/Inc/stm32g4xx_ll_adc.h **** #define LL_ADC_REG_SEQ_SCAN_ENABLE_3RANKS  (ADC_SQR1_L_1)                 /*!< ADC group regular se
1313:Drivers/STM32G4xx_HAL_Driver/Inc/stm32g4xx_ll_adc.h ****                                            with 3 ranks in the sequence */
1314:Drivers/STM32G4xx_HAL_Driver/Inc/stm32g4xx_ll_adc.h **** #define LL_ADC_REG_SEQ_SCAN_ENABLE_4RANKS  (ADC_SQR1_L_1 | ADC_SQR1_L_0)  /*!< ADC group regular se
1315:Drivers/STM32G4xx_HAL_Driver/Inc/stm32g4xx_ll_adc.h ****                                            with 4 ranks in the sequence */
1316:Drivers/STM32G4xx_HAL_Driver/Inc/stm32g4xx_ll_adc.h **** #define LL_ADC_REG_SEQ_SCAN_ENABLE_5RANKS  (ADC_SQR1_L_2)                 /*!< ADC group regular se
1317:Drivers/STM32G4xx_HAL_Driver/Inc/stm32g4xx_ll_adc.h ****                                            with 5 ranks in the sequence */
1318:Drivers/STM32G4xx_HAL_Driver/Inc/stm32g4xx_ll_adc.h **** #define LL_ADC_REG_SEQ_SCAN_ENABLE_6RANKS  (ADC_SQR1_L_2 | ADC_SQR1_L_0)  /*!< ADC group regular se
1319:Drivers/STM32G4xx_HAL_Driver/Inc/stm32g4xx_ll_adc.h ****                                            with 6 ranks in the sequence */
1320:Drivers/STM32G4xx_HAL_Driver/Inc/stm32g4xx_ll_adc.h **** #define LL_ADC_REG_SEQ_SCAN_ENABLE_7RANKS  (ADC_SQR1_L_2 | ADC_SQR1_L_1) /*!< ADC group regular seq
1321:Drivers/STM32G4xx_HAL_Driver/Inc/stm32g4xx_ll_adc.h ****                                            with 7 ranks in the sequence */
1322:Drivers/STM32G4xx_HAL_Driver/Inc/stm32g4xx_ll_adc.h **** #define LL_ADC_REG_SEQ_SCAN_ENABLE_8RANKS  (ADC_SQR1_L_2 | ADC_SQR1_L_1 \
1323:Drivers/STM32G4xx_HAL_Driver/Inc/stm32g4xx_ll_adc.h ****                                             | ADC_SQR1_L_0)                /*!< ADC group regular s
1324:Drivers/STM32G4xx_HAL_Driver/Inc/stm32g4xx_ll_adc.h ****                                            with 8 ranks in the sequence */
1325:Drivers/STM32G4xx_HAL_Driver/Inc/stm32g4xx_ll_adc.h **** #define LL_ADC_REG_SEQ_SCAN_ENABLE_9RANKS  (ADC_SQR1_L_3)                 /*!< ADC group regular se
1326:Drivers/STM32G4xx_HAL_Driver/Inc/stm32g4xx_ll_adc.h ****                                            with 9 ranks in the sequence */
1327:Drivers/STM32G4xx_HAL_Driver/Inc/stm32g4xx_ll_adc.h **** #define LL_ADC_REG_SEQ_SCAN_ENABLE_10RANKS (ADC_SQR1_L_3 | ADC_SQR1_L_0)  /*!< ADC group regular se
1328:Drivers/STM32G4xx_HAL_Driver/Inc/stm32g4xx_ll_adc.h ****                                            with 10 ranks in the sequence */
1329:Drivers/STM32G4xx_HAL_Driver/Inc/stm32g4xx_ll_adc.h **** #define LL_ADC_REG_SEQ_SCAN_ENABLE_11RANKS (ADC_SQR1_L_3 | ADC_SQR1_L_1)  /*!< ADC group regular se
1330:Drivers/STM32G4xx_HAL_Driver/Inc/stm32g4xx_ll_adc.h ****                                            with 11 ranks in the sequence */
1331:Drivers/STM32G4xx_HAL_Driver/Inc/stm32g4xx_ll_adc.h **** #define LL_ADC_REG_SEQ_SCAN_ENABLE_12RANKS (ADC_SQR1_L_3 | ADC_SQR1_L_1 \
1332:Drivers/STM32G4xx_HAL_Driver/Inc/stm32g4xx_ll_adc.h ****                                             | ADC_SQR1_L_0)                /*!< ADC group regular s
1333:Drivers/STM32G4xx_HAL_Driver/Inc/stm32g4xx_ll_adc.h ****                                            with 12 ranks in the sequence */
1334:Drivers/STM32G4xx_HAL_Driver/Inc/stm32g4xx_ll_adc.h **** #define LL_ADC_REG_SEQ_SCAN_ENABLE_13RANKS (ADC_SQR1_L_3 | ADC_SQR1_L_2)  /*!< ADC group regular se
1335:Drivers/STM32G4xx_HAL_Driver/Inc/stm32g4xx_ll_adc.h ****                                            with 13 ranks in the sequence */
1336:Drivers/STM32G4xx_HAL_Driver/Inc/stm32g4xx_ll_adc.h **** #define LL_ADC_REG_SEQ_SCAN_ENABLE_14RANKS (ADC_SQR1_L_3 | ADC_SQR1_L_2 \
1337:Drivers/STM32G4xx_HAL_Driver/Inc/stm32g4xx_ll_adc.h ****                                             | ADC_SQR1_L_0)                /*!< ADC group regular s
1338:Drivers/STM32G4xx_HAL_Driver/Inc/stm32g4xx_ll_adc.h ****                                            with 14 ranks in the sequence */
1339:Drivers/STM32G4xx_HAL_Driver/Inc/stm32g4xx_ll_adc.h **** #define LL_ADC_REG_SEQ_SCAN_ENABLE_15RANKS (ADC_SQR1_L_3 | ADC_SQR1_L_2 \
1340:Drivers/STM32G4xx_HAL_Driver/Inc/stm32g4xx_ll_adc.h ****                                             | ADC_SQR1_L_1)                /*!< ADC group regular s
1341:Drivers/STM32G4xx_HAL_Driver/Inc/stm32g4xx_ll_adc.h ****                                            with 15 ranks in the sequence */
1342:Drivers/STM32G4xx_HAL_Driver/Inc/stm32g4xx_ll_adc.h **** #define LL_ADC_REG_SEQ_SCAN_ENABLE_16RANKS (ADC_SQR1_L_3 | ADC_SQR1_L_2 \
1343:Drivers/STM32G4xx_HAL_Driver/Inc/stm32g4xx_ll_adc.h ****                                             | ADC_SQR1_L_1 | ADC_SQR1_L_0) /*!< ADC group regular s
1344:Drivers/STM32G4xx_HAL_Driver/Inc/stm32g4xx_ll_adc.h ****                                                                               with 16 ranks in the 
1345:Drivers/STM32G4xx_HAL_Driver/Inc/stm32g4xx_ll_adc.h **** /**
1346:Drivers/STM32G4xx_HAL_Driver/Inc/stm32g4xx_ll_adc.h ****   * @}
1347:Drivers/STM32G4xx_HAL_Driver/Inc/stm32g4xx_ll_adc.h ****   */
1348:Drivers/STM32G4xx_HAL_Driver/Inc/stm32g4xx_ll_adc.h **** 
1349:Drivers/STM32G4xx_HAL_Driver/Inc/stm32g4xx_ll_adc.h **** /** @defgroup ADC_LL_EC_REG_SEQ_DISCONT_MODE  ADC group regular - Sequencer discontinuous mode
1350:Drivers/STM32G4xx_HAL_Driver/Inc/stm32g4xx_ll_adc.h ****   * @{
1351:Drivers/STM32G4xx_HAL_Driver/Inc/stm32g4xx_ll_adc.h ****   */
1352:Drivers/STM32G4xx_HAL_Driver/Inc/stm32g4xx_ll_adc.h **** #define LL_ADC_REG_SEQ_DISCONT_DISABLE     (0x00000000UL)                          /*!< ADC group r
1353:Drivers/STM32G4xx_HAL_Driver/Inc/stm32g4xx_ll_adc.h ****                                            discontinuous mode disable */
ARM GAS   			page 29


1354:Drivers/STM32G4xx_HAL_Driver/Inc/stm32g4xx_ll_adc.h **** #define LL_ADC_REG_SEQ_DISCONT_1RANK       (ADC_CFGR_DISCEN)                       /*!< ADC group r
1355:Drivers/STM32G4xx_HAL_Driver/Inc/stm32g4xx_ll_adc.h ****                                            discontinuous mode enable with sequence interruption eve
1356:Drivers/STM32G4xx_HAL_Driver/Inc/stm32g4xx_ll_adc.h **** #define LL_ADC_REG_SEQ_DISCONT_2RANKS      (ADC_CFGR_DISCNUM_0 | ADC_CFGR_DISCEN)  /*!< ADC group r
1357:Drivers/STM32G4xx_HAL_Driver/Inc/stm32g4xx_ll_adc.h ****                                            discontinuous mode enabled with sequence interruption ev
1358:Drivers/STM32G4xx_HAL_Driver/Inc/stm32g4xx_ll_adc.h **** #define LL_ADC_REG_SEQ_DISCONT_3RANKS      (ADC_CFGR_DISCNUM_1 | ADC_CFGR_DISCEN)  /*!< ADC group r
1359:Drivers/STM32G4xx_HAL_Driver/Inc/stm32g4xx_ll_adc.h ****                                            discontinuous mode enable with sequence interruption eve
1360:Drivers/STM32G4xx_HAL_Driver/Inc/stm32g4xx_ll_adc.h **** #define LL_ADC_REG_SEQ_DISCONT_4RANKS      (ADC_CFGR_DISCNUM_1 | ADC_CFGR_DISCNUM_0 \
1361:Drivers/STM32G4xx_HAL_Driver/Inc/stm32g4xx_ll_adc.h ****                                             | ADC_CFGR_DISCEN)                       /*!< ADC group
1362:Drivers/STM32G4xx_HAL_Driver/Inc/stm32g4xx_ll_adc.h ****                                            discontinuous mode enable with sequence interruption eve
1363:Drivers/STM32G4xx_HAL_Driver/Inc/stm32g4xx_ll_adc.h **** #define LL_ADC_REG_SEQ_DISCONT_5RANKS      (ADC_CFGR_DISCNUM_2 | ADC_CFGR_DISCEN)   /*!< ADC group 
1364:Drivers/STM32G4xx_HAL_Driver/Inc/stm32g4xx_ll_adc.h ****                                            discontinuous mode enable with sequence interruption eve
1365:Drivers/STM32G4xx_HAL_Driver/Inc/stm32g4xx_ll_adc.h **** #define LL_ADC_REG_SEQ_DISCONT_6RANKS      (ADC_CFGR_DISCNUM_2 | ADC_CFGR_DISCNUM_0 \
1366:Drivers/STM32G4xx_HAL_Driver/Inc/stm32g4xx_ll_adc.h ****                                             | ADC_CFGR_DISCEN)                       /*!< ADC group
1367:Drivers/STM32G4xx_HAL_Driver/Inc/stm32g4xx_ll_adc.h ****                                            discontinuous mode enable with sequence interruption eve
1368:Drivers/STM32G4xx_HAL_Driver/Inc/stm32g4xx_ll_adc.h **** #define LL_ADC_REG_SEQ_DISCONT_7RANKS      (ADC_CFGR_DISCNUM_2 | ADC_CFGR_DISCNUM_1 \
1369:Drivers/STM32G4xx_HAL_Driver/Inc/stm32g4xx_ll_adc.h ****                                             | ADC_CFGR_DISCEN)                       /*!< ADC group
1370:Drivers/STM32G4xx_HAL_Driver/Inc/stm32g4xx_ll_adc.h ****                                            discontinuous mode enable with sequence interruption eve
1371:Drivers/STM32G4xx_HAL_Driver/Inc/stm32g4xx_ll_adc.h **** #define LL_ADC_REG_SEQ_DISCONT_8RANKS      (ADC_CFGR_DISCNUM_2 | ADC_CFGR_DISCNUM_1 \
1372:Drivers/STM32G4xx_HAL_Driver/Inc/stm32g4xx_ll_adc.h ****                                             | ADC_CFGR_DISCNUM_0 | ADC_CFGR_DISCEN)  /*!< ADC group
1373:Drivers/STM32G4xx_HAL_Driver/Inc/stm32g4xx_ll_adc.h ****                                            discontinuous mode enable with sequence interruption eve
1374:Drivers/STM32G4xx_HAL_Driver/Inc/stm32g4xx_ll_adc.h **** /**
1375:Drivers/STM32G4xx_HAL_Driver/Inc/stm32g4xx_ll_adc.h ****   * @}
1376:Drivers/STM32G4xx_HAL_Driver/Inc/stm32g4xx_ll_adc.h ****   */
1377:Drivers/STM32G4xx_HAL_Driver/Inc/stm32g4xx_ll_adc.h **** 
1378:Drivers/STM32G4xx_HAL_Driver/Inc/stm32g4xx_ll_adc.h **** /** @defgroup ADC_LL_EC_REG_SEQ_RANKS  ADC group regular - Sequencer ranks
1379:Drivers/STM32G4xx_HAL_Driver/Inc/stm32g4xx_ll_adc.h ****   * @{
1380:Drivers/STM32G4xx_HAL_Driver/Inc/stm32g4xx_ll_adc.h ****   */
1381:Drivers/STM32G4xx_HAL_Driver/Inc/stm32g4xx_ll_adc.h **** #define LL_ADC_REG_RANK_1                  (ADC_SQR1_REGOFFSET | ADC_REG_RANK_1_SQRX_BITOFFSET_POS)
1382:Drivers/STM32G4xx_HAL_Driver/Inc/stm32g4xx_ll_adc.h ****                                            regular sequencer rank 1 */
1383:Drivers/STM32G4xx_HAL_Driver/Inc/stm32g4xx_ll_adc.h **** #define LL_ADC_REG_RANK_2                  (ADC_SQR1_REGOFFSET | ADC_REG_RANK_2_SQRX_BITOFFSET_POS)
1384:Drivers/STM32G4xx_HAL_Driver/Inc/stm32g4xx_ll_adc.h ****                                            regular sequencer rank 2 */
1385:Drivers/STM32G4xx_HAL_Driver/Inc/stm32g4xx_ll_adc.h **** #define LL_ADC_REG_RANK_3                  (ADC_SQR1_REGOFFSET | ADC_REG_RANK_3_SQRX_BITOFFSET_POS)
1386:Drivers/STM32G4xx_HAL_Driver/Inc/stm32g4xx_ll_adc.h ****                                            regular sequencer rank 3 */
1387:Drivers/STM32G4xx_HAL_Driver/Inc/stm32g4xx_ll_adc.h **** #define LL_ADC_REG_RANK_4                  (ADC_SQR1_REGOFFSET | ADC_REG_RANK_4_SQRX_BITOFFSET_POS)
1388:Drivers/STM32G4xx_HAL_Driver/Inc/stm32g4xx_ll_adc.h ****                                            regular sequencer rank 4 */
1389:Drivers/STM32G4xx_HAL_Driver/Inc/stm32g4xx_ll_adc.h **** #define LL_ADC_REG_RANK_5                  (ADC_SQR2_REGOFFSET | ADC_REG_RANK_5_SQRX_BITOFFSET_POS)
1390:Drivers/STM32G4xx_HAL_Driver/Inc/stm32g4xx_ll_adc.h ****                                            regular sequencer rank 5 */
1391:Drivers/STM32G4xx_HAL_Driver/Inc/stm32g4xx_ll_adc.h **** #define LL_ADC_REG_RANK_6                  (ADC_SQR2_REGOFFSET | ADC_REG_RANK_6_SQRX_BITOFFSET_POS)
1392:Drivers/STM32G4xx_HAL_Driver/Inc/stm32g4xx_ll_adc.h ****                                            regular sequencer rank 6 */
1393:Drivers/STM32G4xx_HAL_Driver/Inc/stm32g4xx_ll_adc.h **** #define LL_ADC_REG_RANK_7                  (ADC_SQR2_REGOFFSET | ADC_REG_RANK_7_SQRX_BITOFFSET_POS)
1394:Drivers/STM32G4xx_HAL_Driver/Inc/stm32g4xx_ll_adc.h ****                                            regular sequencer rank 7 */
1395:Drivers/STM32G4xx_HAL_Driver/Inc/stm32g4xx_ll_adc.h **** #define LL_ADC_REG_RANK_8                  (ADC_SQR2_REGOFFSET | ADC_REG_RANK_8_SQRX_BITOFFSET_POS)
1396:Drivers/STM32G4xx_HAL_Driver/Inc/stm32g4xx_ll_adc.h ****                                            regular sequencer rank 8 */
1397:Drivers/STM32G4xx_HAL_Driver/Inc/stm32g4xx_ll_adc.h **** #define LL_ADC_REG_RANK_9                  (ADC_SQR2_REGOFFSET | ADC_REG_RANK_9_SQRX_BITOFFSET_POS)
1398:Drivers/STM32G4xx_HAL_Driver/Inc/stm32g4xx_ll_adc.h ****                                            regular sequencer rank 9 */
1399:Drivers/STM32G4xx_HAL_Driver/Inc/stm32g4xx_ll_adc.h **** #define LL_ADC_REG_RANK_10                 (ADC_SQR3_REGOFFSET | ADC_REG_RANK_10_SQRX_BITOFFSET_POS
1400:Drivers/STM32G4xx_HAL_Driver/Inc/stm32g4xx_ll_adc.h ****                                            regular sequencer rank 10 */
1401:Drivers/STM32G4xx_HAL_Driver/Inc/stm32g4xx_ll_adc.h **** #define LL_ADC_REG_RANK_11                 (ADC_SQR3_REGOFFSET | ADC_REG_RANK_11_SQRX_BITOFFSET_POS
1402:Drivers/STM32G4xx_HAL_Driver/Inc/stm32g4xx_ll_adc.h ****                                            regular sequencer rank 11 */
1403:Drivers/STM32G4xx_HAL_Driver/Inc/stm32g4xx_ll_adc.h **** #define LL_ADC_REG_RANK_12                 (ADC_SQR3_REGOFFSET | ADC_REG_RANK_12_SQRX_BITOFFSET_POS
1404:Drivers/STM32G4xx_HAL_Driver/Inc/stm32g4xx_ll_adc.h ****                                            regular sequencer rank 12 */
1405:Drivers/STM32G4xx_HAL_Driver/Inc/stm32g4xx_ll_adc.h **** #define LL_ADC_REG_RANK_13                 (ADC_SQR3_REGOFFSET | ADC_REG_RANK_13_SQRX_BITOFFSET_POS
1406:Drivers/STM32G4xx_HAL_Driver/Inc/stm32g4xx_ll_adc.h ****                                            regular sequencer rank 13 */
1407:Drivers/STM32G4xx_HAL_Driver/Inc/stm32g4xx_ll_adc.h **** #define LL_ADC_REG_RANK_14                 (ADC_SQR3_REGOFFSET | ADC_REG_RANK_14_SQRX_BITOFFSET_POS
1408:Drivers/STM32G4xx_HAL_Driver/Inc/stm32g4xx_ll_adc.h ****                                            regular sequencer rank 14 */
1409:Drivers/STM32G4xx_HAL_Driver/Inc/stm32g4xx_ll_adc.h **** #define LL_ADC_REG_RANK_15                 (ADC_SQR4_REGOFFSET | ADC_REG_RANK_15_SQRX_BITOFFSET_POS
1410:Drivers/STM32G4xx_HAL_Driver/Inc/stm32g4xx_ll_adc.h ****                                            regular sequencer rank 15 */
ARM GAS   			page 30


1411:Drivers/STM32G4xx_HAL_Driver/Inc/stm32g4xx_ll_adc.h **** #define LL_ADC_REG_RANK_16                 (ADC_SQR4_REGOFFSET | ADC_REG_RANK_16_SQRX_BITOFFSET_POS
1412:Drivers/STM32G4xx_HAL_Driver/Inc/stm32g4xx_ll_adc.h ****                                            regular sequencer rank 16 */
1413:Drivers/STM32G4xx_HAL_Driver/Inc/stm32g4xx_ll_adc.h **** /**
1414:Drivers/STM32G4xx_HAL_Driver/Inc/stm32g4xx_ll_adc.h ****   * @}
1415:Drivers/STM32G4xx_HAL_Driver/Inc/stm32g4xx_ll_adc.h ****   */
1416:Drivers/STM32G4xx_HAL_Driver/Inc/stm32g4xx_ll_adc.h **** 
1417:Drivers/STM32G4xx_HAL_Driver/Inc/stm32g4xx_ll_adc.h **** /** @defgroup ADC_LL_EC_INJ_TRIGGER_SOURCE  ADC group injected - Trigger source
1418:Drivers/STM32G4xx_HAL_Driver/Inc/stm32g4xx_ll_adc.h ****   * @{
1419:Drivers/STM32G4xx_HAL_Driver/Inc/stm32g4xx_ll_adc.h ****   */
1420:Drivers/STM32G4xx_HAL_Driver/Inc/stm32g4xx_ll_adc.h **** #define LL_ADC_INJ_TRIG_SOFTWARE           (0x00000000UL)                                        /*
1421:Drivers/STM32G4xx_HAL_Driver/Inc/stm32g4xx_ll_adc.h ****                                            conversion trigger internal: SW start. */
1422:Drivers/STM32G4xx_HAL_Driver/Inc/stm32g4xx_ll_adc.h **** #define LL_ADC_INJ_TRIG_EXT_TIM1_TRGO      (ADC_INJ_TRIG_EXT_EDGE_DEFAULT)                         
1423:Drivers/STM32G4xx_HAL_Driver/Inc/stm32g4xx_ll_adc.h ****                                            ADC group injected conversion trigger from external peri
1424:Drivers/STM32G4xx_HAL_Driver/Inc/stm32g4xx_ll_adc.h ****                                            Trigger edge set to rising edge (default setting). */
1425:Drivers/STM32G4xx_HAL_Driver/Inc/stm32g4xx_ll_adc.h **** #define LL_ADC_INJ_TRIG_EXT_TIM1_TRGO2     (ADC_JSQR_JEXTSEL_3 | ADC_INJ_TRIG_EXT_EDGE_DEFAULT)    
1426:Drivers/STM32G4xx_HAL_Driver/Inc/stm32g4xx_ll_adc.h ****                                            ADC group injected conversion trigger from external peri
1427:Drivers/STM32G4xx_HAL_Driver/Inc/stm32g4xx_ll_adc.h ****                                            Trigger edge set to rising edge (default setting). */
1428:Drivers/STM32G4xx_HAL_Driver/Inc/stm32g4xx_ll_adc.h **** #define LL_ADC_INJ_TRIG_EXT_TIM1_CH3       (ADC_JSQR_JEXTSEL_3 | ADC_JSQR_JEXTSEL_1 | \
1429:Drivers/STM32G4xx_HAL_Driver/Inc/stm32g4xx_ll_adc.h ****                                            ADC_JSQR_JEXTSEL_0 | ADC_INJ_TRIG_EXT_EDGE_DEFAULT)     
1430:Drivers/STM32G4xx_HAL_Driver/Inc/stm32g4xx_ll_adc.h ****                                            ADC group injected conversion trigger from external peri
1431:Drivers/STM32G4xx_HAL_Driver/Inc/stm32g4xx_ll_adc.h ****                                            channel 3 event (capture compare: input capture or outpu
1432:Drivers/STM32G4xx_HAL_Driver/Inc/stm32g4xx_ll_adc.h ****                                            Trigger edge set to rising edge (default setting).
1433:Drivers/STM32G4xx_HAL_Driver/Inc/stm32g4xx_ll_adc.h ****                                            Note: On this STM32 series, this trigger is available on
1434:Drivers/STM32G4xx_HAL_Driver/Inc/stm32g4xx_ll_adc.h ****                                            instances. Refer to device datasheet for ADCx availabili
1435:Drivers/STM32G4xx_HAL_Driver/Inc/stm32g4xx_ll_adc.h **** #define LL_ADC_INJ_TRIG_EXT_TIM1_CH4       (ADC_JSQR_JEXTSEL_0 | ADC_INJ_TRIG_EXT_EDGE_DEFAULT)    
1436:Drivers/STM32G4xx_HAL_Driver/Inc/stm32g4xx_ll_adc.h ****                                            ADC group injected conversion trigger from external peri
1437:Drivers/STM32G4xx_HAL_Driver/Inc/stm32g4xx_ll_adc.h ****                                            channel 4 event (capture compare: input capture or outpu
1438:Drivers/STM32G4xx_HAL_Driver/Inc/stm32g4xx_ll_adc.h ****                                            Trigger edge set to rising edge (default setting). */
1439:Drivers/STM32G4xx_HAL_Driver/Inc/stm32g4xx_ll_adc.h **** #define LL_ADC_INJ_TRIG_EXT_TIM2_TRGO      (ADC_JSQR_JEXTSEL_1 | ADC_INJ_TRIG_EXT_EDGE_DEFAULT)    
1440:Drivers/STM32G4xx_HAL_Driver/Inc/stm32g4xx_ll_adc.h ****                                            ADC group injected conversion trigger from external peri
1441:Drivers/STM32G4xx_HAL_Driver/Inc/stm32g4xx_ll_adc.h ****                                            Trigger edge set to rising edge (default setting). */
1442:Drivers/STM32G4xx_HAL_Driver/Inc/stm32g4xx_ll_adc.h **** #define LL_ADC_INJ_TRIG_EXT_TIM2_CH1       (ADC_JSQR_JEXTSEL_1 | ADC_JSQR_JEXTSEL_0 | \
1443:Drivers/STM32G4xx_HAL_Driver/Inc/stm32g4xx_ll_adc.h ****                                            ADC_INJ_TRIG_EXT_EDGE_DEFAULT)                          
1444:Drivers/STM32G4xx_HAL_Driver/Inc/stm32g4xx_ll_adc.h ****                                            ADC group injected conversion trigger from external peri
1445:Drivers/STM32G4xx_HAL_Driver/Inc/stm32g4xx_ll_adc.h ****                                            channel 1 event (capture compare: input capture or outpu
1446:Drivers/STM32G4xx_HAL_Driver/Inc/stm32g4xx_ll_adc.h ****                                            Trigger edge set to rising edge (default setting).
1447:Drivers/STM32G4xx_HAL_Driver/Inc/stm32g4xx_ll_adc.h ****                                            Note: On this STM32 series, this trigger is available on
1448:Drivers/STM32G4xx_HAL_Driver/Inc/stm32g4xx_ll_adc.h ****                                            instances */
1449:Drivers/STM32G4xx_HAL_Driver/Inc/stm32g4xx_ll_adc.h **** #define LL_ADC_INJ_TRIG_EXT_TIM3_TRGO      (ADC_JSQR_JEXTSEL_3 | ADC_JSQR_JEXTSEL_2 | \
1450:Drivers/STM32G4xx_HAL_Driver/Inc/stm32g4xx_ll_adc.h ****                                            ADC_INJ_TRIG_EXT_EDGE_DEFAULT)                          
1451:Drivers/STM32G4xx_HAL_Driver/Inc/stm32g4xx_ll_adc.h ****                                            ADC group injected conversion trigger from external peri
1452:Drivers/STM32G4xx_HAL_Driver/Inc/stm32g4xx_ll_adc.h ****                                            Trigger edge set to rising edge (default setting). */
1453:Drivers/STM32G4xx_HAL_Driver/Inc/stm32g4xx_ll_adc.h **** #define LL_ADC_INJ_TRIG_EXT_TIM3_CH1       (ADC_JSQR_JEXTSEL_3 | ADC_JSQR_JEXTSEL_2 | \
1454:Drivers/STM32G4xx_HAL_Driver/Inc/stm32g4xx_ll_adc.h ****                                            ADC_JSQR_JEXTSEL_0 | ADC_INJ_TRIG_EXT_EDGE_DEFAULT)     
1455:Drivers/STM32G4xx_HAL_Driver/Inc/stm32g4xx_ll_adc.h ****                                            ADC group injected conversion trigger from external peri
1456:Drivers/STM32G4xx_HAL_Driver/Inc/stm32g4xx_ll_adc.h ****                                            channel 1 event (capture compare: input capture or outpu
1457:Drivers/STM32G4xx_HAL_Driver/Inc/stm32g4xx_ll_adc.h ****                                            Trigger edge set to rising edge (default setting).
1458:Drivers/STM32G4xx_HAL_Driver/Inc/stm32g4xx_ll_adc.h ****                                            Note: On this STM32 series, this trigger is available on
1459:Drivers/STM32G4xx_HAL_Driver/Inc/stm32g4xx_ll_adc.h ****                                            instances */
1460:Drivers/STM32G4xx_HAL_Driver/Inc/stm32g4xx_ll_adc.h **** #define LL_ADC_INJ_TRIG_EXT_TIM3_CH3       (ADC_JSQR_JEXTSEL_3 | ADC_JSQR_JEXTSEL_1 | \
1461:Drivers/STM32G4xx_HAL_Driver/Inc/stm32g4xx_ll_adc.h ****                                            ADC_JSQR_JEXTSEL_0 | ADC_INJ_TRIG_EXT_EDGE_DEFAULT)     
1462:Drivers/STM32G4xx_HAL_Driver/Inc/stm32g4xx_ll_adc.h ****                                            ADC group injected conversion trigger from external peri
1463:Drivers/STM32G4xx_HAL_Driver/Inc/stm32g4xx_ll_adc.h ****                                            channel 3 event (capture compare: input capture or outpu
1464:Drivers/STM32G4xx_HAL_Driver/Inc/stm32g4xx_ll_adc.h ****                                            Trigger edge set to rising edge (default setting).
1465:Drivers/STM32G4xx_HAL_Driver/Inc/stm32g4xx_ll_adc.h ****                                            Note: On this STM32 series, this trigger is available on
1466:Drivers/STM32G4xx_HAL_Driver/Inc/stm32g4xx_ll_adc.h ****                                            instances */
1467:Drivers/STM32G4xx_HAL_Driver/Inc/stm32g4xx_ll_adc.h **** #define LL_ADC_INJ_TRIG_EXT_TIM3_CH4       (ADC_JSQR_JEXTSEL_2 | ADC_INJ_TRIG_EXT_EDGE_DEFAULT)    
ARM GAS   			page 31


1468:Drivers/STM32G4xx_HAL_Driver/Inc/stm32g4xx_ll_adc.h ****                                            ADC group injected conversion trigger from external peri
1469:Drivers/STM32G4xx_HAL_Driver/Inc/stm32g4xx_ll_adc.h ****                                            channel 4 event (capture compare: input capture or outpu
1470:Drivers/STM32G4xx_HAL_Driver/Inc/stm32g4xx_ll_adc.h ****                                            Trigger edge set to rising edge (default setting).
1471:Drivers/STM32G4xx_HAL_Driver/Inc/stm32g4xx_ll_adc.h ****                                            Note: On this STM32 series, this trigger is available on
1472:Drivers/STM32G4xx_HAL_Driver/Inc/stm32g4xx_ll_adc.h ****                                            instances */
1473:Drivers/STM32G4xx_HAL_Driver/Inc/stm32g4xx_ll_adc.h **** #define LL_ADC_INJ_TRIG_EXT_TIM4_TRGO      (ADC_JSQR_JEXTSEL_2 | ADC_JSQR_JEXTSEL_0 | \
1474:Drivers/STM32G4xx_HAL_Driver/Inc/stm32g4xx_ll_adc.h ****                                            ADC_INJ_TRIG_EXT_EDGE_DEFAULT)                          
1475:Drivers/STM32G4xx_HAL_Driver/Inc/stm32g4xx_ll_adc.h ****                                            ADC group injected conversion trigger from external peri
1476:Drivers/STM32G4xx_HAL_Driver/Inc/stm32g4xx_ll_adc.h ****                                            Trigger edge set to rising edge (default setting). */
1477:Drivers/STM32G4xx_HAL_Driver/Inc/stm32g4xx_ll_adc.h **** #define LL_ADC_INJ_TRIG_EXT_TIM4_CH3       (ADC_JSQR_JEXTSEL_2 | ADC_INJ_TRIG_EXT_EDGE_DEFAULT)    
1478:Drivers/STM32G4xx_HAL_Driver/Inc/stm32g4xx_ll_adc.h ****                                            ADC group injected conversion trigger from external peri
1479:Drivers/STM32G4xx_HAL_Driver/Inc/stm32g4xx_ll_adc.h ****                                            channel 3 event (capture compare: input capture or outpu
1480:Drivers/STM32G4xx_HAL_Driver/Inc/stm32g4xx_ll_adc.h ****                                            Trigger edge set to rising edge (default setting).
1481:Drivers/STM32G4xx_HAL_Driver/Inc/stm32g4xx_ll_adc.h ****                                            Note: On this STM32 series, this trigger is available on
1482:Drivers/STM32G4xx_HAL_Driver/Inc/stm32g4xx_ll_adc.h ****                                            instances. Refer to device datasheet for ADCx availabili
1483:Drivers/STM32G4xx_HAL_Driver/Inc/stm32g4xx_ll_adc.h **** #define LL_ADC_INJ_TRIG_EXT_TIM4_CH4       (ADC_JSQR_JEXTSEL_2 | ADC_JSQR_JEXTSEL_1 | \
1484:Drivers/STM32G4xx_HAL_Driver/Inc/stm32g4xx_ll_adc.h ****                                            ADC_INJ_TRIG_EXT_EDGE_DEFAULT)                          
1485:Drivers/STM32G4xx_HAL_Driver/Inc/stm32g4xx_ll_adc.h ****                                            ADC group injected conversion trigger from external peri
1486:Drivers/STM32G4xx_HAL_Driver/Inc/stm32g4xx_ll_adc.h ****                                            channel 4 event (capture compare: input capture or outpu
1487:Drivers/STM32G4xx_HAL_Driver/Inc/stm32g4xx_ll_adc.h ****                                            Trigger edge set to rising edge (default setting).
1488:Drivers/STM32G4xx_HAL_Driver/Inc/stm32g4xx_ll_adc.h ****                                            Note: On this STM32 series, this trigger is available on
1489:Drivers/STM32G4xx_HAL_Driver/Inc/stm32g4xx_ll_adc.h ****                                            instances. Refer to device datasheet for ADCx availabili
1490:Drivers/STM32G4xx_HAL_Driver/Inc/stm32g4xx_ll_adc.h **** #define LL_ADC_INJ_TRIG_EXT_TIM6_TRGO      (ADC_JSQR_JEXTSEL_3 | ADC_JSQR_JEXTSEL_2 | \
1491:Drivers/STM32G4xx_HAL_Driver/Inc/stm32g4xx_ll_adc.h ****                                            ADC_JSQR_JEXTSEL_1 | ADC_INJ_TRIG_EXT_EDGE_DEFAULT)     
1492:Drivers/STM32G4xx_HAL_Driver/Inc/stm32g4xx_ll_adc.h ****                                            ADC group injected conversion trigger from external peri
1493:Drivers/STM32G4xx_HAL_Driver/Inc/stm32g4xx_ll_adc.h ****                                            Trigger edge set to rising edge (default setting). */
1494:Drivers/STM32G4xx_HAL_Driver/Inc/stm32g4xx_ll_adc.h **** #define LL_ADC_INJ_TRIG_EXT_TIM7_TRGO      (ADC_JSQR_JEXTSEL_4 | ADC_JSQR_JEXTSEL_3 | \
1495:Drivers/STM32G4xx_HAL_Driver/Inc/stm32g4xx_ll_adc.h ****                                            ADC_JSQR_JEXTSEL_2 | ADC_JSQR_JEXTSEL_1 | ADC_INJ_TRIG_E
1496:Drivers/STM32G4xx_HAL_Driver/Inc/stm32g4xx_ll_adc.h ****                                            ADC group injected conversion trigger from external peri
1497:Drivers/STM32G4xx_HAL_Driver/Inc/stm32g4xx_ll_adc.h ****                                            Trigger edge set to rising edge (default setting). */
1498:Drivers/STM32G4xx_HAL_Driver/Inc/stm32g4xx_ll_adc.h **** #define LL_ADC_INJ_TRIG_EXT_TIM8_TRGO      (ADC_JSQR_JEXTSEL_3 | ADC_JSQR_JEXTSEL_0 | \
1499:Drivers/STM32G4xx_HAL_Driver/Inc/stm32g4xx_ll_adc.h ****                                            ADC_INJ_TRIG_EXT_EDGE_DEFAULT)                          
1500:Drivers/STM32G4xx_HAL_Driver/Inc/stm32g4xx_ll_adc.h ****                                            ADC group injected conversion trigger from external peri
1501:Drivers/STM32G4xx_HAL_Driver/Inc/stm32g4xx_ll_adc.h ****                                            Trigger edge set to rising edge (default setting). */
1502:Drivers/STM32G4xx_HAL_Driver/Inc/stm32g4xx_ll_adc.h **** #define LL_ADC_INJ_TRIG_EXT_TIM8_TRGO2     (ADC_JSQR_JEXTSEL_3 | ADC_JSQR_JEXTSEL_1 | \
1503:Drivers/STM32G4xx_HAL_Driver/Inc/stm32g4xx_ll_adc.h ****                                            ADC_INJ_TRIG_EXT_EDGE_DEFAULT)                          
1504:Drivers/STM32G4xx_HAL_Driver/Inc/stm32g4xx_ll_adc.h ****                                            ADC group injected conversion trigger from external peri
1505:Drivers/STM32G4xx_HAL_Driver/Inc/stm32g4xx_ll_adc.h ****                                            Trigger edge set to rising edge (default setting). */
1506:Drivers/STM32G4xx_HAL_Driver/Inc/stm32g4xx_ll_adc.h **** #define LL_ADC_INJ_TRIG_EXT_TIM8_CH2       (ADC_JSQR_JEXTSEL_1 | ADC_JSQR_JEXTSEL_0 | \
1507:Drivers/STM32G4xx_HAL_Driver/Inc/stm32g4xx_ll_adc.h ****                                            ADC_INJ_TRIG_EXT_EDGE_DEFAULT)                          
1508:Drivers/STM32G4xx_HAL_Driver/Inc/stm32g4xx_ll_adc.h ****                                            ADC group injected conversion trigger from external peri
1509:Drivers/STM32G4xx_HAL_Driver/Inc/stm32g4xx_ll_adc.h ****                                            channel 2 event (capture compare: input capture or outpu
1510:Drivers/STM32G4xx_HAL_Driver/Inc/stm32g4xx_ll_adc.h ****                                            Trigger edge set to rising edge (default setting).
1511:Drivers/STM32G4xx_HAL_Driver/Inc/stm32g4xx_ll_adc.h ****                                            Note: On this STM32 series, this trigger is available on
1512:Drivers/STM32G4xx_HAL_Driver/Inc/stm32g4xx_ll_adc.h ****                                            instances. Refer to device datasheet for ADCx availabili
1513:Drivers/STM32G4xx_HAL_Driver/Inc/stm32g4xx_ll_adc.h **** #define LL_ADC_INJ_TRIG_EXT_TIM8_CH4       (ADC_JSQR_JEXTSEL_2 | ADC_JSQR_JEXTSEL_1 | \
1514:Drivers/STM32G4xx_HAL_Driver/Inc/stm32g4xx_ll_adc.h ****                                            ADC_JSQR_JEXTSEL_0 | ADC_INJ_TRIG_EXT_EDGE_DEFAULT)     
1515:Drivers/STM32G4xx_HAL_Driver/Inc/stm32g4xx_ll_adc.h ****                                            ADC group injected conversion trigger from external peri
1516:Drivers/STM32G4xx_HAL_Driver/Inc/stm32g4xx_ll_adc.h ****                                            channel 4 event (capture compare: input capture or outpu
1517:Drivers/STM32G4xx_HAL_Driver/Inc/stm32g4xx_ll_adc.h ****                                            Trigger edge set to rising edge (default setting). */
1518:Drivers/STM32G4xx_HAL_Driver/Inc/stm32g4xx_ll_adc.h **** #define LL_ADC_INJ_TRIG_EXT_TIM15_TRGO     (ADC_JSQR_JEXTSEL_3 | ADC_JSQR_JEXTSEL_2 | \
1519:Drivers/STM32G4xx_HAL_Driver/Inc/stm32g4xx_ll_adc.h ****                                            ADC_JSQR_JEXTSEL_1 | ADC_JSQR_JEXTSEL_0 | ADC_INJ_TRIG_E
1520:Drivers/STM32G4xx_HAL_Driver/Inc/stm32g4xx_ll_adc.h ****                                            ADC group injected conversion trigger from external peri
1521:Drivers/STM32G4xx_HAL_Driver/Inc/stm32g4xx_ll_adc.h ****                                            Trigger edge set to rising edge (default setting). */
1522:Drivers/STM32G4xx_HAL_Driver/Inc/stm32g4xx_ll_adc.h **** #define LL_ADC_INJ_TRIG_EXT_TIM16_CH1      (ADC_JSQR_JEXTSEL_4 | ADC_JSQR_JEXTSEL_3 | \
1523:Drivers/STM32G4xx_HAL_Driver/Inc/stm32g4xx_ll_adc.h ****                                            ADC_JSQR_JEXTSEL_1 | ADC_JSQR_JEXTSEL_0 | ADC_INJ_TRIG_E
1524:Drivers/STM32G4xx_HAL_Driver/Inc/stm32g4xx_ll_adc.h ****                                            ADC group injected conversion trigger from external peri
ARM GAS   			page 32


1525:Drivers/STM32G4xx_HAL_Driver/Inc/stm32g4xx_ll_adc.h ****                                            channel 4 event (capture compare: input capture or outpu
1526:Drivers/STM32G4xx_HAL_Driver/Inc/stm32g4xx_ll_adc.h ****                                            Trigger edge set to rising edge (default setting).
1527:Drivers/STM32G4xx_HAL_Driver/Inc/stm32g4xx_ll_adc.h ****                                            Note: On this STM32 series, this trigger is available on
1528:Drivers/STM32G4xx_HAL_Driver/Inc/stm32g4xx_ll_adc.h ****                                            instances */
1529:Drivers/STM32G4xx_HAL_Driver/Inc/stm32g4xx_ll_adc.h **** #define LL_ADC_INJ_TRIG_EXT_TIM20_TRGO     (ADC_JSQR_JEXTSEL_4 | ADC_INJ_TRIG_EXT_EDGE_DEFAULT)    
1530:Drivers/STM32G4xx_HAL_Driver/Inc/stm32g4xx_ll_adc.h ****                                            ADC group injected conversion trigger from external peri
1531:Drivers/STM32G4xx_HAL_Driver/Inc/stm32g4xx_ll_adc.h ****                                            Trigger edge set to rising edge (default setting).
1532:Drivers/STM32G4xx_HAL_Driver/Inc/stm32g4xx_ll_adc.h ****                                            Note: On this STM32 series, TIM20 is not available on al
1533:Drivers/STM32G4xx_HAL_Driver/Inc/stm32g4xx_ll_adc.h ****                                            device datasheet for more details */
1534:Drivers/STM32G4xx_HAL_Driver/Inc/stm32g4xx_ll_adc.h **** #define LL_ADC_INJ_TRIG_EXT_TIM20_TRGO2    (ADC_JSQR_JEXTSEL_4 | ADC_JSQR_JEXTSEL_0 | \
1535:Drivers/STM32G4xx_HAL_Driver/Inc/stm32g4xx_ll_adc.h ****                                            ADC_INJ_TRIG_EXT_EDGE_DEFAULT)                          
1536:Drivers/STM32G4xx_HAL_Driver/Inc/stm32g4xx_ll_adc.h ****                                            ADC group injected conversion trigger from external peri
1537:Drivers/STM32G4xx_HAL_Driver/Inc/stm32g4xx_ll_adc.h ****                                            Trigger edge set to rising edge (default setting).
1538:Drivers/STM32G4xx_HAL_Driver/Inc/stm32g4xx_ll_adc.h ****                                            Note: On this STM32 series, TIM20 is not available on al
1539:Drivers/STM32G4xx_HAL_Driver/Inc/stm32g4xx_ll_adc.h ****                                            device datasheet for more details */
1540:Drivers/STM32G4xx_HAL_Driver/Inc/stm32g4xx_ll_adc.h **** #define LL_ADC_INJ_TRIG_EXT_TIM20_CH2      (ADC_JSQR_JEXTSEL_4 | ADC_JSQR_JEXTSEL_1 | \
1541:Drivers/STM32G4xx_HAL_Driver/Inc/stm32g4xx_ll_adc.h ****                                            ADC_INJ_TRIG_EXT_EDGE_DEFAULT)                          
1542:Drivers/STM32G4xx_HAL_Driver/Inc/stm32g4xx_ll_adc.h ****                                            ADC group injected conversion trigger from external peri
1543:Drivers/STM32G4xx_HAL_Driver/Inc/stm32g4xx_ll_adc.h ****                                            channel 2 event (capture compare: input capture or outpu
1544:Drivers/STM32G4xx_HAL_Driver/Inc/stm32g4xx_ll_adc.h ****                                            Trigger edge set to rising edge (default setting).
1545:Drivers/STM32G4xx_HAL_Driver/Inc/stm32g4xx_ll_adc.h ****                                            Trigger available only on ADC3/4/5 instances. On this ST
1546:Drivers/STM32G4xx_HAL_Driver/Inc/stm32g4xx_ll_adc.h ****                                            not available on all devices. Refer to device datasheet 
1547:Drivers/STM32G4xx_HAL_Driver/Inc/stm32g4xx_ll_adc.h **** #define LL_ADC_INJ_TRIG_EXT_TIM20_CH4      (ADC_JSQR_JEXTSEL_4 | ADC_JSQR_JEXTSEL_1 | \
1548:Drivers/STM32G4xx_HAL_Driver/Inc/stm32g4xx_ll_adc.h ****                                            ADC_INJ_TRIG_EXT_EDGE_DEFAULT)                          
1549:Drivers/STM32G4xx_HAL_Driver/Inc/stm32g4xx_ll_adc.h ****                                            ADC group injected conversion trigger from external peri
1550:Drivers/STM32G4xx_HAL_Driver/Inc/stm32g4xx_ll_adc.h ****                                            channel 4 event (capture compare: input capture or outpu
1551:Drivers/STM32G4xx_HAL_Driver/Inc/stm32g4xx_ll_adc.h ****                                            Trigger edge set to rising edge (default setting).
1552:Drivers/STM32G4xx_HAL_Driver/Inc/stm32g4xx_ll_adc.h ****                                            Trigger available only on ADC1/2 instances. On this STM3
1553:Drivers/STM32G4xx_HAL_Driver/Inc/stm32g4xx_ll_adc.h ****                                            not available on all devices. Refer to device datasheet 
1554:Drivers/STM32G4xx_HAL_Driver/Inc/stm32g4xx_ll_adc.h **** #define LL_ADC_INJ_TRIG_EXT_HRTIM_TRG1     (ADC_JSQR_JEXTSEL_4 | ADC_JSQR_JEXTSEL_3 | \
1555:Drivers/STM32G4xx_HAL_Driver/Inc/stm32g4xx_ll_adc.h ****                                            ADC_JSQR_JEXTSEL_1 | ADC_JSQR_JEXTSEL_0 | ADC_INJ_TRIG_E
1556:Drivers/STM32G4xx_HAL_Driver/Inc/stm32g4xx_ll_adc.h ****                                            ADC group injected conversion trigger from external peri
1557:Drivers/STM32G4xx_HAL_Driver/Inc/stm32g4xx_ll_adc.h ****                                            ADC trigger 1 event. Trigger edge set to rising edge (de
1558:Drivers/STM32G4xx_HAL_Driver/Inc/stm32g4xx_ll_adc.h ****                                            Note: On this STM32 series, this trigger is available on
1559:Drivers/STM32G4xx_HAL_Driver/Inc/stm32g4xx_ll_adc.h ****                                            instances, and HRTIM is not available on all devices. Re
1560:Drivers/STM32G4xx_HAL_Driver/Inc/stm32g4xx_ll_adc.h ****                                            datasheet for more details */
1561:Drivers/STM32G4xx_HAL_Driver/Inc/stm32g4xx_ll_adc.h **** #define LL_ADC_INJ_TRIG_EXT_HRTIM_TRG2     (ADC_JSQR_JEXTSEL_4 | ADC_JSQR_JEXTSEL_1 | \
1562:Drivers/STM32G4xx_HAL_Driver/Inc/stm32g4xx_ll_adc.h ****                                            ADC_JSQR_JEXTSEL_0 | ADC_INJ_TRIG_EXT_EDGE_DEFAULT)     
1563:Drivers/STM32G4xx_HAL_Driver/Inc/stm32g4xx_ll_adc.h ****                                            ADC group injected conversion trigger from external peri
1564:Drivers/STM32G4xx_HAL_Driver/Inc/stm32g4xx_ll_adc.h ****                                            trigger 2 event. Trigger edge set to rising edge (defaul
1565:Drivers/STM32G4xx_HAL_Driver/Inc/stm32g4xx_ll_adc.h ****                                            Note: On this STM32 series, HRTIM is not available on al
1566:Drivers/STM32G4xx_HAL_Driver/Inc/stm32g4xx_ll_adc.h ****                                            device datasheet for more details */
1567:Drivers/STM32G4xx_HAL_Driver/Inc/stm32g4xx_ll_adc.h **** #define LL_ADC_INJ_TRIG_EXT_HRTIM_TRG3     (ADC_JSQR_JEXTSEL_4 | ADC_JSQR_JEXTSEL_3 | \
1568:Drivers/STM32G4xx_HAL_Driver/Inc/stm32g4xx_ll_adc.h ****                                            ADC_JSQR_JEXTSEL_2 | ADC_INJ_TRIG_EXT_EDGE_DEFAULT)     
1569:Drivers/STM32G4xx_HAL_Driver/Inc/stm32g4xx_ll_adc.h ****                                            ADC group injected conversion trigger from external peri
1570:Drivers/STM32G4xx_HAL_Driver/Inc/stm32g4xx_ll_adc.h ****                                            ADC trigger 3 event. Trigger edge set to rising edge (de
1571:Drivers/STM32G4xx_HAL_Driver/Inc/stm32g4xx_ll_adc.h ****                                            Note: On this STM32 series, this trigger is available on
1572:Drivers/STM32G4xx_HAL_Driver/Inc/stm32g4xx_ll_adc.h ****                                            instances, and HRTIM is not available on all devices. Re
1573:Drivers/STM32G4xx_HAL_Driver/Inc/stm32g4xx_ll_adc.h ****                                            datasheet for more details */
1574:Drivers/STM32G4xx_HAL_Driver/Inc/stm32g4xx_ll_adc.h **** #define LL_ADC_INJ_TRIG_EXT_HRTIM_TRG4     (ADC_JSQR_JEXTSEL_4 | ADC_JSQR_JEXTSEL_2 | \
1575:Drivers/STM32G4xx_HAL_Driver/Inc/stm32g4xx_ll_adc.h ****                                            ADC_INJ_TRIG_EXT_EDGE_DEFAULT)                          
1576:Drivers/STM32G4xx_HAL_Driver/Inc/stm32g4xx_ll_adc.h ****                                            ADC group injected conversion trigger from external peri
1577:Drivers/STM32G4xx_HAL_Driver/Inc/stm32g4xx_ll_adc.h ****                                            trigger 4 event. Trigger edge set to rising edge (defaul
1578:Drivers/STM32G4xx_HAL_Driver/Inc/stm32g4xx_ll_adc.h ****                                            Note: On this STM32 series, HRTIM is not available on al
1579:Drivers/STM32G4xx_HAL_Driver/Inc/stm32g4xx_ll_adc.h ****                                            device datasheet for more details */
1580:Drivers/STM32G4xx_HAL_Driver/Inc/stm32g4xx_ll_adc.h **** #define LL_ADC_INJ_TRIG_EXT_HRTIM_TRG5     (ADC_JSQR_JEXTSEL_4 | ADC_JSQR_JEXTSEL_2 | \
1581:Drivers/STM32G4xx_HAL_Driver/Inc/stm32g4xx_ll_adc.h ****                                            ADC_JSQR_JEXTSEL_0 | ADC_INJ_TRIG_EXT_EDGE_DEFAULT)     
ARM GAS   			page 33


1582:Drivers/STM32G4xx_HAL_Driver/Inc/stm32g4xx_ll_adc.h ****                                            ADC group injected conversion trigger from external peri
1583:Drivers/STM32G4xx_HAL_Driver/Inc/stm32g4xx_ll_adc.h ****                                            trigger 5 event. Trigger edge set to rising edge (defaul
1584:Drivers/STM32G4xx_HAL_Driver/Inc/stm32g4xx_ll_adc.h ****                                            Note: On this STM32 series, HRTIM is not available on al
1585:Drivers/STM32G4xx_HAL_Driver/Inc/stm32g4xx_ll_adc.h ****                                            device datasheet for more details */
1586:Drivers/STM32G4xx_HAL_Driver/Inc/stm32g4xx_ll_adc.h **** #define LL_ADC_INJ_TRIG_EXT_HRTIM_TRG6     (ADC_JSQR_JEXTSEL_4 | ADC_JSQR_JEXTSEL_2 | \
1587:Drivers/STM32G4xx_HAL_Driver/Inc/stm32g4xx_ll_adc.h ****                                            ADC_JSQR_JEXTSEL_1 | ADC_INJ_TRIG_EXT_EDGE_DEFAULT)     
1588:Drivers/STM32G4xx_HAL_Driver/Inc/stm32g4xx_ll_adc.h ****                                            ADC group injected conversion trigger from external peri
1589:Drivers/STM32G4xx_HAL_Driver/Inc/stm32g4xx_ll_adc.h ****                                            trigger 6 event. Trigger edge set to rising edge (defaul
1590:Drivers/STM32G4xx_HAL_Driver/Inc/stm32g4xx_ll_adc.h ****                                            Note: On this STM32 series, HRTIM is not available on al
1591:Drivers/STM32G4xx_HAL_Driver/Inc/stm32g4xx_ll_adc.h ****                                            device datasheet for more details */
1592:Drivers/STM32G4xx_HAL_Driver/Inc/stm32g4xx_ll_adc.h **** #define LL_ADC_INJ_TRIG_EXT_HRTIM_TRG7     (ADC_JSQR_JEXTSEL_4 | ADC_JSQR_JEXTSEL_2 | \
1593:Drivers/STM32G4xx_HAL_Driver/Inc/stm32g4xx_ll_adc.h ****                                            ADC_JSQR_JEXTSEL_1 | ADC_JSQR_JEXTSEL_0 | ADC_INJ_TRIG_E
1594:Drivers/STM32G4xx_HAL_Driver/Inc/stm32g4xx_ll_adc.h ****                                            ADC group injected conversion trigger from external peri
1595:Drivers/STM32G4xx_HAL_Driver/Inc/stm32g4xx_ll_adc.h ****                                            trigger 7 event. Trigger edge set to rising edge (defaul
1596:Drivers/STM32G4xx_HAL_Driver/Inc/stm32g4xx_ll_adc.h ****                                            Note: On this STM32 series, HRTIM is not available on al
1597:Drivers/STM32G4xx_HAL_Driver/Inc/stm32g4xx_ll_adc.h ****                                            device datasheet for more details */
1598:Drivers/STM32G4xx_HAL_Driver/Inc/stm32g4xx_ll_adc.h **** #define LL_ADC_INJ_TRIG_EXT_HRTIM_TRG8     (ADC_JSQR_JEXTSEL_4 | ADC_JSQR_JEXTSEL_3 | \
1599:Drivers/STM32G4xx_HAL_Driver/Inc/stm32g4xx_ll_adc.h ****                                            ADC_INJ_TRIG_EXT_EDGE_DEFAULT)                          
1600:Drivers/STM32G4xx_HAL_Driver/Inc/stm32g4xx_ll_adc.h ****                                            ADC group injected conversion trigger from external peri
1601:Drivers/STM32G4xx_HAL_Driver/Inc/stm32g4xx_ll_adc.h ****                                            trigger 8 event. Trigger edge set to rising edge (defaul
1602:Drivers/STM32G4xx_HAL_Driver/Inc/stm32g4xx_ll_adc.h ****                                            Note: On this STM32 series, HRTIM is not available on al
1603:Drivers/STM32G4xx_HAL_Driver/Inc/stm32g4xx_ll_adc.h ****                                            device datasheet for more details */
1604:Drivers/STM32G4xx_HAL_Driver/Inc/stm32g4xx_ll_adc.h **** #define LL_ADC_INJ_TRIG_EXT_HRTIM_TRG9     (ADC_JSQR_JEXTSEL_4 | ADC_JSQR_JEXTSEL_3 | \
1605:Drivers/STM32G4xx_HAL_Driver/Inc/stm32g4xx_ll_adc.h ****                                            ADC_JSQR_JEXTSEL_0 | ADC_INJ_TRIG_EXT_EDGE_DEFAULT)     
1606:Drivers/STM32G4xx_HAL_Driver/Inc/stm32g4xx_ll_adc.h ****                                            ADC group injected conversion trigger from external peri
1607:Drivers/STM32G4xx_HAL_Driver/Inc/stm32g4xx_ll_adc.h ****                                            trigger 9 event. Trigger edge set to rising edge (defaul
1608:Drivers/STM32G4xx_HAL_Driver/Inc/stm32g4xx_ll_adc.h ****                                            Note: On this STM32 series, HRTIM is not available on al
1609:Drivers/STM32G4xx_HAL_Driver/Inc/stm32g4xx_ll_adc.h ****                                            device datasheet for more details */
1610:Drivers/STM32G4xx_HAL_Driver/Inc/stm32g4xx_ll_adc.h **** #define LL_ADC_INJ_TRIG_EXT_HRTIM_TRG10    (ADC_JSQR_JEXTSEL_4 | ADC_JSQR_JEXTSEL_3 | \
1611:Drivers/STM32G4xx_HAL_Driver/Inc/stm32g4xx_ll_adc.h ****                                            ADC_JSQR_JEXTSEL_1 | ADC_INJ_TRIG_EXT_EDGE_DEFAULT)     
1612:Drivers/STM32G4xx_HAL_Driver/Inc/stm32g4xx_ll_adc.h ****                                            ADC group injected conversion trigger from external peri
1613:Drivers/STM32G4xx_HAL_Driver/Inc/stm32g4xx_ll_adc.h ****                                            trigger 10 event. Trigger edge set to rising edge (defau
1614:Drivers/STM32G4xx_HAL_Driver/Inc/stm32g4xx_ll_adc.h ****                                            Note: On this STM32 series, HRTIM is not available on al
1615:Drivers/STM32G4xx_HAL_Driver/Inc/stm32g4xx_ll_adc.h ****                                            device datasheet for more details */
1616:Drivers/STM32G4xx_HAL_Driver/Inc/stm32g4xx_ll_adc.h **** #define LL_ADC_INJ_TRIG_EXT_EXTI_LINE3     (ADC_JSQR_JEXTSEL_3 | ADC_JSQR_JEXTSEL_2 | \
1617:Drivers/STM32G4xx_HAL_Driver/Inc/stm32g4xx_ll_adc.h ****                                            ADC_JSQR_JEXTSEL_0 | ADC_INJ_TRIG_EXT_EDGE_DEFAULT)     
1618:Drivers/STM32G4xx_HAL_Driver/Inc/stm32g4xx_ll_adc.h ****                                            ADC group injected conversion trigger from external peri
1619:Drivers/STM32G4xx_HAL_Driver/Inc/stm32g4xx_ll_adc.h ****                                            interrupt line 3. Trigger edge set to rising edge (defau
1620:Drivers/STM32G4xx_HAL_Driver/Inc/stm32g4xx_ll_adc.h ****                                            Note: On this STM32 series, this trigger is available on
1621:Drivers/STM32G4xx_HAL_Driver/Inc/stm32g4xx_ll_adc.h ****                                            instances. Refer to device datasheet for ADCx availabili
1622:Drivers/STM32G4xx_HAL_Driver/Inc/stm32g4xx_ll_adc.h **** #define LL_ADC_INJ_TRIG_EXT_EXTI_LINE15    (ADC_JSQR_JEXTSEL_2 | ADC_JSQR_JEXTSEL_1 | \
1623:Drivers/STM32G4xx_HAL_Driver/Inc/stm32g4xx_ll_adc.h ****                                            ADC_INJ_TRIG_EXT_EDGE_DEFAULT)                          
1624:Drivers/STM32G4xx_HAL_Driver/Inc/stm32g4xx_ll_adc.h ****                                            ADC group injected conversion trigger from external peri
1625:Drivers/STM32G4xx_HAL_Driver/Inc/stm32g4xx_ll_adc.h ****                                            interrupt line 15. Trigger edge set to rising edge (defa
1626:Drivers/STM32G4xx_HAL_Driver/Inc/stm32g4xx_ll_adc.h ****                                            Note: On this STM32 series, this trigger is available on
1627:Drivers/STM32G4xx_HAL_Driver/Inc/stm32g4xx_ll_adc.h ****                                            instances. */
1628:Drivers/STM32G4xx_HAL_Driver/Inc/stm32g4xx_ll_adc.h **** #define LL_ADC_INJ_TRIG_EXT_LPTIM_OUT      (ADC_JSQR_JEXTSEL_4 | ADC_JSQR_JEXTSEL_3 | \
1629:Drivers/STM32G4xx_HAL_Driver/Inc/stm32g4xx_ll_adc.h ****                                            ADC_JSQR_JEXTSEL_2 | ADC_JSQR_JEXTSEL_0 | ADC_INJ_TRIG_E
1630:Drivers/STM32G4xx_HAL_Driver/Inc/stm32g4xx_ll_adc.h ****                                            ADC group injected conversion trigger from external peri
1631:Drivers/STM32G4xx_HAL_Driver/Inc/stm32g4xx_ll_adc.h ****                                            event. Trigger edge set to rising edge (default setting)
1632:Drivers/STM32G4xx_HAL_Driver/Inc/stm32g4xx_ll_adc.h **** /**
1633:Drivers/STM32G4xx_HAL_Driver/Inc/stm32g4xx_ll_adc.h ****   * @}
1634:Drivers/STM32G4xx_HAL_Driver/Inc/stm32g4xx_ll_adc.h ****   */
1635:Drivers/STM32G4xx_HAL_Driver/Inc/stm32g4xx_ll_adc.h **** 
1636:Drivers/STM32G4xx_HAL_Driver/Inc/stm32g4xx_ll_adc.h **** /** @defgroup ADC_LL_EC_INJ_TRIGGER_EDGE  ADC group injected - Trigger edge
1637:Drivers/STM32G4xx_HAL_Driver/Inc/stm32g4xx_ll_adc.h ****   * @{
1638:Drivers/STM32G4xx_HAL_Driver/Inc/stm32g4xx_ll_adc.h ****   */
ARM GAS   			page 34


1639:Drivers/STM32G4xx_HAL_Driver/Inc/stm32g4xx_ll_adc.h **** #define LL_ADC_INJ_TRIG_EXT_RISING         (                    ADC_JSQR_JEXTEN_0) /*!< ADC group i
1640:Drivers/STM32G4xx_HAL_Driver/Inc/stm32g4xx_ll_adc.h ****                                            trigger polarity set to rising edge */
1641:Drivers/STM32G4xx_HAL_Driver/Inc/stm32g4xx_ll_adc.h **** #define LL_ADC_INJ_TRIG_EXT_FALLING        (ADC_JSQR_JEXTEN_1                    ) /*!< ADC group i
1642:Drivers/STM32G4xx_HAL_Driver/Inc/stm32g4xx_ll_adc.h ****                                            trigger polarity set to falling edge */
1643:Drivers/STM32G4xx_HAL_Driver/Inc/stm32g4xx_ll_adc.h **** #define LL_ADC_INJ_TRIG_EXT_RISINGFALLING  (ADC_JSQR_JEXTEN_1 | ADC_JSQR_JEXTEN_0) /*!< ADC group i
1644:Drivers/STM32G4xx_HAL_Driver/Inc/stm32g4xx_ll_adc.h ****                                            trigger polarity set to both rising and falling edges */
1645:Drivers/STM32G4xx_HAL_Driver/Inc/stm32g4xx_ll_adc.h **** /**
1646:Drivers/STM32G4xx_HAL_Driver/Inc/stm32g4xx_ll_adc.h ****   * @}
1647:Drivers/STM32G4xx_HAL_Driver/Inc/stm32g4xx_ll_adc.h ****   */
1648:Drivers/STM32G4xx_HAL_Driver/Inc/stm32g4xx_ll_adc.h **** 
1649:Drivers/STM32G4xx_HAL_Driver/Inc/stm32g4xx_ll_adc.h **** /** @defgroup ADC_LL_EC_INJ_TRIG_AUTO  ADC group injected - Automatic trigger mode
1650:Drivers/STM32G4xx_HAL_Driver/Inc/stm32g4xx_ll_adc.h ****   * @{
1651:Drivers/STM32G4xx_HAL_Driver/Inc/stm32g4xx_ll_adc.h ****   */
1652:Drivers/STM32G4xx_HAL_Driver/Inc/stm32g4xx_ll_adc.h **** #define LL_ADC_INJ_TRIG_INDEPENDENT        (0x00000000UL)     /*!< ADC group injected conversion tr
1653:Drivers/STM32G4xx_HAL_Driver/Inc/stm32g4xx_ll_adc.h ****                                            Setting mandatory if ADC group injected injected trigger
1654:Drivers/STM32G4xx_HAL_Driver/Inc/stm32g4xx_ll_adc.h ****                                            an external trigger. */
1655:Drivers/STM32G4xx_HAL_Driver/Inc/stm32g4xx_ll_adc.h **** #define LL_ADC_INJ_TRIG_FROM_GRP_REGULAR   (ADC_CFGR_JAUTO)   /*!< ADC group injected conversion tr
1656:Drivers/STM32G4xx_HAL_Driver/Inc/stm32g4xx_ll_adc.h ****                                            regular. Setting compliant only with group injected trig
1657:Drivers/STM32G4xx_HAL_Driver/Inc/stm32g4xx_ll_adc.h ****                                            SW start, without any further action on  ADC group injec
1658:Drivers/STM32G4xx_HAL_Driver/Inc/stm32g4xx_ll_adc.h ****                                            or stop: in this case, ADC group injected is controlled 
1659:Drivers/STM32G4xx_HAL_Driver/Inc/stm32g4xx_ll_adc.h ****                                            regular. */
1660:Drivers/STM32G4xx_HAL_Driver/Inc/stm32g4xx_ll_adc.h **** /**
1661:Drivers/STM32G4xx_HAL_Driver/Inc/stm32g4xx_ll_adc.h ****   * @}
1662:Drivers/STM32G4xx_HAL_Driver/Inc/stm32g4xx_ll_adc.h ****   */
1663:Drivers/STM32G4xx_HAL_Driver/Inc/stm32g4xx_ll_adc.h **** 
1664:Drivers/STM32G4xx_HAL_Driver/Inc/stm32g4xx_ll_adc.h **** /** @defgroup ADC_LL_EC_INJ_CONTEXT_QUEUE  ADC group injected - Context queue mode
1665:Drivers/STM32G4xx_HAL_Driver/Inc/stm32g4xx_ll_adc.h ****   * @{
1666:Drivers/STM32G4xx_HAL_Driver/Inc/stm32g4xx_ll_adc.h ****   */
1667:Drivers/STM32G4xx_HAL_Driver/Inc/stm32g4xx_ll_adc.h **** #define LL_ADC_INJ_QUEUE_2CONTEXTS_LAST_ACTIVE (0x00000000UL)   /* Group injected sequence context 
1668:Drivers/STM32G4xx_HAL_Driver/Inc/stm32g4xx_ll_adc.h ****                                            and can contain up to 2 contexts. When all contexts have
1669:Drivers/STM32G4xx_HAL_Driver/Inc/stm32g4xx_ll_adc.h ****                                            the queue maintains the last context active perpetually.
1670:Drivers/STM32G4xx_HAL_Driver/Inc/stm32g4xx_ll_adc.h **** #define LL_ADC_INJ_QUEUE_2CONTEXTS_END_EMPTY   (ADC_CFGR_JQM)   /* Group injected sequence context 
1671:Drivers/STM32G4xx_HAL_Driver/Inc/stm32g4xx_ll_adc.h ****                                            and can contain up to 2 contexts. When all contexts have
1672:Drivers/STM32G4xx_HAL_Driver/Inc/stm32g4xx_ll_adc.h ****                                            the queue is empty and injected group triggers are disab
1673:Drivers/STM32G4xx_HAL_Driver/Inc/stm32g4xx_ll_adc.h **** #define LL_ADC_INJ_QUEUE_DISABLE               (ADC_CFGR_JQDIS) /* Group injected sequence context 
1674:Drivers/STM32G4xx_HAL_Driver/Inc/stm32g4xx_ll_adc.h ****                                            only 1 sequence can be configured and is active perpetua
1675:Drivers/STM32G4xx_HAL_Driver/Inc/stm32g4xx_ll_adc.h **** /**
1676:Drivers/STM32G4xx_HAL_Driver/Inc/stm32g4xx_ll_adc.h ****   * @}
1677:Drivers/STM32G4xx_HAL_Driver/Inc/stm32g4xx_ll_adc.h ****   */
1678:Drivers/STM32G4xx_HAL_Driver/Inc/stm32g4xx_ll_adc.h **** 
1679:Drivers/STM32G4xx_HAL_Driver/Inc/stm32g4xx_ll_adc.h **** /** @defgroup ADC_LL_EC_INJ_SEQ_SCAN_LENGTH  ADC group injected - Sequencer scan length
1680:Drivers/STM32G4xx_HAL_Driver/Inc/stm32g4xx_ll_adc.h ****   * @{
1681:Drivers/STM32G4xx_HAL_Driver/Inc/stm32g4xx_ll_adc.h ****   */
1682:Drivers/STM32G4xx_HAL_Driver/Inc/stm32g4xx_ll_adc.h **** #define LL_ADC_INJ_SEQ_SCAN_DISABLE        (0x00000000UL)                  /*!< ADC group injected 
1683:Drivers/STM32G4xx_HAL_Driver/Inc/stm32g4xx_ll_adc.h ****                                            (equivalent to sequencer of 1 rank: ADC conversion on on
1684:Drivers/STM32G4xx_HAL_Driver/Inc/stm32g4xx_ll_adc.h **** #define LL_ADC_INJ_SEQ_SCAN_ENABLE_2RANKS  (                ADC_JSQR_JL_0) /*!< ADC group injected 
1685:Drivers/STM32G4xx_HAL_Driver/Inc/stm32g4xx_ll_adc.h ****                                            with 2 ranks in the sequence */
1686:Drivers/STM32G4xx_HAL_Driver/Inc/stm32g4xx_ll_adc.h **** #define LL_ADC_INJ_SEQ_SCAN_ENABLE_3RANKS  (ADC_JSQR_JL_1                ) /*!< ADC group injected 
1687:Drivers/STM32G4xx_HAL_Driver/Inc/stm32g4xx_ll_adc.h ****                                            with 3 ranks in the sequence */
1688:Drivers/STM32G4xx_HAL_Driver/Inc/stm32g4xx_ll_adc.h **** #define LL_ADC_INJ_SEQ_SCAN_ENABLE_4RANKS  (ADC_JSQR_JL_1 | ADC_JSQR_JL_0) /*!< ADC group injected 
1689:Drivers/STM32G4xx_HAL_Driver/Inc/stm32g4xx_ll_adc.h ****                                            with 4 ranks in the sequence */
1690:Drivers/STM32G4xx_HAL_Driver/Inc/stm32g4xx_ll_adc.h **** /**
1691:Drivers/STM32G4xx_HAL_Driver/Inc/stm32g4xx_ll_adc.h ****   * @}
1692:Drivers/STM32G4xx_HAL_Driver/Inc/stm32g4xx_ll_adc.h ****   */
1693:Drivers/STM32G4xx_HAL_Driver/Inc/stm32g4xx_ll_adc.h **** 
1694:Drivers/STM32G4xx_HAL_Driver/Inc/stm32g4xx_ll_adc.h **** /** @defgroup ADC_LL_EC_INJ_SEQ_DISCONT_MODE  ADC group injected - Sequencer discontinuous mode
1695:Drivers/STM32G4xx_HAL_Driver/Inc/stm32g4xx_ll_adc.h ****   * @{
ARM GAS   			page 35


1696:Drivers/STM32G4xx_HAL_Driver/Inc/stm32g4xx_ll_adc.h ****   */
1697:Drivers/STM32G4xx_HAL_Driver/Inc/stm32g4xx_ll_adc.h **** #define LL_ADC_INJ_SEQ_DISCONT_DISABLE     (0x00000000UL)     /*!< ADC group injected sequencer dis
1698:Drivers/STM32G4xx_HAL_Driver/Inc/stm32g4xx_ll_adc.h ****                                            disable */
1699:Drivers/STM32G4xx_HAL_Driver/Inc/stm32g4xx_ll_adc.h **** #define LL_ADC_INJ_SEQ_DISCONT_1RANK       (ADC_CFGR_JDISCEN) /*!< ADC group injected sequencer dis
1700:Drivers/STM32G4xx_HAL_Driver/Inc/stm32g4xx_ll_adc.h ****                                            enable with sequence interruption every rank */
1701:Drivers/STM32G4xx_HAL_Driver/Inc/stm32g4xx_ll_adc.h **** /**
1702:Drivers/STM32G4xx_HAL_Driver/Inc/stm32g4xx_ll_adc.h ****   * @}
1703:Drivers/STM32G4xx_HAL_Driver/Inc/stm32g4xx_ll_adc.h ****   */
1704:Drivers/STM32G4xx_HAL_Driver/Inc/stm32g4xx_ll_adc.h **** 
1705:Drivers/STM32G4xx_HAL_Driver/Inc/stm32g4xx_ll_adc.h **** /** @defgroup ADC_LL_EC_INJ_SEQ_RANKS  ADC group injected - Sequencer ranks
