ARM GAS   			page 1


   1              	 .cpu cortex-m4
   2              	 .arch armv7e-m
   3              	 .fpu fpv4-sp-d16
   4              	 .eabi_attribute 27,1
   5              	 .eabi_attribute 28,1
   6              	 .eabi_attribute 23,1
   7              	 .eabi_attribute 24,1
   8              	 .eabi_attribute 25,1
   9              	 .eabi_attribute 26,1
  10              	 .eabi_attribute 30,2
  11              	 .eabi_attribute 34,1
  12              	 .eabi_attribute 18,4
  13              	 .file "stm32g4xx_hal_dac.c"
  14              	 .text
  15              	.Ltext0:
  16              	 .cfi_sections .debug_frame
  17              	 .file 1 "Drivers/STM32G4xx_HAL_Driver/Src/stm32g4xx_hal_dac.c"
  18              	 .section .text.HAL_DAC_MspInit,"ax",%progbits
  19              	 .align 1
  20              	 .p2align 2,,3
  21              	 .weak HAL_DAC_MspInit
  22              	 .syntax unified
  23              	 .thumb
  24              	 .thumb_func
  26              	HAL_DAC_MspInit:
  27              	.LVL0:
  28              	.LFB363:
   1:Drivers/STM32G4xx_HAL_Driver/Src/stm32g4xx_hal_dac.c **** /**
   2:Drivers/STM32G4xx_HAL_Driver/Src/stm32g4xx_hal_dac.c ****   ******************************************************************************
   3:Drivers/STM32G4xx_HAL_Driver/Src/stm32g4xx_hal_dac.c ****   * @file    stm32g4xx_hal_dac.c
   4:Drivers/STM32G4xx_HAL_Driver/Src/stm32g4xx_hal_dac.c ****   * @author  MCD Application Team
   5:Drivers/STM32G4xx_HAL_Driver/Src/stm32g4xx_hal_dac.c ****   * @brief   DAC HAL module driver.
   6:Drivers/STM32G4xx_HAL_Driver/Src/stm32g4xx_hal_dac.c ****   *         This file provides firmware functions to manage the following
   7:Drivers/STM32G4xx_HAL_Driver/Src/stm32g4xx_hal_dac.c ****   *         functionalities of the Digital to Analog Converter (DAC) peripheral:
   8:Drivers/STM32G4xx_HAL_Driver/Src/stm32g4xx_hal_dac.c ****   *           + Initialization and de-initialization functions
   9:Drivers/STM32G4xx_HAL_Driver/Src/stm32g4xx_hal_dac.c ****   *           + IO operation functions
  10:Drivers/STM32G4xx_HAL_Driver/Src/stm32g4xx_hal_dac.c ****   *           + Peripheral Control functions
  11:Drivers/STM32G4xx_HAL_Driver/Src/stm32g4xx_hal_dac.c ****   *           + Peripheral State and Errors functions
  12:Drivers/STM32G4xx_HAL_Driver/Src/stm32g4xx_hal_dac.c ****   *
  13:Drivers/STM32G4xx_HAL_Driver/Src/stm32g4xx_hal_dac.c ****   *
  14:Drivers/STM32G4xx_HAL_Driver/Src/stm32g4xx_hal_dac.c ****   ******************************************************************************
  15:Drivers/STM32G4xx_HAL_Driver/Src/stm32g4xx_hal_dac.c ****   * @attention
  16:Drivers/STM32G4xx_HAL_Driver/Src/stm32g4xx_hal_dac.c ****   *
  17:Drivers/STM32G4xx_HAL_Driver/Src/stm32g4xx_hal_dac.c ****   * Copyright (c) 2019 STMicroelectronics.
  18:Drivers/STM32G4xx_HAL_Driver/Src/stm32g4xx_hal_dac.c ****   * All rights reserved.
  19:Drivers/STM32G4xx_HAL_Driver/Src/stm32g4xx_hal_dac.c ****   *
  20:Drivers/STM32G4xx_HAL_Driver/Src/stm32g4xx_hal_dac.c ****   * This software is licensed under terms that can be found in the LICENSE file
  21:Drivers/STM32G4xx_HAL_Driver/Src/stm32g4xx_hal_dac.c ****   * in the root directory of this software component.
  22:Drivers/STM32G4xx_HAL_Driver/Src/stm32g4xx_hal_dac.c ****   * If no LICENSE file comes with this software, it is provided AS-IS.
  23:Drivers/STM32G4xx_HAL_Driver/Src/stm32g4xx_hal_dac.c ****   *
  24:Drivers/STM32G4xx_HAL_Driver/Src/stm32g4xx_hal_dac.c ****   ******************************************************************************
  25:Drivers/STM32G4xx_HAL_Driver/Src/stm32g4xx_hal_dac.c ****   @verbatim
  26:Drivers/STM32G4xx_HAL_Driver/Src/stm32g4xx_hal_dac.c ****   ==============================================================================
  27:Drivers/STM32G4xx_HAL_Driver/Src/stm32g4xx_hal_dac.c ****                       ##### DAC Peripheral features #####
  28:Drivers/STM32G4xx_HAL_Driver/Src/stm32g4xx_hal_dac.c ****   ==============================================================================
  29:Drivers/STM32G4xx_HAL_Driver/Src/stm32g4xx_hal_dac.c ****     [..]
  30:Drivers/STM32G4xx_HAL_Driver/Src/stm32g4xx_hal_dac.c ****       *** DAC Channels ***
ARM GAS   			page 2


  31:Drivers/STM32G4xx_HAL_Driver/Src/stm32g4xx_hal_dac.c ****       ====================
  32:Drivers/STM32G4xx_HAL_Driver/Src/stm32g4xx_hal_dac.c ****     [..]
  33:Drivers/STM32G4xx_HAL_Driver/Src/stm32g4xx_hal_dac.c ****     STM32G4 devices integrate up to seven 12-bit Digital Analog Converters,
  34:Drivers/STM32G4xx_HAL_Driver/Src/stm32g4xx_hal_dac.c ****     up to six of them grouped by pair forming a DAC instance.
  35:Drivers/STM32G4xx_HAL_Driver/Src/stm32g4xx_hal_dac.c **** 
  36:Drivers/STM32G4xx_HAL_Driver/Src/stm32g4xx_hal_dac.c ****     The 2 converters of an single instance (i.e. channel1 & channel2)
  37:Drivers/STM32G4xx_HAL_Driver/Src/stm32g4xx_hal_dac.c ****     can be used independently or simultaneously (dual mode):
  38:Drivers/STM32G4xx_HAL_Driver/Src/stm32g4xx_hal_dac.c ****       (#) DAC channel1 with DAC_OUT1 as output (not for all) or connected to on-chip
  39:Drivers/STM32G4xx_HAL_Driver/Src/stm32g4xx_hal_dac.c ****           peripherals (ex. comparators, operational amplifier).
  40:Drivers/STM32G4xx_HAL_Driver/Src/stm32g4xx_hal_dac.c ****       (#) DAC channel2 with DAC_OUT2 as output (not for all) or connected to on-chip
  41:Drivers/STM32G4xx_HAL_Driver/Src/stm32g4xx_hal_dac.c ****           peripherals (ex. comparators, operational amplifier).
  42:Drivers/STM32G4xx_HAL_Driver/Src/stm32g4xx_hal_dac.c ****     Note: when an instance only includes one converter, only independent mode is
  43:Drivers/STM32G4xx_HAL_Driver/Src/stm32g4xx_hal_dac.c ****         supported by this converter.
  44:Drivers/STM32G4xx_HAL_Driver/Src/stm32g4xx_hal_dac.c **** 
  45:Drivers/STM32G4xx_HAL_Driver/Src/stm32g4xx_hal_dac.c ****     STM32G4 instances & converters availability and output PIO mapping (DAC_OUTx):
  46:Drivers/STM32G4xx_HAL_Driver/Src/stm32g4xx_hal_dac.c ****     ----------------------------------------------------------------------------
  47:Drivers/STM32G4xx_HAL_Driver/Src/stm32g4xx_hal_dac.c ****                            |    DAC1    |    DAC2    |    DAC3    |    DAC4    |
  48:Drivers/STM32G4xx_HAL_Driver/Src/stm32g4xx_hal_dac.c ****     ----------------------------------------------------------------------------
  49:Drivers/STM32G4xx_HAL_Driver/Src/stm32g4xx_hal_dac.c ****     Channel 1  |           |    YES     |    YES     |    YES     |    YES
  50:Drivers/STM32G4xx_HAL_Driver/Src/stm32g4xx_hal_dac.c ****                | DAC_OUT1  |    PA4     |    PA6     |     -      |     -
  51:Drivers/STM32G4xx_HAL_Driver/Src/stm32g4xx_hal_dac.c ****     ----------------------------------------------------------------------------
  52:Drivers/STM32G4xx_HAL_Driver/Src/stm32g4xx_hal_dac.c ****     Channel 2  |           |    YES     |    NO      |    YES     |    YES
  53:Drivers/STM32G4xx_HAL_Driver/Src/stm32g4xx_hal_dac.c ****                | DAC_OUT2  |    PA5     |     -      |     -      |     -
  54:Drivers/STM32G4xx_HAL_Driver/Src/stm32g4xx_hal_dac.c ****     ----------------------------------------------------------------------------
  55:Drivers/STM32G4xx_HAL_Driver/Src/stm32g4xx_hal_dac.c ****     Note: On this STM32 series, all devices do not include each DAC instances listed
  56:Drivers/STM32G4xx_HAL_Driver/Src/stm32g4xx_hal_dac.c ****           above. Refer to device datasheet for DACx instance availability.
  57:Drivers/STM32G4xx_HAL_Driver/Src/stm32g4xx_hal_dac.c **** 
  58:Drivers/STM32G4xx_HAL_Driver/Src/stm32g4xx_hal_dac.c ****       *** DAC Triggers ***
  59:Drivers/STM32G4xx_HAL_Driver/Src/stm32g4xx_hal_dac.c ****       ====================
  60:Drivers/STM32G4xx_HAL_Driver/Src/stm32g4xx_hal_dac.c ****     [..]
  61:Drivers/STM32G4xx_HAL_Driver/Src/stm32g4xx_hal_dac.c ****     Digital to Analog conversion can be non-triggered using DAC_TRIGGER_NONE
  62:Drivers/STM32G4xx_HAL_Driver/Src/stm32g4xx_hal_dac.c ****     and DAC_OUT1/DAC_OUT2 is available once writing to DHRx register.
  63:Drivers/STM32G4xx_HAL_Driver/Src/stm32g4xx_hal_dac.c ****     [..]
  64:Drivers/STM32G4xx_HAL_Driver/Src/stm32g4xx_hal_dac.c ****     Digital to Analog conversion can be triggered by:
  65:Drivers/STM32G4xx_HAL_Driver/Src/stm32g4xx_hal_dac.c ****       (#) External event: EXTI Line 9 (any GPIOx_PIN_9) using DAC_TRIGGER_EXT_IT9.
  66:Drivers/STM32G4xx_HAL_Driver/Src/stm32g4xx_hal_dac.c ****           The used pin (GPIOx_PIN_9) must be configured in input mode.
  67:Drivers/STM32G4xx_HAL_Driver/Src/stm32g4xx_hal_dac.c **** 
  68:Drivers/STM32G4xx_HAL_Driver/Src/stm32g4xx_hal_dac.c ****       (#) Timers TRGO: TIM1, TIM2, TIM3, TIM4, TIM6, TIM7, TIM8 and TIM15
  69:Drivers/STM32G4xx_HAL_Driver/Src/stm32g4xx_hal_dac.c ****           (DAC_TRIGGER_T2_TRGO, DAC_TRIGGER_T3_TRGO...)
  70:Drivers/STM32G4xx_HAL_Driver/Src/stm32g4xx_hal_dac.c **** 
  71:Drivers/STM32G4xx_HAL_Driver/Src/stm32g4xx_hal_dac.c ****       (#) Software using DAC_TRIGGER_SOFTWARE
  72:Drivers/STM32G4xx_HAL_Driver/Src/stm32g4xx_hal_dac.c **** 
  73:Drivers/STM32G4xx_HAL_Driver/Src/stm32g4xx_hal_dac.c ****       (#) HRTimer TRGO: HRTIM1 (1)
  74:Drivers/STM32G4xx_HAL_Driver/Src/stm32g4xx_hal_dac.c ****           (DAC_TRIGGER_HRTIM_TRG01, DAC_TRIGGER_HRTIM_TRG02...)
  75:Drivers/STM32G4xx_HAL_Driver/Src/stm32g4xx_hal_dac.c **** 
  76:Drivers/STM32G4xx_HAL_Driver/Src/stm32g4xx_hal_dac.c ****     [..]
  77:Drivers/STM32G4xx_HAL_Driver/Src/stm32g4xx_hal_dac.c ****     Specific triggers for sawtooth generation:
  78:Drivers/STM32G4xx_HAL_Driver/Src/stm32g4xx_hal_dac.c ****       (#) External event: EXTI Line 10 (any GPIOx_PIN_10) using DAC_TRIGGER_EXT_IT10.
  79:Drivers/STM32G4xx_HAL_Driver/Src/stm32g4xx_hal_dac.c ****           The used pin (GPIOx_PIN_10) must be configured in input mode.
  80:Drivers/STM32G4xx_HAL_Driver/Src/stm32g4xx_hal_dac.c **** 
  81:Drivers/STM32G4xx_HAL_Driver/Src/stm32g4xx_hal_dac.c ****       (#) HRTimer Step & Reset: HRTIM1 (1)
  82:Drivers/STM32G4xx_HAL_Driver/Src/stm32g4xx_hal_dac.c ****           (DAC_TRIGGER_HRTIM_RST_TRG1, DAC_TRIGGER_HRTIM_STEP_TRG1...)
  83:Drivers/STM32G4xx_HAL_Driver/Src/stm32g4xx_hal_dac.c **** 
  84:Drivers/STM32G4xx_HAL_Driver/Src/stm32g4xx_hal_dac.c ****       Note: On this STM32 series, parameter only available if HRTIM feature is
  85:Drivers/STM32G4xx_HAL_Driver/Src/stm32g4xx_hal_dac.c ****             supported (refer to device datasheet for supported features list)
  86:Drivers/STM32G4xx_HAL_Driver/Src/stm32g4xx_hal_dac.c **** 
  87:Drivers/STM32G4xx_HAL_Driver/Src/stm32g4xx_hal_dac.c ****       *** DAC Buffer mode feature ***
ARM GAS   			page 3


  88:Drivers/STM32G4xx_HAL_Driver/Src/stm32g4xx_hal_dac.c ****       ===============================
  89:Drivers/STM32G4xx_HAL_Driver/Src/stm32g4xx_hal_dac.c ****       [..]
  90:Drivers/STM32G4xx_HAL_Driver/Src/stm32g4xx_hal_dac.c ****       Each DAC channel integrates an output buffer that can be used to
  91:Drivers/STM32G4xx_HAL_Driver/Src/stm32g4xx_hal_dac.c ****       reduce the output impedance, and to drive external loads directly
  92:Drivers/STM32G4xx_HAL_Driver/Src/stm32g4xx_hal_dac.c ****       without having to add an external operational amplifier.
  93:Drivers/STM32G4xx_HAL_Driver/Src/stm32g4xx_hal_dac.c ****       To enable, the output buffer use
  94:Drivers/STM32G4xx_HAL_Driver/Src/stm32g4xx_hal_dac.c ****       sConfig.DAC_OutputBuffer = DAC_OUTPUTBUFFER_ENABLE;
  95:Drivers/STM32G4xx_HAL_Driver/Src/stm32g4xx_hal_dac.c ****       [..]
  96:Drivers/STM32G4xx_HAL_Driver/Src/stm32g4xx_hal_dac.c ****       (@) Refer to the device datasheet for more details about output
  97:Drivers/STM32G4xx_HAL_Driver/Src/stm32g4xx_hal_dac.c ****           impedance value with and without output buffer.
  98:Drivers/STM32G4xx_HAL_Driver/Src/stm32g4xx_hal_dac.c **** 
  99:Drivers/STM32G4xx_HAL_Driver/Src/stm32g4xx_hal_dac.c ****       *** DAC connect feature ***
 100:Drivers/STM32G4xx_HAL_Driver/Src/stm32g4xx_hal_dac.c ****       ===============================
 101:Drivers/STM32G4xx_HAL_Driver/Src/stm32g4xx_hal_dac.c ****       [..]
 102:Drivers/STM32G4xx_HAL_Driver/Src/stm32g4xx_hal_dac.c ****       Each DAC channel can be connected internally.
 103:Drivers/STM32G4xx_HAL_Driver/Src/stm32g4xx_hal_dac.c ****       To connect, use
 104:Drivers/STM32G4xx_HAL_Driver/Src/stm32g4xx_hal_dac.c ****       sConfig.DAC_ConnectOnChipPeripheral = DAC_CHIPCONNECT_INTERNAL;
 105:Drivers/STM32G4xx_HAL_Driver/Src/stm32g4xx_hal_dac.c ****       or
 106:Drivers/STM32G4xx_HAL_Driver/Src/stm32g4xx_hal_dac.c ****       sConfig.DAC_ConnectOnChipPeripheral = DAC_CHIPCONNECT_BOTH; (caution: dependence to other par
 107:Drivers/STM32G4xx_HAL_Driver/Src/stm32g4xx_hal_dac.c ****       refer to literal description).
 108:Drivers/STM32G4xx_HAL_Driver/Src/stm32g4xx_hal_dac.c **** 
 109:Drivers/STM32G4xx_HAL_Driver/Src/stm32g4xx_hal_dac.c ****       *** GPIO configurations guidelines ***
 110:Drivers/STM32G4xx_HAL_Driver/Src/stm32g4xx_hal_dac.c ****       =====================
 111:Drivers/STM32G4xx_HAL_Driver/Src/stm32g4xx_hal_dac.c ****       [..]
 112:Drivers/STM32G4xx_HAL_Driver/Src/stm32g4xx_hal_dac.c ****       When a DAC channel is used (ex channel1 on PA4) and the other is not
 113:Drivers/STM32G4xx_HAL_Driver/Src/stm32g4xx_hal_dac.c ****       (ex channel2 on PA5 is configured in Analog and disabled).
 114:Drivers/STM32G4xx_HAL_Driver/Src/stm32g4xx_hal_dac.c ****       Channel1 may disturb channel2 as coupling effect.
 115:Drivers/STM32G4xx_HAL_Driver/Src/stm32g4xx_hal_dac.c ****       Note that there is no coupling on channel2 as soon as channel2 is turned on.
 116:Drivers/STM32G4xx_HAL_Driver/Src/stm32g4xx_hal_dac.c ****       Coupling on adjacent channel could be avoided as follows:
 117:Drivers/STM32G4xx_HAL_Driver/Src/stm32g4xx_hal_dac.c ****       when unused PA5 is configured as INPUT PULL-UP or DOWN.
 118:Drivers/STM32G4xx_HAL_Driver/Src/stm32g4xx_hal_dac.c ****       PA5 is configured in ANALOG just before it is turned on.
 119:Drivers/STM32G4xx_HAL_Driver/Src/stm32g4xx_hal_dac.c **** 
 120:Drivers/STM32G4xx_HAL_Driver/Src/stm32g4xx_hal_dac.c ****       *** DAC Sample and Hold feature ***
 121:Drivers/STM32G4xx_HAL_Driver/Src/stm32g4xx_hal_dac.c ****       ========================
 122:Drivers/STM32G4xx_HAL_Driver/Src/stm32g4xx_hal_dac.c ****       [..]
 123:Drivers/STM32G4xx_HAL_Driver/Src/stm32g4xx_hal_dac.c ****       For each converter, 2 modes are supported: normal mode and
 124:Drivers/STM32G4xx_HAL_Driver/Src/stm32g4xx_hal_dac.c ****       "sample and hold" mode (i.e. low power mode).
 125:Drivers/STM32G4xx_HAL_Driver/Src/stm32g4xx_hal_dac.c ****       In the sample and hold mode, the DAC core converts data, then holds the
 126:Drivers/STM32G4xx_HAL_Driver/Src/stm32g4xx_hal_dac.c ****       converted voltage on a capacitor. When not converting, the DAC cores and
 127:Drivers/STM32G4xx_HAL_Driver/Src/stm32g4xx_hal_dac.c ****       buffer are completely turned off between samples and the DAC output is
 128:Drivers/STM32G4xx_HAL_Driver/Src/stm32g4xx_hal_dac.c ****       tri-stated, therefore  reducing the overall power consumption. A new
 129:Drivers/STM32G4xx_HAL_Driver/Src/stm32g4xx_hal_dac.c ****       stabilization period is needed before each new conversion.
 130:Drivers/STM32G4xx_HAL_Driver/Src/stm32g4xx_hal_dac.c **** 
 131:Drivers/STM32G4xx_HAL_Driver/Src/stm32g4xx_hal_dac.c ****       The sample and hold allow setting internal or external voltage @
 132:Drivers/STM32G4xx_HAL_Driver/Src/stm32g4xx_hal_dac.c ****       low power consumption cost (output value can be at any given rate either
 133:Drivers/STM32G4xx_HAL_Driver/Src/stm32g4xx_hal_dac.c ****       by CPU or DMA).
 134:Drivers/STM32G4xx_HAL_Driver/Src/stm32g4xx_hal_dac.c **** 
 135:Drivers/STM32G4xx_HAL_Driver/Src/stm32g4xx_hal_dac.c ****       The Sample and hold block and registers uses either LSI & run in
 136:Drivers/STM32G4xx_HAL_Driver/Src/stm32g4xx_hal_dac.c ****       several power modes: run mode, sleep mode, low power run, low power sleep
 137:Drivers/STM32G4xx_HAL_Driver/Src/stm32g4xx_hal_dac.c ****       mode & stop1 mode.
 138:Drivers/STM32G4xx_HAL_Driver/Src/stm32g4xx_hal_dac.c **** 
 139:Drivers/STM32G4xx_HAL_Driver/Src/stm32g4xx_hal_dac.c ****       Low power stop1 mode allows only static conversion.
 140:Drivers/STM32G4xx_HAL_Driver/Src/stm32g4xx_hal_dac.c **** 
 141:Drivers/STM32G4xx_HAL_Driver/Src/stm32g4xx_hal_dac.c ****       To enable Sample and Hold mode
 142:Drivers/STM32G4xx_HAL_Driver/Src/stm32g4xx_hal_dac.c ****       Enable LSI using HAL_RCC_OscConfig with RCC_OSCILLATORTYPE_LSI &
 143:Drivers/STM32G4xx_HAL_Driver/Src/stm32g4xx_hal_dac.c ****       RCC_LSI_ON parameters.
 144:Drivers/STM32G4xx_HAL_Driver/Src/stm32g4xx_hal_dac.c **** 
ARM GAS   			page 4


 145:Drivers/STM32G4xx_HAL_Driver/Src/stm32g4xx_hal_dac.c ****       Use DAC_InitStructure.DAC_SampleAndHold = DAC_SAMPLEANDHOLD_ENABLE;
 146:Drivers/STM32G4xx_HAL_Driver/Src/stm32g4xx_hal_dac.c ****          & DAC_ChannelConfTypeDef.DAC_SampleAndHoldConfig.DAC_SampleTime,
 147:Drivers/STM32G4xx_HAL_Driver/Src/stm32g4xx_hal_dac.c ****            DAC_HoldTime & DAC_RefreshTime;
 148:Drivers/STM32G4xx_HAL_Driver/Src/stm32g4xx_hal_dac.c **** 
 149:Drivers/STM32G4xx_HAL_Driver/Src/stm32g4xx_hal_dac.c ****        *** DAC calibration feature ***
 150:Drivers/STM32G4xx_HAL_Driver/Src/stm32g4xx_hal_dac.c ****        ===================================
 151:Drivers/STM32G4xx_HAL_Driver/Src/stm32g4xx_hal_dac.c ****       [..]
 152:Drivers/STM32G4xx_HAL_Driver/Src/stm32g4xx_hal_dac.c ****        (#)  The 2 converters (channel1 & channel2) provide calibration capabilities.
 153:Drivers/STM32G4xx_HAL_Driver/Src/stm32g4xx_hal_dac.c ****        (++) Calibration aims at correcting some offset of output buffer.
 154:Drivers/STM32G4xx_HAL_Driver/Src/stm32g4xx_hal_dac.c ****        (++) The DAC uses either factory calibration settings OR user defined
 155:Drivers/STM32G4xx_HAL_Driver/Src/stm32g4xx_hal_dac.c ****            calibration (trimming) settings (i.e. trimming mode).
 156:Drivers/STM32G4xx_HAL_Driver/Src/stm32g4xx_hal_dac.c ****        (++) The user defined settings can be figured out using self calibration
 157:Drivers/STM32G4xx_HAL_Driver/Src/stm32g4xx_hal_dac.c ****            handled by HAL_DACEx_SelfCalibrate.
 158:Drivers/STM32G4xx_HAL_Driver/Src/stm32g4xx_hal_dac.c ****        (++) HAL_DACEx_SelfCalibrate:
 159:Drivers/STM32G4xx_HAL_Driver/Src/stm32g4xx_hal_dac.c ****        (+++) Runs automatically the calibration.
 160:Drivers/STM32G4xx_HAL_Driver/Src/stm32g4xx_hal_dac.c ****        (+++) Enables the user trimming mode
 161:Drivers/STM32G4xx_HAL_Driver/Src/stm32g4xx_hal_dac.c ****        (+++) Updates a structure with trimming values with fresh calibration
 162:Drivers/STM32G4xx_HAL_Driver/Src/stm32g4xx_hal_dac.c ****             results.
 163:Drivers/STM32G4xx_HAL_Driver/Src/stm32g4xx_hal_dac.c ****             The user may store the calibration results for larger
 164:Drivers/STM32G4xx_HAL_Driver/Src/stm32g4xx_hal_dac.c ****             (ex monitoring the trimming as a function of temperature
 165:Drivers/STM32G4xx_HAL_Driver/Src/stm32g4xx_hal_dac.c ****             for instance)
 166:Drivers/STM32G4xx_HAL_Driver/Src/stm32g4xx_hal_dac.c **** 
 167:Drivers/STM32G4xx_HAL_Driver/Src/stm32g4xx_hal_dac.c ****        *** DAC wave generation feature ***
 168:Drivers/STM32G4xx_HAL_Driver/Src/stm32g4xx_hal_dac.c ****        ===================================
 169:Drivers/STM32G4xx_HAL_Driver/Src/stm32g4xx_hal_dac.c ****        [..]
 170:Drivers/STM32G4xx_HAL_Driver/Src/stm32g4xx_hal_dac.c ****        Both DAC channels can be used to generate
 171:Drivers/STM32G4xx_HAL_Driver/Src/stm32g4xx_hal_dac.c ****          (#) Noise wave
 172:Drivers/STM32G4xx_HAL_Driver/Src/stm32g4xx_hal_dac.c ****          (#) Triangle wave
 173:Drivers/STM32G4xx_HAL_Driver/Src/stm32g4xx_hal_dac.c ****          (#) Sawtooth wave
 174:Drivers/STM32G4xx_HAL_Driver/Src/stm32g4xx_hal_dac.c **** 
 175:Drivers/STM32G4xx_HAL_Driver/Src/stm32g4xx_hal_dac.c ****        *** DAC data format ***
 176:Drivers/STM32G4xx_HAL_Driver/Src/stm32g4xx_hal_dac.c ****        =======================
 177:Drivers/STM32G4xx_HAL_Driver/Src/stm32g4xx_hal_dac.c ****        [..]
 178:Drivers/STM32G4xx_HAL_Driver/Src/stm32g4xx_hal_dac.c ****        The DAC data format can be:
 179:Drivers/STM32G4xx_HAL_Driver/Src/stm32g4xx_hal_dac.c ****          (#) 8-bit right alignment using DAC_ALIGN_8B_R
 180:Drivers/STM32G4xx_HAL_Driver/Src/stm32g4xx_hal_dac.c ****          (#) 12-bit left alignment using DAC_ALIGN_12B_L
 181:Drivers/STM32G4xx_HAL_Driver/Src/stm32g4xx_hal_dac.c ****          (#) 12-bit right alignment using DAC_ALIGN_12B_R
 182:Drivers/STM32G4xx_HAL_Driver/Src/stm32g4xx_hal_dac.c **** 
 183:Drivers/STM32G4xx_HAL_Driver/Src/stm32g4xx_hal_dac.c ****        *** DAC data value to voltage correspondence ***
 184:Drivers/STM32G4xx_HAL_Driver/Src/stm32g4xx_hal_dac.c ****        ================================================
 185:Drivers/STM32G4xx_HAL_Driver/Src/stm32g4xx_hal_dac.c ****        [..]
 186:Drivers/STM32G4xx_HAL_Driver/Src/stm32g4xx_hal_dac.c ****        The analog output voltage on each DAC channel pin is determined
 187:Drivers/STM32G4xx_HAL_Driver/Src/stm32g4xx_hal_dac.c ****        by the following equation:
 188:Drivers/STM32G4xx_HAL_Driver/Src/stm32g4xx_hal_dac.c ****        [..]
 189:Drivers/STM32G4xx_HAL_Driver/Src/stm32g4xx_hal_dac.c ****        DAC_OUTx = VREF+ * DOR / 4095
 190:Drivers/STM32G4xx_HAL_Driver/Src/stm32g4xx_hal_dac.c ****        (+) with  DOR is the Data Output Register
 191:Drivers/STM32G4xx_HAL_Driver/Src/stm32g4xx_hal_dac.c ****        [..]
 192:Drivers/STM32G4xx_HAL_Driver/Src/stm32g4xx_hal_dac.c ****           VREF+ is the input voltage reference (refer to the device datasheet)
 193:Drivers/STM32G4xx_HAL_Driver/Src/stm32g4xx_hal_dac.c ****        [..]
 194:Drivers/STM32G4xx_HAL_Driver/Src/stm32g4xx_hal_dac.c ****         e.g. To set DAC_OUT1 to 0.7V, use
 195:Drivers/STM32G4xx_HAL_Driver/Src/stm32g4xx_hal_dac.c ****        (+) Assuming that VREF+ = 3.3V, DAC_OUT1 = (3.3 * 868) / 4095 = 0.7V
 196:Drivers/STM32G4xx_HAL_Driver/Src/stm32g4xx_hal_dac.c **** 
 197:Drivers/STM32G4xx_HAL_Driver/Src/stm32g4xx_hal_dac.c ****        *** DMA requests ***
 198:Drivers/STM32G4xx_HAL_Driver/Src/stm32g4xx_hal_dac.c ****        =====================
 199:Drivers/STM32G4xx_HAL_Driver/Src/stm32g4xx_hal_dac.c ****        [..]
 200:Drivers/STM32G4xx_HAL_Driver/Src/stm32g4xx_hal_dac.c ****        A DMAMUX request can be generated when an external trigger (but not a software trigger)
 201:Drivers/STM32G4xx_HAL_Driver/Src/stm32g4xx_hal_dac.c ****        occurs if DMAMUX requests are enabled using HAL_DAC_Start_DMA().
ARM GAS   			page 5


 202:Drivers/STM32G4xx_HAL_Driver/Src/stm32g4xx_hal_dac.c ****        DMAMUX requests are mapped as following:
 203:Drivers/STM32G4xx_HAL_Driver/Src/stm32g4xx_hal_dac.c ****         ----------------------------------------------------------------------------
 204:Drivers/STM32G4xx_HAL_Driver/Src/stm32g4xx_hal_dac.c ****                                |    DAC1    |    DAC2    |    DAC3    |    DAC4    |
 205:Drivers/STM32G4xx_HAL_Driver/Src/stm32g4xx_hal_dac.c ****         ----------------------------------------------------------------------------
 206:Drivers/STM32G4xx_HAL_Driver/Src/stm32g4xx_hal_dac.c ****         Channel 1  |           |     6      |     41     |    102     |    104
 207:Drivers/STM32G4xx_HAL_Driver/Src/stm32g4xx_hal_dac.c ****         ----------------------------------------------------------------------------
 208:Drivers/STM32G4xx_HAL_Driver/Src/stm32g4xx_hal_dac.c ****         Channel 2  |           |     7      |     -      |    103     |    105
 209:Drivers/STM32G4xx_HAL_Driver/Src/stm32g4xx_hal_dac.c ****         ----------------------------------------------------------------------------
 210:Drivers/STM32G4xx_HAL_Driver/Src/stm32g4xx_hal_dac.c ****         Note: On this STM32 series, all devices do not include each DAC instances listed
 211:Drivers/STM32G4xx_HAL_Driver/Src/stm32g4xx_hal_dac.c ****               above. Refer to device datasheet for DACx instance availability.
 212:Drivers/STM32G4xx_HAL_Driver/Src/stm32g4xx_hal_dac.c **** 
 213:Drivers/STM32G4xx_HAL_Driver/Src/stm32g4xx_hal_dac.c ****        *** High frequency interface mode ***
 214:Drivers/STM32G4xx_HAL_Driver/Src/stm32g4xx_hal_dac.c ****        =====================================
 215:Drivers/STM32G4xx_HAL_Driver/Src/stm32g4xx_hal_dac.c ****        [..]
 216:Drivers/STM32G4xx_HAL_Driver/Src/stm32g4xx_hal_dac.c ****        The high frequency interface informs DAC instance about the bus frequency in use.
 217:Drivers/STM32G4xx_HAL_Driver/Src/stm32g4xx_hal_dac.c ****        It is mandatory information for DAC (as internal timing of DAC is bus frequency dependent)
 218:Drivers/STM32G4xx_HAL_Driver/Src/stm32g4xx_hal_dac.c ****        provided thanks to parameter DAC_HighFrequency handled in HAL_DAC_ConfigChannel () function.
 219:Drivers/STM32G4xx_HAL_Driver/Src/stm32g4xx_hal_dac.c ****        Use of DAC_HIGH_FREQUENCY_INTERFACE_MODE_AUTOMATIC value of DAC_HighFrequency is recommended
 220:Drivers/STM32G4xx_HAL_Driver/Src/stm32g4xx_hal_dac.c ****        function figured out the correct setting.
 221:Drivers/STM32G4xx_HAL_Driver/Src/stm32g4xx_hal_dac.c ****        The high frequency mode is same for all converters of a same DAC instance. Either same
 222:Drivers/STM32G4xx_HAL_Driver/Src/stm32g4xx_hal_dac.c ****        parameter DAC_HighFrequency is used for all DAC converters or again self
 223:Drivers/STM32G4xx_HAL_Driver/Src/stm32g4xx_hal_dac.c ****        DAC_HIGH_FREQUENCY_INTERFACE_MODE_AUTOMATIC detection parameter.
 224:Drivers/STM32G4xx_HAL_Driver/Src/stm32g4xx_hal_dac.c **** 
 225:Drivers/STM32G4xx_HAL_Driver/Src/stm32g4xx_hal_dac.c ****      [..]
 226:Drivers/STM32G4xx_HAL_Driver/Src/stm32g4xx_hal_dac.c ****     (@) For Dual mode and specific signal (Sawtooth, triangle and noise) generation
 227:Drivers/STM32G4xx_HAL_Driver/Src/stm32g4xx_hal_dac.c ****         please refer to Extended Features Driver description
 228:Drivers/STM32G4xx_HAL_Driver/Src/stm32g4xx_hal_dac.c **** 
 229:Drivers/STM32G4xx_HAL_Driver/Src/stm32g4xx_hal_dac.c ****                       ##### How to use this driver #####
 230:Drivers/STM32G4xx_HAL_Driver/Src/stm32g4xx_hal_dac.c ****   ==============================================================================
 231:Drivers/STM32G4xx_HAL_Driver/Src/stm32g4xx_hal_dac.c ****     [..]
 232:Drivers/STM32G4xx_HAL_Driver/Src/stm32g4xx_hal_dac.c ****       (+) DAC APB clock must be enabled to get write access to DAC
 233:Drivers/STM32G4xx_HAL_Driver/Src/stm32g4xx_hal_dac.c ****           registers using HAL_DAC_Init()
 234:Drivers/STM32G4xx_HAL_Driver/Src/stm32g4xx_hal_dac.c ****       (+) If available & needed, configure DAC_OUTx (DAC_OUT1, DAC_OUT2) in analog mode.
 235:Drivers/STM32G4xx_HAL_Driver/Src/stm32g4xx_hal_dac.c ****       (+) Configure the DAC channel using HAL_DAC_ConfigChannel() function.
 236:Drivers/STM32G4xx_HAL_Driver/Src/stm32g4xx_hal_dac.c ****       (+) Enable the DAC channel using HAL_DAC_Start() or HAL_DAC_Start_DMA() functions.
 237:Drivers/STM32G4xx_HAL_Driver/Src/stm32g4xx_hal_dac.c **** 
 238:Drivers/STM32G4xx_HAL_Driver/Src/stm32g4xx_hal_dac.c ****      *** Calibration mode IO operation ***
 239:Drivers/STM32G4xx_HAL_Driver/Src/stm32g4xx_hal_dac.c ****      ======================================
 240:Drivers/STM32G4xx_HAL_Driver/Src/stm32g4xx_hal_dac.c ****      [..]
 241:Drivers/STM32G4xx_HAL_Driver/Src/stm32g4xx_hal_dac.c ****        (+) Retrieve the factory trimming (calibration settings) using HAL_DACEx_GetTrimOffset()
 242:Drivers/STM32G4xx_HAL_Driver/Src/stm32g4xx_hal_dac.c ****        (+) Run the calibration using HAL_DACEx_SelfCalibrate()
 243:Drivers/STM32G4xx_HAL_Driver/Src/stm32g4xx_hal_dac.c ****        (+) Update the trimming while DAC running using HAL_DACEx_SetUserTrimming()
 244:Drivers/STM32G4xx_HAL_Driver/Src/stm32g4xx_hal_dac.c **** 
 245:Drivers/STM32G4xx_HAL_Driver/Src/stm32g4xx_hal_dac.c ****      *** Polling mode IO operation ***
 246:Drivers/STM32G4xx_HAL_Driver/Src/stm32g4xx_hal_dac.c ****      =================================
 247:Drivers/STM32G4xx_HAL_Driver/Src/stm32g4xx_hal_dac.c ****      [..]
 248:Drivers/STM32G4xx_HAL_Driver/Src/stm32g4xx_hal_dac.c ****        (+) Start the DAC peripheral using HAL_DAC_Start()
 249:Drivers/STM32G4xx_HAL_Driver/Src/stm32g4xx_hal_dac.c ****        (+) To read the DAC last data output value, use the HAL_DAC_GetValue() function.
 250:Drivers/STM32G4xx_HAL_Driver/Src/stm32g4xx_hal_dac.c ****        (+) Stop the DAC peripheral using HAL_DAC_Stop()
 251:Drivers/STM32G4xx_HAL_Driver/Src/stm32g4xx_hal_dac.c **** 
 252:Drivers/STM32G4xx_HAL_Driver/Src/stm32g4xx_hal_dac.c ****      *** DMA mode IO operation ***
 253:Drivers/STM32G4xx_HAL_Driver/Src/stm32g4xx_hal_dac.c ****      ==============================
 254:Drivers/STM32G4xx_HAL_Driver/Src/stm32g4xx_hal_dac.c ****      [..]
 255:Drivers/STM32G4xx_HAL_Driver/Src/stm32g4xx_hal_dac.c ****        (+) Start the DAC peripheral using HAL_DAC_Start_DMA(), at this stage the user specify the l
 256:Drivers/STM32G4xx_HAL_Driver/Src/stm32g4xx_hal_dac.c ****            of data to be transferred at each end of conversion
 257:Drivers/STM32G4xx_HAL_Driver/Src/stm32g4xx_hal_dac.c ****            First issued trigger will start the conversion of the value previously set by HAL_DAC_Se
 258:Drivers/STM32G4xx_HAL_Driver/Src/stm32g4xx_hal_dac.c ****        (+) At the middle of data transfer HAL_DAC_ConvHalfCpltCallbackCh1() or HAL_DACEx_ConvHalfCp
ARM GAS   			page 6


 259:Drivers/STM32G4xx_HAL_Driver/Src/stm32g4xx_hal_dac.c ****            function is executed and user can add his own code by customization of function pointer
 260:Drivers/STM32G4xx_HAL_Driver/Src/stm32g4xx_hal_dac.c ****            HAL_DAC_ConvHalfCpltCallbackCh1() or HAL_DACEx_ConvHalfCpltCallbackCh2()
 261:Drivers/STM32G4xx_HAL_Driver/Src/stm32g4xx_hal_dac.c ****        (+) At The end of data transfer HAL_DAC_ConvCpltCallbackCh1() or HAL_DACEx_ConvHalfCpltCallb
 262:Drivers/STM32G4xx_HAL_Driver/Src/stm32g4xx_hal_dac.c ****            function is executed and user can add his own code by customization of function pointer
 263:Drivers/STM32G4xx_HAL_Driver/Src/stm32g4xx_hal_dac.c ****            HAL_DAC_ConvCpltCallbackCh1() or HAL_DACEx_ConvHalfCpltCallbackCh2()
 264:Drivers/STM32G4xx_HAL_Driver/Src/stm32g4xx_hal_dac.c ****        (+) In case of transfer Error, HAL_DAC_ErrorCallbackCh1() function is executed and user can
 265:Drivers/STM32G4xx_HAL_Driver/Src/stm32g4xx_hal_dac.c ****             add his own code by customization of function pointer HAL_DAC_ErrorCallbackCh1
 266:Drivers/STM32G4xx_HAL_Driver/Src/stm32g4xx_hal_dac.c ****        (+) In case of DMA underrun, DAC interruption triggers and execute internal function HAL_DAC
 267:Drivers/STM32G4xx_HAL_Driver/Src/stm32g4xx_hal_dac.c ****            HAL_DAC_DMAUnderrunCallbackCh1() or HAL_DACEx_DMAUnderrunCallbackCh2()
 268:Drivers/STM32G4xx_HAL_Driver/Src/stm32g4xx_hal_dac.c ****            function is executed and user can add his own code by customization of function pointer
 269:Drivers/STM32G4xx_HAL_Driver/Src/stm32g4xx_hal_dac.c ****            HAL_DAC_DMAUnderrunCallbackCh1() or HAL_DACEx_DMAUnderrunCallbackCh2() and
 270:Drivers/STM32G4xx_HAL_Driver/Src/stm32g4xx_hal_dac.c ****            add his own code by customization of function pointer HAL_DAC_ErrorCallbackCh1()
 271:Drivers/STM32G4xx_HAL_Driver/Src/stm32g4xx_hal_dac.c ****        (+) Stop the DAC peripheral using HAL_DAC_Stop_DMA()
 272:Drivers/STM32G4xx_HAL_Driver/Src/stm32g4xx_hal_dac.c **** 
 273:Drivers/STM32G4xx_HAL_Driver/Src/stm32g4xx_hal_dac.c ****     *** Callback registration ***
 274:Drivers/STM32G4xx_HAL_Driver/Src/stm32g4xx_hal_dac.c ****     =============================================
 275:Drivers/STM32G4xx_HAL_Driver/Src/stm32g4xx_hal_dac.c ****     [..]
 276:Drivers/STM32G4xx_HAL_Driver/Src/stm32g4xx_hal_dac.c ****       The compilation define  USE_HAL_DAC_REGISTER_CALLBACKS when set to 1
 277:Drivers/STM32G4xx_HAL_Driver/Src/stm32g4xx_hal_dac.c ****       allows the user to configure dynamically the driver callbacks.
 278:Drivers/STM32G4xx_HAL_Driver/Src/stm32g4xx_hal_dac.c **** 
 279:Drivers/STM32G4xx_HAL_Driver/Src/stm32g4xx_hal_dac.c ****     Use Functions HAL_DAC_RegisterCallback() to register a user callback,
 280:Drivers/STM32G4xx_HAL_Driver/Src/stm32g4xx_hal_dac.c ****       it allows to register following callbacks:
 281:Drivers/STM32G4xx_HAL_Driver/Src/stm32g4xx_hal_dac.c ****       (+) ConvCpltCallbackCh1     : callback when a half transfer is completed on Ch1.
 282:Drivers/STM32G4xx_HAL_Driver/Src/stm32g4xx_hal_dac.c ****       (+) ConvHalfCpltCallbackCh1 : callback when a transfer is completed on Ch1.
 283:Drivers/STM32G4xx_HAL_Driver/Src/stm32g4xx_hal_dac.c ****       (+) ErrorCallbackCh1        : callback when an error occurs on Ch1.
 284:Drivers/STM32G4xx_HAL_Driver/Src/stm32g4xx_hal_dac.c ****       (+) DMAUnderrunCallbackCh1  : callback when an underrun error occurs on Ch1.
 285:Drivers/STM32G4xx_HAL_Driver/Src/stm32g4xx_hal_dac.c ****       (+) ConvCpltCallbackCh2     : callback when a half transfer is completed on Ch2.
 286:Drivers/STM32G4xx_HAL_Driver/Src/stm32g4xx_hal_dac.c ****       (+) ConvHalfCpltCallbackCh2 : callback when a transfer is completed on Ch2.
 287:Drivers/STM32G4xx_HAL_Driver/Src/stm32g4xx_hal_dac.c ****       (+) ErrorCallbackCh2        : callback when an error occurs on Ch2.
 288:Drivers/STM32G4xx_HAL_Driver/Src/stm32g4xx_hal_dac.c ****       (+) DMAUnderrunCallbackCh2  : callback when an underrun error occurs on Ch2.
 289:Drivers/STM32G4xx_HAL_Driver/Src/stm32g4xx_hal_dac.c ****       (+) MspInitCallback         : DAC MspInit.
 290:Drivers/STM32G4xx_HAL_Driver/Src/stm32g4xx_hal_dac.c ****       (+) MspDeInitCallback       : DAC MspdeInit.
 291:Drivers/STM32G4xx_HAL_Driver/Src/stm32g4xx_hal_dac.c ****       This function takes as parameters the HAL peripheral handle, the Callback ID
 292:Drivers/STM32G4xx_HAL_Driver/Src/stm32g4xx_hal_dac.c ****       and a pointer to the user callback function.
 293:Drivers/STM32G4xx_HAL_Driver/Src/stm32g4xx_hal_dac.c **** 
 294:Drivers/STM32G4xx_HAL_Driver/Src/stm32g4xx_hal_dac.c ****     Use function HAL_DAC_UnRegisterCallback() to reset a callback to the default
 295:Drivers/STM32G4xx_HAL_Driver/Src/stm32g4xx_hal_dac.c ****       weak (overridden) function. It allows to reset following callbacks:
 296:Drivers/STM32G4xx_HAL_Driver/Src/stm32g4xx_hal_dac.c ****       (+) ConvCpltCallbackCh1     : callback when a half transfer is completed on Ch1.
 297:Drivers/STM32G4xx_HAL_Driver/Src/stm32g4xx_hal_dac.c ****       (+) ConvHalfCpltCallbackCh1 : callback when a transfer is completed on Ch1.
 298:Drivers/STM32G4xx_HAL_Driver/Src/stm32g4xx_hal_dac.c ****       (+) ErrorCallbackCh1        : callback when an error occurs on Ch1.
 299:Drivers/STM32G4xx_HAL_Driver/Src/stm32g4xx_hal_dac.c ****       (+) DMAUnderrunCallbackCh1  : callback when an underrun error occurs on Ch1.
 300:Drivers/STM32G4xx_HAL_Driver/Src/stm32g4xx_hal_dac.c ****       (+) ConvCpltCallbackCh2     : callback when a half transfer is completed on Ch2.
 301:Drivers/STM32G4xx_HAL_Driver/Src/stm32g4xx_hal_dac.c ****       (+) ConvHalfCpltCallbackCh2 : callback when a transfer is completed on Ch2.
 302:Drivers/STM32G4xx_HAL_Driver/Src/stm32g4xx_hal_dac.c ****       (+) ErrorCallbackCh2        : callback when an error occurs on Ch2.
 303:Drivers/STM32G4xx_HAL_Driver/Src/stm32g4xx_hal_dac.c ****       (+) DMAUnderrunCallbackCh2  : callback when an underrun error occurs on Ch2.
 304:Drivers/STM32G4xx_HAL_Driver/Src/stm32g4xx_hal_dac.c ****       (+) MspInitCallback         : DAC MspInit.
 305:Drivers/STM32G4xx_HAL_Driver/Src/stm32g4xx_hal_dac.c ****       (+) MspDeInitCallback       : DAC MspdeInit.
 306:Drivers/STM32G4xx_HAL_Driver/Src/stm32g4xx_hal_dac.c ****       (+) All Callbacks
 307:Drivers/STM32G4xx_HAL_Driver/Src/stm32g4xx_hal_dac.c ****       This function) takes as parameters the HAL peripheral handle and the Callback ID.
 308:Drivers/STM32G4xx_HAL_Driver/Src/stm32g4xx_hal_dac.c **** 
 309:Drivers/STM32G4xx_HAL_Driver/Src/stm32g4xx_hal_dac.c ****       By default, after the HAL_DAC_Init and if the state is HAL_DAC_STATE_RESET
 310:Drivers/STM32G4xx_HAL_Driver/Src/stm32g4xx_hal_dac.c ****       all callbacks are reset to the corresponding legacy weak (overridden) functions.
 311:Drivers/STM32G4xx_HAL_Driver/Src/stm32g4xx_hal_dac.c ****       Exception done for MspInit and MspDeInit callbacks that are respectively
 312:Drivers/STM32G4xx_HAL_Driver/Src/stm32g4xx_hal_dac.c ****       reset to the legacy weak (overridden) functions in the HAL_DAC_Init
 313:Drivers/STM32G4xx_HAL_Driver/Src/stm32g4xx_hal_dac.c ****       and  HAL_DAC_DeInit only when these callbacks are null (not registered beforehand).
 314:Drivers/STM32G4xx_HAL_Driver/Src/stm32g4xx_hal_dac.c ****       If not, MspInit or MspDeInit are not null, the HAL_DAC_Init and HAL_DAC_DeInit
 315:Drivers/STM32G4xx_HAL_Driver/Src/stm32g4xx_hal_dac.c ****       keep and use the user MspInit/MspDeInit callbacks (registered beforehand)
ARM GAS   			page 7


 316:Drivers/STM32G4xx_HAL_Driver/Src/stm32g4xx_hal_dac.c **** 
 317:Drivers/STM32G4xx_HAL_Driver/Src/stm32g4xx_hal_dac.c ****       Callbacks can be registered/unregistered in READY state only.
 318:Drivers/STM32G4xx_HAL_Driver/Src/stm32g4xx_hal_dac.c ****       Exception done for MspInit/MspDeInit callbacks that can be registered/unregistered
 319:Drivers/STM32G4xx_HAL_Driver/Src/stm32g4xx_hal_dac.c ****       in READY or RESET state, thus registered (user) MspInit/DeInit callbacks can be used
 320:Drivers/STM32G4xx_HAL_Driver/Src/stm32g4xx_hal_dac.c ****       during the Init/DeInit.
 321:Drivers/STM32G4xx_HAL_Driver/Src/stm32g4xx_hal_dac.c ****       In that case first register the MspInit/MspDeInit user callbacks
 322:Drivers/STM32G4xx_HAL_Driver/Src/stm32g4xx_hal_dac.c ****       using HAL_DAC_RegisterCallback before calling HAL_DAC_DeInit
 323:Drivers/STM32G4xx_HAL_Driver/Src/stm32g4xx_hal_dac.c ****       or HAL_DAC_Init function.
 324:Drivers/STM32G4xx_HAL_Driver/Src/stm32g4xx_hal_dac.c **** 
 325:Drivers/STM32G4xx_HAL_Driver/Src/stm32g4xx_hal_dac.c ****       When The compilation define USE_HAL_DAC_REGISTER_CALLBACKS is set to 0 or
 326:Drivers/STM32G4xx_HAL_Driver/Src/stm32g4xx_hal_dac.c ****       not defined, the callback registering feature is not available
 327:Drivers/STM32G4xx_HAL_Driver/Src/stm32g4xx_hal_dac.c ****       and weak (overridden) callbacks are used.
 328:Drivers/STM32G4xx_HAL_Driver/Src/stm32g4xx_hal_dac.c **** 
 329:Drivers/STM32G4xx_HAL_Driver/Src/stm32g4xx_hal_dac.c ****      *** DAC HAL driver macros list ***
 330:Drivers/STM32G4xx_HAL_Driver/Src/stm32g4xx_hal_dac.c ****      =============================================
 331:Drivers/STM32G4xx_HAL_Driver/Src/stm32g4xx_hal_dac.c ****      [..]
 332:Drivers/STM32G4xx_HAL_Driver/Src/stm32g4xx_hal_dac.c ****        Below the list of most used macros in DAC HAL driver.
 333:Drivers/STM32G4xx_HAL_Driver/Src/stm32g4xx_hal_dac.c **** 
 334:Drivers/STM32G4xx_HAL_Driver/Src/stm32g4xx_hal_dac.c ****       (+) __HAL_DAC_ENABLE : Enable the DAC peripheral
 335:Drivers/STM32G4xx_HAL_Driver/Src/stm32g4xx_hal_dac.c ****       (+) __HAL_DAC_DISABLE : Disable the DAC peripheral
 336:Drivers/STM32G4xx_HAL_Driver/Src/stm32g4xx_hal_dac.c ****       (+) __HAL_DAC_CLEAR_FLAG: Clear the DAC's pending flags
 337:Drivers/STM32G4xx_HAL_Driver/Src/stm32g4xx_hal_dac.c ****       (+) __HAL_DAC_GET_FLAG: Get the selected DAC's flag status
 338:Drivers/STM32G4xx_HAL_Driver/Src/stm32g4xx_hal_dac.c **** 
 339:Drivers/STM32G4xx_HAL_Driver/Src/stm32g4xx_hal_dac.c ****      [..]
 340:Drivers/STM32G4xx_HAL_Driver/Src/stm32g4xx_hal_dac.c ****       (@) You can refer to the DAC HAL driver header file for more useful macros
 341:Drivers/STM32G4xx_HAL_Driver/Src/stm32g4xx_hal_dac.c **** 
 342:Drivers/STM32G4xx_HAL_Driver/Src/stm32g4xx_hal_dac.c **** @endverbatim
 343:Drivers/STM32G4xx_HAL_Driver/Src/stm32g4xx_hal_dac.c ****   ******************************************************************************
 344:Drivers/STM32G4xx_HAL_Driver/Src/stm32g4xx_hal_dac.c ****   */
 345:Drivers/STM32G4xx_HAL_Driver/Src/stm32g4xx_hal_dac.c **** 
 346:Drivers/STM32G4xx_HAL_Driver/Src/stm32g4xx_hal_dac.c **** /* Includes ------------------------------------------------------------------*/
 347:Drivers/STM32G4xx_HAL_Driver/Src/stm32g4xx_hal_dac.c **** #include "stm32g4xx_hal.h"
 348:Drivers/STM32G4xx_HAL_Driver/Src/stm32g4xx_hal_dac.c **** 
 349:Drivers/STM32G4xx_HAL_Driver/Src/stm32g4xx_hal_dac.c **** /** @addtogroup STM32G4xx_HAL_Driver
 350:Drivers/STM32G4xx_HAL_Driver/Src/stm32g4xx_hal_dac.c ****   * @{
 351:Drivers/STM32G4xx_HAL_Driver/Src/stm32g4xx_hal_dac.c ****   */
 352:Drivers/STM32G4xx_HAL_Driver/Src/stm32g4xx_hal_dac.c **** 
 353:Drivers/STM32G4xx_HAL_Driver/Src/stm32g4xx_hal_dac.c **** #ifdef HAL_DAC_MODULE_ENABLED
 354:Drivers/STM32G4xx_HAL_Driver/Src/stm32g4xx_hal_dac.c **** #if defined(DAC1) || defined(DAC2) || defined(DAC3) ||defined (DAC4)
 355:Drivers/STM32G4xx_HAL_Driver/Src/stm32g4xx_hal_dac.c **** 
 356:Drivers/STM32G4xx_HAL_Driver/Src/stm32g4xx_hal_dac.c **** /** @defgroup DAC DAC
 357:Drivers/STM32G4xx_HAL_Driver/Src/stm32g4xx_hal_dac.c ****   * @brief DAC driver modules
 358:Drivers/STM32G4xx_HAL_Driver/Src/stm32g4xx_hal_dac.c ****   * @{
 359:Drivers/STM32G4xx_HAL_Driver/Src/stm32g4xx_hal_dac.c ****   */
 360:Drivers/STM32G4xx_HAL_Driver/Src/stm32g4xx_hal_dac.c **** 
 361:Drivers/STM32G4xx_HAL_Driver/Src/stm32g4xx_hal_dac.c **** /* Private typedef -----------------------------------------------------------*/
 362:Drivers/STM32G4xx_HAL_Driver/Src/stm32g4xx_hal_dac.c **** /* Private define ------------------------------------------------------------*/
 363:Drivers/STM32G4xx_HAL_Driver/Src/stm32g4xx_hal_dac.c **** /* Private constants ---------------------------------------------------------*/
 364:Drivers/STM32G4xx_HAL_Driver/Src/stm32g4xx_hal_dac.c **** /** @addtogroup DAC_Private_Constants DAC Private Constants
 365:Drivers/STM32G4xx_HAL_Driver/Src/stm32g4xx_hal_dac.c ****   * @{
 366:Drivers/STM32G4xx_HAL_Driver/Src/stm32g4xx_hal_dac.c ****   */
 367:Drivers/STM32G4xx_HAL_Driver/Src/stm32g4xx_hal_dac.c **** #define TIMEOUT_DAC_CALIBCONFIG        1U         /* 1   ms        */
 368:Drivers/STM32G4xx_HAL_Driver/Src/stm32g4xx_hal_dac.c **** #define HFSEL_ENABLE_THRESHOLD_80MHZ   80000000U  /* 80 MHz        */
 369:Drivers/STM32G4xx_HAL_Driver/Src/stm32g4xx_hal_dac.c **** #define HFSEL_ENABLE_THRESHOLD_160MHZ  160000000U /* 160 MHz       */
 370:Drivers/STM32G4xx_HAL_Driver/Src/stm32g4xx_hal_dac.c **** 
 371:Drivers/STM32G4xx_HAL_Driver/Src/stm32g4xx_hal_dac.c **** /**
 372:Drivers/STM32G4xx_HAL_Driver/Src/stm32g4xx_hal_dac.c ****   * @}
ARM GAS   			page 8


 373:Drivers/STM32G4xx_HAL_Driver/Src/stm32g4xx_hal_dac.c ****   */
 374:Drivers/STM32G4xx_HAL_Driver/Src/stm32g4xx_hal_dac.c **** 
 375:Drivers/STM32G4xx_HAL_Driver/Src/stm32g4xx_hal_dac.c **** /* Private macro -------------------------------------------------------------*/
 376:Drivers/STM32G4xx_HAL_Driver/Src/stm32g4xx_hal_dac.c **** /* Private variables ---------------------------------------------------------*/
 377:Drivers/STM32G4xx_HAL_Driver/Src/stm32g4xx_hal_dac.c **** /* Private function prototypes -----------------------------------------------*/
 378:Drivers/STM32G4xx_HAL_Driver/Src/stm32g4xx_hal_dac.c **** /* Exported functions -------------------------------------------------------*/
 379:Drivers/STM32G4xx_HAL_Driver/Src/stm32g4xx_hal_dac.c **** 
 380:Drivers/STM32G4xx_HAL_Driver/Src/stm32g4xx_hal_dac.c **** /** @defgroup DAC_Exported_Functions DAC Exported Functions
 381:Drivers/STM32G4xx_HAL_Driver/Src/stm32g4xx_hal_dac.c ****   * @{
 382:Drivers/STM32G4xx_HAL_Driver/Src/stm32g4xx_hal_dac.c ****   */
 383:Drivers/STM32G4xx_HAL_Driver/Src/stm32g4xx_hal_dac.c **** 
 384:Drivers/STM32G4xx_HAL_Driver/Src/stm32g4xx_hal_dac.c **** /** @defgroup DAC_Exported_Functions_Group1 Initialization and de-initialization functions
 385:Drivers/STM32G4xx_HAL_Driver/Src/stm32g4xx_hal_dac.c ****   *  @brief    Initialization and Configuration functions
 386:Drivers/STM32G4xx_HAL_Driver/Src/stm32g4xx_hal_dac.c ****   *
 387:Drivers/STM32G4xx_HAL_Driver/Src/stm32g4xx_hal_dac.c **** @verbatim
 388:Drivers/STM32G4xx_HAL_Driver/Src/stm32g4xx_hal_dac.c ****   ==============================================================================
 389:Drivers/STM32G4xx_HAL_Driver/Src/stm32g4xx_hal_dac.c ****               ##### Initialization and de-initialization functions #####
 390:Drivers/STM32G4xx_HAL_Driver/Src/stm32g4xx_hal_dac.c ****   ==============================================================================
 391:Drivers/STM32G4xx_HAL_Driver/Src/stm32g4xx_hal_dac.c ****     [..]  This section provides functions allowing to:
 392:Drivers/STM32G4xx_HAL_Driver/Src/stm32g4xx_hal_dac.c ****       (+) Initialize and configure the DAC.
 393:Drivers/STM32G4xx_HAL_Driver/Src/stm32g4xx_hal_dac.c ****       (+) De-initialize the DAC.
 394:Drivers/STM32G4xx_HAL_Driver/Src/stm32g4xx_hal_dac.c **** 
 395:Drivers/STM32G4xx_HAL_Driver/Src/stm32g4xx_hal_dac.c **** @endverbatim
 396:Drivers/STM32G4xx_HAL_Driver/Src/stm32g4xx_hal_dac.c ****   * @{
 397:Drivers/STM32G4xx_HAL_Driver/Src/stm32g4xx_hal_dac.c ****   */
 398:Drivers/STM32G4xx_HAL_Driver/Src/stm32g4xx_hal_dac.c **** 
 399:Drivers/STM32G4xx_HAL_Driver/Src/stm32g4xx_hal_dac.c **** /**
 400:Drivers/STM32G4xx_HAL_Driver/Src/stm32g4xx_hal_dac.c ****   * @brief  Initialize the DAC peripheral according to the specified parameters
 401:Drivers/STM32G4xx_HAL_Driver/Src/stm32g4xx_hal_dac.c ****   *         in the DAC_InitStruct and initialize the associated handle.
 402:Drivers/STM32G4xx_HAL_Driver/Src/stm32g4xx_hal_dac.c ****   * @param  hdac pointer to a DAC_HandleTypeDef structure that contains
 403:Drivers/STM32G4xx_HAL_Driver/Src/stm32g4xx_hal_dac.c ****   *         the configuration information for the specified DAC.
 404:Drivers/STM32G4xx_HAL_Driver/Src/stm32g4xx_hal_dac.c ****   * @retval HAL status
 405:Drivers/STM32G4xx_HAL_Driver/Src/stm32g4xx_hal_dac.c ****   */
 406:Drivers/STM32G4xx_HAL_Driver/Src/stm32g4xx_hal_dac.c **** HAL_StatusTypeDef HAL_DAC_Init(DAC_HandleTypeDef *hdac)
 407:Drivers/STM32G4xx_HAL_Driver/Src/stm32g4xx_hal_dac.c **** {
 408:Drivers/STM32G4xx_HAL_Driver/Src/stm32g4xx_hal_dac.c ****   /* Check the DAC peripheral handle */
 409:Drivers/STM32G4xx_HAL_Driver/Src/stm32g4xx_hal_dac.c ****   if (hdac == NULL)
 410:Drivers/STM32G4xx_HAL_Driver/Src/stm32g4xx_hal_dac.c ****   {
 411:Drivers/STM32G4xx_HAL_Driver/Src/stm32g4xx_hal_dac.c ****     return HAL_ERROR;
 412:Drivers/STM32G4xx_HAL_Driver/Src/stm32g4xx_hal_dac.c ****   }
 413:Drivers/STM32G4xx_HAL_Driver/Src/stm32g4xx_hal_dac.c ****   /* Check the parameters */
 414:Drivers/STM32G4xx_HAL_Driver/Src/stm32g4xx_hal_dac.c ****   assert_param(IS_DAC_ALL_INSTANCE(hdac->Instance));
 415:Drivers/STM32G4xx_HAL_Driver/Src/stm32g4xx_hal_dac.c **** 
 416:Drivers/STM32G4xx_HAL_Driver/Src/stm32g4xx_hal_dac.c ****   if (hdac->State == HAL_DAC_STATE_RESET)
 417:Drivers/STM32G4xx_HAL_Driver/Src/stm32g4xx_hal_dac.c ****   {
 418:Drivers/STM32G4xx_HAL_Driver/Src/stm32g4xx_hal_dac.c **** #if (USE_HAL_DAC_REGISTER_CALLBACKS == 1)
 419:Drivers/STM32G4xx_HAL_Driver/Src/stm32g4xx_hal_dac.c ****     /* Init the DAC Callback settings */
 420:Drivers/STM32G4xx_HAL_Driver/Src/stm32g4xx_hal_dac.c ****     hdac->ConvCpltCallbackCh1           = HAL_DAC_ConvCpltCallbackCh1;
 421:Drivers/STM32G4xx_HAL_Driver/Src/stm32g4xx_hal_dac.c ****     hdac->ConvHalfCpltCallbackCh1       = HAL_DAC_ConvHalfCpltCallbackCh1;
 422:Drivers/STM32G4xx_HAL_Driver/Src/stm32g4xx_hal_dac.c ****     hdac->ErrorCallbackCh1              = HAL_DAC_ErrorCallbackCh1;
 423:Drivers/STM32G4xx_HAL_Driver/Src/stm32g4xx_hal_dac.c ****     hdac->DMAUnderrunCallbackCh1        = HAL_DAC_DMAUnderrunCallbackCh1;
 424:Drivers/STM32G4xx_HAL_Driver/Src/stm32g4xx_hal_dac.c **** 
 425:Drivers/STM32G4xx_HAL_Driver/Src/stm32g4xx_hal_dac.c ****     hdac->ConvCpltCallbackCh2           = HAL_DACEx_ConvCpltCallbackCh2;
 426:Drivers/STM32G4xx_HAL_Driver/Src/stm32g4xx_hal_dac.c ****     hdac->ConvHalfCpltCallbackCh2       = HAL_DACEx_ConvHalfCpltCallbackCh2;
 427:Drivers/STM32G4xx_HAL_Driver/Src/stm32g4xx_hal_dac.c ****     hdac->ErrorCallbackCh2              = HAL_DACEx_ErrorCallbackCh2;
 428:Drivers/STM32G4xx_HAL_Driver/Src/stm32g4xx_hal_dac.c ****     hdac->DMAUnderrunCallbackCh2        = HAL_DACEx_DMAUnderrunCallbackCh2;
 429:Drivers/STM32G4xx_HAL_Driver/Src/stm32g4xx_hal_dac.c **** 
ARM GAS   			page 9


 430:Drivers/STM32G4xx_HAL_Driver/Src/stm32g4xx_hal_dac.c ****     if (hdac->MspInitCallback == NULL)
 431:Drivers/STM32G4xx_HAL_Driver/Src/stm32g4xx_hal_dac.c ****     {
 432:Drivers/STM32G4xx_HAL_Driver/Src/stm32g4xx_hal_dac.c ****       hdac->MspInitCallback             = HAL_DAC_MspInit;
 433:Drivers/STM32G4xx_HAL_Driver/Src/stm32g4xx_hal_dac.c ****     }
 434:Drivers/STM32G4xx_HAL_Driver/Src/stm32g4xx_hal_dac.c **** #endif /* USE_HAL_DAC_REGISTER_CALLBACKS */
 435:Drivers/STM32G4xx_HAL_Driver/Src/stm32g4xx_hal_dac.c **** 
 436:Drivers/STM32G4xx_HAL_Driver/Src/stm32g4xx_hal_dac.c ****     /* Allocate lock resource and initialize it */
 437:Drivers/STM32G4xx_HAL_Driver/Src/stm32g4xx_hal_dac.c ****     hdac->Lock = HAL_UNLOCKED;
 438:Drivers/STM32G4xx_HAL_Driver/Src/stm32g4xx_hal_dac.c **** 
 439:Drivers/STM32G4xx_HAL_Driver/Src/stm32g4xx_hal_dac.c **** #if (USE_HAL_DAC_REGISTER_CALLBACKS == 1)
 440:Drivers/STM32G4xx_HAL_Driver/Src/stm32g4xx_hal_dac.c ****     /* Init the low level hardware */
 441:Drivers/STM32G4xx_HAL_Driver/Src/stm32g4xx_hal_dac.c ****     hdac->MspInitCallback(hdac);
 442:Drivers/STM32G4xx_HAL_Driver/Src/stm32g4xx_hal_dac.c **** #else
 443:Drivers/STM32G4xx_HAL_Driver/Src/stm32g4xx_hal_dac.c ****     /* Init the low level hardware */
 444:Drivers/STM32G4xx_HAL_Driver/Src/stm32g4xx_hal_dac.c ****     HAL_DAC_MspInit(hdac);
 445:Drivers/STM32G4xx_HAL_Driver/Src/stm32g4xx_hal_dac.c **** #endif /* USE_HAL_DAC_REGISTER_CALLBACKS */
 446:Drivers/STM32G4xx_HAL_Driver/Src/stm32g4xx_hal_dac.c ****   }
 447:Drivers/STM32G4xx_HAL_Driver/Src/stm32g4xx_hal_dac.c **** 
 448:Drivers/STM32G4xx_HAL_Driver/Src/stm32g4xx_hal_dac.c ****   /* Initialize the DAC state*/
 449:Drivers/STM32G4xx_HAL_Driver/Src/stm32g4xx_hal_dac.c ****   hdac->State = HAL_DAC_STATE_BUSY;
 450:Drivers/STM32G4xx_HAL_Driver/Src/stm32g4xx_hal_dac.c **** 
 451:Drivers/STM32G4xx_HAL_Driver/Src/stm32g4xx_hal_dac.c ****   /* Set DAC error code to none */
 452:Drivers/STM32G4xx_HAL_Driver/Src/stm32g4xx_hal_dac.c ****   hdac->ErrorCode = HAL_DAC_ERROR_NONE;
 453:Drivers/STM32G4xx_HAL_Driver/Src/stm32g4xx_hal_dac.c **** 
 454:Drivers/STM32G4xx_HAL_Driver/Src/stm32g4xx_hal_dac.c ****   /* Initialize the DAC state*/
 455:Drivers/STM32G4xx_HAL_Driver/Src/stm32g4xx_hal_dac.c ****   hdac->State = HAL_DAC_STATE_READY;
 456:Drivers/STM32G4xx_HAL_Driver/Src/stm32g4xx_hal_dac.c **** 
 457:Drivers/STM32G4xx_HAL_Driver/Src/stm32g4xx_hal_dac.c ****   /* Return function status */
 458:Drivers/STM32G4xx_HAL_Driver/Src/stm32g4xx_hal_dac.c ****   return HAL_OK;
 459:Drivers/STM32G4xx_HAL_Driver/Src/stm32g4xx_hal_dac.c **** }
 460:Drivers/STM32G4xx_HAL_Driver/Src/stm32g4xx_hal_dac.c **** 
 461:Drivers/STM32G4xx_HAL_Driver/Src/stm32g4xx_hal_dac.c **** /**
 462:Drivers/STM32G4xx_HAL_Driver/Src/stm32g4xx_hal_dac.c ****   * @brief  Deinitialize the DAC peripheral registers to their default reset values.
 463:Drivers/STM32G4xx_HAL_Driver/Src/stm32g4xx_hal_dac.c ****   * @param  hdac pointer to a DAC_HandleTypeDef structure that contains
 464:Drivers/STM32G4xx_HAL_Driver/Src/stm32g4xx_hal_dac.c ****   *         the configuration information for the specified DAC.
 465:Drivers/STM32G4xx_HAL_Driver/Src/stm32g4xx_hal_dac.c ****   * @retval HAL status
 466:Drivers/STM32G4xx_HAL_Driver/Src/stm32g4xx_hal_dac.c ****   */
 467:Drivers/STM32G4xx_HAL_Driver/Src/stm32g4xx_hal_dac.c **** HAL_StatusTypeDef HAL_DAC_DeInit(DAC_HandleTypeDef *hdac)
 468:Drivers/STM32G4xx_HAL_Driver/Src/stm32g4xx_hal_dac.c **** {
 469:Drivers/STM32G4xx_HAL_Driver/Src/stm32g4xx_hal_dac.c ****   /* Check the DAC peripheral handle */
 470:Drivers/STM32G4xx_HAL_Driver/Src/stm32g4xx_hal_dac.c ****   if (hdac == NULL)
 471:Drivers/STM32G4xx_HAL_Driver/Src/stm32g4xx_hal_dac.c ****   {
 472:Drivers/STM32G4xx_HAL_Driver/Src/stm32g4xx_hal_dac.c ****     return HAL_ERROR;
 473:Drivers/STM32G4xx_HAL_Driver/Src/stm32g4xx_hal_dac.c ****   }
 474:Drivers/STM32G4xx_HAL_Driver/Src/stm32g4xx_hal_dac.c **** 
 475:Drivers/STM32G4xx_HAL_Driver/Src/stm32g4xx_hal_dac.c ****   /* Check the parameters */
 476:Drivers/STM32G4xx_HAL_Driver/Src/stm32g4xx_hal_dac.c ****   assert_param(IS_DAC_ALL_INSTANCE(hdac->Instance));
 477:Drivers/STM32G4xx_HAL_Driver/Src/stm32g4xx_hal_dac.c **** 
 478:Drivers/STM32G4xx_HAL_Driver/Src/stm32g4xx_hal_dac.c ****   /* Change DAC state */
 479:Drivers/STM32G4xx_HAL_Driver/Src/stm32g4xx_hal_dac.c ****   hdac->State = HAL_DAC_STATE_BUSY;
 480:Drivers/STM32G4xx_HAL_Driver/Src/stm32g4xx_hal_dac.c **** 
 481:Drivers/STM32G4xx_HAL_Driver/Src/stm32g4xx_hal_dac.c **** #if (USE_HAL_DAC_REGISTER_CALLBACKS == 1)
 482:Drivers/STM32G4xx_HAL_Driver/Src/stm32g4xx_hal_dac.c ****   if (hdac->MspDeInitCallback == NULL)
 483:Drivers/STM32G4xx_HAL_Driver/Src/stm32g4xx_hal_dac.c ****   {
 484:Drivers/STM32G4xx_HAL_Driver/Src/stm32g4xx_hal_dac.c ****     hdac->MspDeInitCallback = HAL_DAC_MspDeInit;
 485:Drivers/STM32G4xx_HAL_Driver/Src/stm32g4xx_hal_dac.c ****   }
 486:Drivers/STM32G4xx_HAL_Driver/Src/stm32g4xx_hal_dac.c ****   /* DeInit the low level hardware */
ARM GAS   			page 10


 487:Drivers/STM32G4xx_HAL_Driver/Src/stm32g4xx_hal_dac.c ****   hdac->MspDeInitCallback(hdac);
 488:Drivers/STM32G4xx_HAL_Driver/Src/stm32g4xx_hal_dac.c **** #else
 489:Drivers/STM32G4xx_HAL_Driver/Src/stm32g4xx_hal_dac.c ****   /* DeInit the low level hardware */
 490:Drivers/STM32G4xx_HAL_Driver/Src/stm32g4xx_hal_dac.c ****   HAL_DAC_MspDeInit(hdac);
 491:Drivers/STM32G4xx_HAL_Driver/Src/stm32g4xx_hal_dac.c **** #endif /* USE_HAL_DAC_REGISTER_CALLBACKS */
 492:Drivers/STM32G4xx_HAL_Driver/Src/stm32g4xx_hal_dac.c **** 
 493:Drivers/STM32G4xx_HAL_Driver/Src/stm32g4xx_hal_dac.c ****   /* Set DAC error code to none */
 494:Drivers/STM32G4xx_HAL_Driver/Src/stm32g4xx_hal_dac.c ****   hdac->ErrorCode = HAL_DAC_ERROR_NONE;
 495:Drivers/STM32G4xx_HAL_Driver/Src/stm32g4xx_hal_dac.c **** 
 496:Drivers/STM32G4xx_HAL_Driver/Src/stm32g4xx_hal_dac.c ****   /* Change DAC state */
 497:Drivers/STM32G4xx_HAL_Driver/Src/stm32g4xx_hal_dac.c ****   hdac->State = HAL_DAC_STATE_RESET;
 498:Drivers/STM32G4xx_HAL_Driver/Src/stm32g4xx_hal_dac.c **** 
 499:Drivers/STM32G4xx_HAL_Driver/Src/stm32g4xx_hal_dac.c ****   /* Release Lock */
 500:Drivers/STM32G4xx_HAL_Driver/Src/stm32g4xx_hal_dac.c ****   __HAL_UNLOCK(hdac);
 501:Drivers/STM32G4xx_HAL_Driver/Src/stm32g4xx_hal_dac.c **** 
 502:Drivers/STM32G4xx_HAL_Driver/Src/stm32g4xx_hal_dac.c ****   /* Return function status */
 503:Drivers/STM32G4xx_HAL_Driver/Src/stm32g4xx_hal_dac.c ****   return HAL_OK;
 504:Drivers/STM32G4xx_HAL_Driver/Src/stm32g4xx_hal_dac.c **** }
 505:Drivers/STM32G4xx_HAL_Driver/Src/stm32g4xx_hal_dac.c **** 
 506:Drivers/STM32G4xx_HAL_Driver/Src/stm32g4xx_hal_dac.c **** /**
 507:Drivers/STM32G4xx_HAL_Driver/Src/stm32g4xx_hal_dac.c ****   * @brief  Initialize the DAC MSP.
 508:Drivers/STM32G4xx_HAL_Driver/Src/stm32g4xx_hal_dac.c ****   * @param  hdac pointer to a DAC_HandleTypeDef structure that contains
 509:Drivers/STM32G4xx_HAL_Driver/Src/stm32g4xx_hal_dac.c ****   *         the configuration information for the specified DAC.
 510:Drivers/STM32G4xx_HAL_Driver/Src/stm32g4xx_hal_dac.c ****   * @retval None
 511:Drivers/STM32G4xx_HAL_Driver/Src/stm32g4xx_hal_dac.c ****   */
 512:Drivers/STM32G4xx_HAL_Driver/Src/stm32g4xx_hal_dac.c **** __weak void HAL_DAC_MspInit(DAC_HandleTypeDef *hdac)
 513:Drivers/STM32G4xx_HAL_Driver/Src/stm32g4xx_hal_dac.c **** {
  29              	 .loc 1 513 1 view-0
  30              	 .cfi_startproc
  31              	 
  32              	 
  33              	 
 514:Drivers/STM32G4xx_HAL_Driver/Src/stm32g4xx_hal_dac.c ****   /* Prevent unused argument(s) compilation warning */
 515:Drivers/STM32G4xx_HAL_Driver/Src/stm32g4xx_hal_dac.c ****   UNUSED(hdac);
  34              	 .loc 1 515 3 view .LVU1
 516:Drivers/STM32G4xx_HAL_Driver/Src/stm32g4xx_hal_dac.c **** 
 517:Drivers/STM32G4xx_HAL_Driver/Src/stm32g4xx_hal_dac.c ****   /* NOTE : This function should not be modified, when the callback is needed,
 518:Drivers/STM32G4xx_HAL_Driver/Src/stm32g4xx_hal_dac.c ****             the HAL_DAC_MspInit could be implemented in the user file
 519:Drivers/STM32G4xx_HAL_Driver/Src/stm32g4xx_hal_dac.c ****    */
 520:Drivers/STM32G4xx_HAL_Driver/Src/stm32g4xx_hal_dac.c **** }
  35              	 .loc 1 520 1 is_stmt 0 view .LVU2
  36 0000 7047     	 bx lr
  37              	 .cfi_endproc
  38              	.LFE363:
  40 0002 00BF     	 .section .text.HAL_DAC_Init,"ax",%progbits
  41              	 .align 1
  42              	 .p2align 2,,3
  43              	 .global HAL_DAC_Init
  44              	 .syntax unified
  45              	 .thumb
  46              	 .thumb_func
  48              	HAL_DAC_Init:
  49              	.LVL1:
  50              	.LFB361:
 407:Drivers/STM32G4xx_HAL_Driver/Src/stm32g4xx_hal_dac.c ****   /* Check the DAC peripheral handle */
  51              	 .loc 1 407 1 is_stmt 1 view-0
  52              	 .cfi_startproc
ARM GAS   			page 11


  53              	 
  54              	 
 409:Drivers/STM32G4xx_HAL_Driver/Src/stm32g4xx_hal_dac.c ****   {
  55              	 .loc 1 409 3 view .LVU4
 409:Drivers/STM32G4xx_HAL_Driver/Src/stm32g4xx_hal_dac.c ****   {
  56              	 .loc 1 409 6 is_stmt 0 view .LVU5
  57 0000 88B1     	 cbz r0,.L6
 414:Drivers/STM32G4xx_HAL_Driver/Src/stm32g4xx_hal_dac.c **** 
  58              	 .loc 1 414 3 is_stmt 1 view .LVU6
 416:Drivers/STM32G4xx_HAL_Driver/Src/stm32g4xx_hal_dac.c ****   {
  59              	 .loc 1 416 3 view .LVU7
 407:Drivers/STM32G4xx_HAL_Driver/Src/stm32g4xx_hal_dac.c ****   /* Check the DAC peripheral handle */
  60              	 .loc 1 407 1 is_stmt 0 view .LVU8
  61 0002 10B5     	 push {r4,lr}
  62              	 .cfi_def_cfa_offset 8
  63              	 .cfi_offset 4,-8
  64              	 .cfi_offset 14,-4
 416:Drivers/STM32G4xx_HAL_Driver/Src/stm32g4xx_hal_dac.c ****   {
  65              	 .loc 1 416 11 view .LVU9
  66 0004 0379     	 ldrb r3,[r0,#4]
  67 0006 0446     	 mov r4,r0
 416:Drivers/STM32G4xx_HAL_Driver/Src/stm32g4xx_hal_dac.c ****   {
  68              	 .loc 1 416 6 view .LVU10
  69 0008 03F0FF02 	 and r2,r3,#255
  70 000c 3BB1     	 cbz r3,.L11
  71              	.LVL2:
  72              	.L5:
 449:Drivers/STM32G4xx_HAL_Driver/Src/stm32g4xx_hal_dac.c **** 
  73              	 .loc 1 449 3 is_stmt 1 view .LVU11
 452:Drivers/STM32G4xx_HAL_Driver/Src/stm32g4xx_hal_dac.c **** 
  74              	 .loc 1 452 19 is_stmt 0 view .LVU12
  75 000e 0023     	 movs r3,#0
 449:Drivers/STM32G4xx_HAL_Driver/Src/stm32g4xx_hal_dac.c **** 
  76              	 .loc 1 449 15 view .LVU13
  77 0010 0221     	 movs r1,#2
 455:Drivers/STM32G4xx_HAL_Driver/Src/stm32g4xx_hal_dac.c **** 
  78              	 .loc 1 455 15 view .LVU14
  79 0012 0122     	 movs r2,#1
 449:Drivers/STM32G4xx_HAL_Driver/Src/stm32g4xx_hal_dac.c **** 
  80              	 .loc 1 449 15 view .LVU15
  81 0014 2171     	 strb r1,[r4,#4]
 452:Drivers/STM32G4xx_HAL_Driver/Src/stm32g4xx_hal_dac.c **** 
  82              	 .loc 1 452 3 is_stmt 1 view .LVU16
 452:Drivers/STM32G4xx_HAL_Driver/Src/stm32g4xx_hal_dac.c **** 
  83              	 .loc 1 452 19 is_stmt 0 view .LVU17
  84 0016 2361     	 str r3,[r4,#16]
 455:Drivers/STM32G4xx_HAL_Driver/Src/stm32g4xx_hal_dac.c **** 
  85              	 .loc 1 455 3 is_stmt 1 view .LVU18
 455:Drivers/STM32G4xx_HAL_Driver/Src/stm32g4xx_hal_dac.c **** 
  86              	 .loc 1 455 15 is_stmt 0 view .LVU19
  87 0018 2271     	 strb r2,[r4,#4]
 458:Drivers/STM32G4xx_HAL_Driver/Src/stm32g4xx_hal_dac.c **** }
  88              	 .loc 1 458 3 is_stmt 1 view .LVU20
 458:Drivers/STM32G4xx_HAL_Driver/Src/stm32g4xx_hal_dac.c **** }
  89              	 .loc 1 458 10 is_stmt 0 view .LVU21
  90 001a 1846     	 mov r0,r3
 459:Drivers/STM32G4xx_HAL_Driver/Src/stm32g4xx_hal_dac.c **** 
ARM GAS   			page 12


  91              	 .loc 1 459 1 view .LVU22
  92 001c 10BD     	 pop {r4,pc}
  93              	.LVL3:
  94              	.L11:
 437:Drivers/STM32G4xx_HAL_Driver/Src/stm32g4xx_hal_dac.c **** 
  95              	 .loc 1 437 5 is_stmt 1 view .LVU23
 437:Drivers/STM32G4xx_HAL_Driver/Src/stm32g4xx_hal_dac.c **** 
  96              	 .loc 1 437 16 is_stmt 0 view .LVU24
  97 001e 4271     	 strb r2,[r0,#5]
 444:Drivers/STM32G4xx_HAL_Driver/Src/stm32g4xx_hal_dac.c **** #endif /* USE_HAL_DAC_REGISTER_CALLBACKS */
  98              	 .loc 1 444 5 is_stmt 1 view .LVU25
  99 0020 FFF7FEFF 	 bl HAL_DAC_MspInit
 100              	.LVL4:
 444:Drivers/STM32G4xx_HAL_Driver/Src/stm32g4xx_hal_dac.c **** #endif /* USE_HAL_DAC_REGISTER_CALLBACKS */
 101              	 .loc 1 444 5 is_stmt 0 view .LVU26
 102 0024 F3E7     	 b .L5
 103              	.LVL5:
 104              	.L6:
 105              	 .cfi_def_cfa_offset 0
 106              	 .cfi_restore 4
 107              	 .cfi_restore 14
 411:Drivers/STM32G4xx_HAL_Driver/Src/stm32g4xx_hal_dac.c ****   }
 108              	 .loc 1 411 12 view .LVU27
 109 0026 0120     	 movs r0,#1
 110              	.LVL6:
 459:Drivers/STM32G4xx_HAL_Driver/Src/stm32g4xx_hal_dac.c **** 
 111              	 .loc 1 459 1 view .LVU28
 112 0028 7047     	 bx lr
 113              	 .cfi_endproc
 114              	.LFE361:
 116 002a 00BF     	 .section .text.HAL_DAC_MspDeInit,"ax",%progbits
 117              	 .align 1
 118              	 .p2align 2,,3
 119              	 .weak HAL_DAC_MspDeInit
 120              	 .syntax unified
 121              	 .thumb
 122              	 .thumb_func
 124              	HAL_DAC_MspDeInit:
 125              	.LFB383:
 126              	 .cfi_startproc
 521:Drivers/STM32G4xx_HAL_Driver/Src/stm32g4xx_hal_dac.c **** 
 522:Drivers/STM32G4xx_HAL_Driver/Src/stm32g4xx_hal_dac.c **** /**
 523:Drivers/STM32G4xx_HAL_Driver/Src/stm32g4xx_hal_dac.c ****   * @brief  DeInitialize the DAC MSP.
 524:Drivers/STM32G4xx_HAL_Driver/Src/stm32g4xx_hal_dac.c ****   * @param  hdac pointer to a DAC_HandleTypeDef structure that contains
 525:Drivers/STM32G4xx_HAL_Driver/Src/stm32g4xx_hal_dac.c ****   *         the configuration information for the specified DAC.
 526:Drivers/STM32G4xx_HAL_Driver/Src/stm32g4xx_hal_dac.c ****   * @retval None
 527:Drivers/STM32G4xx_HAL_Driver/Src/stm32g4xx_hal_dac.c ****   */
 528:Drivers/STM32G4xx_HAL_Driver/Src/stm32g4xx_hal_dac.c **** __weak void HAL_DAC_MspDeInit(DAC_HandleTypeDef *hdac)
 127              	 .loc 1 528 13 is_stmt 1 view-0
 128              	 
 129              	 
 130              	 
 131 0000 7047     	 bx lr
 132              	 .cfi_endproc
 133              	.LFE383:
 135 0002 00BF     	 .section .text.HAL_DAC_DeInit,"ax",%progbits
 136              	 .align 1
ARM GAS   			page 13


 137              	 .p2align 2,,3
 138              	 .global HAL_DAC_DeInit
 139              	 .syntax unified
 140              	 .thumb
 141              	 .thumb_func
 143              	HAL_DAC_DeInit:
 144              	.LVL7:
 145              	.LFB362:
 468:Drivers/STM32G4xx_HAL_Driver/Src/stm32g4xx_hal_dac.c ****   /* Check the DAC peripheral handle */
 146              	 .loc 1 468 1 view-0
 147              	 .cfi_startproc
 148              	 
 149              	 
 470:Drivers/STM32G4xx_HAL_Driver/Src/stm32g4xx_hal_dac.c ****   {
 150              	 .loc 1 470 3 view .LVU31
 470:Drivers/STM32G4xx_HAL_Driver/Src/stm32g4xx_hal_dac.c ****   {
 151              	 .loc 1 470 6 is_stmt 0 view .LVU32
 152 0000 58B1     	 cbz r0,.L15
 468:Drivers/STM32G4xx_HAL_Driver/Src/stm32g4xx_hal_dac.c ****   /* Check the DAC peripheral handle */
 153              	 .loc 1 468 1 view .LVU33
 154 0002 10B5     	 push {r4,lr}
 155              	 .cfi_def_cfa_offset 8
 156              	 .cfi_offset 4,-8
 157              	 .cfi_offset 14,-4
 479:Drivers/STM32G4xx_HAL_Driver/Src/stm32g4xx_hal_dac.c **** 
 158              	 .loc 1 479 15 view .LVU34
 159 0004 0223     	 movs r3,#2
 160 0006 0446     	 mov r4,r0
 476:Drivers/STM32G4xx_HAL_Driver/Src/stm32g4xx_hal_dac.c **** 
 161              	 .loc 1 476 3 is_stmt 1 view .LVU35
 479:Drivers/STM32G4xx_HAL_Driver/Src/stm32g4xx_hal_dac.c **** 
 162              	 .loc 1 479 3 view .LVU36
 479:Drivers/STM32G4xx_HAL_Driver/Src/stm32g4xx_hal_dac.c **** 
 163              	 .loc 1 479 15 is_stmt 0 view .LVU37
 164 0008 0371     	 strb r3,[r0,#4]
 490:Drivers/STM32G4xx_HAL_Driver/Src/stm32g4xx_hal_dac.c **** #endif /* USE_HAL_DAC_REGISTER_CALLBACKS */
 165              	 .loc 1 490 3 is_stmt 1 view .LVU38
 166 000a FFF7FEFF 	 bl HAL_DAC_MspDeInit
 167              	.LVL8:
 494:Drivers/STM32G4xx_HAL_Driver/Src/stm32g4xx_hal_dac.c **** 
 168              	 .loc 1 494 3 view .LVU39
 494:Drivers/STM32G4xx_HAL_Driver/Src/stm32g4xx_hal_dac.c **** 
 169              	 .loc 1 494 19 is_stmt 0 view .LVU40
 170 000e 0023     	 movs r3,#0
 171 0010 2361     	 str r3,[r4,#16]
 497:Drivers/STM32G4xx_HAL_Driver/Src/stm32g4xx_hal_dac.c **** 
 172              	 .loc 1 497 3 is_stmt 1 view .LVU41
 500:Drivers/STM32G4xx_HAL_Driver/Src/stm32g4xx_hal_dac.c **** 
 173              	 .loc 1 500 3 is_stmt 0 view .LVU42
 174 0012 6371     	 strb r3,[r4,#5]
 497:Drivers/STM32G4xx_HAL_Driver/Src/stm32g4xx_hal_dac.c **** 
 175              	 .loc 1 497 15 view .LVU43
 176 0014 2371     	 strb r3,[r4,#4]
 500:Drivers/STM32G4xx_HAL_Driver/Src/stm32g4xx_hal_dac.c **** 
 177              	 .loc 1 500 3 is_stmt 1 view .LVU44
 500:Drivers/STM32G4xx_HAL_Driver/Src/stm32g4xx_hal_dac.c **** 
 178              	 .loc 1 500 3 view .LVU45
ARM GAS   			page 14


 500:Drivers/STM32G4xx_HAL_Driver/Src/stm32g4xx_hal_dac.c **** 
 179              	 .loc 1 500 3 view .LVU46
 503:Drivers/STM32G4xx_HAL_Driver/Src/stm32g4xx_hal_dac.c **** }
 180              	 .loc 1 503 3 view .LVU47
 503:Drivers/STM32G4xx_HAL_Driver/Src/stm32g4xx_hal_dac.c **** }
 181              	 .loc 1 503 10 is_stmt 0 view .LVU48
 182 0016 1846     	 mov r0,r3
 504:Drivers/STM32G4xx_HAL_Driver/Src/stm32g4xx_hal_dac.c **** 
 183              	 .loc 1 504 1 view .LVU49
 184 0018 10BD     	 pop {r4,pc}
 185              	.LVL9:
 186              	.L15:
 187              	 .cfi_def_cfa_offset 0
 188              	 .cfi_restore 4
 189              	 .cfi_restore 14
 472:Drivers/STM32G4xx_HAL_Driver/Src/stm32g4xx_hal_dac.c ****   }
 190              	 .loc 1 472 12 view .LVU50
 191 001a 0120     	 movs r0,#1
 192              	.LVL10:
 504:Drivers/STM32G4xx_HAL_Driver/Src/stm32g4xx_hal_dac.c **** 
 193              	 .loc 1 504 1 view .LVU51
 194 001c 7047     	 bx lr
 195              	 .cfi_endproc
 196              	.LFE362:
 198 001e 00BF     	 .section .text.HAL_DAC_Start,"ax",%progbits
 199              	 .align 1
 200              	 .p2align 2,,3
 201              	 .global HAL_DAC_Start
 202              	 .syntax unified
 203              	 .thumb
 204              	 .thumb_func
 206              	HAL_DAC_Start:
 207              	.LVL11:
 208              	.LFB365:
 529:Drivers/STM32G4xx_HAL_Driver/Src/stm32g4xx_hal_dac.c **** {
 530:Drivers/STM32G4xx_HAL_Driver/Src/stm32g4xx_hal_dac.c ****   /* Prevent unused argument(s) compilation warning */
 531:Drivers/STM32G4xx_HAL_Driver/Src/stm32g4xx_hal_dac.c ****   UNUSED(hdac);
 532:Drivers/STM32G4xx_HAL_Driver/Src/stm32g4xx_hal_dac.c **** 
 533:Drivers/STM32G4xx_HAL_Driver/Src/stm32g4xx_hal_dac.c ****   /* NOTE : This function should not be modified, when the callback is needed,
 534:Drivers/STM32G4xx_HAL_Driver/Src/stm32g4xx_hal_dac.c ****             the HAL_DAC_MspDeInit could be implemented in the user file
 535:Drivers/STM32G4xx_HAL_Driver/Src/stm32g4xx_hal_dac.c ****    */
 536:Drivers/STM32G4xx_HAL_Driver/Src/stm32g4xx_hal_dac.c **** }
 537:Drivers/STM32G4xx_HAL_Driver/Src/stm32g4xx_hal_dac.c **** 
 538:Drivers/STM32G4xx_HAL_Driver/Src/stm32g4xx_hal_dac.c **** /**
 539:Drivers/STM32G4xx_HAL_Driver/Src/stm32g4xx_hal_dac.c ****   * @}
 540:Drivers/STM32G4xx_HAL_Driver/Src/stm32g4xx_hal_dac.c ****   */
 541:Drivers/STM32G4xx_HAL_Driver/Src/stm32g4xx_hal_dac.c **** 
 542:Drivers/STM32G4xx_HAL_Driver/Src/stm32g4xx_hal_dac.c **** /** @defgroup DAC_Exported_Functions_Group2 IO operation functions
 543:Drivers/STM32G4xx_HAL_Driver/Src/stm32g4xx_hal_dac.c ****   *  @brief    IO operation functions
 544:Drivers/STM32G4xx_HAL_Driver/Src/stm32g4xx_hal_dac.c ****   *
 545:Drivers/STM32G4xx_HAL_Driver/Src/stm32g4xx_hal_dac.c **** @verbatim
 546:Drivers/STM32G4xx_HAL_Driver/Src/stm32g4xx_hal_dac.c ****   ==============================================================================
 547:Drivers/STM32G4xx_HAL_Driver/Src/stm32g4xx_hal_dac.c ****              ##### IO operation functions #####
 548:Drivers/STM32G4xx_HAL_Driver/Src/stm32g4xx_hal_dac.c ****   ==============================================================================
 549:Drivers/STM32G4xx_HAL_Driver/Src/stm32g4xx_hal_dac.c ****     [..]  This section provides functions allowing to:
 550:Drivers/STM32G4xx_HAL_Driver/Src/stm32g4xx_hal_dac.c ****       (+) Start conversion.
 551:Drivers/STM32G4xx_HAL_Driver/Src/stm32g4xx_hal_dac.c ****       (+) Stop conversion.
ARM GAS   			page 15


 552:Drivers/STM32G4xx_HAL_Driver/Src/stm32g4xx_hal_dac.c ****       (+) Start conversion and enable DMA transfer.
 553:Drivers/STM32G4xx_HAL_Driver/Src/stm32g4xx_hal_dac.c ****       (+) Stop conversion and disable DMA transfer.
 554:Drivers/STM32G4xx_HAL_Driver/Src/stm32g4xx_hal_dac.c ****       (+) Get result of conversion.
 555:Drivers/STM32G4xx_HAL_Driver/Src/stm32g4xx_hal_dac.c **** 
 556:Drivers/STM32G4xx_HAL_Driver/Src/stm32g4xx_hal_dac.c **** @endverbatim
 557:Drivers/STM32G4xx_HAL_Driver/Src/stm32g4xx_hal_dac.c ****   * @{
 558:Drivers/STM32G4xx_HAL_Driver/Src/stm32g4xx_hal_dac.c ****   */
 559:Drivers/STM32G4xx_HAL_Driver/Src/stm32g4xx_hal_dac.c **** 
 560:Drivers/STM32G4xx_HAL_Driver/Src/stm32g4xx_hal_dac.c **** /**
 561:Drivers/STM32G4xx_HAL_Driver/Src/stm32g4xx_hal_dac.c ****   * @brief  Enables DAC and starts conversion of channel.
 562:Drivers/STM32G4xx_HAL_Driver/Src/stm32g4xx_hal_dac.c ****   * @param  hdac pointer to a DAC_HandleTypeDef structure that contains
 563:Drivers/STM32G4xx_HAL_Driver/Src/stm32g4xx_hal_dac.c ****   *         the configuration information for the specified DAC.
 564:Drivers/STM32G4xx_HAL_Driver/Src/stm32g4xx_hal_dac.c ****   * @param  Channel The selected DAC channel.
 565:Drivers/STM32G4xx_HAL_Driver/Src/stm32g4xx_hal_dac.c ****   *          This parameter can be one of the following values:
 566:Drivers/STM32G4xx_HAL_Driver/Src/stm32g4xx_hal_dac.c ****   *            @arg DAC_CHANNEL_1: DAC Channel1 selected
 567:Drivers/STM32G4xx_HAL_Driver/Src/stm32g4xx_hal_dac.c ****   *            @arg DAC_CHANNEL_2: DAC Channel2 selected (1)
 568:Drivers/STM32G4xx_HAL_Driver/Src/stm32g4xx_hal_dac.c ****   *
 569:Drivers/STM32G4xx_HAL_Driver/Src/stm32g4xx_hal_dac.c ****   *         (1) On this STM32 series, parameter not available on all instances.
 570:Drivers/STM32G4xx_HAL_Driver/Src/stm32g4xx_hal_dac.c ****   *             Refer to device datasheet for channels availability.
 571:Drivers/STM32G4xx_HAL_Driver/Src/stm32g4xx_hal_dac.c ****   * @retval HAL status
 572:Drivers/STM32G4xx_HAL_Driver/Src/stm32g4xx_hal_dac.c ****   */
 573:Drivers/STM32G4xx_HAL_Driver/Src/stm32g4xx_hal_dac.c **** HAL_StatusTypeDef HAL_DAC_Start(DAC_HandleTypeDef *hdac, uint32_t Channel)
 574:Drivers/STM32G4xx_HAL_Driver/Src/stm32g4xx_hal_dac.c **** {
 209              	 .loc 1 574 1 is_stmt 1 view-0
 210              	 .cfi_startproc
 211              	 
 212              	 
 213              	 
 575:Drivers/STM32G4xx_HAL_Driver/Src/stm32g4xx_hal_dac.c ****   __IO uint32_t wait_loop_index;
 214              	 .loc 1 575 3 view .LVU53
 576:Drivers/STM32G4xx_HAL_Driver/Src/stm32g4xx_hal_dac.c **** 
 577:Drivers/STM32G4xx_HAL_Driver/Src/stm32g4xx_hal_dac.c ****   /* Check the DAC peripheral handle */
 578:Drivers/STM32G4xx_HAL_Driver/Src/stm32g4xx_hal_dac.c ****   if (hdac == NULL)
 215              	 .loc 1 578 3 view .LVU54
 216              	 .loc 1 578 6 is_stmt 0 view .LVU55
 217 0000 0028     	 cmp r0,#0
 218 0002 3FD0     	 beq .L26
 579:Drivers/STM32G4xx_HAL_Driver/Src/stm32g4xx_hal_dac.c ****   {
 580:Drivers/STM32G4xx_HAL_Driver/Src/stm32g4xx_hal_dac.c ****     return HAL_ERROR;
 581:Drivers/STM32G4xx_HAL_Driver/Src/stm32g4xx_hal_dac.c ****   }
 582:Drivers/STM32G4xx_HAL_Driver/Src/stm32g4xx_hal_dac.c **** 
 583:Drivers/STM32G4xx_HAL_Driver/Src/stm32g4xx_hal_dac.c ****   /* Check the parameters */
 584:Drivers/STM32G4xx_HAL_Driver/Src/stm32g4xx_hal_dac.c ****   assert_param(IS_DAC_CHANNEL(hdac->Instance, Channel));
 585:Drivers/STM32G4xx_HAL_Driver/Src/stm32g4xx_hal_dac.c **** 
 586:Drivers/STM32G4xx_HAL_Driver/Src/stm32g4xx_hal_dac.c ****   /* Process locked */
 587:Drivers/STM32G4xx_HAL_Driver/Src/stm32g4xx_hal_dac.c ****   __HAL_LOCK(hdac);
 219              	 .loc 1 587 3 view .LVU56
 220 0004 4379     	 ldrb r3,[r0,#5]
 221 0006 012B     	 cmp r3,#1
 222 0008 0246     	 mov r2,r0
 584:Drivers/STM32G4xx_HAL_Driver/Src/stm32g4xx_hal_dac.c **** 
 223              	 .loc 1 584 3 is_stmt 1 view .LVU57
 224              	 .loc 1 587 3 view .LVU58
 225              	 .loc 1 587 3 view .LVU59
 226 000a 3DD0     	 beq .L27
 227              	 .loc 1 587 3 discriminator 2 view .LVU60
 228              	 .loc 1 587 3 discriminator 2 view .LVU61
ARM GAS   			page 16


 588:Drivers/STM32G4xx_HAL_Driver/Src/stm32g4xx_hal_dac.c **** 
 589:Drivers/STM32G4xx_HAL_Driver/Src/stm32g4xx_hal_dac.c ****   /* Change DAC state */
 590:Drivers/STM32G4xx_HAL_Driver/Src/stm32g4xx_hal_dac.c ****   hdac->State = HAL_DAC_STATE_BUSY;
 229              	 .loc 1 590 3 view .LVU62
 574:Drivers/STM32G4xx_HAL_Driver/Src/stm32g4xx_hal_dac.c ****   __IO uint32_t wait_loop_index;
 230              	 .loc 1 574 1 is_stmt 0 view .LVU63
 231 000c 30B4     	 push {r4,r5}
 232              	 .cfi_def_cfa_offset 8
 233              	 .cfi_offset 4,-8
 234              	 .cfi_offset 5,-4
 235              	 .loc 1 590 15 view .LVU64
 236 000e 0223     	 movs r3,#2
 574:Drivers/STM32G4xx_HAL_Driver/Src/stm32g4xx_hal_dac.c ****   __IO uint32_t wait_loop_index;
 237              	 .loc 1 574 1 view .LVU65
 238 0010 82B0     	 sub sp,sp,#8
 239              	 .cfi_def_cfa_offset 16
 240              	 .loc 1 590 15 view .LVU66
 241 0012 0371     	 strb r3,[r0,#4]
 591:Drivers/STM32G4xx_HAL_Driver/Src/stm32g4xx_hal_dac.c **** 
 592:Drivers/STM32G4xx_HAL_Driver/Src/stm32g4xx_hal_dac.c ****   /* Enable the Peripheral */
 593:Drivers/STM32G4xx_HAL_Driver/Src/stm32g4xx_hal_dac.c ****   __HAL_DAC_ENABLE(hdac, Channel);
 242              	 .loc 1 593 3 is_stmt 1 view .LVU67
 594:Drivers/STM32G4xx_HAL_Driver/Src/stm32g4xx_hal_dac.c ****   /* Ensure minimum wait before using peripheral after enabling it */
 595:Drivers/STM32G4xx_HAL_Driver/Src/stm32g4xx_hal_dac.c ****   /* Wait loop initialization and execution */
 596:Drivers/STM32G4xx_HAL_Driver/Src/stm32g4xx_hal_dac.c ****   /* Note: Variable divided by 2 to compensate partially CPU processing cycles, scaling in us split
 597:Drivers/STM32G4xx_HAL_Driver/Src/stm32g4xx_hal_dac.c ****   /*       bits register capacity and handle low frequency. */
 598:Drivers/STM32G4xx_HAL_Driver/Src/stm32g4xx_hal_dac.c ****   wait_loop_index = ((DAC_DELAY_STARTUP_US / 10UL) * ((SystemCoreClock / (100000UL * 2UL)) + 1UL));
 243              	 .loc 1 598 72 is_stmt 0 view .LVU68
 244 0014 1D4B     	 ldr r3,.L36
 593:Drivers/STM32G4xx_HAL_Driver/Src/stm32g4xx_hal_dac.c ****   /* Ensure minimum wait before using peripheral after enabling it */
 245              	 .loc 1 593 3 view .LVU69
 246 0016 0468     	 ldr r4,[r0]
 247              	 .loc 1 598 72 view .LVU70
 248 0018 1B68     	 ldr r3,[r3]
 249 001a 1D48     	 ldr r0,.L36+4
 250              	.LVL12:
 593:Drivers/STM32G4xx_HAL_Driver/Src/stm32g4xx_hal_dac.c ****   /* Ensure minimum wait before using peripheral after enabling it */
 251              	 .loc 1 593 3 view .LVU71
 252 001c 2568     	 ldr r5,[r4]
 253              	 .loc 1 598 72 view .LVU72
 254 001e 9B09     	 lsrs r3,r3,#6
 255 0020 A0FB0303 	 umull r0,r3,r0,r3
 593:Drivers/STM32G4xx_HAL_Driver/Src/stm32g4xx_hal_dac.c ****   /* Ensure minimum wait before using peripheral after enabling it */
 256              	 .loc 1 593 3 view .LVU73
 257 0024 01F0100C 	 and ip,r1,#16
 258 0028 0120     	 movs r0,#1
 259              	 .loc 1 598 72 view .LVU74
 260 002a 9B09     	 lsrs r3,r3,#6
 593:Drivers/STM32G4xx_HAL_Driver/Src/stm32g4xx_hal_dac.c ****   /* Ensure minimum wait before using peripheral after enabling it */
 261              	 .loc 1 593 3 view .LVU75
 262 002c 00FA0CF0 	 lsl r0,r0,ip
 263              	 .loc 1 598 52 view .LVU76
 264 0030 0133     	 adds r3,r3,#1
 593:Drivers/STM32G4xx_HAL_Driver/Src/stm32g4xx_hal_dac.c ****   /* Ensure minimum wait before using peripheral after enabling it */
 265              	 .loc 1 593 3 view .LVU77
 266 0032 2843     	 orrs r0,r0,r5
 267 0034 2060     	 str r0,[r4]
ARM GAS   			page 17


 268              	 .loc 1 598 3 is_stmt 1 view .LVU78
 269              	 .loc 1 598 19 is_stmt 0 view .LVU79
 270 0036 0193     	 str r3,[sp,#4]
 599:Drivers/STM32G4xx_HAL_Driver/Src/stm32g4xx_hal_dac.c ****   while (wait_loop_index != 0UL)
 271              	 .loc 1 599 3 is_stmt 1 view .LVU80
 272              	 .loc 1 599 26 view .LVU81
 273 0038 019B     	 ldr r3,[sp,#4]
 274 003a 2BB1     	 cbz r3,.L22
 275              	.L23:
 600:Drivers/STM32G4xx_HAL_Driver/Src/stm32g4xx_hal_dac.c ****   {
 601:Drivers/STM32G4xx_HAL_Driver/Src/stm32g4xx_hal_dac.c ****     wait_loop_index--;
 276              	 .loc 1 601 5 view .LVU82
 277              	 .loc 1 601 20 is_stmt 0 view .LVU83
 278 003c 019B     	 ldr r3,[sp,#4]
 279 003e 013B     	 subs r3,r3,#1
 280 0040 0193     	 str r3,[sp,#4]
 599:Drivers/STM32G4xx_HAL_Driver/Src/stm32g4xx_hal_dac.c ****   while (wait_loop_index != 0UL)
 281              	 .loc 1 599 26 is_stmt 1 view .LVU84
 282 0042 019B     	 ldr r3,[sp,#4]
 283 0044 002B     	 cmp r3,#0
 284 0046 F9D1     	 bne .L23
 285              	.L22:
 602:Drivers/STM32G4xx_HAL_Driver/Src/stm32g4xx_hal_dac.c ****   }
 603:Drivers/STM32G4xx_HAL_Driver/Src/stm32g4xx_hal_dac.c **** 
 604:Drivers/STM32G4xx_HAL_Driver/Src/stm32g4xx_hal_dac.c ****   if (Channel == DAC_CHANNEL_1)
 286              	 .loc 1 604 3 view .LVU85
 287              	 .loc 1 604 6 is_stmt 0 view .LVU86
 288 0048 79B9     	 cbnz r1,.L24
 605:Drivers/STM32G4xx_HAL_Driver/Src/stm32g4xx_hal_dac.c ****   {
 606:Drivers/STM32G4xx_HAL_Driver/Src/stm32g4xx_hal_dac.c ****     /* Check if software trigger enabled */
 607:Drivers/STM32G4xx_HAL_Driver/Src/stm32g4xx_hal_dac.c ****     if ((hdac->Instance->CR & (DAC_CR_TEN1 | DAC_CR_TSEL1)) == DAC_TRIGGER_SOFTWARE)
 289              	 .loc 1 607 5 is_stmt 1 view .LVU87
 290              	 .loc 1 607 24 is_stmt 0 view .LVU88
 291 004a 2368     	 ldr r3,[r4]
 292              	 .loc 1 607 29 view .LVU89
 293 004c 03F03E03 	 and r3,r3,#62
 294              	 .loc 1 607 8 view .LVU90
 295 0050 022B     	 cmp r3,#2
 296 0052 03D1     	 bne .L25
 608:Drivers/STM32G4xx_HAL_Driver/Src/stm32g4xx_hal_dac.c ****     {
 609:Drivers/STM32G4xx_HAL_Driver/Src/stm32g4xx_hal_dac.c ****       /* Enable the selected DAC software conversion */
 610:Drivers/STM32G4xx_HAL_Driver/Src/stm32g4xx_hal_dac.c ****       SET_BIT(hdac->Instance->SWTRIGR, DAC_SWTRIGR_SWTRIG1);
 297              	 .loc 1 610 7 is_stmt 1 view .LVU91
 298 0054 6368     	 ldr r3,[r4,#4]
 299 0056 43F00103 	 orr r3,r3,#1
 300 005a 6360     	 str r3,[r4,#4]
 301              	.LVL13:
 302              	.L25:
 611:Drivers/STM32G4xx_HAL_Driver/Src/stm32g4xx_hal_dac.c ****     }
 612:Drivers/STM32G4xx_HAL_Driver/Src/stm32g4xx_hal_dac.c ****   }
 613:Drivers/STM32G4xx_HAL_Driver/Src/stm32g4xx_hal_dac.c **** 
 614:Drivers/STM32G4xx_HAL_Driver/Src/stm32g4xx_hal_dac.c ****   else
 615:Drivers/STM32G4xx_HAL_Driver/Src/stm32g4xx_hal_dac.c ****   {
 616:Drivers/STM32G4xx_HAL_Driver/Src/stm32g4xx_hal_dac.c ****     /* Check if software trigger enabled */
 617:Drivers/STM32G4xx_HAL_Driver/Src/stm32g4xx_hal_dac.c ****     if ((hdac->Instance->CR & (DAC_CR_TEN2 | DAC_CR_TSEL2)) == (DAC_TRIGGER_SOFTWARE << (Channel & 
 618:Drivers/STM32G4xx_HAL_Driver/Src/stm32g4xx_hal_dac.c ****     {
 619:Drivers/STM32G4xx_HAL_Driver/Src/stm32g4xx_hal_dac.c ****       /* Enable the selected DAC software conversion*/
ARM GAS   			page 18


 620:Drivers/STM32G4xx_HAL_Driver/Src/stm32g4xx_hal_dac.c ****       SET_BIT(hdac->Instance->SWTRIGR, DAC_SWTRIGR_SWTRIG2);
 621:Drivers/STM32G4xx_HAL_Driver/Src/stm32g4xx_hal_dac.c ****     }
 622:Drivers/STM32G4xx_HAL_Driver/Src/stm32g4xx_hal_dac.c ****   }
 623:Drivers/STM32G4xx_HAL_Driver/Src/stm32g4xx_hal_dac.c **** 
 624:Drivers/STM32G4xx_HAL_Driver/Src/stm32g4xx_hal_dac.c **** 
 625:Drivers/STM32G4xx_HAL_Driver/Src/stm32g4xx_hal_dac.c ****   /* Change DAC state */
 626:Drivers/STM32G4xx_HAL_Driver/Src/stm32g4xx_hal_dac.c ****   hdac->State = HAL_DAC_STATE_READY;
 303              	 .loc 1 626 3 view .LVU92
 627:Drivers/STM32G4xx_HAL_Driver/Src/stm32g4xx_hal_dac.c **** 
 628:Drivers/STM32G4xx_HAL_Driver/Src/stm32g4xx_hal_dac.c ****   /* Process unlocked */
 629:Drivers/STM32G4xx_HAL_Driver/Src/stm32g4xx_hal_dac.c ****   __HAL_UNLOCK(hdac);
 304              	 .loc 1 629 3 is_stmt 0 view .LVU93
 305 005c 0020     	 movs r0,#0
 626:Drivers/STM32G4xx_HAL_Driver/Src/stm32g4xx_hal_dac.c **** 
 306              	 .loc 1 626 15 view .LVU94
 307 005e 0123     	 movs r3,#1
 308 0060 1371     	 strb r3,[r2,#4]
 309              	 .loc 1 629 3 is_stmt 1 view .LVU95
 310              	 .loc 1 629 3 view .LVU96
 311 0062 5071     	 strb r0,[r2,#5]
 312              	 .loc 1 629 3 view .LVU97
 630:Drivers/STM32G4xx_HAL_Driver/Src/stm32g4xx_hal_dac.c **** 
 631:Drivers/STM32G4xx_HAL_Driver/Src/stm32g4xx_hal_dac.c ****   /* Return function status */
 632:Drivers/STM32G4xx_HAL_Driver/Src/stm32g4xx_hal_dac.c ****   return HAL_OK;
 313              	 .loc 1 632 3 view .LVU98
 633:Drivers/STM32G4xx_HAL_Driver/Src/stm32g4xx_hal_dac.c **** }
 314              	 .loc 1 633 1 is_stmt 0 view .LVU99
 315 0064 02B0     	 add sp,sp,#8
 316              	 .cfi_remember_state
 317              	 .cfi_def_cfa_offset 8
 318              	 
 319 0066 30BC     	 pop {r4,r5}
 320              	 .cfi_restore 5
 321              	 .cfi_restore 4
 322              	 .cfi_def_cfa_offset 0
 323 0068 7047     	 bx lr
 324              	.LVL14:
 325              	.L24:
 326              	 .cfi_restore_state
 617:Drivers/STM32G4xx_HAL_Driver/Src/stm32g4xx_hal_dac.c ****     {
 327              	 .loc 1 617 5 is_stmt 1 view .LVU100
 617:Drivers/STM32G4xx_HAL_Driver/Src/stm32g4xx_hal_dac.c ****     {
 328              	 .loc 1 617 24 is_stmt 0 view .LVU101
 329 006a 2168     	 ldr r1,[r4]
 330              	.LVL15:
 617:Drivers/STM32G4xx_HAL_Driver/Src/stm32g4xx_hal_dac.c ****     {
 331              	 .loc 1 617 86 view .LVU102
 332 006c 0223     	 movs r3,#2
 617:Drivers/STM32G4xx_HAL_Driver/Src/stm32g4xx_hal_dac.c ****     {
 333              	 .loc 1 617 29 view .LVU103
 334 006e 01F47811 	 and r1,r1,#4063232
 617:Drivers/STM32G4xx_HAL_Driver/Src/stm32g4xx_hal_dac.c ****     {
 335              	 .loc 1 617 86 view .LVU104
 336 0072 03FA0CF3 	 lsl r3,r3,ip
 617:Drivers/STM32G4xx_HAL_Driver/Src/stm32g4xx_hal_dac.c ****     {
 337              	 .loc 1 617 8 view .LVU105
 338 0076 9942     	 cmp r1,r3
ARM GAS   			page 19


 339 0078 F0D1     	 bne .L25
 620:Drivers/STM32G4xx_HAL_Driver/Src/stm32g4xx_hal_dac.c ****     }
 340              	 .loc 1 620 7 is_stmt 1 view .LVU106
 341 007a 6368     	 ldr r3,[r4,#4]
 342 007c 43F00203 	 orr r3,r3,#2
 343 0080 6360     	 str r3,[r4,#4]
 344 0082 EBE7     	 b .L25
 345              	.LVL16:
 346              	.L26:
 347              	 .cfi_def_cfa_offset 0
 348              	 .cfi_restore 4
 349              	 .cfi_restore 5
 580:Drivers/STM32G4xx_HAL_Driver/Src/stm32g4xx_hal_dac.c ****   }
 350              	 .loc 1 580 12 is_stmt 0 view .LVU107
 351 0084 0120     	 movs r0,#1
 352              	.LVL17:
 580:Drivers/STM32G4xx_HAL_Driver/Src/stm32g4xx_hal_dac.c ****   }
 353              	 .loc 1 580 12 view .LVU108
 354 0086 7047     	 bx lr
 355              	.LVL18:
 356              	.L27:
 587:Drivers/STM32G4xx_HAL_Driver/Src/stm32g4xx_hal_dac.c **** 
 357              	 .loc 1 587 3 discriminator 1 view .LVU109
 358 0088 0220     	 movs r0,#2
 359              	.LVL19:
 360              	 .loc 1 633 1 view .LVU110
 361 008a 7047     	 bx lr
 362              	.L37:
 363              	 .align 2
 364              	.L36:
 365 008c 00000000 	 .word SystemCoreClock
 366 0090 632D3E05 	 .word 87960931
 367              	 .cfi_endproc
 368              	.LFE365:
 370              	 .section .text.HAL_DAC_Stop,"ax",%progbits
 371              	 .align 1
 372              	 .p2align 2,,3
 373              	 .global HAL_DAC_Stop
 374              	 .syntax unified
 375              	 .thumb
 376              	 .thumb_func
 378              	HAL_DAC_Stop:
 379              	.LVL20:
 380              	.LFB366:
 634:Drivers/STM32G4xx_HAL_Driver/Src/stm32g4xx_hal_dac.c **** 
 635:Drivers/STM32G4xx_HAL_Driver/Src/stm32g4xx_hal_dac.c **** /**
 636:Drivers/STM32G4xx_HAL_Driver/Src/stm32g4xx_hal_dac.c ****   * @brief  Disables DAC and stop conversion of channel.
 637:Drivers/STM32G4xx_HAL_Driver/Src/stm32g4xx_hal_dac.c ****   * @param  hdac pointer to a DAC_HandleTypeDef structure that contains
 638:Drivers/STM32G4xx_HAL_Driver/Src/stm32g4xx_hal_dac.c ****   *         the configuration information for the specified DAC.
 639:Drivers/STM32G4xx_HAL_Driver/Src/stm32g4xx_hal_dac.c ****   * @param  Channel The selected DAC channel.
 640:Drivers/STM32G4xx_HAL_Driver/Src/stm32g4xx_hal_dac.c ****   *          This parameter can be one of the following values:
 641:Drivers/STM32G4xx_HAL_Driver/Src/stm32g4xx_hal_dac.c ****   *            @arg DAC_CHANNEL_1: DAC Channel1 selected
 642:Drivers/STM32G4xx_HAL_Driver/Src/stm32g4xx_hal_dac.c ****   *            @arg DAC_CHANNEL_2: DAC Channel2 selected (1)
 643:Drivers/STM32G4xx_HAL_Driver/Src/stm32g4xx_hal_dac.c ****   *
 644:Drivers/STM32G4xx_HAL_Driver/Src/stm32g4xx_hal_dac.c ****   *         (1) On this STM32 series, parameter not available on all instances.
 645:Drivers/STM32G4xx_HAL_Driver/Src/stm32g4xx_hal_dac.c ****   *             Refer to device datasheet for channels availability.
 646:Drivers/STM32G4xx_HAL_Driver/Src/stm32g4xx_hal_dac.c ****   * @retval HAL status
ARM GAS   			page 20


 647:Drivers/STM32G4xx_HAL_Driver/Src/stm32g4xx_hal_dac.c ****   */
 648:Drivers/STM32G4xx_HAL_Driver/Src/stm32g4xx_hal_dac.c **** HAL_StatusTypeDef HAL_DAC_Stop(DAC_HandleTypeDef *hdac, uint32_t Channel)
 649:Drivers/STM32G4xx_HAL_Driver/Src/stm32g4xx_hal_dac.c **** {
 381              	 .loc 1 649 1 is_stmt 1 view-0
 382              	 .cfi_startproc
 383              	 
 384              	 
 385              	 
 650:Drivers/STM32G4xx_HAL_Driver/Src/stm32g4xx_hal_dac.c ****   /* Check the DAC peripheral handle */
 651:Drivers/STM32G4xx_HAL_Driver/Src/stm32g4xx_hal_dac.c ****   if (hdac == NULL)
 386              	 .loc 1 651 3 view .LVU112
 387              	 .loc 1 651 6 is_stmt 0 view .LVU113
 388 0000 0346     	 mov r3,r0
 389 0002 70B1     	 cbz r0,.L40
 652:Drivers/STM32G4xx_HAL_Driver/Src/stm32g4xx_hal_dac.c ****   {
 653:Drivers/STM32G4xx_HAL_Driver/Src/stm32g4xx_hal_dac.c ****     return HAL_ERROR;
 654:Drivers/STM32G4xx_HAL_Driver/Src/stm32g4xx_hal_dac.c ****   }
 655:Drivers/STM32G4xx_HAL_Driver/Src/stm32g4xx_hal_dac.c **** 
 656:Drivers/STM32G4xx_HAL_Driver/Src/stm32g4xx_hal_dac.c ****   /* Check the parameters */
 657:Drivers/STM32G4xx_HAL_Driver/Src/stm32g4xx_hal_dac.c ****   assert_param(IS_DAC_CHANNEL(hdac->Instance, Channel));
 390              	 .loc 1 657 3 is_stmt 1 view .LVU114
 658:Drivers/STM32G4xx_HAL_Driver/Src/stm32g4xx_hal_dac.c **** 
 659:Drivers/STM32G4xx_HAL_Driver/Src/stm32g4xx_hal_dac.c ****   /* Disable the Peripheral */
 660:Drivers/STM32G4xx_HAL_Driver/Src/stm32g4xx_hal_dac.c ****   __HAL_DAC_DISABLE(hdac, Channel);
 391              	 .loc 1 660 3 view .LVU115
 392 0004 0068     	 ldr r0,[r0]
 393              	.LVL21:
 394              	 .loc 1 660 3 is_stmt 0 view .LVU116
 395 0006 4FF0010C 	 mov ip,#1
 396 000a 0268     	 ldr r2,[r0]
 397 000c 01F01001 	 and r1,r1,#16
 398              	.LVL22:
 399              	 .loc 1 660 3 view .LVU117
 400 0010 0CFA01F1 	 lsl r1,ip,r1
 401 0014 22EA0102 	 bic r2,r2,r1
 402 0018 0260     	 str r2,[r0]
 661:Drivers/STM32G4xx_HAL_Driver/Src/stm32g4xx_hal_dac.c **** 
 662:Drivers/STM32G4xx_HAL_Driver/Src/stm32g4xx_hal_dac.c ****   /* Change DAC state */
 663:Drivers/STM32G4xx_HAL_Driver/Src/stm32g4xx_hal_dac.c ****   hdac->State = HAL_DAC_STATE_READY;
 403              	 .loc 1 663 3 is_stmt 1 view .LVU118
 664:Drivers/STM32G4xx_HAL_Driver/Src/stm32g4xx_hal_dac.c **** 
 665:Drivers/STM32G4xx_HAL_Driver/Src/stm32g4xx_hal_dac.c ****   /* Return function status */
 666:Drivers/STM32G4xx_HAL_Driver/Src/stm32g4xx_hal_dac.c ****   return HAL_OK;
 404              	 .loc 1 666 10 is_stmt 0 view .LVU119
 405 001a 0020     	 movs r0,#0
 663:Drivers/STM32G4xx_HAL_Driver/Src/stm32g4xx_hal_dac.c **** 
 406              	 .loc 1 663 15 view .LVU120
 407 001c 83F804C0 	 strb ip,[r3,#4]
 408              	 .loc 1 666 3 is_stmt 1 view .LVU121
 409              	 .loc 1 666 10 is_stmt 0 view .LVU122
 410 0020 7047     	 bx lr
 411              	.LVL23:
 412              	.L40:
 653:Drivers/STM32G4xx_HAL_Driver/Src/stm32g4xx_hal_dac.c ****   }
 413              	 .loc 1 653 12 view .LVU123
 414 0022 0120     	 movs r0,#1
 415              	.LVL24:
ARM GAS   			page 21


 667:Drivers/STM32G4xx_HAL_Driver/Src/stm32g4xx_hal_dac.c **** }
 416              	 .loc 1 667 1 view .LVU124
 417 0024 7047     	 bx lr
 418              	 .cfi_endproc
 419              	.LFE366:
 421 0026 00BF     	 .section .text.HAL_DAC_Start_DMA,"ax",%progbits
 422              	 .align 1
 423              	 .p2align 2,,3
 424              	 .global HAL_DAC_Start_DMA
 425              	 .syntax unified
 426              	 .thumb
 427              	 .thumb_func
 429              	HAL_DAC_Start_DMA:
 430              	.LVL25:
 431              	.LFB367:
 668:Drivers/STM32G4xx_HAL_Driver/Src/stm32g4xx_hal_dac.c **** 
 669:Drivers/STM32G4xx_HAL_Driver/Src/stm32g4xx_hal_dac.c **** /**
 670:Drivers/STM32G4xx_HAL_Driver/Src/stm32g4xx_hal_dac.c ****   * @brief  Enables DAC and starts conversion of channel.
 671:Drivers/STM32G4xx_HAL_Driver/Src/stm32g4xx_hal_dac.c ****   * @param  hdac pointer to a DAC_HandleTypeDef structure that contains
 672:Drivers/STM32G4xx_HAL_Driver/Src/stm32g4xx_hal_dac.c ****   *         the configuration information for the specified DAC.
 673:Drivers/STM32G4xx_HAL_Driver/Src/stm32g4xx_hal_dac.c ****   * @param  Channel The selected DAC channel.
 674:Drivers/STM32G4xx_HAL_Driver/Src/stm32g4xx_hal_dac.c ****   *          This parameter can be one of the following values:
 675:Drivers/STM32G4xx_HAL_Driver/Src/stm32g4xx_hal_dac.c ****   *            @arg DAC_CHANNEL_1: DAC Channel1 selected
 676:Drivers/STM32G4xx_HAL_Driver/Src/stm32g4xx_hal_dac.c ****   *            @arg DAC_CHANNEL_2: DAC Channel2 selected (1)
 677:Drivers/STM32G4xx_HAL_Driver/Src/stm32g4xx_hal_dac.c ****   *
 678:Drivers/STM32G4xx_HAL_Driver/Src/stm32g4xx_hal_dac.c ****   *         (1) On this STM32 series, parameter not available on all instances.
 679:Drivers/STM32G4xx_HAL_Driver/Src/stm32g4xx_hal_dac.c ****   *             Refer to device datasheet for channels availability.
 680:Drivers/STM32G4xx_HAL_Driver/Src/stm32g4xx_hal_dac.c ****   * @param  pData The source Buffer address.
 681:Drivers/STM32G4xx_HAL_Driver/Src/stm32g4xx_hal_dac.c ****   * @param  Length The length of data to be transferred from memory to DAC peripheral
 682:Drivers/STM32G4xx_HAL_Driver/Src/stm32g4xx_hal_dac.c ****   * @param  Alignment Specifies the data alignment for DAC channel.
 683:Drivers/STM32G4xx_HAL_Driver/Src/stm32g4xx_hal_dac.c ****   *          This parameter can be one of the following values:
 684:Drivers/STM32G4xx_HAL_Driver/Src/stm32g4xx_hal_dac.c ****   *            @arg DAC_ALIGN_8B_R: 8bit right data alignment selected
 685:Drivers/STM32G4xx_HAL_Driver/Src/stm32g4xx_hal_dac.c ****   *            @arg DAC_ALIGN_12B_L: 12bit left data alignment selected
 686:Drivers/STM32G4xx_HAL_Driver/Src/stm32g4xx_hal_dac.c ****   *            @arg DAC_ALIGN_12B_R: 12bit right data alignment selected
 687:Drivers/STM32G4xx_HAL_Driver/Src/stm32g4xx_hal_dac.c ****   * @retval HAL status
 688:Drivers/STM32G4xx_HAL_Driver/Src/stm32g4xx_hal_dac.c ****   */
 689:Drivers/STM32G4xx_HAL_Driver/Src/stm32g4xx_hal_dac.c **** HAL_StatusTypeDef HAL_DAC_Start_DMA(DAC_HandleTypeDef *hdac, uint32_t Channel, const uint32_t *pDat
 690:Drivers/STM32G4xx_HAL_Driver/Src/stm32g4xx_hal_dac.c ****                                     uint32_t Alignment)
 691:Drivers/STM32G4xx_HAL_Driver/Src/stm32g4xx_hal_dac.c **** {
 432              	 .loc 1 691 1 is_stmt 1 view-0
 433              	 .cfi_startproc
 434              	 
 435              	 
 692:Drivers/STM32G4xx_HAL_Driver/Src/stm32g4xx_hal_dac.c ****   HAL_StatusTypeDef status;
 436              	 .loc 1 692 3 view .LVU126
 693:Drivers/STM32G4xx_HAL_Driver/Src/stm32g4xx_hal_dac.c ****   uint32_t tmpreg;
 437              	 .loc 1 693 3 view .LVU127
 694:Drivers/STM32G4xx_HAL_Driver/Src/stm32g4xx_hal_dac.c ****   __IO uint32_t wait_loop_index;
 438              	 .loc 1 694 3 view .LVU128
 695:Drivers/STM32G4xx_HAL_Driver/Src/stm32g4xx_hal_dac.c **** 
 696:Drivers/STM32G4xx_HAL_Driver/Src/stm32g4xx_hal_dac.c ****   /* Check the DAC peripheral handle */
 697:Drivers/STM32G4xx_HAL_Driver/Src/stm32g4xx_hal_dac.c ****   if (hdac == NULL)
 439              	 .loc 1 697 3 view .LVU129
 691:Drivers/STM32G4xx_HAL_Driver/Src/stm32g4xx_hal_dac.c ****   HAL_StatusTypeDef status;
 440              	 .loc 1 691 1 is_stmt 0 view .LVU130
 441 0000 F0B5     	 push {r4,r5,r6,r7,lr}
 442              	 .cfi_def_cfa_offset 20
ARM GAS   			page 22


 443              	 .cfi_offset 4,-20
 444              	 .cfi_offset 5,-16
 445              	 .cfi_offset 6,-12
 446              	 .cfi_offset 7,-8
 447              	 .cfi_offset 14,-4
 448 0002 83B0     	 sub sp,sp,#12
 449              	 .cfi_def_cfa_offset 32
 691:Drivers/STM32G4xx_HAL_Driver/Src/stm32g4xx_hal_dac.c ****   HAL_StatusTypeDef status;
 450              	 .loc 1 691 1 view .LVU131
 451 0004 089F     	 ldr r7,[sp,#32]
 452              	 .loc 1 697 6 view .LVU132
 453 0006 0028     	 cmp r0,#0
 454 0008 73D0     	 beq .L56
 455 000a 0E46     	 mov r6,r1
 456 000c 1146     	 mov r1,r2
 457              	.LVL26:
 698:Drivers/STM32G4xx_HAL_Driver/Src/stm32g4xx_hal_dac.c ****   {
 699:Drivers/STM32G4xx_HAL_Driver/Src/stm32g4xx_hal_dac.c ****     return HAL_ERROR;
 700:Drivers/STM32G4xx_HAL_Driver/Src/stm32g4xx_hal_dac.c ****   }
 701:Drivers/STM32G4xx_HAL_Driver/Src/stm32g4xx_hal_dac.c **** 
 702:Drivers/STM32G4xx_HAL_Driver/Src/stm32g4xx_hal_dac.c ****   /* Check the parameters */
 703:Drivers/STM32G4xx_HAL_Driver/Src/stm32g4xx_hal_dac.c ****   assert_param(IS_DAC_CHANNEL(hdac->Instance, Channel));
 704:Drivers/STM32G4xx_HAL_Driver/Src/stm32g4xx_hal_dac.c ****   assert_param(IS_DAC_ALIGN(Alignment));
 705:Drivers/STM32G4xx_HAL_Driver/Src/stm32g4xx_hal_dac.c **** 
 706:Drivers/STM32G4xx_HAL_Driver/Src/stm32g4xx_hal_dac.c ****   /* Process locked */
 707:Drivers/STM32G4xx_HAL_Driver/Src/stm32g4xx_hal_dac.c ****   __HAL_LOCK(hdac);
 458              	 .loc 1 707 3 view .LVU133
 459 000e 4279     	 ldrb r2,[r0,#5]
 460              	.LVL27:
 461              	 .loc 1 707 3 view .LVU134
 462 0010 012A     	 cmp r2,#1
 463 0012 0446     	 mov r4,r0
 703:Drivers/STM32G4xx_HAL_Driver/Src/stm32g4xx_hal_dac.c ****   assert_param(IS_DAC_ALIGN(Alignment));
 464              	 .loc 1 703 3 is_stmt 1 view .LVU135
 704:Drivers/STM32G4xx_HAL_Driver/Src/stm32g4xx_hal_dac.c **** 
 465              	 .loc 1 704 3 view .LVU136
 466              	 .loc 1 707 3 view .LVU137
 467              	 .loc 1 707 3 view .LVU138
 468 0014 76D0     	 beq .L57
 469              	 .loc 1 707 3 discriminator 2 view .LVU139
 470 0016 0122     	 movs r2,#1
 471 0018 4271     	 strb r2,[r0,#5]
 472              	 .loc 1 707 3 discriminator 2 view .LVU140
 708:Drivers/STM32G4xx_HAL_Driver/Src/stm32g4xx_hal_dac.c **** 
 709:Drivers/STM32G4xx_HAL_Driver/Src/stm32g4xx_hal_dac.c ****   /* Change DAC state */
 710:Drivers/STM32G4xx_HAL_Driver/Src/stm32g4xx_hal_dac.c ****   hdac->State = HAL_DAC_STATE_BUSY;
 473              	 .loc 1 710 3 view .LVU141
 711:Drivers/STM32G4xx_HAL_Driver/Src/stm32g4xx_hal_dac.c **** 
 712:Drivers/STM32G4xx_HAL_Driver/Src/stm32g4xx_hal_dac.c ****   if (Channel == DAC_CHANNEL_1)
 713:Drivers/STM32G4xx_HAL_Driver/Src/stm32g4xx_hal_dac.c ****   {
 714:Drivers/STM32G4xx_HAL_Driver/Src/stm32g4xx_hal_dac.c ****     /* Set the DMA transfer complete callback for channel1 */
 715:Drivers/STM32G4xx_HAL_Driver/Src/stm32g4xx_hal_dac.c ****     hdac->DMA_Handle1->XferCpltCallback = DAC_DMAConvCpltCh1;
 716:Drivers/STM32G4xx_HAL_Driver/Src/stm32g4xx_hal_dac.c **** 
 717:Drivers/STM32G4xx_HAL_Driver/Src/stm32g4xx_hal_dac.c ****     /* Set the DMA half transfer complete callback for channel1 */
 718:Drivers/STM32G4xx_HAL_Driver/Src/stm32g4xx_hal_dac.c ****     hdac->DMA_Handle1->XferHalfCpltCallback = DAC_DMAHalfConvCpltCh1;
 719:Drivers/STM32G4xx_HAL_Driver/Src/stm32g4xx_hal_dac.c **** 
 720:Drivers/STM32G4xx_HAL_Driver/Src/stm32g4xx_hal_dac.c ****     /* Set the DMA error callback for channel1 */
ARM GAS   			page 23


 721:Drivers/STM32G4xx_HAL_Driver/Src/stm32g4xx_hal_dac.c ****     hdac->DMA_Handle1->XferErrorCallback = DAC_DMAErrorCh1;
 722:Drivers/STM32G4xx_HAL_Driver/Src/stm32g4xx_hal_dac.c **** 
 723:Drivers/STM32G4xx_HAL_Driver/Src/stm32g4xx_hal_dac.c ****     /* Enable the selected DAC channel1 DMA request */
 724:Drivers/STM32G4xx_HAL_Driver/Src/stm32g4xx_hal_dac.c ****     SET_BIT(hdac->Instance->CR, DAC_CR_DMAEN1);
 474              	 .loc 1 724 5 is_stmt 0 view .LVU142
 475 001a 0568     	 ldr r5,[r0]
 710:Drivers/STM32G4xx_HAL_Driver/Src/stm32g4xx_hal_dac.c **** 
 476              	 .loc 1 710 15 view .LVU143
 477 001c 0222     	 movs r2,#2
 478 001e 0271     	 strb r2,[r0,#4]
 712:Drivers/STM32G4xx_HAL_Driver/Src/stm32g4xx_hal_dac.c ****   {
 479              	 .loc 1 712 3 is_stmt 1 view .LVU144
 480              	 .loc 1 724 5 is_stmt 0 view .LVU145
 481 0020 2A68     	 ldr r2,[r5]
 712:Drivers/STM32G4xx_HAL_Driver/Src/stm32g4xx_hal_dac.c ****   {
 482              	 .loc 1 712 6 view .LVU146
 483 0022 002E     	 cmp r6,#0
 484 0024 3AD1     	 bne .L43
 715:Drivers/STM32G4xx_HAL_Driver/Src/stm32g4xx_hal_dac.c **** 
 485              	 .loc 1 715 5 is_stmt 1 view .LVU147
 715:Drivers/STM32G4xx_HAL_Driver/Src/stm32g4xx_hal_dac.c **** 
 486              	 .loc 1 715 9 is_stmt 0 view .LVU148
 487 0026 8068     	 ldr r0,[r0,#8]
 488              	.LVL28:
 715:Drivers/STM32G4xx_HAL_Driver/Src/stm32g4xx_hal_dac.c **** 
 489              	 .loc 1 715 41 view .LVU149
 490 0028 DFF8E8C0 	 ldr ip,.L66+8
 491 002c C0F82CC0 	 str ip,[r0,#44]
 718:Drivers/STM32G4xx_HAL_Driver/Src/stm32g4xx_hal_dac.c **** 
 492              	 .loc 1 718 5 is_stmt 1 view .LVU150
 718:Drivers/STM32G4xx_HAL_Driver/Src/stm32g4xx_hal_dac.c **** 
 493              	 .loc 1 718 45 is_stmt 0 view .LVU151
 494 0030 DFF8E4C0 	 ldr ip,.L66+12
 495 0034 C0F830C0 	 str ip,[r0,#48]
 721:Drivers/STM32G4xx_HAL_Driver/Src/stm32g4xx_hal_dac.c **** 
 496              	 .loc 1 721 5 is_stmt 1 view .LVU152
 497              	 .loc 1 724 5 is_stmt 0 view .LVU153
 498 0038 42F48052 	 orr r2,r2,#4096
 721:Drivers/STM32G4xx_HAL_Driver/Src/stm32g4xx_hal_dac.c **** 
 499              	 .loc 1 721 42 view .LVU154
 500 003c DFF8DCC0 	 ldr ip,.L66+16
 501 0040 C0F834C0 	 str ip,[r0,#52]
 502              	 .loc 1 724 5 is_stmt 1 view .LVU155
 503 0044 2A60     	 str r2,[r5]
 725:Drivers/STM32G4xx_HAL_Driver/Src/stm32g4xx_hal_dac.c **** 
 726:Drivers/STM32G4xx_HAL_Driver/Src/stm32g4xx_hal_dac.c ****     /* Case of use of channel 1 */
 727:Drivers/STM32G4xx_HAL_Driver/Src/stm32g4xx_hal_dac.c ****     switch (Alignment)
 504              	 .loc 1 727 5 view .LVU156
 505 0046 002F     	 cmp r7,#0
 506 0048 59D0     	 beq .L44
 507 004a 042F     	 cmp r7,#4
 508 004c 4BD1     	 bne .L63
 728:Drivers/STM32G4xx_HAL_Driver/Src/stm32g4xx_hal_dac.c ****     {
 729:Drivers/STM32G4xx_HAL_Driver/Src/stm32g4xx_hal_dac.c ****       case DAC_ALIGN_12B_R:
 730:Drivers/STM32G4xx_HAL_Driver/Src/stm32g4xx_hal_dac.c ****         /* Get DHR12R1 address */
 731:Drivers/STM32G4xx_HAL_Driver/Src/stm32g4xx_hal_dac.c ****         tmpreg = (uint32_t)&hdac->Instance->DHR12R1;
 732:Drivers/STM32G4xx_HAL_Driver/Src/stm32g4xx_hal_dac.c ****         break;
ARM GAS   			page 24


 733:Drivers/STM32G4xx_HAL_Driver/Src/stm32g4xx_hal_dac.c ****       case DAC_ALIGN_12B_L:
 734:Drivers/STM32G4xx_HAL_Driver/Src/stm32g4xx_hal_dac.c ****         /* Get DHR12L1 address */
 735:Drivers/STM32G4xx_HAL_Driver/Src/stm32g4xx_hal_dac.c ****         tmpreg = (uint32_t)&hdac->Instance->DHR12L1;
 509              	 .loc 1 735 9 view .LVU157
 510              	 .loc 1 735 28 is_stmt 0 view .LVU158
 511 004e 05F10C02 	 add r2,r5,#12
 512              	.LVL29:
 736:Drivers/STM32G4xx_HAL_Driver/Src/stm32g4xx_hal_dac.c ****         break;
 513              	 .loc 1 736 9 is_stmt 1 view .LVU159
 737:Drivers/STM32G4xx_HAL_Driver/Src/stm32g4xx_hal_dac.c ****       default: /* case DAC_ALIGN_8B_R */
 738:Drivers/STM32G4xx_HAL_Driver/Src/stm32g4xx_hal_dac.c ****         /* Get DHR8R1 address */
 739:Drivers/STM32G4xx_HAL_Driver/Src/stm32g4xx_hal_dac.c ****         tmpreg = (uint32_t)&hdac->Instance->DHR8R1;
 740:Drivers/STM32G4xx_HAL_Driver/Src/stm32g4xx_hal_dac.c ****         break;
 741:Drivers/STM32G4xx_HAL_Driver/Src/stm32g4xx_hal_dac.c ****     }
 742:Drivers/STM32G4xx_HAL_Driver/Src/stm32g4xx_hal_dac.c ****   }
 743:Drivers/STM32G4xx_HAL_Driver/Src/stm32g4xx_hal_dac.c **** 
 744:Drivers/STM32G4xx_HAL_Driver/Src/stm32g4xx_hal_dac.c ****   else
 745:Drivers/STM32G4xx_HAL_Driver/Src/stm32g4xx_hal_dac.c ****   {
 746:Drivers/STM32G4xx_HAL_Driver/Src/stm32g4xx_hal_dac.c ****     /* Set the DMA transfer complete callback for channel2 */
 747:Drivers/STM32G4xx_HAL_Driver/Src/stm32g4xx_hal_dac.c ****     hdac->DMA_Handle2->XferCpltCallback = DAC_DMAConvCpltCh2;
 748:Drivers/STM32G4xx_HAL_Driver/Src/stm32g4xx_hal_dac.c **** 
 749:Drivers/STM32G4xx_HAL_Driver/Src/stm32g4xx_hal_dac.c ****     /* Set the DMA half transfer complete callback for channel2 */
 750:Drivers/STM32G4xx_HAL_Driver/Src/stm32g4xx_hal_dac.c ****     hdac->DMA_Handle2->XferHalfCpltCallback = DAC_DMAHalfConvCpltCh2;
 751:Drivers/STM32G4xx_HAL_Driver/Src/stm32g4xx_hal_dac.c **** 
 752:Drivers/STM32G4xx_HAL_Driver/Src/stm32g4xx_hal_dac.c ****     /* Set the DMA error callback for channel2 */
 753:Drivers/STM32G4xx_HAL_Driver/Src/stm32g4xx_hal_dac.c ****     hdac->DMA_Handle2->XferErrorCallback = DAC_DMAErrorCh2;
 754:Drivers/STM32G4xx_HAL_Driver/Src/stm32g4xx_hal_dac.c **** 
 755:Drivers/STM32G4xx_HAL_Driver/Src/stm32g4xx_hal_dac.c ****     /* Enable the selected DAC channel2 DMA request */
 756:Drivers/STM32G4xx_HAL_Driver/Src/stm32g4xx_hal_dac.c ****     SET_BIT(hdac->Instance->CR, DAC_CR_DMAEN2);
 757:Drivers/STM32G4xx_HAL_Driver/Src/stm32g4xx_hal_dac.c **** 
 758:Drivers/STM32G4xx_HAL_Driver/Src/stm32g4xx_hal_dac.c ****     /* Case of use of channel 2 */
 759:Drivers/STM32G4xx_HAL_Driver/Src/stm32g4xx_hal_dac.c ****     switch (Alignment)
 760:Drivers/STM32G4xx_HAL_Driver/Src/stm32g4xx_hal_dac.c ****     {
 761:Drivers/STM32G4xx_HAL_Driver/Src/stm32g4xx_hal_dac.c ****       case DAC_ALIGN_12B_R:
 762:Drivers/STM32G4xx_HAL_Driver/Src/stm32g4xx_hal_dac.c ****         /* Get DHR12R2 address */
 763:Drivers/STM32G4xx_HAL_Driver/Src/stm32g4xx_hal_dac.c ****         tmpreg = (uint32_t)&hdac->Instance->DHR12R2;
 764:Drivers/STM32G4xx_HAL_Driver/Src/stm32g4xx_hal_dac.c ****         break;
 765:Drivers/STM32G4xx_HAL_Driver/Src/stm32g4xx_hal_dac.c ****       case DAC_ALIGN_12B_L:
 766:Drivers/STM32G4xx_HAL_Driver/Src/stm32g4xx_hal_dac.c ****         /* Get DHR12L2 address */
 767:Drivers/STM32G4xx_HAL_Driver/Src/stm32g4xx_hal_dac.c ****         tmpreg = (uint32_t)&hdac->Instance->DHR12L2;
 768:Drivers/STM32G4xx_HAL_Driver/Src/stm32g4xx_hal_dac.c ****         break;
 769:Drivers/STM32G4xx_HAL_Driver/Src/stm32g4xx_hal_dac.c ****       default: /* case DAC_ALIGN_8B_R */
 770:Drivers/STM32G4xx_HAL_Driver/Src/stm32g4xx_hal_dac.c ****         /* Get DHR8R2 address */
 771:Drivers/STM32G4xx_HAL_Driver/Src/stm32g4xx_hal_dac.c ****         tmpreg = (uint32_t)&hdac->Instance->DHR8R2;
 772:Drivers/STM32G4xx_HAL_Driver/Src/stm32g4xx_hal_dac.c ****         break;
 773:Drivers/STM32G4xx_HAL_Driver/Src/stm32g4xx_hal_dac.c ****     }
 774:Drivers/STM32G4xx_HAL_Driver/Src/stm32g4xx_hal_dac.c ****   }
 775:Drivers/STM32G4xx_HAL_Driver/Src/stm32g4xx_hal_dac.c **** 
 776:Drivers/STM32G4xx_HAL_Driver/Src/stm32g4xx_hal_dac.c ****   if (Channel == DAC_CHANNEL_1)
 514              	 .loc 1 776 3 view .LVU160
 515              	.L47:
 777:Drivers/STM32G4xx_HAL_Driver/Src/stm32g4xx_hal_dac.c ****   {
 778:Drivers/STM32G4xx_HAL_Driver/Src/stm32g4xx_hal_dac.c ****     /* Enable the DAC DMA underrun interrupt */
 779:Drivers/STM32G4xx_HAL_Driver/Src/stm32g4xx_hal_dac.c ****     __HAL_DAC_ENABLE_IT(hdac, DAC_IT_DMAUDR1);
 516              	 .loc 1 779 5 view .LVU161
 517 0052 2F68     	 ldr r7,[r5]
 518 0054 47F40057 	 orr r7,r7,#8192
ARM GAS   			page 25


 519 0058 2F60     	 str r7,[r5]
 520              	.LVL30:
 780:Drivers/STM32G4xx_HAL_Driver/Src/stm32g4xx_hal_dac.c **** 
 781:Drivers/STM32G4xx_HAL_Driver/Src/stm32g4xx_hal_dac.c ****     /* Enable the DMA channel */
 782:Drivers/STM32G4xx_HAL_Driver/Src/stm32g4xx_hal_dac.c ****     status = HAL_DMA_Start_IT(hdac->DMA_Handle1, (uint32_t)pData, tmpreg, Length);
 521              	 .loc 1 782 5 view .LVU162
 522              	 .loc 1 782 14 is_stmt 0 view .LVU163
 523 005a FFF7FEFF 	 bl HAL_DMA_Start_IT
 524              	.LVL31:
 783:Drivers/STM32G4xx_HAL_Driver/Src/stm32g4xx_hal_dac.c ****   }
 784:Drivers/STM32G4xx_HAL_Driver/Src/stm32g4xx_hal_dac.c **** 
 785:Drivers/STM32G4xx_HAL_Driver/Src/stm32g4xx_hal_dac.c ****   else
 786:Drivers/STM32G4xx_HAL_Driver/Src/stm32g4xx_hal_dac.c ****   {
 787:Drivers/STM32G4xx_HAL_Driver/Src/stm32g4xx_hal_dac.c ****     /* Enable the DAC DMA underrun interrupt */
 788:Drivers/STM32G4xx_HAL_Driver/Src/stm32g4xx_hal_dac.c ****     __HAL_DAC_ENABLE_IT(hdac, DAC_IT_DMAUDR2);
 789:Drivers/STM32G4xx_HAL_Driver/Src/stm32g4xx_hal_dac.c **** 
 790:Drivers/STM32G4xx_HAL_Driver/Src/stm32g4xx_hal_dac.c ****     /* Enable the DMA channel */
 791:Drivers/STM32G4xx_HAL_Driver/Src/stm32g4xx_hal_dac.c ****     status = HAL_DMA_Start_IT(hdac->DMA_Handle2, (uint32_t)pData, tmpreg, Length);
 792:Drivers/STM32G4xx_HAL_Driver/Src/stm32g4xx_hal_dac.c ****   }
 793:Drivers/STM32G4xx_HAL_Driver/Src/stm32g4xx_hal_dac.c **** 
 794:Drivers/STM32G4xx_HAL_Driver/Src/stm32g4xx_hal_dac.c **** 
 795:Drivers/STM32G4xx_HAL_Driver/Src/stm32g4xx_hal_dac.c ****   /* Process Unlocked */
 796:Drivers/STM32G4xx_HAL_Driver/Src/stm32g4xx_hal_dac.c ****   __HAL_UNLOCK(hdac);
 525              	 .loc 1 796 3 is_stmt 1 view .LVU164
 526              	 .loc 1 796 3 view .LVU165
 527 005e 0023     	 movs r3,#0
 528 0060 6371     	 strb r3,[r4,#5]
 529              	 .loc 1 796 3 view .LVU166
 797:Drivers/STM32G4xx_HAL_Driver/Src/stm32g4xx_hal_dac.c **** 
 798:Drivers/STM32G4xx_HAL_Driver/Src/stm32g4xx_hal_dac.c ****   if (status == HAL_OK)
 530              	 .loc 1 798 3 view .LVU167
 531              	 .loc 1 798 6 is_stmt 0 view .LVU168
 532 0062 0028     	 cmp r0,#0
 533 0064 39D1     	 bne .L53
 534              	.LVL32:
 535              	.L65:
 799:Drivers/STM32G4xx_HAL_Driver/Src/stm32g4xx_hal_dac.c ****   {
 800:Drivers/STM32G4xx_HAL_Driver/Src/stm32g4xx_hal_dac.c ****     /* Enable the Peripheral */
 801:Drivers/STM32G4xx_HAL_Driver/Src/stm32g4xx_hal_dac.c ****     __HAL_DAC_ENABLE(hdac, Channel);
 536              	 .loc 1 801 5 is_stmt 1 view .LVU169
 537 0066 2468     	 ldr r4,[r4]
 538              	.LVL33:
 802:Drivers/STM32G4xx_HAL_Driver/Src/stm32g4xx_hal_dac.c ****     /* Ensure minimum wait before using peripheral after enabling it */
 803:Drivers/STM32G4xx_HAL_Driver/Src/stm32g4xx_hal_dac.c ****     /* Wait loop initialization and execution */
 804:Drivers/STM32G4xx_HAL_Driver/Src/stm32g4xx_hal_dac.c ****     /* Note: Variable divided by 2 to compensate partially              */
 805:Drivers/STM32G4xx_HAL_Driver/Src/stm32g4xx_hal_dac.c ****     /*       CPU processing cycles, scaling in us split to not          */
 806:Drivers/STM32G4xx_HAL_Driver/Src/stm32g4xx_hal_dac.c ****     /*       exceed 32 bits register capacity and handle low frequency. */
 807:Drivers/STM32G4xx_HAL_Driver/Src/stm32g4xx_hal_dac.c ****     wait_loop_index = ((DAC_DELAY_STARTUP_US / 10UL) * ((SystemCoreClock / (100000UL * 2UL)) + 1UL)
 539              	 .loc 1 807 74 is_stmt 0 view .LVU170
 540 0068 284B     	 ldr r3,.L66
 801:Drivers/STM32G4xx_HAL_Driver/Src/stm32g4xx_hal_dac.c ****     /* Ensure minimum wait before using peripheral after enabling it */
 541              	 .loc 1 801 5 view .LVU171
 542 006a 2568     	 ldr r5,[r4]
 543              	 .loc 1 807 74 view .LVU172
 544 006c 1B68     	 ldr r3,[r3]
 801:Drivers/STM32G4xx_HAL_Driver/Src/stm32g4xx_hal_dac.c ****     /* Ensure minimum wait before using peripheral after enabling it */
 545              	 .loc 1 801 5 view .LVU173
ARM GAS   			page 26


 546 006e 06F01001 	 and r1,r6,#16
 547 0072 0122     	 movs r2,#1
 548 0074 8A40     	 lsls r2,r2,r1
 549 0076 2A43     	 orrs r2,r2,r5
 550 0078 2260     	 str r2,[r4]
 551              	 .loc 1 807 5 is_stmt 1 view .LVU174
 552              	 .loc 1 807 74 is_stmt 0 view .LVU175
 553 007a 254A     	 ldr r2,.L66+4
 554 007c 9B09     	 lsrs r3,r3,#6
 555 007e A2FB0323 	 umull r2,r3,r2,r3
 556 0082 9B09     	 lsrs r3,r3,#6
 557              	 .loc 1 807 54 view .LVU176
 558 0084 0133     	 adds r3,r3,#1
 559              	 .loc 1 807 21 view .LVU177
 560 0086 0193     	 str r3,[sp,#4]
 808:Drivers/STM32G4xx_HAL_Driver/Src/stm32g4xx_hal_dac.c ****     while (wait_loop_index != 0UL)
 561              	 .loc 1 808 5 is_stmt 1 view .LVU178
 562              	 .loc 1 808 28 view .LVU179
 563 0088 019B     	 ldr r3,[sp,#4]
 564 008a 2BB1     	 cbz r3,.L42
 565              	.L54:
 809:Drivers/STM32G4xx_HAL_Driver/Src/stm32g4xx_hal_dac.c ****     {
 810:Drivers/STM32G4xx_HAL_Driver/Src/stm32g4xx_hal_dac.c ****       wait_loop_index--;
 566              	 .loc 1 810 7 view .LVU180
 567              	 .loc 1 810 22 is_stmt 0 view .LVU181
 568 008c 019B     	 ldr r3,[sp,#4]
 569 008e 013B     	 subs r3,r3,#1
 570 0090 0193     	 str r3,[sp,#4]
 808:Drivers/STM32G4xx_HAL_Driver/Src/stm32g4xx_hal_dac.c ****     while (wait_loop_index != 0UL)
 571              	 .loc 1 808 28 is_stmt 1 view .LVU182
 572 0092 019B     	 ldr r3,[sp,#4]
 573 0094 002B     	 cmp r3,#0
 574 0096 F9D1     	 bne .L54
 575              	.L42:
 811:Drivers/STM32G4xx_HAL_Driver/Src/stm32g4xx_hal_dac.c ****     }
 812:Drivers/STM32G4xx_HAL_Driver/Src/stm32g4xx_hal_dac.c ****   }
 813:Drivers/STM32G4xx_HAL_Driver/Src/stm32g4xx_hal_dac.c ****   else
 814:Drivers/STM32G4xx_HAL_Driver/Src/stm32g4xx_hal_dac.c ****   {
 815:Drivers/STM32G4xx_HAL_Driver/Src/stm32g4xx_hal_dac.c ****     hdac->ErrorCode |= HAL_DAC_ERROR_DMA;
 816:Drivers/STM32G4xx_HAL_Driver/Src/stm32g4xx_hal_dac.c ****   }
 817:Drivers/STM32G4xx_HAL_Driver/Src/stm32g4xx_hal_dac.c **** 
 818:Drivers/STM32G4xx_HAL_Driver/Src/stm32g4xx_hal_dac.c ****   /* Return function status */
 819:Drivers/STM32G4xx_HAL_Driver/Src/stm32g4xx_hal_dac.c ****   return status;
 820:Drivers/STM32G4xx_HAL_Driver/Src/stm32g4xx_hal_dac.c **** }
 576              	 .loc 1 820 1 is_stmt 0 view .LVU183
 577 0098 03B0     	 add sp,sp,#12
 578              	 .cfi_remember_state
 579              	 .cfi_def_cfa_offset 20
 580              	 
 581 009a F0BD     	 pop {r4,r5,r6,r7,pc}
 582              	.LVL34:
 583              	.L43:
 584              	 .cfi_restore_state
 747:Drivers/STM32G4xx_HAL_Driver/Src/stm32g4xx_hal_dac.c **** 
 585              	 .loc 1 747 5 is_stmt 1 view .LVU184
 747:Drivers/STM32G4xx_HAL_Driver/Src/stm32g4xx_hal_dac.c **** 
 586              	 .loc 1 747 9 is_stmt 0 view .LVU185
ARM GAS   			page 27


 587 009c C068     	 ldr r0,[r0,#12]
 588              	.LVL35:
 747:Drivers/STM32G4xx_HAL_Driver/Src/stm32g4xx_hal_dac.c **** 
 589              	 .loc 1 747 41 view .LVU186
 590 009e DFF880C0 	 ldr ip,.L66+20
 591 00a2 C0F82CC0 	 str ip,[r0,#44]
 750:Drivers/STM32G4xx_HAL_Driver/Src/stm32g4xx_hal_dac.c **** 
 592              	 .loc 1 750 5 is_stmt 1 view .LVU187
 750:Drivers/STM32G4xx_HAL_Driver/Src/stm32g4xx_hal_dac.c **** 
 593              	 .loc 1 750 45 is_stmt 0 view .LVU188
 594 00a6 DFF87CC0 	 ldr ip,.L66+24
 595 00aa C0F830C0 	 str ip,[r0,#48]
 753:Drivers/STM32G4xx_HAL_Driver/Src/stm32g4xx_hal_dac.c **** 
 596              	 .loc 1 753 5 is_stmt 1 view .LVU189
 756:Drivers/STM32G4xx_HAL_Driver/Src/stm32g4xx_hal_dac.c **** 
 597              	 .loc 1 756 5 is_stmt 0 view .LVU190
 598 00ae 42F08052 	 orr r2,r2,#268435456
 753:Drivers/STM32G4xx_HAL_Driver/Src/stm32g4xx_hal_dac.c **** 
 599              	 .loc 1 753 42 view .LVU191
 600 00b2 DFF874C0 	 ldr ip,.L66+28
 601 00b6 C0F834C0 	 str ip,[r0,#52]
 756:Drivers/STM32G4xx_HAL_Driver/Src/stm32g4xx_hal_dac.c **** 
 602              	 .loc 1 756 5 is_stmt 1 view .LVU192
 603 00ba 2A60     	 str r2,[r5]
 759:Drivers/STM32G4xx_HAL_Driver/Src/stm32g4xx_hal_dac.c ****     {
 604              	 .loc 1 759 5 view .LVU193
 605 00bc E7B1     	 cbz r7,.L48
 606 00be 042F     	 cmp r7,#4
 607 00c0 14D1     	 bne .L64
 767:Drivers/STM32G4xx_HAL_Driver/Src/stm32g4xx_hal_dac.c ****         break;
 608              	 .loc 1 767 9 view .LVU194
 767:Drivers/STM32G4xx_HAL_Driver/Src/stm32g4xx_hal_dac.c ****         break;
 609              	 .loc 1 767 28 is_stmt 0 view .LVU195
 610 00c2 05F11802 	 add r2,r5,#24
 611              	.LVL36:
 768:Drivers/STM32G4xx_HAL_Driver/Src/stm32g4xx_hal_dac.c ****       default: /* case DAC_ALIGN_8B_R */
 612              	 .loc 1 768 9 is_stmt 1 view .LVU196
 776:Drivers/STM32G4xx_HAL_Driver/Src/stm32g4xx_hal_dac.c ****   {
 613              	 .loc 1 776 3 view .LVU197
 614              	.L51:
 788:Drivers/STM32G4xx_HAL_Driver/Src/stm32g4xx_hal_dac.c **** 
 615              	 .loc 1 788 5 view .LVU198
 616 00c6 2F68     	 ldr r7,[r5]
 617 00c8 47F00057 	 orr r7,r7,#536870912
 618 00cc 2F60     	 str r7,[r5]
 619              	.LVL37:
 791:Drivers/STM32G4xx_HAL_Driver/Src/stm32g4xx_hal_dac.c ****   }
 620              	 .loc 1 791 5 view .LVU199
 791:Drivers/STM32G4xx_HAL_Driver/Src/stm32g4xx_hal_dac.c ****   }
 621              	 .loc 1 791 14 is_stmt 0 view .LVU200
 622 00ce FFF7FEFF 	 bl HAL_DMA_Start_IT
 623              	.LVL38:
 796:Drivers/STM32G4xx_HAL_Driver/Src/stm32g4xx_hal_dac.c **** 
 624              	 .loc 1 796 3 is_stmt 1 view .LVU201
 796:Drivers/STM32G4xx_HAL_Driver/Src/stm32g4xx_hal_dac.c **** 
 625              	 .loc 1 796 3 view .LVU202
 626 00d2 0023     	 movs r3,#0
ARM GAS   			page 28


 627 00d4 6371     	 strb r3,[r4,#5]
 796:Drivers/STM32G4xx_HAL_Driver/Src/stm32g4xx_hal_dac.c **** 
 628              	 .loc 1 796 3 view .LVU203
 798:Drivers/STM32G4xx_HAL_Driver/Src/stm32g4xx_hal_dac.c ****   {
 629              	 .loc 1 798 3 view .LVU204
 798:Drivers/STM32G4xx_HAL_Driver/Src/stm32g4xx_hal_dac.c ****   {
 630              	 .loc 1 798 6 is_stmt 0 view .LVU205
 631 00d6 0028     	 cmp r0,#0
 632 00d8 C5D0     	 beq .L65
 633              	.LVL39:
 634              	.L53:
 815:Drivers/STM32G4xx_HAL_Driver/Src/stm32g4xx_hal_dac.c ****   }
 635              	 .loc 1 815 5 is_stmt 1 view .LVU206
 815:Drivers/STM32G4xx_HAL_Driver/Src/stm32g4xx_hal_dac.c ****   }
 636              	 .loc 1 815 9 is_stmt 0 view .LVU207
 637 00da 2369     	 ldr r3,[r4,#16]
 815:Drivers/STM32G4xx_HAL_Driver/Src/stm32g4xx_hal_dac.c ****   }
 638              	 .loc 1 815 21 view .LVU208
 639 00dc 43F00403 	 orr r3,r3,#4
 640 00e0 2361     	 str r3,[r4,#16]
 641              	 .loc 1 820 1 view .LVU209
 642 00e2 03B0     	 add sp,sp,#12
 643              	 .cfi_remember_state
 644              	 .cfi_def_cfa_offset 20
 645              	 
 646 00e4 F0BD     	 pop {r4,r5,r6,r7,pc}
 647              	.LVL40:
 648              	.L63:
 649              	 .cfi_restore_state
 739:Drivers/STM32G4xx_HAL_Driver/Src/stm32g4xx_hal_dac.c ****         break;
 650              	 .loc 1 739 9 is_stmt 1 view .LVU210
 739:Drivers/STM32G4xx_HAL_Driver/Src/stm32g4xx_hal_dac.c ****         break;
 651              	 .loc 1 739 28 is_stmt 0 view .LVU211
 652 00e6 05F11002 	 add r2,r5,#16
 653              	.LVL41:
 740:Drivers/STM32G4xx_HAL_Driver/Src/stm32g4xx_hal_dac.c ****     }
 654              	 .loc 1 740 9 is_stmt 1 view .LVU212
 776:Drivers/STM32G4xx_HAL_Driver/Src/stm32g4xx_hal_dac.c ****   {
 655              	 .loc 1 776 3 view .LVU213
 656 00ea B2E7     	 b .L47
 657              	.LVL42:
 658              	.L64:
 771:Drivers/STM32G4xx_HAL_Driver/Src/stm32g4xx_hal_dac.c ****         break;
 659              	 .loc 1 771 9 view .LVU214
 771:Drivers/STM32G4xx_HAL_Driver/Src/stm32g4xx_hal_dac.c ****         break;
 660              	 .loc 1 771 28 is_stmt 0 view .LVU215
 661 00ec 05F11C02 	 add r2,r5,#28
 662              	.LVL43:
 772:Drivers/STM32G4xx_HAL_Driver/Src/stm32g4xx_hal_dac.c ****     }
 663              	 .loc 1 772 9 is_stmt 1 view .LVU216
 776:Drivers/STM32G4xx_HAL_Driver/Src/stm32g4xx_hal_dac.c ****   {
 664              	 .loc 1 776 3 view .LVU217
 665 00f0 E9E7     	 b .L51
 666              	.LVL44:
 667              	.L56:
 699:Drivers/STM32G4xx_HAL_Driver/Src/stm32g4xx_hal_dac.c ****   }
 668              	 .loc 1 699 12 is_stmt 0 view .LVU218
ARM GAS   			page 29


 669 00f2 0120     	 movs r0,#1
 670              	.LVL45:
 671              	 .loc 1 820 1 view .LVU219
 672 00f4 03B0     	 add sp,sp,#12
 673              	 .cfi_remember_state
 674              	 .cfi_def_cfa_offset 20
 675              	 
 676 00f6 F0BD     	 pop {r4,r5,r6,r7,pc}
 677              	.LVL46:
 678              	.L48:
 679              	 .cfi_restore_state
 763:Drivers/STM32G4xx_HAL_Driver/Src/stm32g4xx_hal_dac.c ****         break;
 680              	 .loc 1 763 9 is_stmt 1 view .LVU220
 763:Drivers/STM32G4xx_HAL_Driver/Src/stm32g4xx_hal_dac.c ****         break;
 681              	 .loc 1 763 28 is_stmt 0 view .LVU221
 682 00f8 05F11402 	 add r2,r5,#20
 683              	.LVL47:
 764:Drivers/STM32G4xx_HAL_Driver/Src/stm32g4xx_hal_dac.c ****       case DAC_ALIGN_12B_L:
 684              	 .loc 1 764 9 is_stmt 1 view .LVU222
 776:Drivers/STM32G4xx_HAL_Driver/Src/stm32g4xx_hal_dac.c ****   {
 685              	 .loc 1 776 3 view .LVU223
 686 00fc E3E7     	 b .L51
 687              	.LVL48:
 688              	.L44:
 731:Drivers/STM32G4xx_HAL_Driver/Src/stm32g4xx_hal_dac.c ****         break;
 689              	 .loc 1 731 9 view .LVU224
 731:Drivers/STM32G4xx_HAL_Driver/Src/stm32g4xx_hal_dac.c ****         break;
 690              	 .loc 1 731 28 is_stmt 0 view .LVU225
 691 00fe 05F10802 	 add r2,r5,#8
 692              	.LVL49:
 732:Drivers/STM32G4xx_HAL_Driver/Src/stm32g4xx_hal_dac.c ****       case DAC_ALIGN_12B_L:
 693              	 .loc 1 732 9 is_stmt 1 view .LVU226
 776:Drivers/STM32G4xx_HAL_Driver/Src/stm32g4xx_hal_dac.c ****   {
 694              	 .loc 1 776 3 view .LVU227
 695 0102 A6E7     	 b .L47
 696              	.LVL50:
 697              	.L57:
 707:Drivers/STM32G4xx_HAL_Driver/Src/stm32g4xx_hal_dac.c **** 
 698              	 .loc 1 707 3 is_stmt 0 discriminator 1 view .LVU228
 699 0104 0220     	 movs r0,#2
 700              	.LVL51:
 701              	 .loc 1 820 1 view .LVU229
 702 0106 03B0     	 add sp,sp,#12
 703              	 .cfi_def_cfa_offset 20
 704              	 
 705 0108 F0BD     	 pop {r4,r5,r6,r7,pc}
 706              	.LVL52:
 707              	.L67:
 708              	 .loc 1 820 1 view .LVU230
 709 010a 00BF     	 .align 2
 710              	.L66:
 711 010c 00000000 	 .word SystemCoreClock
 712 0110 632D3E05 	 .word 87960931
 713 0114 00000000 	 .word DAC_DMAConvCpltCh1
 714 0118 00000000 	 .word DAC_DMAHalfConvCpltCh1
 715 011c 00000000 	 .word DAC_DMAErrorCh1
 716 0120 00000000 	 .word DAC_DMAConvCpltCh2
ARM GAS   			page 30


 717 0124 00000000 	 .word DAC_DMAHalfConvCpltCh2
 718 0128 00000000 	 .word DAC_DMAErrorCh2
 719              	 .cfi_endproc
 720              	.LFE367:
 722              	 .section .text.HAL_DAC_Stop_DMA,"ax",%progbits
 723              	 .align 1
 724              	 .p2align 2,,3
 725              	 .global HAL_DAC_Stop_DMA
 726              	 .syntax unified
 727              	 .thumb
 728              	 .thumb_func
 730              	HAL_DAC_Stop_DMA:
 731              	.LVL53:
 732              	.LFB368:
 821:Drivers/STM32G4xx_HAL_Driver/Src/stm32g4xx_hal_dac.c **** 
 822:Drivers/STM32G4xx_HAL_Driver/Src/stm32g4xx_hal_dac.c **** /**
 823:Drivers/STM32G4xx_HAL_Driver/Src/stm32g4xx_hal_dac.c ****   * @brief  Disables DAC and stop conversion of channel.
 824:Drivers/STM32G4xx_HAL_Driver/Src/stm32g4xx_hal_dac.c ****   * @param  hdac pointer to a DAC_HandleTypeDef structure that contains
 825:Drivers/STM32G4xx_HAL_Driver/Src/stm32g4xx_hal_dac.c ****   *         the configuration information for the specified DAC.
 826:Drivers/STM32G4xx_HAL_Driver/Src/stm32g4xx_hal_dac.c ****   * @param  Channel The selected DAC channel.
 827:Drivers/STM32G4xx_HAL_Driver/Src/stm32g4xx_hal_dac.c ****   *          This parameter can be one of the following values:
 828:Drivers/STM32G4xx_HAL_Driver/Src/stm32g4xx_hal_dac.c ****   *            @arg DAC_CHANNEL_1: DAC Channel1 selected
 829:Drivers/STM32G4xx_HAL_Driver/Src/stm32g4xx_hal_dac.c ****   *            @arg DAC_CHANNEL_2: DAC Channel2 selected (1)
 830:Drivers/STM32G4xx_HAL_Driver/Src/stm32g4xx_hal_dac.c ****   *
 831:Drivers/STM32G4xx_HAL_Driver/Src/stm32g4xx_hal_dac.c ****   *         (1) On this STM32 series, parameter not available on all instances.
 832:Drivers/STM32G4xx_HAL_Driver/Src/stm32g4xx_hal_dac.c ****   *             Refer to device datasheet for channels availability.
 833:Drivers/STM32G4xx_HAL_Driver/Src/stm32g4xx_hal_dac.c ****   * @retval HAL status
 834:Drivers/STM32G4xx_HAL_Driver/Src/stm32g4xx_hal_dac.c ****   */
 835:Drivers/STM32G4xx_HAL_Driver/Src/stm32g4xx_hal_dac.c **** HAL_StatusTypeDef HAL_DAC_Stop_DMA(DAC_HandleTypeDef *hdac, uint32_t Channel)
 836:Drivers/STM32G4xx_HAL_Driver/Src/stm32g4xx_hal_dac.c **** {
 733              	 .loc 1 836 1 is_stmt 1 view-0
 734              	 .cfi_startproc
 735              	 
 736              	 
 837:Drivers/STM32G4xx_HAL_Driver/Src/stm32g4xx_hal_dac.c ****   /* Check the DAC peripheral handle */
 838:Drivers/STM32G4xx_HAL_Driver/Src/stm32g4xx_hal_dac.c ****   if (hdac == NULL)
 737              	 .loc 1 838 3 view .LVU232
 738              	 .loc 1 838 6 is_stmt 0 view .LVU233
 739 0000 60B3     	 cbz r0,.L72
 839:Drivers/STM32G4xx_HAL_Driver/Src/stm32g4xx_hal_dac.c ****   {
 840:Drivers/STM32G4xx_HAL_Driver/Src/stm32g4xx_hal_dac.c ****     return HAL_ERROR;
 841:Drivers/STM32G4xx_HAL_Driver/Src/stm32g4xx_hal_dac.c ****   }
 842:Drivers/STM32G4xx_HAL_Driver/Src/stm32g4xx_hal_dac.c **** 
 843:Drivers/STM32G4xx_HAL_Driver/Src/stm32g4xx_hal_dac.c ****   /* Check the parameters */
 844:Drivers/STM32G4xx_HAL_Driver/Src/stm32g4xx_hal_dac.c ****   assert_param(IS_DAC_CHANNEL(hdac->Instance, Channel));
 740              	 .loc 1 844 3 is_stmt 1 view .LVU234
 845:Drivers/STM32G4xx_HAL_Driver/Src/stm32g4xx_hal_dac.c **** 
 846:Drivers/STM32G4xx_HAL_Driver/Src/stm32g4xx_hal_dac.c ****   /* Disable the selected DAC channel DMA request */
 847:Drivers/STM32G4xx_HAL_Driver/Src/stm32g4xx_hal_dac.c ****   hdac->Instance->CR &= ~(DAC_CR_DMAEN1 << (Channel & 0x10UL));
 741              	 .loc 1 847 3 view .LVU235
 742              	 .loc 1 847 7 is_stmt 0 view .LVU236
 743 0002 0368     	 ldr r3,[r0]
 836:Drivers/STM32G4xx_HAL_Driver/Src/stm32g4xx_hal_dac.c ****   /* Check the DAC peripheral handle */
 744              	 .loc 1 836 1 view .LVU237
 745 0004 10B5     	 push {r4,lr}
 746              	 .cfi_def_cfa_offset 8
 747              	 .cfi_offset 4,-8
ARM GAS   			page 31


 748              	 .cfi_offset 14,-4
 749              	 .loc 1 847 17 view .LVU238
 750 0006 1A68     	 ldr r2,[r3]
 751              	 .loc 1 847 53 view .LVU239
 752 0008 01F0100C 	 and ip,r1,#16
 753 000c 0446     	 mov r4,r0
 754              	 .loc 1 847 41 view .LVU240
 755 000e 4FF48050 	 mov r0,#4096
 756              	.LVL54:
 757              	 .loc 1 847 41 view .LVU241
 758 0012 00FA0CF0 	 lsl r0,r0,ip
 759              	 .loc 1 847 22 view .LVU242
 760 0016 22EA0002 	 bic r2,r2,r0
 761 001a 1A60     	 str r2,[r3]
 848:Drivers/STM32G4xx_HAL_Driver/Src/stm32g4xx_hal_dac.c **** 
 849:Drivers/STM32G4xx_HAL_Driver/Src/stm32g4xx_hal_dac.c ****   /* Disable the Peripheral */
 850:Drivers/STM32G4xx_HAL_Driver/Src/stm32g4xx_hal_dac.c ****   __HAL_DAC_DISABLE(hdac, Channel);
 762              	 .loc 1 850 3 is_stmt 1 view .LVU243
 763 001c 1A68     	 ldr r2,[r3]
 764 001e 0120     	 movs r0,#1
 765 0020 00FA0CF0 	 lsl r0,r0,ip
 766 0024 22EA0002 	 bic r2,r2,r0
 767 0028 1A60     	 str r2,[r3]
 851:Drivers/STM32G4xx_HAL_Driver/Src/stm32g4xx_hal_dac.c **** 
 852:Drivers/STM32G4xx_HAL_Driver/Src/stm32g4xx_hal_dac.c ****   /* Disable the DMA channel */
 853:Drivers/STM32G4xx_HAL_Driver/Src/stm32g4xx_hal_dac.c **** 
 854:Drivers/STM32G4xx_HAL_Driver/Src/stm32g4xx_hal_dac.c ****   /* Channel1 is used */
 855:Drivers/STM32G4xx_HAL_Driver/Src/stm32g4xx_hal_dac.c ****   if (Channel == DAC_CHANNEL_1)
 768              	 .loc 1 855 3 view .LVU244
 769              	 .loc 1 855 6 is_stmt 0 view .LVU245
 770 002a 59B1     	 cbz r1,.L77
 856:Drivers/STM32G4xx_HAL_Driver/Src/stm32g4xx_hal_dac.c ****   {
 857:Drivers/STM32G4xx_HAL_Driver/Src/stm32g4xx_hal_dac.c ****     /* Disable the DMA channel */
 858:Drivers/STM32G4xx_HAL_Driver/Src/stm32g4xx_hal_dac.c ****     (void)HAL_DMA_Abort(hdac->DMA_Handle1);
 859:Drivers/STM32G4xx_HAL_Driver/Src/stm32g4xx_hal_dac.c **** 
 860:Drivers/STM32G4xx_HAL_Driver/Src/stm32g4xx_hal_dac.c ****     /* Disable the DAC DMA underrun interrupt */
 861:Drivers/STM32G4xx_HAL_Driver/Src/stm32g4xx_hal_dac.c ****     __HAL_DAC_DISABLE_IT(hdac, DAC_IT_DMAUDR1);
 862:Drivers/STM32G4xx_HAL_Driver/Src/stm32g4xx_hal_dac.c ****   }
 863:Drivers/STM32G4xx_HAL_Driver/Src/stm32g4xx_hal_dac.c **** 
 864:Drivers/STM32G4xx_HAL_Driver/Src/stm32g4xx_hal_dac.c ****   else /* Channel2 is used for */
 865:Drivers/STM32G4xx_HAL_Driver/Src/stm32g4xx_hal_dac.c ****   {
 866:Drivers/STM32G4xx_HAL_Driver/Src/stm32g4xx_hal_dac.c ****     /* Disable the DMA channel */
 867:Drivers/STM32G4xx_HAL_Driver/Src/stm32g4xx_hal_dac.c ****     (void)HAL_DMA_Abort(hdac->DMA_Handle2);
 771              	 .loc 1 867 5 is_stmt 1 view .LVU246
 772              	 .loc 1 867 11 is_stmt 0 view .LVU247
 773 002c E068     	 ldr r0,[r4,#12]
 774 002e FFF7FEFF 	 bl HAL_DMA_Abort
 775              	.LVL55:
 868:Drivers/STM32G4xx_HAL_Driver/Src/stm32g4xx_hal_dac.c **** 
 869:Drivers/STM32G4xx_HAL_Driver/Src/stm32g4xx_hal_dac.c ****     /* Disable the DAC DMA underrun interrupt */
 870:Drivers/STM32G4xx_HAL_Driver/Src/stm32g4xx_hal_dac.c ****     __HAL_DAC_DISABLE_IT(hdac, DAC_IT_DMAUDR2);
 776              	 .loc 1 870 5 is_stmt 1 view .LVU248
 777 0032 2268     	 ldr r2,[r4]
 778 0034 1368     	 ldr r3,[r2]
 779 0036 23F00053 	 bic r3,r3,#536870912
 780 003a 1360     	 str r3,[r2]
 871:Drivers/STM32G4xx_HAL_Driver/Src/stm32g4xx_hal_dac.c ****   }
ARM GAS   			page 32


 872:Drivers/STM32G4xx_HAL_Driver/Src/stm32g4xx_hal_dac.c **** 
 873:Drivers/STM32G4xx_HAL_Driver/Src/stm32g4xx_hal_dac.c **** 
 874:Drivers/STM32G4xx_HAL_Driver/Src/stm32g4xx_hal_dac.c ****   /* Change DAC state */
 875:Drivers/STM32G4xx_HAL_Driver/Src/stm32g4xx_hal_dac.c ****   hdac->State = HAL_DAC_STATE_READY;
 781              	 .loc 1 875 3 view .LVU249
 782              	 .loc 1 875 15 is_stmt 0 view .LVU250
 783 003c 0123     	 movs r3,#1
 784 003e 2371     	 strb r3,[r4,#4]
 876:Drivers/STM32G4xx_HAL_Driver/Src/stm32g4xx_hal_dac.c **** 
 877:Drivers/STM32G4xx_HAL_Driver/Src/stm32g4xx_hal_dac.c ****   /* Return function status */
 878:Drivers/STM32G4xx_HAL_Driver/Src/stm32g4xx_hal_dac.c ****   return HAL_OK;
 785              	 .loc 1 878 3 is_stmt 1 view .LVU251
 786              	 .loc 1 878 10 is_stmt 0 view .LVU252
 787 0040 0020     	 movs r0,#0
 879:Drivers/STM32G4xx_HAL_Driver/Src/stm32g4xx_hal_dac.c **** }
 788              	 .loc 1 879 1 view .LVU253
 789 0042 10BD     	 pop {r4,pc}
 790              	.LVL56:
 791              	.L77:
 858:Drivers/STM32G4xx_HAL_Driver/Src/stm32g4xx_hal_dac.c **** 
 792              	 .loc 1 858 5 is_stmt 1 view .LVU254
 858:Drivers/STM32G4xx_HAL_Driver/Src/stm32g4xx_hal_dac.c **** 
 793              	 .loc 1 858 11 is_stmt 0 view .LVU255
 794 0044 A068     	 ldr r0,[r4,#8]
 795 0046 FFF7FEFF 	 bl HAL_DMA_Abort
 796              	.LVL57:
 861:Drivers/STM32G4xx_HAL_Driver/Src/stm32g4xx_hal_dac.c ****   }
 797              	 .loc 1 861 5 is_stmt 1 view .LVU256
 798 004a 2268     	 ldr r2,[r4]
 799 004c 1368     	 ldr r3,[r2]
 800 004e 23F40053 	 bic r3,r3,#8192
 801 0052 1360     	 str r3,[r2]
 875:Drivers/STM32G4xx_HAL_Driver/Src/stm32g4xx_hal_dac.c **** 
 802              	 .loc 1 875 3 view .LVU257
 875:Drivers/STM32G4xx_HAL_Driver/Src/stm32g4xx_hal_dac.c **** 
 803              	 .loc 1 875 15 is_stmt 0 view .LVU258
 804 0054 0123     	 movs r3,#1
 805 0056 2371     	 strb r3,[r4,#4]
 878:Drivers/STM32G4xx_HAL_Driver/Src/stm32g4xx_hal_dac.c **** }
 806              	 .loc 1 878 3 is_stmt 1 view .LVU259
 878:Drivers/STM32G4xx_HAL_Driver/Src/stm32g4xx_hal_dac.c **** }
 807              	 .loc 1 878 10 is_stmt 0 view .LVU260
 808 0058 0020     	 movs r0,#0
 809              	 .loc 1 879 1 view .LVU261
 810 005a 10BD     	 pop {r4,pc}
 811              	.LVL58:
 812              	.L72:
 813              	 .cfi_def_cfa_offset 0
 814              	 .cfi_restore 4
 815              	 .cfi_restore 14
 840:Drivers/STM32G4xx_HAL_Driver/Src/stm32g4xx_hal_dac.c ****   }
 816              	 .loc 1 840 12 view .LVU262
 817 005c 0120     	 movs r0,#1
 818              	.LVL59:
 819              	 .loc 1 879 1 view .LVU263
 820 005e 7047     	 bx lr
 821              	 .cfi_endproc
ARM GAS   			page 33


 822              	.LFE368:
 824              	 .section .text.HAL_DAC_SetValue,"ax",%progbits
 825              	 .align 1
 826              	 .p2align 2,,3
 827              	 .global HAL_DAC_SetValue
 828              	 .syntax unified
 829              	 .thumb
 830              	 .thumb_func
 832              	HAL_DAC_SetValue:
 833              	.LVL60:
 834              	.LFB370:
 880:Drivers/STM32G4xx_HAL_Driver/Src/stm32g4xx_hal_dac.c **** 
 881:Drivers/STM32G4xx_HAL_Driver/Src/stm32g4xx_hal_dac.c **** /**
 882:Drivers/STM32G4xx_HAL_Driver/Src/stm32g4xx_hal_dac.c ****   * @brief  Handles DAC interrupt request
 883:Drivers/STM32G4xx_HAL_Driver/Src/stm32g4xx_hal_dac.c ****   *         This function uses the interruption of DMA
 884:Drivers/STM32G4xx_HAL_Driver/Src/stm32g4xx_hal_dac.c ****   *         underrun.
 885:Drivers/STM32G4xx_HAL_Driver/Src/stm32g4xx_hal_dac.c ****   * @param  hdac pointer to a DAC_HandleTypeDef structure that contains
 886:Drivers/STM32G4xx_HAL_Driver/Src/stm32g4xx_hal_dac.c ****   *         the configuration information for the specified DAC.
 887:Drivers/STM32G4xx_HAL_Driver/Src/stm32g4xx_hal_dac.c ****   * @retval None
 888:Drivers/STM32G4xx_HAL_Driver/Src/stm32g4xx_hal_dac.c ****   */
 889:Drivers/STM32G4xx_HAL_Driver/Src/stm32g4xx_hal_dac.c **** void HAL_DAC_IRQHandler(DAC_HandleTypeDef *hdac)
 890:Drivers/STM32G4xx_HAL_Driver/Src/stm32g4xx_hal_dac.c **** {
 891:Drivers/STM32G4xx_HAL_Driver/Src/stm32g4xx_hal_dac.c ****   uint32_t itsource = hdac->Instance->CR;
 892:Drivers/STM32G4xx_HAL_Driver/Src/stm32g4xx_hal_dac.c ****   uint32_t itflag   = hdac->Instance->SR;
 893:Drivers/STM32G4xx_HAL_Driver/Src/stm32g4xx_hal_dac.c **** 
 894:Drivers/STM32G4xx_HAL_Driver/Src/stm32g4xx_hal_dac.c ****   if ((itsource & DAC_IT_DMAUDR1) == DAC_IT_DMAUDR1)
 895:Drivers/STM32G4xx_HAL_Driver/Src/stm32g4xx_hal_dac.c ****   {
 896:Drivers/STM32G4xx_HAL_Driver/Src/stm32g4xx_hal_dac.c ****     /* Check underrun flag of DAC channel 1 */
 897:Drivers/STM32G4xx_HAL_Driver/Src/stm32g4xx_hal_dac.c ****     if ((itflag & DAC_FLAG_DMAUDR1) == DAC_FLAG_DMAUDR1)
 898:Drivers/STM32G4xx_HAL_Driver/Src/stm32g4xx_hal_dac.c ****     {
 899:Drivers/STM32G4xx_HAL_Driver/Src/stm32g4xx_hal_dac.c ****       /* Change DAC state to error state */
 900:Drivers/STM32G4xx_HAL_Driver/Src/stm32g4xx_hal_dac.c ****       hdac->State = HAL_DAC_STATE_ERROR;
 901:Drivers/STM32G4xx_HAL_Driver/Src/stm32g4xx_hal_dac.c **** 
 902:Drivers/STM32G4xx_HAL_Driver/Src/stm32g4xx_hal_dac.c ****       /* Set DAC error code to channel1 DMA underrun error */
 903:Drivers/STM32G4xx_HAL_Driver/Src/stm32g4xx_hal_dac.c ****       SET_BIT(hdac->ErrorCode, HAL_DAC_ERROR_DMAUNDERRUNCH1);
 904:Drivers/STM32G4xx_HAL_Driver/Src/stm32g4xx_hal_dac.c **** 
 905:Drivers/STM32G4xx_HAL_Driver/Src/stm32g4xx_hal_dac.c ****       /* Clear the underrun flag */
 906:Drivers/STM32G4xx_HAL_Driver/Src/stm32g4xx_hal_dac.c ****       __HAL_DAC_CLEAR_FLAG(hdac, DAC_FLAG_DMAUDR1);
 907:Drivers/STM32G4xx_HAL_Driver/Src/stm32g4xx_hal_dac.c **** 
 908:Drivers/STM32G4xx_HAL_Driver/Src/stm32g4xx_hal_dac.c ****       /* Disable the selected DAC channel1 DMA request */
 909:Drivers/STM32G4xx_HAL_Driver/Src/stm32g4xx_hal_dac.c ****       __HAL_DAC_DISABLE_IT(hdac, DAC_CR_DMAEN1);
 910:Drivers/STM32G4xx_HAL_Driver/Src/stm32g4xx_hal_dac.c **** 
 911:Drivers/STM32G4xx_HAL_Driver/Src/stm32g4xx_hal_dac.c ****       /* Error callback */
 912:Drivers/STM32G4xx_HAL_Driver/Src/stm32g4xx_hal_dac.c **** #if (USE_HAL_DAC_REGISTER_CALLBACKS == 1)
 913:Drivers/STM32G4xx_HAL_Driver/Src/stm32g4xx_hal_dac.c ****       hdac->DMAUnderrunCallbackCh1(hdac);
 914:Drivers/STM32G4xx_HAL_Driver/Src/stm32g4xx_hal_dac.c **** #else
 915:Drivers/STM32G4xx_HAL_Driver/Src/stm32g4xx_hal_dac.c ****       HAL_DAC_DMAUnderrunCallbackCh1(hdac);
 916:Drivers/STM32G4xx_HAL_Driver/Src/stm32g4xx_hal_dac.c **** #endif /* USE_HAL_DAC_REGISTER_CALLBACKS */
 917:Drivers/STM32G4xx_HAL_Driver/Src/stm32g4xx_hal_dac.c ****     }
 918:Drivers/STM32G4xx_HAL_Driver/Src/stm32g4xx_hal_dac.c ****   }
 919:Drivers/STM32G4xx_HAL_Driver/Src/stm32g4xx_hal_dac.c **** 
 920:Drivers/STM32G4xx_HAL_Driver/Src/stm32g4xx_hal_dac.c **** 
 921:Drivers/STM32G4xx_HAL_Driver/Src/stm32g4xx_hal_dac.c ****   if ((itsource & DAC_IT_DMAUDR2) == DAC_IT_DMAUDR2)
 922:Drivers/STM32G4xx_HAL_Driver/Src/stm32g4xx_hal_dac.c ****   {
 923:Drivers/STM32G4xx_HAL_Driver/Src/stm32g4xx_hal_dac.c ****     /* Check underrun flag of DAC channel 2 */
 924:Drivers/STM32G4xx_HAL_Driver/Src/stm32g4xx_hal_dac.c ****     if ((itflag & DAC_FLAG_DMAUDR2) == DAC_FLAG_DMAUDR2)
 925:Drivers/STM32G4xx_HAL_Driver/Src/stm32g4xx_hal_dac.c ****     {
ARM GAS   			page 34


 926:Drivers/STM32G4xx_HAL_Driver/Src/stm32g4xx_hal_dac.c ****       /* Change DAC state to error state */
 927:Drivers/STM32G4xx_HAL_Driver/Src/stm32g4xx_hal_dac.c ****       hdac->State = HAL_DAC_STATE_ERROR;
 928:Drivers/STM32G4xx_HAL_Driver/Src/stm32g4xx_hal_dac.c **** 
 929:Drivers/STM32G4xx_HAL_Driver/Src/stm32g4xx_hal_dac.c ****       /* Set DAC error code to channel2 DMA underrun error */
 930:Drivers/STM32G4xx_HAL_Driver/Src/stm32g4xx_hal_dac.c ****       SET_BIT(hdac->ErrorCode, HAL_DAC_ERROR_DMAUNDERRUNCH2);
 931:Drivers/STM32G4xx_HAL_Driver/Src/stm32g4xx_hal_dac.c **** 
 932:Drivers/STM32G4xx_HAL_Driver/Src/stm32g4xx_hal_dac.c ****       /* Clear the underrun flag */
 933:Drivers/STM32G4xx_HAL_Driver/Src/stm32g4xx_hal_dac.c ****       __HAL_DAC_CLEAR_FLAG(hdac, DAC_FLAG_DMAUDR2);
 934:Drivers/STM32G4xx_HAL_Driver/Src/stm32g4xx_hal_dac.c **** 
 935:Drivers/STM32G4xx_HAL_Driver/Src/stm32g4xx_hal_dac.c ****       /* Disable the selected DAC channel2 DMA request */
 936:Drivers/STM32G4xx_HAL_Driver/Src/stm32g4xx_hal_dac.c ****       __HAL_DAC_DISABLE_IT(hdac, DAC_CR_DMAEN2);
 937:Drivers/STM32G4xx_HAL_Driver/Src/stm32g4xx_hal_dac.c **** 
 938:Drivers/STM32G4xx_HAL_Driver/Src/stm32g4xx_hal_dac.c ****       /* Error callback */
 939:Drivers/STM32G4xx_HAL_Driver/Src/stm32g4xx_hal_dac.c **** #if (USE_HAL_DAC_REGISTER_CALLBACKS == 1)
 940:Drivers/STM32G4xx_HAL_Driver/Src/stm32g4xx_hal_dac.c ****       hdac->DMAUnderrunCallbackCh2(hdac);
 941:Drivers/STM32G4xx_HAL_Driver/Src/stm32g4xx_hal_dac.c **** #else
 942:Drivers/STM32G4xx_HAL_Driver/Src/stm32g4xx_hal_dac.c ****       HAL_DACEx_DMAUnderrunCallbackCh2(hdac);
 943:Drivers/STM32G4xx_HAL_Driver/Src/stm32g4xx_hal_dac.c **** #endif /* USE_HAL_DAC_REGISTER_CALLBACKS */
 944:Drivers/STM32G4xx_HAL_Driver/Src/stm32g4xx_hal_dac.c ****     }
 945:Drivers/STM32G4xx_HAL_Driver/Src/stm32g4xx_hal_dac.c ****   }
 946:Drivers/STM32G4xx_HAL_Driver/Src/stm32g4xx_hal_dac.c **** 
 947:Drivers/STM32G4xx_HAL_Driver/Src/stm32g4xx_hal_dac.c **** }
 948:Drivers/STM32G4xx_HAL_Driver/Src/stm32g4xx_hal_dac.c **** 
 949:Drivers/STM32G4xx_HAL_Driver/Src/stm32g4xx_hal_dac.c **** /**
 950:Drivers/STM32G4xx_HAL_Driver/Src/stm32g4xx_hal_dac.c ****   * @brief  Set the specified data holding register value for DAC channel.
 951:Drivers/STM32G4xx_HAL_Driver/Src/stm32g4xx_hal_dac.c ****   * @param  hdac pointer to a DAC_HandleTypeDef structure that contains
 952:Drivers/STM32G4xx_HAL_Driver/Src/stm32g4xx_hal_dac.c ****   *         the configuration information for the specified DAC.
 953:Drivers/STM32G4xx_HAL_Driver/Src/stm32g4xx_hal_dac.c ****   * @param  Channel The selected DAC channel.
 954:Drivers/STM32G4xx_HAL_Driver/Src/stm32g4xx_hal_dac.c ****   *          This parameter can be one of the following values:
 955:Drivers/STM32G4xx_HAL_Driver/Src/stm32g4xx_hal_dac.c ****   *            @arg DAC_CHANNEL_1: DAC Channel1 selected
 956:Drivers/STM32G4xx_HAL_Driver/Src/stm32g4xx_hal_dac.c ****   *            @arg DAC_CHANNEL_2: DAC Channel2 selected (1)
 957:Drivers/STM32G4xx_HAL_Driver/Src/stm32g4xx_hal_dac.c ****   *
 958:Drivers/STM32G4xx_HAL_Driver/Src/stm32g4xx_hal_dac.c ****   *         (1) On this STM32 series, parameter not available on all instances.
 959:Drivers/STM32G4xx_HAL_Driver/Src/stm32g4xx_hal_dac.c ****   *             Refer to device datasheet for channels availability.
 960:Drivers/STM32G4xx_HAL_Driver/Src/stm32g4xx_hal_dac.c ****   * @param  Alignment Specifies the data alignment.
 961:Drivers/STM32G4xx_HAL_Driver/Src/stm32g4xx_hal_dac.c ****   *          This parameter can be one of the following values:
 962:Drivers/STM32G4xx_HAL_Driver/Src/stm32g4xx_hal_dac.c ****   *            @arg DAC_ALIGN_8B_R: 8bit right data alignment selected
 963:Drivers/STM32G4xx_HAL_Driver/Src/stm32g4xx_hal_dac.c ****   *            @arg DAC_ALIGN_12B_L: 12bit left data alignment selected
 964:Drivers/STM32G4xx_HAL_Driver/Src/stm32g4xx_hal_dac.c ****   *            @arg DAC_ALIGN_12B_R: 12bit right data alignment selected
 965:Drivers/STM32G4xx_HAL_Driver/Src/stm32g4xx_hal_dac.c ****   * @param  Data Data to be loaded in the selected data holding register.
 966:Drivers/STM32G4xx_HAL_Driver/Src/stm32g4xx_hal_dac.c ****   * @retval HAL status
 967:Drivers/STM32G4xx_HAL_Driver/Src/stm32g4xx_hal_dac.c ****   */
 968:Drivers/STM32G4xx_HAL_Driver/Src/stm32g4xx_hal_dac.c **** HAL_StatusTypeDef HAL_DAC_SetValue(DAC_HandleTypeDef *hdac, uint32_t Channel, uint32_t Alignment, u
 969:Drivers/STM32G4xx_HAL_Driver/Src/stm32g4xx_hal_dac.c **** {
 835              	 .loc 1 969 1 is_stmt 1 view-0
 836              	 .cfi_startproc
 837              	 
 838              	 
 839              	 
 970:Drivers/STM32G4xx_HAL_Driver/Src/stm32g4xx_hal_dac.c ****   __IO uint32_t tmp = 0UL;
 840              	 .loc 1 970 3 view .LVU265
 969:Drivers/STM32G4xx_HAL_Driver/Src/stm32g4xx_hal_dac.c ****   __IO uint32_t tmp = 0UL;
 841              	 .loc 1 969 1 is_stmt 0 view .LVU266
 842 0000 10B4     	 push {r4}
 843              	 .cfi_def_cfa_offset 4
 844              	 .cfi_offset 4,-4
 845 0002 83B0     	 sub sp,sp,#12
ARM GAS   			page 35


 846              	 .cfi_def_cfa_offset 16
 847              	 .loc 1 970 17 view .LVU267
 848 0004 0024     	 movs r4,#0
 849 0006 0194     	 str r4,[sp,#4]
 971:Drivers/STM32G4xx_HAL_Driver/Src/stm32g4xx_hal_dac.c **** 
 972:Drivers/STM32G4xx_HAL_Driver/Src/stm32g4xx_hal_dac.c ****   /* Check the DAC peripheral handle */
 973:Drivers/STM32G4xx_HAL_Driver/Src/stm32g4xx_hal_dac.c ****   if (hdac == NULL)
 850              	 .loc 1 973 3 is_stmt 1 view .LVU268
 851              	 .loc 1 973 6 is_stmt 0 view .LVU269
 852 0008 98B1     	 cbz r0,.L82
 974:Drivers/STM32G4xx_HAL_Driver/Src/stm32g4xx_hal_dac.c ****   {
 975:Drivers/STM32G4xx_HAL_Driver/Src/stm32g4xx_hal_dac.c ****     return HAL_ERROR;
 976:Drivers/STM32G4xx_HAL_Driver/Src/stm32g4xx_hal_dac.c ****   }
 977:Drivers/STM32G4xx_HAL_Driver/Src/stm32g4xx_hal_dac.c **** 
 978:Drivers/STM32G4xx_HAL_Driver/Src/stm32g4xx_hal_dac.c ****   /* Check the parameters */
 979:Drivers/STM32G4xx_HAL_Driver/Src/stm32g4xx_hal_dac.c ****   assert_param(IS_DAC_CHANNEL(hdac->Instance, Channel));
 853              	 .loc 1 979 3 is_stmt 1 view .LVU270
 980:Drivers/STM32G4xx_HAL_Driver/Src/stm32g4xx_hal_dac.c ****   assert_param(IS_DAC_ALIGN(Alignment));
 854              	 .loc 1 980 3 view .LVU271
 981:Drivers/STM32G4xx_HAL_Driver/Src/stm32g4xx_hal_dac.c ****   /* In case DMA Double data mode is activated, DATA range is almost full uin32_t one: no check */
 982:Drivers/STM32G4xx_HAL_Driver/Src/stm32g4xx_hal_dac.c ****   if ((hdac->Instance->MCR & (DAC_MCR_DMADOUBLE1 << (Channel & 0x10UL))) == 0UL)
 855              	 .loc 1 982 3 view .LVU272
 856              	 .loc 1 982 12 is_stmt 0 view .LVU273
 857 000a 0068     	 ldr r0,[r0]
 858              	.LVL61:
 859              	 .loc 1 982 22 view .LVU274
 860 000c C46B     	 ldr r4,[r0,#60]
 983:Drivers/STM32G4xx_HAL_Driver/Src/stm32g4xx_hal_dac.c ****   {
 984:Drivers/STM32G4xx_HAL_Driver/Src/stm32g4xx_hal_dac.c ****     assert_param(IS_DAC_DATA(Data));
 861              	 .loc 1 984 5 is_stmt 1 view .LVU275
 985:Drivers/STM32G4xx_HAL_Driver/Src/stm32g4xx_hal_dac.c ****   }
 986:Drivers/STM32G4xx_HAL_Driver/Src/stm32g4xx_hal_dac.c **** 
 987:Drivers/STM32G4xx_HAL_Driver/Src/stm32g4xx_hal_dac.c ****   tmp = (uint32_t)hdac->Instance;
 862              	 .loc 1 987 3 view .LVU276
 863              	 .loc 1 987 7 is_stmt 0 view .LVU277
 864 000e 0190     	 str r0,[sp,#4]
 988:Drivers/STM32G4xx_HAL_Driver/Src/stm32g4xx_hal_dac.c ****   if (Channel == DAC_CHANNEL_1)
 865              	 .loc 1 988 3 is_stmt 1 view .LVU278
 866              	 .loc 1 988 6 is_stmt 0 view .LVU279
 867 0010 51B1     	 cbz r1,.L84
 989:Drivers/STM32G4xx_HAL_Driver/Src/stm32g4xx_hal_dac.c ****   {
 990:Drivers/STM32G4xx_HAL_Driver/Src/stm32g4xx_hal_dac.c ****     tmp += DAC_DHR12R1_ALIGNMENT(Alignment);
 991:Drivers/STM32G4xx_HAL_Driver/Src/stm32g4xx_hal_dac.c ****   }
 992:Drivers/STM32G4xx_HAL_Driver/Src/stm32g4xx_hal_dac.c **** 
 993:Drivers/STM32G4xx_HAL_Driver/Src/stm32g4xx_hal_dac.c ****   else
 994:Drivers/STM32G4xx_HAL_Driver/Src/stm32g4xx_hal_dac.c ****   {
 995:Drivers/STM32G4xx_HAL_Driver/Src/stm32g4xx_hal_dac.c ****     tmp += DAC_DHR12R2_ALIGNMENT(Alignment);
 868              	 .loc 1 995 5 is_stmt 1 view .LVU280
 869              	 .loc 1 995 9 is_stmt 0 view .LVU281
 870 0012 0199     	 ldr r1,[sp,#4]
 871              	.LVL62:
 872              	 .loc 1 995 9 view .LVU282
 873 0014 1431     	 adds r1,r1,#20
 874 0016 0A44     	 add r2,r2,r1
 875              	.LVL63:
 876              	 .loc 1 995 9 view .LVU283
 877 0018 0192     	 str r2,[sp,#4]
ARM GAS   			page 36


 878              	.L81:
 996:Drivers/STM32G4xx_HAL_Driver/Src/stm32g4xx_hal_dac.c ****   }
 997:Drivers/STM32G4xx_HAL_Driver/Src/stm32g4xx_hal_dac.c **** 
 998:Drivers/STM32G4xx_HAL_Driver/Src/stm32g4xx_hal_dac.c **** 
 999:Drivers/STM32G4xx_HAL_Driver/Src/stm32g4xx_hal_dac.c ****   /* Set the DAC channel selected data holding register */
1000:Drivers/STM32G4xx_HAL_Driver/Src/stm32g4xx_hal_dac.c ****   *(__IO uint32_t *) tmp = Data;
 879              	 .loc 1 1000 3 is_stmt 1 view .LVU284
 880              	 .loc 1 1000 4 is_stmt 0 view .LVU285
 881 001a 019A     	 ldr r2,[sp,#4]
1001:Drivers/STM32G4xx_HAL_Driver/Src/stm32g4xx_hal_dac.c **** 
1002:Drivers/STM32G4xx_HAL_Driver/Src/stm32g4xx_hal_dac.c ****   /* Return function status */
1003:Drivers/STM32G4xx_HAL_Driver/Src/stm32g4xx_hal_dac.c ****   return HAL_OK;
 882              	 .loc 1 1003 10 view .LVU286
 883 001c 0020     	 movs r0,#0
1000:Drivers/STM32G4xx_HAL_Driver/Src/stm32g4xx_hal_dac.c **** 
 884              	 .loc 1 1000 26 view .LVU287
 885 001e 1360     	 str r3,[r2]
 886              	 .loc 1 1003 3 is_stmt 1 view .LVU288
1004:Drivers/STM32G4xx_HAL_Driver/Src/stm32g4xx_hal_dac.c **** }
 887              	 .loc 1 1004 1 is_stmt 0 view .LVU289
 888 0020 03B0     	 add sp,sp,#12
 889              	 .cfi_remember_state
 890              	 .cfi_def_cfa_offset 4
 891              	 
 892 0022 5DF8044B 	 ldr r4,[sp],#4
 893              	 .cfi_restore 4
 894              	 .cfi_def_cfa_offset 0
 895 0026 7047     	 bx lr
 896              	.LVL64:
 897              	.L84:
 898              	 .cfi_restore_state
 990:Drivers/STM32G4xx_HAL_Driver/Src/stm32g4xx_hal_dac.c ****   }
 899              	 .loc 1 990 5 is_stmt 1 view .LVU290
 990:Drivers/STM32G4xx_HAL_Driver/Src/stm32g4xx_hal_dac.c ****   }
 900              	 .loc 1 990 9 is_stmt 0 view .LVU291
 901 0028 0199     	 ldr r1,[sp,#4]
 902              	.LVL65:
 990:Drivers/STM32G4xx_HAL_Driver/Src/stm32g4xx_hal_dac.c ****   }
 903              	 .loc 1 990 9 view .LVU292
 904 002a 0831     	 adds r1,r1,#8
 905 002c 0A44     	 add r2,r2,r1
 906              	.LVL66:
 990:Drivers/STM32G4xx_HAL_Driver/Src/stm32g4xx_hal_dac.c ****   }
 907              	 .loc 1 990 9 view .LVU293
 908 002e 0192     	 str r2,[sp,#4]
 909 0030 F3E7     	 b .L81
 910              	.LVL67:
 911              	.L82:
 975:Drivers/STM32G4xx_HAL_Driver/Src/stm32g4xx_hal_dac.c ****   }
 912              	 .loc 1 975 12 view .LVU294
 913 0032 0120     	 movs r0,#1
 914              	.LVL68:
 915              	 .loc 1 1004 1 view .LVU295
 916 0034 03B0     	 add sp,sp,#12
 917              	 .cfi_def_cfa_offset 4
 918              	 
 919 0036 5DF8044B 	 ldr r4,[sp],#4
ARM GAS   			page 37


 920              	 .cfi_restore 4
 921              	 .cfi_def_cfa_offset 0
 922 003a 7047     	 bx lr
 923              	 .cfi_endproc
 924              	.LFE370:
 926              	 .section .text.HAL_DAC_ConvCpltCallbackCh1,"ax",%progbits
 927              	 .align 1
 928              	 .p2align 2,,3
 929              	 .weak HAL_DAC_ConvCpltCallbackCh1
 930              	 .syntax unified
 931              	 .thumb
 932              	 .thumb_func
 934              	HAL_DAC_ConvCpltCallbackCh1:
 935              	.LFB385:
 936              	 .cfi_startproc
1005:Drivers/STM32G4xx_HAL_Driver/Src/stm32g4xx_hal_dac.c **** 
1006:Drivers/STM32G4xx_HAL_Driver/Src/stm32g4xx_hal_dac.c **** /**
1007:Drivers/STM32G4xx_HAL_Driver/Src/stm32g4xx_hal_dac.c ****   * @brief  Conversion complete callback in non-blocking mode for Channel1
1008:Drivers/STM32G4xx_HAL_Driver/Src/stm32g4xx_hal_dac.c ****   * @param  hdac pointer to a DAC_HandleTypeDef structure that contains
1009:Drivers/STM32G4xx_HAL_Driver/Src/stm32g4xx_hal_dac.c ****   *         the configuration information for the specified DAC.
1010:Drivers/STM32G4xx_HAL_Driver/Src/stm32g4xx_hal_dac.c ****   * @retval None
1011:Drivers/STM32G4xx_HAL_Driver/Src/stm32g4xx_hal_dac.c ****   */
1012:Drivers/STM32G4xx_HAL_Driver/Src/stm32g4xx_hal_dac.c **** __weak void HAL_DAC_ConvCpltCallbackCh1(DAC_HandleTypeDef *hdac)
 937              	 .loc 1 1012 13 is_stmt 1 view-0
 938              	 
 939              	 
 940              	 
 941 0000 7047     	 bx lr
 942              	 .cfi_endproc
 943              	.LFE385:
 945 0002 00BF     	 .section .text.DAC_DMAConvCpltCh1,"ax",%progbits
 946              	 .align 1
 947              	 .p2align 2,,3
 948              	 .global DAC_DMAConvCpltCh1
 949              	 .syntax unified
 950              	 .thumb
 951              	 .thumb_func
 953              	DAC_DMAConvCpltCh1:
 954              	.LVL69:
 955              	.LFB379:
1013:Drivers/STM32G4xx_HAL_Driver/Src/stm32g4xx_hal_dac.c **** {
1014:Drivers/STM32G4xx_HAL_Driver/Src/stm32g4xx_hal_dac.c ****   /* Prevent unused argument(s) compilation warning */
1015:Drivers/STM32G4xx_HAL_Driver/Src/stm32g4xx_hal_dac.c ****   UNUSED(hdac);
1016:Drivers/STM32G4xx_HAL_Driver/Src/stm32g4xx_hal_dac.c **** 
1017:Drivers/STM32G4xx_HAL_Driver/Src/stm32g4xx_hal_dac.c ****   /* NOTE : This function should not be modified, when the callback is needed,
1018:Drivers/STM32G4xx_HAL_Driver/Src/stm32g4xx_hal_dac.c ****             the HAL_DAC_ConvCpltCallbackCh1 could be implemented in the user file
1019:Drivers/STM32G4xx_HAL_Driver/Src/stm32g4xx_hal_dac.c ****    */
1020:Drivers/STM32G4xx_HAL_Driver/Src/stm32g4xx_hal_dac.c **** }
1021:Drivers/STM32G4xx_HAL_Driver/Src/stm32g4xx_hal_dac.c **** 
1022:Drivers/STM32G4xx_HAL_Driver/Src/stm32g4xx_hal_dac.c **** /**
1023:Drivers/STM32G4xx_HAL_Driver/Src/stm32g4xx_hal_dac.c ****   * @brief  Conversion half DMA transfer callback in non-blocking mode for Channel1
1024:Drivers/STM32G4xx_HAL_Driver/Src/stm32g4xx_hal_dac.c ****   * @param  hdac pointer to a DAC_HandleTypeDef structure that contains
1025:Drivers/STM32G4xx_HAL_Driver/Src/stm32g4xx_hal_dac.c ****   *         the configuration information for the specified DAC.
1026:Drivers/STM32G4xx_HAL_Driver/Src/stm32g4xx_hal_dac.c ****   * @retval None
1027:Drivers/STM32G4xx_HAL_Driver/Src/stm32g4xx_hal_dac.c ****   */
1028:Drivers/STM32G4xx_HAL_Driver/Src/stm32g4xx_hal_dac.c **** __weak void HAL_DAC_ConvHalfCpltCallbackCh1(DAC_HandleTypeDef *hdac)
1029:Drivers/STM32G4xx_HAL_Driver/Src/stm32g4xx_hal_dac.c **** {
ARM GAS   			page 38


1030:Drivers/STM32G4xx_HAL_Driver/Src/stm32g4xx_hal_dac.c ****   /* Prevent unused argument(s) compilation warning */
1031:Drivers/STM32G4xx_HAL_Driver/Src/stm32g4xx_hal_dac.c ****   UNUSED(hdac);
1032:Drivers/STM32G4xx_HAL_Driver/Src/stm32g4xx_hal_dac.c **** 
1033:Drivers/STM32G4xx_HAL_Driver/Src/stm32g4xx_hal_dac.c ****   /* NOTE : This function should not be modified, when the callback is needed,
1034:Drivers/STM32G4xx_HAL_Driver/Src/stm32g4xx_hal_dac.c ****             the HAL_DAC_ConvHalfCpltCallbackCh1 could be implemented in the user file
1035:Drivers/STM32G4xx_HAL_Driver/Src/stm32g4xx_hal_dac.c ****    */
1036:Drivers/STM32G4xx_HAL_Driver/Src/stm32g4xx_hal_dac.c **** }
1037:Drivers/STM32G4xx_HAL_Driver/Src/stm32g4xx_hal_dac.c **** 
1038:Drivers/STM32G4xx_HAL_Driver/Src/stm32g4xx_hal_dac.c **** /**
1039:Drivers/STM32G4xx_HAL_Driver/Src/stm32g4xx_hal_dac.c ****   * @brief  Error DAC callback for Channel1.
1040:Drivers/STM32G4xx_HAL_Driver/Src/stm32g4xx_hal_dac.c ****   * @param  hdac pointer to a DAC_HandleTypeDef structure that contains
1041:Drivers/STM32G4xx_HAL_Driver/Src/stm32g4xx_hal_dac.c ****   *         the configuration information for the specified DAC.
1042:Drivers/STM32G4xx_HAL_Driver/Src/stm32g4xx_hal_dac.c ****   * @retval None
1043:Drivers/STM32G4xx_HAL_Driver/Src/stm32g4xx_hal_dac.c ****   */
1044:Drivers/STM32G4xx_HAL_Driver/Src/stm32g4xx_hal_dac.c **** __weak void HAL_DAC_ErrorCallbackCh1(DAC_HandleTypeDef *hdac)
1045:Drivers/STM32G4xx_HAL_Driver/Src/stm32g4xx_hal_dac.c **** {
1046:Drivers/STM32G4xx_HAL_Driver/Src/stm32g4xx_hal_dac.c ****   /* Prevent unused argument(s) compilation warning */
1047:Drivers/STM32G4xx_HAL_Driver/Src/stm32g4xx_hal_dac.c ****   UNUSED(hdac);
1048:Drivers/STM32G4xx_HAL_Driver/Src/stm32g4xx_hal_dac.c **** 
1049:Drivers/STM32G4xx_HAL_Driver/Src/stm32g4xx_hal_dac.c ****   /* NOTE : This function should not be modified, when the callback is needed,
1050:Drivers/STM32G4xx_HAL_Driver/Src/stm32g4xx_hal_dac.c ****             the HAL_DAC_ErrorCallbackCh1 could be implemented in the user file
1051:Drivers/STM32G4xx_HAL_Driver/Src/stm32g4xx_hal_dac.c ****    */
1052:Drivers/STM32G4xx_HAL_Driver/Src/stm32g4xx_hal_dac.c **** }
1053:Drivers/STM32G4xx_HAL_Driver/Src/stm32g4xx_hal_dac.c **** 
1054:Drivers/STM32G4xx_HAL_Driver/Src/stm32g4xx_hal_dac.c **** /**
1055:Drivers/STM32G4xx_HAL_Driver/Src/stm32g4xx_hal_dac.c ****   * @brief  DMA underrun DAC callback for channel1.
1056:Drivers/STM32G4xx_HAL_Driver/Src/stm32g4xx_hal_dac.c ****   * @param  hdac pointer to a DAC_HandleTypeDef structure that contains
1057:Drivers/STM32G4xx_HAL_Driver/Src/stm32g4xx_hal_dac.c ****   *         the configuration information for the specified DAC.
1058:Drivers/STM32G4xx_HAL_Driver/Src/stm32g4xx_hal_dac.c ****   * @retval None
1059:Drivers/STM32G4xx_HAL_Driver/Src/stm32g4xx_hal_dac.c ****   */
1060:Drivers/STM32G4xx_HAL_Driver/Src/stm32g4xx_hal_dac.c **** __weak void HAL_DAC_DMAUnderrunCallbackCh1(DAC_HandleTypeDef *hdac)
1061:Drivers/STM32G4xx_HAL_Driver/Src/stm32g4xx_hal_dac.c **** {
1062:Drivers/STM32G4xx_HAL_Driver/Src/stm32g4xx_hal_dac.c ****   /* Prevent unused argument(s) compilation warning */
1063:Drivers/STM32G4xx_HAL_Driver/Src/stm32g4xx_hal_dac.c ****   UNUSED(hdac);
1064:Drivers/STM32G4xx_HAL_Driver/Src/stm32g4xx_hal_dac.c **** 
1065:Drivers/STM32G4xx_HAL_Driver/Src/stm32g4xx_hal_dac.c ****   /* NOTE : This function should not be modified, when the callback is needed,
1066:Drivers/STM32G4xx_HAL_Driver/Src/stm32g4xx_hal_dac.c ****             the HAL_DAC_DMAUnderrunCallbackCh1 could be implemented in the user file
1067:Drivers/STM32G4xx_HAL_Driver/Src/stm32g4xx_hal_dac.c ****    */
1068:Drivers/STM32G4xx_HAL_Driver/Src/stm32g4xx_hal_dac.c **** }
1069:Drivers/STM32G4xx_HAL_Driver/Src/stm32g4xx_hal_dac.c **** 
1070:Drivers/STM32G4xx_HAL_Driver/Src/stm32g4xx_hal_dac.c **** /**
1071:Drivers/STM32G4xx_HAL_Driver/Src/stm32g4xx_hal_dac.c ****   * @}
1072:Drivers/STM32G4xx_HAL_Driver/Src/stm32g4xx_hal_dac.c ****   */
1073:Drivers/STM32G4xx_HAL_Driver/Src/stm32g4xx_hal_dac.c **** 
1074:Drivers/STM32G4xx_HAL_Driver/Src/stm32g4xx_hal_dac.c **** /** @defgroup DAC_Exported_Functions_Group3 Peripheral Control functions
1075:Drivers/STM32G4xx_HAL_Driver/Src/stm32g4xx_hal_dac.c ****   *  @brief    Peripheral Control functions
1076:Drivers/STM32G4xx_HAL_Driver/Src/stm32g4xx_hal_dac.c ****   *
1077:Drivers/STM32G4xx_HAL_Driver/Src/stm32g4xx_hal_dac.c **** @verbatim
1078:Drivers/STM32G4xx_HAL_Driver/Src/stm32g4xx_hal_dac.c ****   ==============================================================================
1079:Drivers/STM32G4xx_HAL_Driver/Src/stm32g4xx_hal_dac.c ****              ##### Peripheral Control functions #####
1080:Drivers/STM32G4xx_HAL_Driver/Src/stm32g4xx_hal_dac.c ****   ==============================================================================
1081:Drivers/STM32G4xx_HAL_Driver/Src/stm32g4xx_hal_dac.c ****     [..]  This section provides functions allowing to:
1082:Drivers/STM32G4xx_HAL_Driver/Src/stm32g4xx_hal_dac.c ****       (+) Configure channels.
1083:Drivers/STM32G4xx_HAL_Driver/Src/stm32g4xx_hal_dac.c ****       (+) Set the specified data holding register value for DAC channel.
1084:Drivers/STM32G4xx_HAL_Driver/Src/stm32g4xx_hal_dac.c **** 
1085:Drivers/STM32G4xx_HAL_Driver/Src/stm32g4xx_hal_dac.c **** @endverbatim
1086:Drivers/STM32G4xx_HAL_Driver/Src/stm32g4xx_hal_dac.c ****   * @{
ARM GAS   			page 39


1087:Drivers/STM32G4xx_HAL_Driver/Src/stm32g4xx_hal_dac.c ****   */
1088:Drivers/STM32G4xx_HAL_Driver/Src/stm32g4xx_hal_dac.c **** 
1089:Drivers/STM32G4xx_HAL_Driver/Src/stm32g4xx_hal_dac.c **** /**
1090:Drivers/STM32G4xx_HAL_Driver/Src/stm32g4xx_hal_dac.c ****   * @brief  Returns the last data output value of the selected DAC channel.
1091:Drivers/STM32G4xx_HAL_Driver/Src/stm32g4xx_hal_dac.c ****   * @param  hdac pointer to a DAC_HandleTypeDef structure that contains
1092:Drivers/STM32G4xx_HAL_Driver/Src/stm32g4xx_hal_dac.c ****   *         the configuration information for the specified DAC.
1093:Drivers/STM32G4xx_HAL_Driver/Src/stm32g4xx_hal_dac.c ****   * @param  Channel The selected DAC channel.
1094:Drivers/STM32G4xx_HAL_Driver/Src/stm32g4xx_hal_dac.c ****   *          This parameter can be one of the following values:
1095:Drivers/STM32G4xx_HAL_Driver/Src/stm32g4xx_hal_dac.c ****   *            @arg DAC_CHANNEL_1: DAC Channel1 selected
1096:Drivers/STM32G4xx_HAL_Driver/Src/stm32g4xx_hal_dac.c ****   *            @arg DAC_CHANNEL_2: DAC Channel2 selected (1)
1097:Drivers/STM32G4xx_HAL_Driver/Src/stm32g4xx_hal_dac.c ****   *
1098:Drivers/STM32G4xx_HAL_Driver/Src/stm32g4xx_hal_dac.c ****   *         (1) On this STM32 series, parameter not available on all instances.
1099:Drivers/STM32G4xx_HAL_Driver/Src/stm32g4xx_hal_dac.c ****   *             Refer to device datasheet for channels availability.
1100:Drivers/STM32G4xx_HAL_Driver/Src/stm32g4xx_hal_dac.c ****   * @retval The selected DAC channel data output value.
1101:Drivers/STM32G4xx_HAL_Driver/Src/stm32g4xx_hal_dac.c ****   */
1102:Drivers/STM32G4xx_HAL_Driver/Src/stm32g4xx_hal_dac.c **** uint32_t HAL_DAC_GetValue(const DAC_HandleTypeDef *hdac, uint32_t Channel)
1103:Drivers/STM32G4xx_HAL_Driver/Src/stm32g4xx_hal_dac.c **** {
1104:Drivers/STM32G4xx_HAL_Driver/Src/stm32g4xx_hal_dac.c ****   uint32_t result;
1105:Drivers/STM32G4xx_HAL_Driver/Src/stm32g4xx_hal_dac.c **** 
1106:Drivers/STM32G4xx_HAL_Driver/Src/stm32g4xx_hal_dac.c ****   /* Check the DAC peripheral handle */
1107:Drivers/STM32G4xx_HAL_Driver/Src/stm32g4xx_hal_dac.c ****   assert_param(hdac != NULL);
1108:Drivers/STM32G4xx_HAL_Driver/Src/stm32g4xx_hal_dac.c **** 
1109:Drivers/STM32G4xx_HAL_Driver/Src/stm32g4xx_hal_dac.c ****   /* Check the parameters */
1110:Drivers/STM32G4xx_HAL_Driver/Src/stm32g4xx_hal_dac.c ****   assert_param(IS_DAC_CHANNEL(hdac->Instance, Channel));
1111:Drivers/STM32G4xx_HAL_Driver/Src/stm32g4xx_hal_dac.c **** 
1112:Drivers/STM32G4xx_HAL_Driver/Src/stm32g4xx_hal_dac.c ****   if (Channel == DAC_CHANNEL_1)
1113:Drivers/STM32G4xx_HAL_Driver/Src/stm32g4xx_hal_dac.c ****   {
1114:Drivers/STM32G4xx_HAL_Driver/Src/stm32g4xx_hal_dac.c ****     result = hdac->Instance->DOR1;
1115:Drivers/STM32G4xx_HAL_Driver/Src/stm32g4xx_hal_dac.c ****   }
1116:Drivers/STM32G4xx_HAL_Driver/Src/stm32g4xx_hal_dac.c **** 
1117:Drivers/STM32G4xx_HAL_Driver/Src/stm32g4xx_hal_dac.c ****   else
1118:Drivers/STM32G4xx_HAL_Driver/Src/stm32g4xx_hal_dac.c ****   {
1119:Drivers/STM32G4xx_HAL_Driver/Src/stm32g4xx_hal_dac.c ****     result = hdac->Instance->DOR2;
1120:Drivers/STM32G4xx_HAL_Driver/Src/stm32g4xx_hal_dac.c ****   }
1121:Drivers/STM32G4xx_HAL_Driver/Src/stm32g4xx_hal_dac.c **** 
1122:Drivers/STM32G4xx_HAL_Driver/Src/stm32g4xx_hal_dac.c ****   /* Returns the DAC channel data output register value */
1123:Drivers/STM32G4xx_HAL_Driver/Src/stm32g4xx_hal_dac.c ****   return result;
1124:Drivers/STM32G4xx_HAL_Driver/Src/stm32g4xx_hal_dac.c **** }
1125:Drivers/STM32G4xx_HAL_Driver/Src/stm32g4xx_hal_dac.c **** 
1126:Drivers/STM32G4xx_HAL_Driver/Src/stm32g4xx_hal_dac.c **** /**
1127:Drivers/STM32G4xx_HAL_Driver/Src/stm32g4xx_hal_dac.c ****   * @brief  Configures the selected DAC channel.
1128:Drivers/STM32G4xx_HAL_Driver/Src/stm32g4xx_hal_dac.c ****   * @note   By calling this function, the high frequency interface mode (HFSEL bits)
1129:Drivers/STM32G4xx_HAL_Driver/Src/stm32g4xx_hal_dac.c ****   *         will be set. This parameter scope is the DAC instance. As the function
1130:Drivers/STM32G4xx_HAL_Driver/Src/stm32g4xx_hal_dac.c ****   *         is called for each channel, the @ref DAC_HighFrequency of @arg sConfig
1131:Drivers/STM32G4xx_HAL_Driver/Src/stm32g4xx_hal_dac.c ****   *         must be the same at each call.
1132:Drivers/STM32G4xx_HAL_Driver/Src/stm32g4xx_hal_dac.c ****   *         (or DAC_HIGH_FREQUENCY_INTERFACE_MODE_AUTOMATIC self detect).
1133:Drivers/STM32G4xx_HAL_Driver/Src/stm32g4xx_hal_dac.c ****   * @param  hdac pointer to a DAC_HandleTypeDef structure that contains
1134:Drivers/STM32G4xx_HAL_Driver/Src/stm32g4xx_hal_dac.c ****   *         the configuration information for the specified DAC.
1135:Drivers/STM32G4xx_HAL_Driver/Src/stm32g4xx_hal_dac.c ****   * @param  sConfig DAC configuration structure.
1136:Drivers/STM32G4xx_HAL_Driver/Src/stm32g4xx_hal_dac.c ****   * @param  Channel The selected DAC channel.
1137:Drivers/STM32G4xx_HAL_Driver/Src/stm32g4xx_hal_dac.c ****   *          This parameter can be one of the following values:
1138:Drivers/STM32G4xx_HAL_Driver/Src/stm32g4xx_hal_dac.c ****   *            @arg DAC_CHANNEL_1: DAC Channel1 selected
1139:Drivers/STM32G4xx_HAL_Driver/Src/stm32g4xx_hal_dac.c ****   *            @arg DAC_CHANNEL_2: DAC Channel2 selected (1)
1140:Drivers/STM32G4xx_HAL_Driver/Src/stm32g4xx_hal_dac.c ****   *
1141:Drivers/STM32G4xx_HAL_Driver/Src/stm32g4xx_hal_dac.c ****   *         (1) On this STM32 series, parameter not available on all instances.
1142:Drivers/STM32G4xx_HAL_Driver/Src/stm32g4xx_hal_dac.c ****   *             Refer to device datasheet for channels availability.
1143:Drivers/STM32G4xx_HAL_Driver/Src/stm32g4xx_hal_dac.c ****   * @retval HAL status
ARM GAS   			page 40


1144:Drivers/STM32G4xx_HAL_Driver/Src/stm32g4xx_hal_dac.c ****   */
1145:Drivers/STM32G4xx_HAL_Driver/Src/stm32g4xx_hal_dac.c **** HAL_StatusTypeDef HAL_DAC_ConfigChannel(DAC_HandleTypeDef *hdac,
1146:Drivers/STM32G4xx_HAL_Driver/Src/stm32g4xx_hal_dac.c ****                                         const DAC_ChannelConfTypeDef *sConfig, uint32_t Channel)
1147:Drivers/STM32G4xx_HAL_Driver/Src/stm32g4xx_hal_dac.c **** {
1148:Drivers/STM32G4xx_HAL_Driver/Src/stm32g4xx_hal_dac.c ****   HAL_StatusTypeDef status = HAL_OK;
1149:Drivers/STM32G4xx_HAL_Driver/Src/stm32g4xx_hal_dac.c ****   uint32_t tmpreg1;
1150:Drivers/STM32G4xx_HAL_Driver/Src/stm32g4xx_hal_dac.c ****   uint32_t tmpreg2;
1151:Drivers/STM32G4xx_HAL_Driver/Src/stm32g4xx_hal_dac.c ****   uint32_t tickstart;
1152:Drivers/STM32G4xx_HAL_Driver/Src/stm32g4xx_hal_dac.c ****   uint32_t hclkfreq;
1153:Drivers/STM32G4xx_HAL_Driver/Src/stm32g4xx_hal_dac.c ****   uint32_t connectOnChip;
1154:Drivers/STM32G4xx_HAL_Driver/Src/stm32g4xx_hal_dac.c **** 
1155:Drivers/STM32G4xx_HAL_Driver/Src/stm32g4xx_hal_dac.c ****   /* Check the DAC peripheral handle and channel configuration struct */
1156:Drivers/STM32G4xx_HAL_Driver/Src/stm32g4xx_hal_dac.c ****   if ((hdac == NULL) || (sConfig == NULL))
1157:Drivers/STM32G4xx_HAL_Driver/Src/stm32g4xx_hal_dac.c ****   {
1158:Drivers/STM32G4xx_HAL_Driver/Src/stm32g4xx_hal_dac.c ****     return HAL_ERROR;
1159:Drivers/STM32G4xx_HAL_Driver/Src/stm32g4xx_hal_dac.c ****   }
1160:Drivers/STM32G4xx_HAL_Driver/Src/stm32g4xx_hal_dac.c **** 
1161:Drivers/STM32G4xx_HAL_Driver/Src/stm32g4xx_hal_dac.c ****   /* Check the DAC parameters */
1162:Drivers/STM32G4xx_HAL_Driver/Src/stm32g4xx_hal_dac.c ****   assert_param(IS_DAC_HIGH_FREQUENCY_MODE(sConfig->DAC_HighFrequency));
1163:Drivers/STM32G4xx_HAL_Driver/Src/stm32g4xx_hal_dac.c ****   assert_param(IS_DAC_TRIGGER(hdac->Instance, sConfig->DAC_Trigger));
1164:Drivers/STM32G4xx_HAL_Driver/Src/stm32g4xx_hal_dac.c ****   assert_param(IS_DAC_TRIGGER2(hdac->Instance, sConfig->DAC_Trigger2));
1165:Drivers/STM32G4xx_HAL_Driver/Src/stm32g4xx_hal_dac.c ****   assert_param(IS_DAC_OUTPUT_BUFFER_STATE(sConfig->DAC_OutputBuffer));
1166:Drivers/STM32G4xx_HAL_Driver/Src/stm32g4xx_hal_dac.c ****   assert_param(IS_DAC_CHIP_CONNECTION(sConfig->DAC_ConnectOnChipPeripheral));
1167:Drivers/STM32G4xx_HAL_Driver/Src/stm32g4xx_hal_dac.c ****   assert_param(IS_DAC_TRIMMING(sConfig->DAC_UserTrimming));
1168:Drivers/STM32G4xx_HAL_Driver/Src/stm32g4xx_hal_dac.c ****   if ((sConfig->DAC_UserTrimming) == DAC_TRIMMING_USER)
1169:Drivers/STM32G4xx_HAL_Driver/Src/stm32g4xx_hal_dac.c ****   {
1170:Drivers/STM32G4xx_HAL_Driver/Src/stm32g4xx_hal_dac.c ****     assert_param(IS_DAC_TRIMMINGVALUE(sConfig->DAC_TrimmingValue));
1171:Drivers/STM32G4xx_HAL_Driver/Src/stm32g4xx_hal_dac.c ****   }
1172:Drivers/STM32G4xx_HAL_Driver/Src/stm32g4xx_hal_dac.c ****   assert_param(IS_DAC_SAMPLEANDHOLD(sConfig->DAC_SampleAndHold));
1173:Drivers/STM32G4xx_HAL_Driver/Src/stm32g4xx_hal_dac.c ****   if ((sConfig->DAC_SampleAndHold) == DAC_SAMPLEANDHOLD_ENABLE)
1174:Drivers/STM32G4xx_HAL_Driver/Src/stm32g4xx_hal_dac.c ****   {
1175:Drivers/STM32G4xx_HAL_Driver/Src/stm32g4xx_hal_dac.c ****     assert_param(IS_DAC_SAMPLETIME(sConfig->DAC_SampleAndHoldConfig.DAC_SampleTime));
1176:Drivers/STM32G4xx_HAL_Driver/Src/stm32g4xx_hal_dac.c ****     assert_param(IS_DAC_HOLDTIME(sConfig->DAC_SampleAndHoldConfig.DAC_HoldTime));
1177:Drivers/STM32G4xx_HAL_Driver/Src/stm32g4xx_hal_dac.c ****     assert_param(IS_DAC_REFRESHTIME(sConfig->DAC_SampleAndHoldConfig.DAC_RefreshTime));
1178:Drivers/STM32G4xx_HAL_Driver/Src/stm32g4xx_hal_dac.c ****   }
1179:Drivers/STM32G4xx_HAL_Driver/Src/stm32g4xx_hal_dac.c ****   else
1180:Drivers/STM32G4xx_HAL_Driver/Src/stm32g4xx_hal_dac.c ****   {
1181:Drivers/STM32G4xx_HAL_Driver/Src/stm32g4xx_hal_dac.c ****     /* In case of mode normal and buffer disabled, connection to both on chip periph and external p
1182:Drivers/STM32G4xx_HAL_Driver/Src/stm32g4xx_hal_dac.c ****     if (sConfig->DAC_OutputBuffer == DAC_OUTPUTBUFFER_DISABLE)
1183:Drivers/STM32G4xx_HAL_Driver/Src/stm32g4xx_hal_dac.c ****     {
1184:Drivers/STM32G4xx_HAL_Driver/Src/stm32g4xx_hal_dac.c ****       assert_param(sConfig->DAC_ConnectOnChipPeripheral != DAC_CHIPCONNECT_BOTH);
1185:Drivers/STM32G4xx_HAL_Driver/Src/stm32g4xx_hal_dac.c ****     }
1186:Drivers/STM32G4xx_HAL_Driver/Src/stm32g4xx_hal_dac.c ****   }
1187:Drivers/STM32G4xx_HAL_Driver/Src/stm32g4xx_hal_dac.c ****   assert_param(IS_DAC_CHANNEL(hdac->Instance, Channel));
1188:Drivers/STM32G4xx_HAL_Driver/Src/stm32g4xx_hal_dac.c ****   assert_param(IS_FUNCTIONAL_STATE(sConfig->DAC_DMADoubleDataMode));
1189:Drivers/STM32G4xx_HAL_Driver/Src/stm32g4xx_hal_dac.c ****   assert_param(IS_FUNCTIONAL_STATE(sConfig->DAC_SignedFormat));
1190:Drivers/STM32G4xx_HAL_Driver/Src/stm32g4xx_hal_dac.c **** 
1191:Drivers/STM32G4xx_HAL_Driver/Src/stm32g4xx_hal_dac.c ****   /* Process locked */
1192:Drivers/STM32G4xx_HAL_Driver/Src/stm32g4xx_hal_dac.c ****   __HAL_LOCK(hdac);
1193:Drivers/STM32G4xx_HAL_Driver/Src/stm32g4xx_hal_dac.c **** 
1194:Drivers/STM32G4xx_HAL_Driver/Src/stm32g4xx_hal_dac.c ****   /* Change DAC state */
1195:Drivers/STM32G4xx_HAL_Driver/Src/stm32g4xx_hal_dac.c ****   hdac->State = HAL_DAC_STATE_BUSY;
1196:Drivers/STM32G4xx_HAL_Driver/Src/stm32g4xx_hal_dac.c **** 
1197:Drivers/STM32G4xx_HAL_Driver/Src/stm32g4xx_hal_dac.c ****   /* Sample and hold configuration */
1198:Drivers/STM32G4xx_HAL_Driver/Src/stm32g4xx_hal_dac.c ****   if (sConfig->DAC_SampleAndHold == DAC_SAMPLEANDHOLD_ENABLE)
1199:Drivers/STM32G4xx_HAL_Driver/Src/stm32g4xx_hal_dac.c ****   {
1200:Drivers/STM32G4xx_HAL_Driver/Src/stm32g4xx_hal_dac.c ****     /* Get timeout */
ARM GAS   			page 41


1201:Drivers/STM32G4xx_HAL_Driver/Src/stm32g4xx_hal_dac.c ****     tickstart = HAL_GetTick();
1202:Drivers/STM32G4xx_HAL_Driver/Src/stm32g4xx_hal_dac.c **** 
1203:Drivers/STM32G4xx_HAL_Driver/Src/stm32g4xx_hal_dac.c ****     if (Channel == DAC_CHANNEL_1)
1204:Drivers/STM32G4xx_HAL_Driver/Src/stm32g4xx_hal_dac.c ****     {
1205:Drivers/STM32G4xx_HAL_Driver/Src/stm32g4xx_hal_dac.c ****       /* SHSR1 can be written when BWST1 is cleared */
1206:Drivers/STM32G4xx_HAL_Driver/Src/stm32g4xx_hal_dac.c ****       while (((hdac->Instance->SR) & DAC_SR_BWST1) != 0UL)
1207:Drivers/STM32G4xx_HAL_Driver/Src/stm32g4xx_hal_dac.c ****       {
1208:Drivers/STM32G4xx_HAL_Driver/Src/stm32g4xx_hal_dac.c ****         /* Check for the Timeout */
1209:Drivers/STM32G4xx_HAL_Driver/Src/stm32g4xx_hal_dac.c ****         if ((HAL_GetTick() - tickstart) > TIMEOUT_DAC_CALIBCONFIG)
1210:Drivers/STM32G4xx_HAL_Driver/Src/stm32g4xx_hal_dac.c ****         {
1211:Drivers/STM32G4xx_HAL_Driver/Src/stm32g4xx_hal_dac.c ****           /* New check to avoid false timeout detection in case of preemption */
1212:Drivers/STM32G4xx_HAL_Driver/Src/stm32g4xx_hal_dac.c ****           if (((hdac->Instance->SR) & DAC_SR_BWST1) != 0UL)
1213:Drivers/STM32G4xx_HAL_Driver/Src/stm32g4xx_hal_dac.c ****           {
1214:Drivers/STM32G4xx_HAL_Driver/Src/stm32g4xx_hal_dac.c ****             /* Update error code */
1215:Drivers/STM32G4xx_HAL_Driver/Src/stm32g4xx_hal_dac.c ****             SET_BIT(hdac->ErrorCode, HAL_DAC_ERROR_TIMEOUT);
1216:Drivers/STM32G4xx_HAL_Driver/Src/stm32g4xx_hal_dac.c **** 
1217:Drivers/STM32G4xx_HAL_Driver/Src/stm32g4xx_hal_dac.c ****             /* Change the DMA state */
1218:Drivers/STM32G4xx_HAL_Driver/Src/stm32g4xx_hal_dac.c ****             hdac->State = HAL_DAC_STATE_TIMEOUT;
1219:Drivers/STM32G4xx_HAL_Driver/Src/stm32g4xx_hal_dac.c **** 
1220:Drivers/STM32G4xx_HAL_Driver/Src/stm32g4xx_hal_dac.c ****             return HAL_TIMEOUT;
1221:Drivers/STM32G4xx_HAL_Driver/Src/stm32g4xx_hal_dac.c ****           }
1222:Drivers/STM32G4xx_HAL_Driver/Src/stm32g4xx_hal_dac.c ****         }
1223:Drivers/STM32G4xx_HAL_Driver/Src/stm32g4xx_hal_dac.c ****       }
1224:Drivers/STM32G4xx_HAL_Driver/Src/stm32g4xx_hal_dac.c ****       hdac->Instance->SHSR1 = sConfig->DAC_SampleAndHoldConfig.DAC_SampleTime;
1225:Drivers/STM32G4xx_HAL_Driver/Src/stm32g4xx_hal_dac.c ****     }
1226:Drivers/STM32G4xx_HAL_Driver/Src/stm32g4xx_hal_dac.c **** 
1227:Drivers/STM32G4xx_HAL_Driver/Src/stm32g4xx_hal_dac.c ****     else /* Channel 2 */
1228:Drivers/STM32G4xx_HAL_Driver/Src/stm32g4xx_hal_dac.c ****     {
1229:Drivers/STM32G4xx_HAL_Driver/Src/stm32g4xx_hal_dac.c ****       /* SHSR2 can be written when BWST2 is cleared */
1230:Drivers/STM32G4xx_HAL_Driver/Src/stm32g4xx_hal_dac.c ****       while (((hdac->Instance->SR) & DAC_SR_BWST2) != 0UL)
1231:Drivers/STM32G4xx_HAL_Driver/Src/stm32g4xx_hal_dac.c ****       {
1232:Drivers/STM32G4xx_HAL_Driver/Src/stm32g4xx_hal_dac.c ****         /* Check for the Timeout */
1233:Drivers/STM32G4xx_HAL_Driver/Src/stm32g4xx_hal_dac.c ****         if ((HAL_GetTick() - tickstart) > TIMEOUT_DAC_CALIBCONFIG)
1234:Drivers/STM32G4xx_HAL_Driver/Src/stm32g4xx_hal_dac.c ****         {
1235:Drivers/STM32G4xx_HAL_Driver/Src/stm32g4xx_hal_dac.c ****           /* New check to avoid false timeout detection in case of preemption */
1236:Drivers/STM32G4xx_HAL_Driver/Src/stm32g4xx_hal_dac.c ****           if (((hdac->Instance->SR) & DAC_SR_BWST2) != 0UL)
1237:Drivers/STM32G4xx_HAL_Driver/Src/stm32g4xx_hal_dac.c ****           {
1238:Drivers/STM32G4xx_HAL_Driver/Src/stm32g4xx_hal_dac.c ****             /* Update error code */
1239:Drivers/STM32G4xx_HAL_Driver/Src/stm32g4xx_hal_dac.c ****             SET_BIT(hdac->ErrorCode, HAL_DAC_ERROR_TIMEOUT);
1240:Drivers/STM32G4xx_HAL_Driver/Src/stm32g4xx_hal_dac.c **** 
1241:Drivers/STM32G4xx_HAL_Driver/Src/stm32g4xx_hal_dac.c ****             /* Change the DMA state */
1242:Drivers/STM32G4xx_HAL_Driver/Src/stm32g4xx_hal_dac.c ****             hdac->State = HAL_DAC_STATE_TIMEOUT;
1243:Drivers/STM32G4xx_HAL_Driver/Src/stm32g4xx_hal_dac.c **** 
1244:Drivers/STM32G4xx_HAL_Driver/Src/stm32g4xx_hal_dac.c ****             return HAL_TIMEOUT;
1245:Drivers/STM32G4xx_HAL_Driver/Src/stm32g4xx_hal_dac.c ****           }
1246:Drivers/STM32G4xx_HAL_Driver/Src/stm32g4xx_hal_dac.c ****         }
1247:Drivers/STM32G4xx_HAL_Driver/Src/stm32g4xx_hal_dac.c ****       }
1248:Drivers/STM32G4xx_HAL_Driver/Src/stm32g4xx_hal_dac.c ****       hdac->Instance->SHSR2 = sConfig->DAC_SampleAndHoldConfig.DAC_SampleTime;
1249:Drivers/STM32G4xx_HAL_Driver/Src/stm32g4xx_hal_dac.c ****     }
1250:Drivers/STM32G4xx_HAL_Driver/Src/stm32g4xx_hal_dac.c **** 
1251:Drivers/STM32G4xx_HAL_Driver/Src/stm32g4xx_hal_dac.c **** 
1252:Drivers/STM32G4xx_HAL_Driver/Src/stm32g4xx_hal_dac.c ****     /* HoldTime */
1253:Drivers/STM32G4xx_HAL_Driver/Src/stm32g4xx_hal_dac.c ****     MODIFY_REG(hdac->Instance->SHHR, DAC_SHHR_THOLD1 << (Channel & 0x10UL),
1254:Drivers/STM32G4xx_HAL_Driver/Src/stm32g4xx_hal_dac.c ****                (sConfig->DAC_SampleAndHoldConfig.DAC_HoldTime) << (Channel & 0x10UL));
1255:Drivers/STM32G4xx_HAL_Driver/Src/stm32g4xx_hal_dac.c ****     /* RefreshTime */
1256:Drivers/STM32G4xx_HAL_Driver/Src/stm32g4xx_hal_dac.c ****     MODIFY_REG(hdac->Instance->SHRR, DAC_SHRR_TREFRESH1 << (Channel & 0x10UL),
1257:Drivers/STM32G4xx_HAL_Driver/Src/stm32g4xx_hal_dac.c ****                (sConfig->DAC_SampleAndHoldConfig.DAC_RefreshTime) << (Channel & 0x10UL));
ARM GAS   			page 42


1258:Drivers/STM32G4xx_HAL_Driver/Src/stm32g4xx_hal_dac.c ****   }
1259:Drivers/STM32G4xx_HAL_Driver/Src/stm32g4xx_hal_dac.c **** 
1260:Drivers/STM32G4xx_HAL_Driver/Src/stm32g4xx_hal_dac.c ****   if (sConfig->DAC_UserTrimming == DAC_TRIMMING_USER)
1261:Drivers/STM32G4xx_HAL_Driver/Src/stm32g4xx_hal_dac.c ****     /* USER TRIMMING */
1262:Drivers/STM32G4xx_HAL_Driver/Src/stm32g4xx_hal_dac.c ****   {
1263:Drivers/STM32G4xx_HAL_Driver/Src/stm32g4xx_hal_dac.c ****     /* Get the DAC CCR value */
1264:Drivers/STM32G4xx_HAL_Driver/Src/stm32g4xx_hal_dac.c ****     tmpreg1 = hdac->Instance->CCR;
1265:Drivers/STM32G4xx_HAL_Driver/Src/stm32g4xx_hal_dac.c ****     /* Clear trimming value */
1266:Drivers/STM32G4xx_HAL_Driver/Src/stm32g4xx_hal_dac.c ****     tmpreg1 &= ~(((uint32_t)(DAC_CCR_OTRIM1)) << (Channel & 0x10UL));
1267:Drivers/STM32G4xx_HAL_Driver/Src/stm32g4xx_hal_dac.c ****     /* Configure for the selected trimming offset */
1268:Drivers/STM32G4xx_HAL_Driver/Src/stm32g4xx_hal_dac.c ****     tmpreg2 = sConfig->DAC_TrimmingValue;
1269:Drivers/STM32G4xx_HAL_Driver/Src/stm32g4xx_hal_dac.c ****     /* Calculate CCR register value depending on DAC_Channel */
1270:Drivers/STM32G4xx_HAL_Driver/Src/stm32g4xx_hal_dac.c ****     tmpreg1 |= tmpreg2 << (Channel & 0x10UL);
1271:Drivers/STM32G4xx_HAL_Driver/Src/stm32g4xx_hal_dac.c ****     /* Write to DAC CCR */
1272:Drivers/STM32G4xx_HAL_Driver/Src/stm32g4xx_hal_dac.c ****     hdac->Instance->CCR = tmpreg1;
1273:Drivers/STM32G4xx_HAL_Driver/Src/stm32g4xx_hal_dac.c ****   }
1274:Drivers/STM32G4xx_HAL_Driver/Src/stm32g4xx_hal_dac.c ****   /* else factory trimming is used (factory setting are available at reset)*/
1275:Drivers/STM32G4xx_HAL_Driver/Src/stm32g4xx_hal_dac.c ****   /* SW Nothing has nothing to do */
1276:Drivers/STM32G4xx_HAL_Driver/Src/stm32g4xx_hal_dac.c **** 
1277:Drivers/STM32G4xx_HAL_Driver/Src/stm32g4xx_hal_dac.c ****   /* Get the DAC MCR value */
1278:Drivers/STM32G4xx_HAL_Driver/Src/stm32g4xx_hal_dac.c ****   tmpreg1 = hdac->Instance->MCR;
1279:Drivers/STM32G4xx_HAL_Driver/Src/stm32g4xx_hal_dac.c ****   /* Clear DAC_MCR_MODEx bits */
1280:Drivers/STM32G4xx_HAL_Driver/Src/stm32g4xx_hal_dac.c ****   tmpreg1 &= ~(((uint32_t)(DAC_MCR_MODE1)) << (Channel & 0x10UL));
1281:Drivers/STM32G4xx_HAL_Driver/Src/stm32g4xx_hal_dac.c ****   /* Configure for the selected DAC channel: mode, buffer output & on chip peripheral connect */
1282:Drivers/STM32G4xx_HAL_Driver/Src/stm32g4xx_hal_dac.c **** 
1283:Drivers/STM32G4xx_HAL_Driver/Src/stm32g4xx_hal_dac.c **** 
1284:Drivers/STM32G4xx_HAL_Driver/Src/stm32g4xx_hal_dac.c ****   if (sConfig->DAC_ConnectOnChipPeripheral == DAC_CHIPCONNECT_EXTERNAL)
1285:Drivers/STM32G4xx_HAL_Driver/Src/stm32g4xx_hal_dac.c ****   {
1286:Drivers/STM32G4xx_HAL_Driver/Src/stm32g4xx_hal_dac.c ****     connectOnChip = 0x00000000UL;
1287:Drivers/STM32G4xx_HAL_Driver/Src/stm32g4xx_hal_dac.c ****   }
1288:Drivers/STM32G4xx_HAL_Driver/Src/stm32g4xx_hal_dac.c ****   else if (sConfig->DAC_ConnectOnChipPeripheral == DAC_CHIPCONNECT_INTERNAL)
1289:Drivers/STM32G4xx_HAL_Driver/Src/stm32g4xx_hal_dac.c ****   {
1290:Drivers/STM32G4xx_HAL_Driver/Src/stm32g4xx_hal_dac.c ****     connectOnChip = DAC_MCR_MODE1_0;
1291:Drivers/STM32G4xx_HAL_Driver/Src/stm32g4xx_hal_dac.c ****   }
1292:Drivers/STM32G4xx_HAL_Driver/Src/stm32g4xx_hal_dac.c ****   else /* (sConfig->DAC_ConnectOnChipPeripheral == DAC_CHIPCONNECT_BOTH) */
1293:Drivers/STM32G4xx_HAL_Driver/Src/stm32g4xx_hal_dac.c ****   {
1294:Drivers/STM32G4xx_HAL_Driver/Src/stm32g4xx_hal_dac.c ****     if (sConfig->DAC_OutputBuffer == DAC_OUTPUTBUFFER_ENABLE)
1295:Drivers/STM32G4xx_HAL_Driver/Src/stm32g4xx_hal_dac.c ****     {
1296:Drivers/STM32G4xx_HAL_Driver/Src/stm32g4xx_hal_dac.c ****       connectOnChip = DAC_MCR_MODE1_0;
1297:Drivers/STM32G4xx_HAL_Driver/Src/stm32g4xx_hal_dac.c ****     }
1298:Drivers/STM32G4xx_HAL_Driver/Src/stm32g4xx_hal_dac.c ****     else
1299:Drivers/STM32G4xx_HAL_Driver/Src/stm32g4xx_hal_dac.c ****     {
1300:Drivers/STM32G4xx_HAL_Driver/Src/stm32g4xx_hal_dac.c ****       connectOnChip = 0x00000000UL;
1301:Drivers/STM32G4xx_HAL_Driver/Src/stm32g4xx_hal_dac.c ****     }
1302:Drivers/STM32G4xx_HAL_Driver/Src/stm32g4xx_hal_dac.c ****   }
1303:Drivers/STM32G4xx_HAL_Driver/Src/stm32g4xx_hal_dac.c ****   tmpreg2 = (sConfig->DAC_SampleAndHold | sConfig->DAC_OutputBuffer | connectOnChip);
1304:Drivers/STM32G4xx_HAL_Driver/Src/stm32g4xx_hal_dac.c ****   /* Clear DAC_MCR_DMADOUBLEx */
1305:Drivers/STM32G4xx_HAL_Driver/Src/stm32g4xx_hal_dac.c ****   tmpreg1 &= ~(((uint32_t)(DAC_MCR_DMADOUBLE1)) << (Channel & 0x10UL));
1306:Drivers/STM32G4xx_HAL_Driver/Src/stm32g4xx_hal_dac.c ****   /* Configure for the selected DAC channel: DMA double data mode */
1307:Drivers/STM32G4xx_HAL_Driver/Src/stm32g4xx_hal_dac.c ****   tmpreg2 |= (sConfig->DAC_DMADoubleDataMode == ENABLE) ? DAC_MCR_DMADOUBLE1 : 0UL;
1308:Drivers/STM32G4xx_HAL_Driver/Src/stm32g4xx_hal_dac.c ****   /* Clear DAC_MCR_SINFORMATx */
1309:Drivers/STM32G4xx_HAL_Driver/Src/stm32g4xx_hal_dac.c ****   tmpreg1 &= ~(((uint32_t)(DAC_MCR_SINFORMAT1)) << (Channel & 0x10UL));
1310:Drivers/STM32G4xx_HAL_Driver/Src/stm32g4xx_hal_dac.c ****   /* Configure for the selected DAC channel: Signed format */
1311:Drivers/STM32G4xx_HAL_Driver/Src/stm32g4xx_hal_dac.c ****   tmpreg2 |= (sConfig->DAC_SignedFormat == ENABLE) ? DAC_MCR_SINFORMAT1 : 0UL;
1312:Drivers/STM32G4xx_HAL_Driver/Src/stm32g4xx_hal_dac.c ****   /* Clear DAC_MCR_HFSEL bits */
1313:Drivers/STM32G4xx_HAL_Driver/Src/stm32g4xx_hal_dac.c ****   tmpreg1 &= ~(DAC_MCR_HFSEL);
1314:Drivers/STM32G4xx_HAL_Driver/Src/stm32g4xx_hal_dac.c ****   /* Configure for both DAC channels: high frequency mode */
ARM GAS   			page 43


1315:Drivers/STM32G4xx_HAL_Driver/Src/stm32g4xx_hal_dac.c ****   if (DAC_HIGH_FREQUENCY_INTERFACE_MODE_AUTOMATIC == sConfig->DAC_HighFrequency)
1316:Drivers/STM32G4xx_HAL_Driver/Src/stm32g4xx_hal_dac.c ****   {
1317:Drivers/STM32G4xx_HAL_Driver/Src/stm32g4xx_hal_dac.c ****     hclkfreq = HAL_RCC_GetHCLKFreq();
1318:Drivers/STM32G4xx_HAL_Driver/Src/stm32g4xx_hal_dac.c ****     if (hclkfreq > HFSEL_ENABLE_THRESHOLD_160MHZ)
1319:Drivers/STM32G4xx_HAL_Driver/Src/stm32g4xx_hal_dac.c ****     {
1320:Drivers/STM32G4xx_HAL_Driver/Src/stm32g4xx_hal_dac.c ****       tmpreg1 |= DAC_HIGH_FREQUENCY_INTERFACE_MODE_ABOVE_160MHZ;
1321:Drivers/STM32G4xx_HAL_Driver/Src/stm32g4xx_hal_dac.c ****     }
1322:Drivers/STM32G4xx_HAL_Driver/Src/stm32g4xx_hal_dac.c ****     else if (hclkfreq > HFSEL_ENABLE_THRESHOLD_80MHZ)
1323:Drivers/STM32G4xx_HAL_Driver/Src/stm32g4xx_hal_dac.c ****     {
1324:Drivers/STM32G4xx_HAL_Driver/Src/stm32g4xx_hal_dac.c ****       tmpreg1 |= DAC_HIGH_FREQUENCY_INTERFACE_MODE_ABOVE_80MHZ;
1325:Drivers/STM32G4xx_HAL_Driver/Src/stm32g4xx_hal_dac.c ****     }
1326:Drivers/STM32G4xx_HAL_Driver/Src/stm32g4xx_hal_dac.c ****     else
1327:Drivers/STM32G4xx_HAL_Driver/Src/stm32g4xx_hal_dac.c ****     {
1328:Drivers/STM32G4xx_HAL_Driver/Src/stm32g4xx_hal_dac.c ****       tmpreg1 |= DAC_HIGH_FREQUENCY_INTERFACE_MODE_DISABLE;
1329:Drivers/STM32G4xx_HAL_Driver/Src/stm32g4xx_hal_dac.c ****     }
1330:Drivers/STM32G4xx_HAL_Driver/Src/stm32g4xx_hal_dac.c ****   }
1331:Drivers/STM32G4xx_HAL_Driver/Src/stm32g4xx_hal_dac.c ****   else
1332:Drivers/STM32G4xx_HAL_Driver/Src/stm32g4xx_hal_dac.c ****   {
1333:Drivers/STM32G4xx_HAL_Driver/Src/stm32g4xx_hal_dac.c ****     tmpreg1 |= sConfig->DAC_HighFrequency;
1334:Drivers/STM32G4xx_HAL_Driver/Src/stm32g4xx_hal_dac.c ****   }
1335:Drivers/STM32G4xx_HAL_Driver/Src/stm32g4xx_hal_dac.c ****   /* Calculate MCR register value depending on DAC_Channel */
1336:Drivers/STM32G4xx_HAL_Driver/Src/stm32g4xx_hal_dac.c ****   tmpreg1 |= tmpreg2 << (Channel & 0x10UL);
1337:Drivers/STM32G4xx_HAL_Driver/Src/stm32g4xx_hal_dac.c ****   /* Write to DAC MCR */
1338:Drivers/STM32G4xx_HAL_Driver/Src/stm32g4xx_hal_dac.c ****   hdac->Instance->MCR = tmpreg1;
1339:Drivers/STM32G4xx_HAL_Driver/Src/stm32g4xx_hal_dac.c **** 
1340:Drivers/STM32G4xx_HAL_Driver/Src/stm32g4xx_hal_dac.c ****   /* DAC in normal operating mode hence clear DAC_CR_CENx bit */
1341:Drivers/STM32G4xx_HAL_Driver/Src/stm32g4xx_hal_dac.c ****   CLEAR_BIT(hdac->Instance->CR, DAC_CR_CEN1 << (Channel & 0x10UL));
1342:Drivers/STM32G4xx_HAL_Driver/Src/stm32g4xx_hal_dac.c **** 
1343:Drivers/STM32G4xx_HAL_Driver/Src/stm32g4xx_hal_dac.c ****   /* Get the DAC CR value */
1344:Drivers/STM32G4xx_HAL_Driver/Src/stm32g4xx_hal_dac.c ****   tmpreg1 = hdac->Instance->CR;
1345:Drivers/STM32G4xx_HAL_Driver/Src/stm32g4xx_hal_dac.c ****   /* Clear TENx, TSELx, WAVEx and MAMPx bits */
1346:Drivers/STM32G4xx_HAL_Driver/Src/stm32g4xx_hal_dac.c ****   tmpreg1 &= ~(((uint32_t)(DAC_CR_MAMP1 | DAC_CR_WAVE1 | DAC_CR_TSEL1 | DAC_CR_TEN1)) << (Channel &
1347:Drivers/STM32G4xx_HAL_Driver/Src/stm32g4xx_hal_dac.c ****   /* Configure for the selected DAC channel: trigger */
1348:Drivers/STM32G4xx_HAL_Driver/Src/stm32g4xx_hal_dac.c ****   /* Set TSELx and TENx bits according to DAC_Trigger value */
1349:Drivers/STM32G4xx_HAL_Driver/Src/stm32g4xx_hal_dac.c ****   tmpreg2 = sConfig->DAC_Trigger;
1350:Drivers/STM32G4xx_HAL_Driver/Src/stm32g4xx_hal_dac.c ****   /* Calculate CR register value depending on DAC_Channel */
1351:Drivers/STM32G4xx_HAL_Driver/Src/stm32g4xx_hal_dac.c ****   tmpreg1 |= tmpreg2 << (Channel & 0x10UL);
1352:Drivers/STM32G4xx_HAL_Driver/Src/stm32g4xx_hal_dac.c ****   /* Write to DAC CR */
1353:Drivers/STM32G4xx_HAL_Driver/Src/stm32g4xx_hal_dac.c ****   hdac->Instance->CR = tmpreg1;
1354:Drivers/STM32G4xx_HAL_Driver/Src/stm32g4xx_hal_dac.c ****   /* Disable wave generation */
1355:Drivers/STM32G4xx_HAL_Driver/Src/stm32g4xx_hal_dac.c ****   CLEAR_BIT(hdac->Instance->CR, (DAC_CR_WAVE1 << (Channel & 0x10UL)));
1356:Drivers/STM32G4xx_HAL_Driver/Src/stm32g4xx_hal_dac.c **** 
1357:Drivers/STM32G4xx_HAL_Driver/Src/stm32g4xx_hal_dac.c ****   /* Set STRSTTRIGSELx and STINCTRIGSELx bits according to DAC_Trigger & DAC_Trigger2 values */
1358:Drivers/STM32G4xx_HAL_Driver/Src/stm32g4xx_hal_dac.c ****   tmpreg2 = ((sConfig->DAC_Trigger & DAC_CR_TSEL1) >> DAC_CR_TSEL1_Pos) << DAC_STMODR_STRSTTRIGSEL1
1359:Drivers/STM32G4xx_HAL_Driver/Src/stm32g4xx_hal_dac.c ****   tmpreg2 |= ((sConfig->DAC_Trigger2 & DAC_CR_TSEL1) >> DAC_CR_TSEL1_Pos) << DAC_STMODR_STINCTRIGSE
1360:Drivers/STM32G4xx_HAL_Driver/Src/stm32g4xx_hal_dac.c ****   /* Modify STMODR register value depending on DAC_Channel */
1361:Drivers/STM32G4xx_HAL_Driver/Src/stm32g4xx_hal_dac.c ****   MODIFY_REG(hdac->Instance->STMODR, (DAC_STMODR_STINCTRIGSEL1 | DAC_STMODR_STRSTTRIGSEL1)
1362:Drivers/STM32G4xx_HAL_Driver/Src/stm32g4xx_hal_dac.c ****              << (Channel & 0x10UL), tmpreg2 << (Channel & 0x10UL));
1363:Drivers/STM32G4xx_HAL_Driver/Src/stm32g4xx_hal_dac.c ****   /* Change DAC state */
1364:Drivers/STM32G4xx_HAL_Driver/Src/stm32g4xx_hal_dac.c ****   hdac->State = HAL_DAC_STATE_READY;
1365:Drivers/STM32G4xx_HAL_Driver/Src/stm32g4xx_hal_dac.c **** 
1366:Drivers/STM32G4xx_HAL_Driver/Src/stm32g4xx_hal_dac.c ****   /* Process unlocked */
1367:Drivers/STM32G4xx_HAL_Driver/Src/stm32g4xx_hal_dac.c ****   __HAL_UNLOCK(hdac);
1368:Drivers/STM32G4xx_HAL_Driver/Src/stm32g4xx_hal_dac.c **** 
1369:Drivers/STM32G4xx_HAL_Driver/Src/stm32g4xx_hal_dac.c ****   /* Return function status */
1370:Drivers/STM32G4xx_HAL_Driver/Src/stm32g4xx_hal_dac.c ****   return status;
1371:Drivers/STM32G4xx_HAL_Driver/Src/stm32g4xx_hal_dac.c **** }
ARM GAS   			page 44


1372:Drivers/STM32G4xx_HAL_Driver/Src/stm32g4xx_hal_dac.c **** 
1373:Drivers/STM32G4xx_HAL_Driver/Src/stm32g4xx_hal_dac.c **** /**
1374:Drivers/STM32G4xx_HAL_Driver/Src/stm32g4xx_hal_dac.c ****   * @}
1375:Drivers/STM32G4xx_HAL_Driver/Src/stm32g4xx_hal_dac.c ****   */
1376:Drivers/STM32G4xx_HAL_Driver/Src/stm32g4xx_hal_dac.c **** 
1377:Drivers/STM32G4xx_HAL_Driver/Src/stm32g4xx_hal_dac.c **** /** @defgroup DAC_Exported_Functions_Group4 Peripheral State and Errors functions
1378:Drivers/STM32G4xx_HAL_Driver/Src/stm32g4xx_hal_dac.c ****   *  @brief   Peripheral State and Errors functions
1379:Drivers/STM32G4xx_HAL_Driver/Src/stm32g4xx_hal_dac.c ****   *
1380:Drivers/STM32G4xx_HAL_Driver/Src/stm32g4xx_hal_dac.c **** @verbatim
1381:Drivers/STM32G4xx_HAL_Driver/Src/stm32g4xx_hal_dac.c ****   ==============================================================================
1382:Drivers/STM32G4xx_HAL_Driver/Src/stm32g4xx_hal_dac.c ****             ##### Peripheral State and Errors functions #####
1383:Drivers/STM32G4xx_HAL_Driver/Src/stm32g4xx_hal_dac.c ****   ==============================================================================
1384:Drivers/STM32G4xx_HAL_Driver/Src/stm32g4xx_hal_dac.c ****     [..]
1385:Drivers/STM32G4xx_HAL_Driver/Src/stm32g4xx_hal_dac.c ****     This subsection provides functions allowing to
1386:Drivers/STM32G4xx_HAL_Driver/Src/stm32g4xx_hal_dac.c ****       (+) Check the DAC state.
1387:Drivers/STM32G4xx_HAL_Driver/Src/stm32g4xx_hal_dac.c ****       (+) Check the DAC Errors.
1388:Drivers/STM32G4xx_HAL_Driver/Src/stm32g4xx_hal_dac.c **** 
1389:Drivers/STM32G4xx_HAL_Driver/Src/stm32g4xx_hal_dac.c **** @endverbatim
1390:Drivers/STM32G4xx_HAL_Driver/Src/stm32g4xx_hal_dac.c ****   * @{
1391:Drivers/STM32G4xx_HAL_Driver/Src/stm32g4xx_hal_dac.c ****   */
1392:Drivers/STM32G4xx_HAL_Driver/Src/stm32g4xx_hal_dac.c **** 
1393:Drivers/STM32G4xx_HAL_Driver/Src/stm32g4xx_hal_dac.c **** /**
1394:Drivers/STM32G4xx_HAL_Driver/Src/stm32g4xx_hal_dac.c ****   * @brief  return the DAC handle state
1395:Drivers/STM32G4xx_HAL_Driver/Src/stm32g4xx_hal_dac.c ****   * @param  hdac pointer to a DAC_HandleTypeDef structure that contains
1396:Drivers/STM32G4xx_HAL_Driver/Src/stm32g4xx_hal_dac.c ****   *         the configuration information for the specified DAC.
1397:Drivers/STM32G4xx_HAL_Driver/Src/stm32g4xx_hal_dac.c ****   * @retval HAL state
1398:Drivers/STM32G4xx_HAL_Driver/Src/stm32g4xx_hal_dac.c ****   */
1399:Drivers/STM32G4xx_HAL_Driver/Src/stm32g4xx_hal_dac.c **** HAL_DAC_StateTypeDef HAL_DAC_GetState(const DAC_HandleTypeDef *hdac)
1400:Drivers/STM32G4xx_HAL_Driver/Src/stm32g4xx_hal_dac.c **** {
1401:Drivers/STM32G4xx_HAL_Driver/Src/stm32g4xx_hal_dac.c ****   /* Return DAC handle state */
1402:Drivers/STM32G4xx_HAL_Driver/Src/stm32g4xx_hal_dac.c ****   return hdac->State;
1403:Drivers/STM32G4xx_HAL_Driver/Src/stm32g4xx_hal_dac.c **** }
1404:Drivers/STM32G4xx_HAL_Driver/Src/stm32g4xx_hal_dac.c **** 
1405:Drivers/STM32G4xx_HAL_Driver/Src/stm32g4xx_hal_dac.c **** 
1406:Drivers/STM32G4xx_HAL_Driver/Src/stm32g4xx_hal_dac.c **** /**
1407:Drivers/STM32G4xx_HAL_Driver/Src/stm32g4xx_hal_dac.c ****   * @brief  Return the DAC error code
1408:Drivers/STM32G4xx_HAL_Driver/Src/stm32g4xx_hal_dac.c ****   * @param  hdac pointer to a DAC_HandleTypeDef structure that contains
1409:Drivers/STM32G4xx_HAL_Driver/Src/stm32g4xx_hal_dac.c ****   *         the configuration information for the specified DAC.
1410:Drivers/STM32G4xx_HAL_Driver/Src/stm32g4xx_hal_dac.c ****   * @retval DAC Error Code
1411:Drivers/STM32G4xx_HAL_Driver/Src/stm32g4xx_hal_dac.c ****   */
1412:Drivers/STM32G4xx_HAL_Driver/Src/stm32g4xx_hal_dac.c **** uint32_t HAL_DAC_GetError(const DAC_HandleTypeDef *hdac)
1413:Drivers/STM32G4xx_HAL_Driver/Src/stm32g4xx_hal_dac.c **** {
1414:Drivers/STM32G4xx_HAL_Driver/Src/stm32g4xx_hal_dac.c ****   return hdac->ErrorCode;
1415:Drivers/STM32G4xx_HAL_Driver/Src/stm32g4xx_hal_dac.c **** }
1416:Drivers/STM32G4xx_HAL_Driver/Src/stm32g4xx_hal_dac.c **** 
1417:Drivers/STM32G4xx_HAL_Driver/Src/stm32g4xx_hal_dac.c **** /**
1418:Drivers/STM32G4xx_HAL_Driver/Src/stm32g4xx_hal_dac.c ****   * @}
1419:Drivers/STM32G4xx_HAL_Driver/Src/stm32g4xx_hal_dac.c ****   */
1420:Drivers/STM32G4xx_HAL_Driver/Src/stm32g4xx_hal_dac.c **** 
1421:Drivers/STM32G4xx_HAL_Driver/Src/stm32g4xx_hal_dac.c **** /**
1422:Drivers/STM32G4xx_HAL_Driver/Src/stm32g4xx_hal_dac.c ****   * @}
1423:Drivers/STM32G4xx_HAL_Driver/Src/stm32g4xx_hal_dac.c ****   */
1424:Drivers/STM32G4xx_HAL_Driver/Src/stm32g4xx_hal_dac.c **** 
1425:Drivers/STM32G4xx_HAL_Driver/Src/stm32g4xx_hal_dac.c **** /** @addtogroup DAC_Exported_Functions
1426:Drivers/STM32G4xx_HAL_Driver/Src/stm32g4xx_hal_dac.c ****   * @{
1427:Drivers/STM32G4xx_HAL_Driver/Src/stm32g4xx_hal_dac.c ****   */
1428:Drivers/STM32G4xx_HAL_Driver/Src/stm32g4xx_hal_dac.c **** 
ARM GAS   			page 45


1429:Drivers/STM32G4xx_HAL_Driver/Src/stm32g4xx_hal_dac.c **** /** @addtogroup DAC_Exported_Functions_Group1
1430:Drivers/STM32G4xx_HAL_Driver/Src/stm32g4xx_hal_dac.c ****   * @{
1431:Drivers/STM32G4xx_HAL_Driver/Src/stm32g4xx_hal_dac.c ****   */
1432:Drivers/STM32G4xx_HAL_Driver/Src/stm32g4xx_hal_dac.c **** #if (USE_HAL_DAC_REGISTER_CALLBACKS == 1)
1433:Drivers/STM32G4xx_HAL_Driver/Src/stm32g4xx_hal_dac.c **** /**
1434:Drivers/STM32G4xx_HAL_Driver/Src/stm32g4xx_hal_dac.c ****   * @brief  Register a User DAC Callback
1435:Drivers/STM32G4xx_HAL_Driver/Src/stm32g4xx_hal_dac.c ****   *         To be used instead of the weak (overridden) predefined callback
1436:Drivers/STM32G4xx_HAL_Driver/Src/stm32g4xx_hal_dac.c ****   * @note   The HAL_DAC_RegisterCallback() may be called before HAL_DAC_Init() in HAL_DAC_STATE_RES
1437:Drivers/STM32G4xx_HAL_Driver/Src/stm32g4xx_hal_dac.c ****   *         callbacks for HAL_DAC_MSPINIT_CB_ID and HAL_DAC_MSPDEINIT_CB_ID
1438:Drivers/STM32G4xx_HAL_Driver/Src/stm32g4xx_hal_dac.c ****   * @param  hdac DAC handle
1439:Drivers/STM32G4xx_HAL_Driver/Src/stm32g4xx_hal_dac.c ****   * @param  CallbackID ID of the callback to be registered
1440:Drivers/STM32G4xx_HAL_Driver/Src/stm32g4xx_hal_dac.c ****   *         This parameter can be one of the following values:
1441:Drivers/STM32G4xx_HAL_Driver/Src/stm32g4xx_hal_dac.c ****   *          @arg @ref HAL_DAC_ERROR_INVALID_CALLBACK   DAC Error Callback ID
1442:Drivers/STM32G4xx_HAL_Driver/Src/stm32g4xx_hal_dac.c ****   *          @arg @ref HAL_DAC_CH1_COMPLETE_CB_ID       DAC CH1 Complete Callback ID
1443:Drivers/STM32G4xx_HAL_Driver/Src/stm32g4xx_hal_dac.c ****   *          @arg @ref HAL_DAC_CH1_HALF_COMPLETE_CB_ID  DAC CH1 Half Complete Callback ID
1444:Drivers/STM32G4xx_HAL_Driver/Src/stm32g4xx_hal_dac.c ****   *          @arg @ref HAL_DAC_CH1_ERROR_ID             DAC CH1 Error Callback ID
1445:Drivers/STM32G4xx_HAL_Driver/Src/stm32g4xx_hal_dac.c ****   *          @arg @ref HAL_DAC_CH1_UNDERRUN_CB_ID       DAC CH1 UnderRun Callback ID
1446:Drivers/STM32G4xx_HAL_Driver/Src/stm32g4xx_hal_dac.c ****   *          @arg @ref HAL_DAC_CH2_COMPLETE_CB_ID       DAC CH2 Complete Callback ID
1447:Drivers/STM32G4xx_HAL_Driver/Src/stm32g4xx_hal_dac.c ****   *          @arg @ref HAL_DAC_CH2_HALF_COMPLETE_CB_ID  DAC CH2 Half Complete Callback ID
1448:Drivers/STM32G4xx_HAL_Driver/Src/stm32g4xx_hal_dac.c ****   *          @arg @ref HAL_DAC_CH2_ERROR_ID             DAC CH2 Error Callback ID
1449:Drivers/STM32G4xx_HAL_Driver/Src/stm32g4xx_hal_dac.c ****   *          @arg @ref HAL_DAC_CH2_UNDERRUN_CB_ID       DAC CH2 UnderRun Callback ID
1450:Drivers/STM32G4xx_HAL_Driver/Src/stm32g4xx_hal_dac.c ****   *          @arg @ref HAL_DAC_MSPINIT_CB_ID            DAC MSP Init Callback ID
1451:Drivers/STM32G4xx_HAL_Driver/Src/stm32g4xx_hal_dac.c ****   *          @arg @ref HAL_DAC_MSPDEINIT_CB_ID          DAC MSP DeInit Callback ID
1452:Drivers/STM32G4xx_HAL_Driver/Src/stm32g4xx_hal_dac.c ****   *
1453:Drivers/STM32G4xx_HAL_Driver/Src/stm32g4xx_hal_dac.c ****   * @param  pCallback pointer to the Callback function
1454:Drivers/STM32G4xx_HAL_Driver/Src/stm32g4xx_hal_dac.c ****   * @retval status
1455:Drivers/STM32G4xx_HAL_Driver/Src/stm32g4xx_hal_dac.c ****   */
1456:Drivers/STM32G4xx_HAL_Driver/Src/stm32g4xx_hal_dac.c **** HAL_StatusTypeDef HAL_DAC_RegisterCallback(DAC_HandleTypeDef *hdac, HAL_DAC_CallbackIDTypeDef Callb
1457:Drivers/STM32G4xx_HAL_Driver/Src/stm32g4xx_hal_dac.c ****                                            pDAC_CallbackTypeDef pCallback)
1458:Drivers/STM32G4xx_HAL_Driver/Src/stm32g4xx_hal_dac.c **** {
1459:Drivers/STM32G4xx_HAL_Driver/Src/stm32g4xx_hal_dac.c ****   HAL_StatusTypeDef status = HAL_OK;
1460:Drivers/STM32G4xx_HAL_Driver/Src/stm32g4xx_hal_dac.c **** 
1461:Drivers/STM32G4xx_HAL_Driver/Src/stm32g4xx_hal_dac.c ****   /* Check the DAC peripheral handle */
1462:Drivers/STM32G4xx_HAL_Driver/Src/stm32g4xx_hal_dac.c ****   if (hdac == NULL)
1463:Drivers/STM32G4xx_HAL_Driver/Src/stm32g4xx_hal_dac.c ****   {
1464:Drivers/STM32G4xx_HAL_Driver/Src/stm32g4xx_hal_dac.c ****     return HAL_ERROR;
1465:Drivers/STM32G4xx_HAL_Driver/Src/stm32g4xx_hal_dac.c ****   }
1466:Drivers/STM32G4xx_HAL_Driver/Src/stm32g4xx_hal_dac.c **** 
1467:Drivers/STM32G4xx_HAL_Driver/Src/stm32g4xx_hal_dac.c ****   if (pCallback == NULL)
1468:Drivers/STM32G4xx_HAL_Driver/Src/stm32g4xx_hal_dac.c ****   {
1469:Drivers/STM32G4xx_HAL_Driver/Src/stm32g4xx_hal_dac.c ****     /* Update the error code */
1470:Drivers/STM32G4xx_HAL_Driver/Src/stm32g4xx_hal_dac.c ****     hdac->ErrorCode |= HAL_DAC_ERROR_INVALID_CALLBACK;
1471:Drivers/STM32G4xx_HAL_Driver/Src/stm32g4xx_hal_dac.c ****     return HAL_ERROR;
1472:Drivers/STM32G4xx_HAL_Driver/Src/stm32g4xx_hal_dac.c ****   }
1473:Drivers/STM32G4xx_HAL_Driver/Src/stm32g4xx_hal_dac.c **** 
1474:Drivers/STM32G4xx_HAL_Driver/Src/stm32g4xx_hal_dac.c ****   if (hdac->State == HAL_DAC_STATE_READY)
1475:Drivers/STM32G4xx_HAL_Driver/Src/stm32g4xx_hal_dac.c ****   {
1476:Drivers/STM32G4xx_HAL_Driver/Src/stm32g4xx_hal_dac.c ****     switch (CallbackID)
1477:Drivers/STM32G4xx_HAL_Driver/Src/stm32g4xx_hal_dac.c ****     {
1478:Drivers/STM32G4xx_HAL_Driver/Src/stm32g4xx_hal_dac.c ****       case HAL_DAC_CH1_COMPLETE_CB_ID :
1479:Drivers/STM32G4xx_HAL_Driver/Src/stm32g4xx_hal_dac.c ****         hdac->ConvCpltCallbackCh1 = pCallback;
1480:Drivers/STM32G4xx_HAL_Driver/Src/stm32g4xx_hal_dac.c ****         break;
1481:Drivers/STM32G4xx_HAL_Driver/Src/stm32g4xx_hal_dac.c ****       case HAL_DAC_CH1_HALF_COMPLETE_CB_ID :
1482:Drivers/STM32G4xx_HAL_Driver/Src/stm32g4xx_hal_dac.c ****         hdac->ConvHalfCpltCallbackCh1 = pCallback;
1483:Drivers/STM32G4xx_HAL_Driver/Src/stm32g4xx_hal_dac.c ****         break;
1484:Drivers/STM32G4xx_HAL_Driver/Src/stm32g4xx_hal_dac.c ****       case HAL_DAC_CH1_ERROR_ID :
1485:Drivers/STM32G4xx_HAL_Driver/Src/stm32g4xx_hal_dac.c ****         hdac->ErrorCallbackCh1 = pCallback;
ARM GAS   			page 46


1486:Drivers/STM32G4xx_HAL_Driver/Src/stm32g4xx_hal_dac.c ****         break;
1487:Drivers/STM32G4xx_HAL_Driver/Src/stm32g4xx_hal_dac.c ****       case HAL_DAC_CH1_UNDERRUN_CB_ID :
1488:Drivers/STM32G4xx_HAL_Driver/Src/stm32g4xx_hal_dac.c ****         hdac->DMAUnderrunCallbackCh1 = pCallback;
1489:Drivers/STM32G4xx_HAL_Driver/Src/stm32g4xx_hal_dac.c ****         break;
1490:Drivers/STM32G4xx_HAL_Driver/Src/stm32g4xx_hal_dac.c **** 
1491:Drivers/STM32G4xx_HAL_Driver/Src/stm32g4xx_hal_dac.c ****       case HAL_DAC_CH2_COMPLETE_CB_ID :
1492:Drivers/STM32G4xx_HAL_Driver/Src/stm32g4xx_hal_dac.c ****         hdac->ConvCpltCallbackCh2 = pCallback;
1493:Drivers/STM32G4xx_HAL_Driver/Src/stm32g4xx_hal_dac.c ****         break;
1494:Drivers/STM32G4xx_HAL_Driver/Src/stm32g4xx_hal_dac.c ****       case HAL_DAC_CH2_HALF_COMPLETE_CB_ID :
1495:Drivers/STM32G4xx_HAL_Driver/Src/stm32g4xx_hal_dac.c ****         hdac->ConvHalfCpltCallbackCh2 = pCallback;
1496:Drivers/STM32G4xx_HAL_Driver/Src/stm32g4xx_hal_dac.c ****         break;
1497:Drivers/STM32G4xx_HAL_Driver/Src/stm32g4xx_hal_dac.c ****       case HAL_DAC_CH2_ERROR_ID :
1498:Drivers/STM32G4xx_HAL_Driver/Src/stm32g4xx_hal_dac.c ****         hdac->ErrorCallbackCh2 = pCallback;
1499:Drivers/STM32G4xx_HAL_Driver/Src/stm32g4xx_hal_dac.c ****         break;
1500:Drivers/STM32G4xx_HAL_Driver/Src/stm32g4xx_hal_dac.c ****       case HAL_DAC_CH2_UNDERRUN_CB_ID :
1501:Drivers/STM32G4xx_HAL_Driver/Src/stm32g4xx_hal_dac.c ****         hdac->DMAUnderrunCallbackCh2 = pCallback;
1502:Drivers/STM32G4xx_HAL_Driver/Src/stm32g4xx_hal_dac.c ****         break;
1503:Drivers/STM32G4xx_HAL_Driver/Src/stm32g4xx_hal_dac.c **** 
1504:Drivers/STM32G4xx_HAL_Driver/Src/stm32g4xx_hal_dac.c ****       case HAL_DAC_MSPINIT_CB_ID :
1505:Drivers/STM32G4xx_HAL_Driver/Src/stm32g4xx_hal_dac.c ****         hdac->MspInitCallback = pCallback;
1506:Drivers/STM32G4xx_HAL_Driver/Src/stm32g4xx_hal_dac.c ****         break;
1507:Drivers/STM32G4xx_HAL_Driver/Src/stm32g4xx_hal_dac.c ****       case HAL_DAC_MSPDEINIT_CB_ID :
1508:Drivers/STM32G4xx_HAL_Driver/Src/stm32g4xx_hal_dac.c ****         hdac->MspDeInitCallback = pCallback;
1509:Drivers/STM32G4xx_HAL_Driver/Src/stm32g4xx_hal_dac.c ****         break;
1510:Drivers/STM32G4xx_HAL_Driver/Src/stm32g4xx_hal_dac.c ****       default :
1511:Drivers/STM32G4xx_HAL_Driver/Src/stm32g4xx_hal_dac.c ****         /* Update the error code */
1512:Drivers/STM32G4xx_HAL_Driver/Src/stm32g4xx_hal_dac.c ****         hdac->ErrorCode |= HAL_DAC_ERROR_INVALID_CALLBACK;
1513:Drivers/STM32G4xx_HAL_Driver/Src/stm32g4xx_hal_dac.c ****         /* update return status */
1514:Drivers/STM32G4xx_HAL_Driver/Src/stm32g4xx_hal_dac.c ****         status =  HAL_ERROR;
1515:Drivers/STM32G4xx_HAL_Driver/Src/stm32g4xx_hal_dac.c ****         break;
1516:Drivers/STM32G4xx_HAL_Driver/Src/stm32g4xx_hal_dac.c ****     }
1517:Drivers/STM32G4xx_HAL_Driver/Src/stm32g4xx_hal_dac.c ****   }
1518:Drivers/STM32G4xx_HAL_Driver/Src/stm32g4xx_hal_dac.c ****   else if (hdac->State == HAL_DAC_STATE_RESET)
1519:Drivers/STM32G4xx_HAL_Driver/Src/stm32g4xx_hal_dac.c ****   {
1520:Drivers/STM32G4xx_HAL_Driver/Src/stm32g4xx_hal_dac.c ****     switch (CallbackID)
1521:Drivers/STM32G4xx_HAL_Driver/Src/stm32g4xx_hal_dac.c ****     {
1522:Drivers/STM32G4xx_HAL_Driver/Src/stm32g4xx_hal_dac.c ****       case HAL_DAC_MSPINIT_CB_ID :
1523:Drivers/STM32G4xx_HAL_Driver/Src/stm32g4xx_hal_dac.c ****         hdac->MspInitCallback = pCallback;
1524:Drivers/STM32G4xx_HAL_Driver/Src/stm32g4xx_hal_dac.c ****         break;
1525:Drivers/STM32G4xx_HAL_Driver/Src/stm32g4xx_hal_dac.c ****       case HAL_DAC_MSPDEINIT_CB_ID :
1526:Drivers/STM32G4xx_HAL_Driver/Src/stm32g4xx_hal_dac.c ****         hdac->MspDeInitCallback = pCallback;
1527:Drivers/STM32G4xx_HAL_Driver/Src/stm32g4xx_hal_dac.c ****         break;
1528:Drivers/STM32G4xx_HAL_Driver/Src/stm32g4xx_hal_dac.c ****       default :
1529:Drivers/STM32G4xx_HAL_Driver/Src/stm32g4xx_hal_dac.c ****         /* Update the error code */
1530:Drivers/STM32G4xx_HAL_Driver/Src/stm32g4xx_hal_dac.c ****         hdac->ErrorCode |= HAL_DAC_ERROR_INVALID_CALLBACK;
1531:Drivers/STM32G4xx_HAL_Driver/Src/stm32g4xx_hal_dac.c ****         /* update return status */
1532:Drivers/STM32G4xx_HAL_Driver/Src/stm32g4xx_hal_dac.c ****         status =  HAL_ERROR;
1533:Drivers/STM32G4xx_HAL_Driver/Src/stm32g4xx_hal_dac.c ****         break;
1534:Drivers/STM32G4xx_HAL_Driver/Src/stm32g4xx_hal_dac.c ****     }
1535:Drivers/STM32G4xx_HAL_Driver/Src/stm32g4xx_hal_dac.c ****   }
1536:Drivers/STM32G4xx_HAL_Driver/Src/stm32g4xx_hal_dac.c ****   else
1537:Drivers/STM32G4xx_HAL_Driver/Src/stm32g4xx_hal_dac.c ****   {
1538:Drivers/STM32G4xx_HAL_Driver/Src/stm32g4xx_hal_dac.c ****     /* Update the error code */
1539:Drivers/STM32G4xx_HAL_Driver/Src/stm32g4xx_hal_dac.c ****     hdac->ErrorCode |= HAL_DAC_ERROR_INVALID_CALLBACK;
1540:Drivers/STM32G4xx_HAL_Driver/Src/stm32g4xx_hal_dac.c ****     /* update return status */
1541:Drivers/STM32G4xx_HAL_Driver/Src/stm32g4xx_hal_dac.c ****     status =  HAL_ERROR;
1542:Drivers/STM32G4xx_HAL_Driver/Src/stm32g4xx_hal_dac.c ****   }
ARM GAS   			page 47


1543:Drivers/STM32G4xx_HAL_Driver/Src/stm32g4xx_hal_dac.c **** 
1544:Drivers/STM32G4xx_HAL_Driver/Src/stm32g4xx_hal_dac.c ****   return status;
1545:Drivers/STM32G4xx_HAL_Driver/Src/stm32g4xx_hal_dac.c **** }
1546:Drivers/STM32G4xx_HAL_Driver/Src/stm32g4xx_hal_dac.c **** 
1547:Drivers/STM32G4xx_HAL_Driver/Src/stm32g4xx_hal_dac.c **** /**
1548:Drivers/STM32G4xx_HAL_Driver/Src/stm32g4xx_hal_dac.c ****   * @brief  Unregister a User DAC Callback
1549:Drivers/STM32G4xx_HAL_Driver/Src/stm32g4xx_hal_dac.c ****   *         DAC Callback is redirected to the weak (overridden) predefined callback
1550:Drivers/STM32G4xx_HAL_Driver/Src/stm32g4xx_hal_dac.c ****   * @note   The HAL_DAC_UnRegisterCallback() may be called before HAL_DAC_Init() in HAL_DAC_STATE_R
1551:Drivers/STM32G4xx_HAL_Driver/Src/stm32g4xx_hal_dac.c ****   *         callbacks for HAL_DAC_MSPINIT_CB_ID and HAL_DAC_MSPDEINIT_CB_ID
1552:Drivers/STM32G4xx_HAL_Driver/Src/stm32g4xx_hal_dac.c ****   * @param  hdac DAC handle
1553:Drivers/STM32G4xx_HAL_Driver/Src/stm32g4xx_hal_dac.c ****   * @param  CallbackID ID of the callback to be unregistered
1554:Drivers/STM32G4xx_HAL_Driver/Src/stm32g4xx_hal_dac.c ****   *         This parameter can be one of the following values:
1555:Drivers/STM32G4xx_HAL_Driver/Src/stm32g4xx_hal_dac.c ****   *          @arg @ref HAL_DAC_CH1_COMPLETE_CB_ID          DAC CH1 transfer Complete Callback ID
1556:Drivers/STM32G4xx_HAL_Driver/Src/stm32g4xx_hal_dac.c ****   *          @arg @ref HAL_DAC_CH1_HALF_COMPLETE_CB_ID     DAC CH1 Half Complete Callback ID
1557:Drivers/STM32G4xx_HAL_Driver/Src/stm32g4xx_hal_dac.c ****   *          @arg @ref HAL_DAC_CH1_ERROR_ID                DAC CH1 Error Callback ID
1558:Drivers/STM32G4xx_HAL_Driver/Src/stm32g4xx_hal_dac.c ****   *          @arg @ref HAL_DAC_CH1_UNDERRUN_CB_ID          DAC CH1 UnderRun Callback ID
1559:Drivers/STM32G4xx_HAL_Driver/Src/stm32g4xx_hal_dac.c ****   *          @arg @ref HAL_DAC_CH2_COMPLETE_CB_ID          DAC CH2 Complete Callback ID
1560:Drivers/STM32G4xx_HAL_Driver/Src/stm32g4xx_hal_dac.c ****   *          @arg @ref HAL_DAC_CH2_HALF_COMPLETE_CB_ID     DAC CH2 Half Complete Callback ID
1561:Drivers/STM32G4xx_HAL_Driver/Src/stm32g4xx_hal_dac.c ****   *          @arg @ref HAL_DAC_CH2_ERROR_ID                DAC CH2 Error Callback ID
1562:Drivers/STM32G4xx_HAL_Driver/Src/stm32g4xx_hal_dac.c ****   *          @arg @ref HAL_DAC_CH2_UNDERRUN_CB_ID          DAC CH2 UnderRun Callback ID
1563:Drivers/STM32G4xx_HAL_Driver/Src/stm32g4xx_hal_dac.c ****   *          @arg @ref HAL_DAC_MSPINIT_CB_ID               DAC MSP Init Callback ID
1564:Drivers/STM32G4xx_HAL_Driver/Src/stm32g4xx_hal_dac.c ****   *          @arg @ref HAL_DAC_MSPDEINIT_CB_ID             DAC MSP DeInit Callback ID
1565:Drivers/STM32G4xx_HAL_Driver/Src/stm32g4xx_hal_dac.c ****   *          @arg @ref HAL_DAC_ALL_CB_ID                   DAC All callbacks
1566:Drivers/STM32G4xx_HAL_Driver/Src/stm32g4xx_hal_dac.c ****   * @retval status
1567:Drivers/STM32G4xx_HAL_Driver/Src/stm32g4xx_hal_dac.c ****   */
1568:Drivers/STM32G4xx_HAL_Driver/Src/stm32g4xx_hal_dac.c **** HAL_StatusTypeDef HAL_DAC_UnRegisterCallback(DAC_HandleTypeDef *hdac, HAL_DAC_CallbackIDTypeDef Cal
1569:Drivers/STM32G4xx_HAL_Driver/Src/stm32g4xx_hal_dac.c **** {
1570:Drivers/STM32G4xx_HAL_Driver/Src/stm32g4xx_hal_dac.c ****   HAL_StatusTypeDef status = HAL_OK;
1571:Drivers/STM32G4xx_HAL_Driver/Src/stm32g4xx_hal_dac.c **** 
1572:Drivers/STM32G4xx_HAL_Driver/Src/stm32g4xx_hal_dac.c ****   /* Check the DAC peripheral handle */
1573:Drivers/STM32G4xx_HAL_Driver/Src/stm32g4xx_hal_dac.c ****   if (hdac == NULL)
1574:Drivers/STM32G4xx_HAL_Driver/Src/stm32g4xx_hal_dac.c ****   {
1575:Drivers/STM32G4xx_HAL_Driver/Src/stm32g4xx_hal_dac.c ****     return HAL_ERROR;
1576:Drivers/STM32G4xx_HAL_Driver/Src/stm32g4xx_hal_dac.c ****   }
1577:Drivers/STM32G4xx_HAL_Driver/Src/stm32g4xx_hal_dac.c **** 
1578:Drivers/STM32G4xx_HAL_Driver/Src/stm32g4xx_hal_dac.c ****   if (hdac->State == HAL_DAC_STATE_READY)
1579:Drivers/STM32G4xx_HAL_Driver/Src/stm32g4xx_hal_dac.c ****   {
1580:Drivers/STM32G4xx_HAL_Driver/Src/stm32g4xx_hal_dac.c ****     switch (CallbackID)
1581:Drivers/STM32G4xx_HAL_Driver/Src/stm32g4xx_hal_dac.c ****     {
1582:Drivers/STM32G4xx_HAL_Driver/Src/stm32g4xx_hal_dac.c ****       case HAL_DAC_CH1_COMPLETE_CB_ID :
1583:Drivers/STM32G4xx_HAL_Driver/Src/stm32g4xx_hal_dac.c ****         hdac->ConvCpltCallbackCh1 = HAL_DAC_ConvCpltCallbackCh1;
1584:Drivers/STM32G4xx_HAL_Driver/Src/stm32g4xx_hal_dac.c ****         break;
1585:Drivers/STM32G4xx_HAL_Driver/Src/stm32g4xx_hal_dac.c ****       case HAL_DAC_CH1_HALF_COMPLETE_CB_ID :
1586:Drivers/STM32G4xx_HAL_Driver/Src/stm32g4xx_hal_dac.c ****         hdac->ConvHalfCpltCallbackCh1 = HAL_DAC_ConvHalfCpltCallbackCh1;
1587:Drivers/STM32G4xx_HAL_Driver/Src/stm32g4xx_hal_dac.c ****         break;
1588:Drivers/STM32G4xx_HAL_Driver/Src/stm32g4xx_hal_dac.c ****       case HAL_DAC_CH1_ERROR_ID :
1589:Drivers/STM32G4xx_HAL_Driver/Src/stm32g4xx_hal_dac.c ****         hdac->ErrorCallbackCh1 = HAL_DAC_ErrorCallbackCh1;
1590:Drivers/STM32G4xx_HAL_Driver/Src/stm32g4xx_hal_dac.c ****         break;
1591:Drivers/STM32G4xx_HAL_Driver/Src/stm32g4xx_hal_dac.c ****       case HAL_DAC_CH1_UNDERRUN_CB_ID :
1592:Drivers/STM32G4xx_HAL_Driver/Src/stm32g4xx_hal_dac.c ****         hdac->DMAUnderrunCallbackCh1 = HAL_DAC_DMAUnderrunCallbackCh1;
1593:Drivers/STM32G4xx_HAL_Driver/Src/stm32g4xx_hal_dac.c ****         break;
1594:Drivers/STM32G4xx_HAL_Driver/Src/stm32g4xx_hal_dac.c **** 
1595:Drivers/STM32G4xx_HAL_Driver/Src/stm32g4xx_hal_dac.c ****       case HAL_DAC_CH2_COMPLETE_CB_ID :
1596:Drivers/STM32G4xx_HAL_Driver/Src/stm32g4xx_hal_dac.c ****         hdac->ConvCpltCallbackCh2 = HAL_DACEx_ConvCpltCallbackCh2;
1597:Drivers/STM32G4xx_HAL_Driver/Src/stm32g4xx_hal_dac.c ****         break;
1598:Drivers/STM32G4xx_HAL_Driver/Src/stm32g4xx_hal_dac.c ****       case HAL_DAC_CH2_HALF_COMPLETE_CB_ID :
1599:Drivers/STM32G4xx_HAL_Driver/Src/stm32g4xx_hal_dac.c ****         hdac->ConvHalfCpltCallbackCh2 = HAL_DACEx_ConvHalfCpltCallbackCh2;
ARM GAS   			page 48


1600:Drivers/STM32G4xx_HAL_Driver/Src/stm32g4xx_hal_dac.c ****         break;
1601:Drivers/STM32G4xx_HAL_Driver/Src/stm32g4xx_hal_dac.c ****       case HAL_DAC_CH2_ERROR_ID :
1602:Drivers/STM32G4xx_HAL_Driver/Src/stm32g4xx_hal_dac.c ****         hdac->ErrorCallbackCh2 = HAL_DACEx_ErrorCallbackCh2;
1603:Drivers/STM32G4xx_HAL_Driver/Src/stm32g4xx_hal_dac.c ****         break;
1604:Drivers/STM32G4xx_HAL_Driver/Src/stm32g4xx_hal_dac.c ****       case HAL_DAC_CH2_UNDERRUN_CB_ID :
1605:Drivers/STM32G4xx_HAL_Driver/Src/stm32g4xx_hal_dac.c ****         hdac->DMAUnderrunCallbackCh2 = HAL_DACEx_DMAUnderrunCallbackCh2;
1606:Drivers/STM32G4xx_HAL_Driver/Src/stm32g4xx_hal_dac.c ****         break;
1607:Drivers/STM32G4xx_HAL_Driver/Src/stm32g4xx_hal_dac.c **** 
1608:Drivers/STM32G4xx_HAL_Driver/Src/stm32g4xx_hal_dac.c ****       case HAL_DAC_MSPINIT_CB_ID :
1609:Drivers/STM32G4xx_HAL_Driver/Src/stm32g4xx_hal_dac.c ****         hdac->MspInitCallback = HAL_DAC_MspInit;
1610:Drivers/STM32G4xx_HAL_Driver/Src/stm32g4xx_hal_dac.c ****         break;
1611:Drivers/STM32G4xx_HAL_Driver/Src/stm32g4xx_hal_dac.c ****       case HAL_DAC_MSPDEINIT_CB_ID :
1612:Drivers/STM32G4xx_HAL_Driver/Src/stm32g4xx_hal_dac.c ****         hdac->MspDeInitCallback = HAL_DAC_MspDeInit;
1613:Drivers/STM32G4xx_HAL_Driver/Src/stm32g4xx_hal_dac.c ****         break;
1614:Drivers/STM32G4xx_HAL_Driver/Src/stm32g4xx_hal_dac.c ****       case HAL_DAC_ALL_CB_ID :
1615:Drivers/STM32G4xx_HAL_Driver/Src/stm32g4xx_hal_dac.c ****         hdac->ConvCpltCallbackCh1 = HAL_DAC_ConvCpltCallbackCh1;
1616:Drivers/STM32G4xx_HAL_Driver/Src/stm32g4xx_hal_dac.c ****         hdac->ConvHalfCpltCallbackCh1 = HAL_DAC_ConvHalfCpltCallbackCh1;
1617:Drivers/STM32G4xx_HAL_Driver/Src/stm32g4xx_hal_dac.c ****         hdac->ErrorCallbackCh1 = HAL_DAC_ErrorCallbackCh1;
1618:Drivers/STM32G4xx_HAL_Driver/Src/stm32g4xx_hal_dac.c ****         hdac->DMAUnderrunCallbackCh1 = HAL_DAC_DMAUnderrunCallbackCh1;
1619:Drivers/STM32G4xx_HAL_Driver/Src/stm32g4xx_hal_dac.c **** 
1620:Drivers/STM32G4xx_HAL_Driver/Src/stm32g4xx_hal_dac.c ****         hdac->ConvCpltCallbackCh2 = HAL_DACEx_ConvCpltCallbackCh2;
1621:Drivers/STM32G4xx_HAL_Driver/Src/stm32g4xx_hal_dac.c ****         hdac->ConvHalfCpltCallbackCh2 = HAL_DACEx_ConvHalfCpltCallbackCh2;
1622:Drivers/STM32G4xx_HAL_Driver/Src/stm32g4xx_hal_dac.c ****         hdac->ErrorCallbackCh2 = HAL_DACEx_ErrorCallbackCh2;
1623:Drivers/STM32G4xx_HAL_Driver/Src/stm32g4xx_hal_dac.c ****         hdac->DMAUnderrunCallbackCh2 = HAL_DACEx_DMAUnderrunCallbackCh2;
1624:Drivers/STM32G4xx_HAL_Driver/Src/stm32g4xx_hal_dac.c **** 
1625:Drivers/STM32G4xx_HAL_Driver/Src/stm32g4xx_hal_dac.c ****         hdac->MspInitCallback = HAL_DAC_MspInit;
1626:Drivers/STM32G4xx_HAL_Driver/Src/stm32g4xx_hal_dac.c ****         hdac->MspDeInitCallback = HAL_DAC_MspDeInit;
1627:Drivers/STM32G4xx_HAL_Driver/Src/stm32g4xx_hal_dac.c ****         break;
1628:Drivers/STM32G4xx_HAL_Driver/Src/stm32g4xx_hal_dac.c ****       default :
1629:Drivers/STM32G4xx_HAL_Driver/Src/stm32g4xx_hal_dac.c ****         /* Update the error code */
1630:Drivers/STM32G4xx_HAL_Driver/Src/stm32g4xx_hal_dac.c ****         hdac->ErrorCode |= HAL_DAC_ERROR_INVALID_CALLBACK;
1631:Drivers/STM32G4xx_HAL_Driver/Src/stm32g4xx_hal_dac.c ****         /* update return status */
1632:Drivers/STM32G4xx_HAL_Driver/Src/stm32g4xx_hal_dac.c ****         status =  HAL_ERROR;
1633:Drivers/STM32G4xx_HAL_Driver/Src/stm32g4xx_hal_dac.c ****         break;
1634:Drivers/STM32G4xx_HAL_Driver/Src/stm32g4xx_hal_dac.c ****     }
1635:Drivers/STM32G4xx_HAL_Driver/Src/stm32g4xx_hal_dac.c ****   }
1636:Drivers/STM32G4xx_HAL_Driver/Src/stm32g4xx_hal_dac.c ****   else if (hdac->State == HAL_DAC_STATE_RESET)
1637:Drivers/STM32G4xx_HAL_Driver/Src/stm32g4xx_hal_dac.c ****   {
1638:Drivers/STM32G4xx_HAL_Driver/Src/stm32g4xx_hal_dac.c ****     switch (CallbackID)
1639:Drivers/STM32G4xx_HAL_Driver/Src/stm32g4xx_hal_dac.c ****     {
1640:Drivers/STM32G4xx_HAL_Driver/Src/stm32g4xx_hal_dac.c ****       case HAL_DAC_MSPINIT_CB_ID :
1641:Drivers/STM32G4xx_HAL_Driver/Src/stm32g4xx_hal_dac.c ****         hdac->MspInitCallback = HAL_DAC_MspInit;
1642:Drivers/STM32G4xx_HAL_Driver/Src/stm32g4xx_hal_dac.c ****         break;
1643:Drivers/STM32G4xx_HAL_Driver/Src/stm32g4xx_hal_dac.c ****       case HAL_DAC_MSPDEINIT_CB_ID :
1644:Drivers/STM32G4xx_HAL_Driver/Src/stm32g4xx_hal_dac.c ****         hdac->MspDeInitCallback = HAL_DAC_MspDeInit;
1645:Drivers/STM32G4xx_HAL_Driver/Src/stm32g4xx_hal_dac.c ****         break;
1646:Drivers/STM32G4xx_HAL_Driver/Src/stm32g4xx_hal_dac.c ****       default :
1647:Drivers/STM32G4xx_HAL_Driver/Src/stm32g4xx_hal_dac.c ****         /* Update the error code */
1648:Drivers/STM32G4xx_HAL_Driver/Src/stm32g4xx_hal_dac.c ****         hdac->ErrorCode |= HAL_DAC_ERROR_INVALID_CALLBACK;
1649:Drivers/STM32G4xx_HAL_Driver/Src/stm32g4xx_hal_dac.c ****         /* update return status */
1650:Drivers/STM32G4xx_HAL_Driver/Src/stm32g4xx_hal_dac.c ****         status =  HAL_ERROR;
1651:Drivers/STM32G4xx_HAL_Driver/Src/stm32g4xx_hal_dac.c ****         break;
1652:Drivers/STM32G4xx_HAL_Driver/Src/stm32g4xx_hal_dac.c ****     }
1653:Drivers/STM32G4xx_HAL_Driver/Src/stm32g4xx_hal_dac.c ****   }
1654:Drivers/STM32G4xx_HAL_Driver/Src/stm32g4xx_hal_dac.c ****   else
1655:Drivers/STM32G4xx_HAL_Driver/Src/stm32g4xx_hal_dac.c ****   {
1656:Drivers/STM32G4xx_HAL_Driver/Src/stm32g4xx_hal_dac.c ****     /* Update the error code */
ARM GAS   			page 49


1657:Drivers/STM32G4xx_HAL_Driver/Src/stm32g4xx_hal_dac.c ****     hdac->ErrorCode |= HAL_DAC_ERROR_INVALID_CALLBACK;
1658:Drivers/STM32G4xx_HAL_Driver/Src/stm32g4xx_hal_dac.c ****     /* update return status */
1659:Drivers/STM32G4xx_HAL_Driver/Src/stm32g4xx_hal_dac.c ****     status =  HAL_ERROR;
1660:Drivers/STM32G4xx_HAL_Driver/Src/stm32g4xx_hal_dac.c ****   }
1661:Drivers/STM32G4xx_HAL_Driver/Src/stm32g4xx_hal_dac.c **** 
1662:Drivers/STM32G4xx_HAL_Driver/Src/stm32g4xx_hal_dac.c ****   return status;
1663:Drivers/STM32G4xx_HAL_Driver/Src/stm32g4xx_hal_dac.c **** }
1664:Drivers/STM32G4xx_HAL_Driver/Src/stm32g4xx_hal_dac.c **** #endif /* USE_HAL_DAC_REGISTER_CALLBACKS */
1665:Drivers/STM32G4xx_HAL_Driver/Src/stm32g4xx_hal_dac.c **** 
1666:Drivers/STM32G4xx_HAL_Driver/Src/stm32g4xx_hal_dac.c **** /**
1667:Drivers/STM32G4xx_HAL_Driver/Src/stm32g4xx_hal_dac.c ****   * @}
1668:Drivers/STM32G4xx_HAL_Driver/Src/stm32g4xx_hal_dac.c ****   */
1669:Drivers/STM32G4xx_HAL_Driver/Src/stm32g4xx_hal_dac.c **** 
1670:Drivers/STM32G4xx_HAL_Driver/Src/stm32g4xx_hal_dac.c **** /**
1671:Drivers/STM32G4xx_HAL_Driver/Src/stm32g4xx_hal_dac.c ****   * @}
1672:Drivers/STM32G4xx_HAL_Driver/Src/stm32g4xx_hal_dac.c ****   */
1673:Drivers/STM32G4xx_HAL_Driver/Src/stm32g4xx_hal_dac.c **** 
1674:Drivers/STM32G4xx_HAL_Driver/Src/stm32g4xx_hal_dac.c **** /** @addtogroup DAC_Private_Functions
1675:Drivers/STM32G4xx_HAL_Driver/Src/stm32g4xx_hal_dac.c ****   * @{
1676:Drivers/STM32G4xx_HAL_Driver/Src/stm32g4xx_hal_dac.c ****   */
1677:Drivers/STM32G4xx_HAL_Driver/Src/stm32g4xx_hal_dac.c **** 
1678:Drivers/STM32G4xx_HAL_Driver/Src/stm32g4xx_hal_dac.c **** /**
1679:Drivers/STM32G4xx_HAL_Driver/Src/stm32g4xx_hal_dac.c ****   * @brief  DMA conversion complete callback.
1680:Drivers/STM32G4xx_HAL_Driver/Src/stm32g4xx_hal_dac.c ****   * @param  hdma pointer to a DMA_HandleTypeDef structure that contains
1681:Drivers/STM32G4xx_HAL_Driver/Src/stm32g4xx_hal_dac.c ****   *                the configuration information for the specified DMA module.
1682:Drivers/STM32G4xx_HAL_Driver/Src/stm32g4xx_hal_dac.c ****   * @retval None
1683:Drivers/STM32G4xx_HAL_Driver/Src/stm32g4xx_hal_dac.c ****   */
1684:Drivers/STM32G4xx_HAL_Driver/Src/stm32g4xx_hal_dac.c **** void DAC_DMAConvCpltCh1(DMA_HandleTypeDef *hdma)
1685:Drivers/STM32G4xx_HAL_Driver/Src/stm32g4xx_hal_dac.c **** {
 956              	 .loc 1 1685 1 view-0
 957              	 .cfi_startproc
 958              	 
 959              	 
1686:Drivers/STM32G4xx_HAL_Driver/Src/stm32g4xx_hal_dac.c ****   DAC_HandleTypeDef *hdac = (DAC_HandleTypeDef *)((DMA_HandleTypeDef *)hdma)->Parent;
 960              	 .loc 1 1686 3 view .LVU298
1685:Drivers/STM32G4xx_HAL_Driver/Src/stm32g4xx_hal_dac.c ****   DAC_HandleTypeDef *hdac = (DAC_HandleTypeDef *)((DMA_HandleTypeDef *)hdma)->Parent;
 961              	 .loc 1 1685 1 is_stmt 0 view .LVU299
 962 0000 10B5     	 push {r4,lr}
 963              	 .cfi_def_cfa_offset 8
 964              	 .cfi_offset 4,-8
 965              	 .cfi_offset 14,-4
 966              	 .loc 1 1686 22 view .LVU300
 967 0002 846A     	 ldr r4,[r0,#40]
 968              	.LVL70:
1687:Drivers/STM32G4xx_HAL_Driver/Src/stm32g4xx_hal_dac.c **** 
1688:Drivers/STM32G4xx_HAL_Driver/Src/stm32g4xx_hal_dac.c **** #if (USE_HAL_DAC_REGISTER_CALLBACKS == 1)
1689:Drivers/STM32G4xx_HAL_Driver/Src/stm32g4xx_hal_dac.c ****   hdac->ConvCpltCallbackCh1(hdac);
1690:Drivers/STM32G4xx_HAL_Driver/Src/stm32g4xx_hal_dac.c **** #else
1691:Drivers/STM32G4xx_HAL_Driver/Src/stm32g4xx_hal_dac.c ****   HAL_DAC_ConvCpltCallbackCh1(hdac);
 969              	 .loc 1 1691 3 is_stmt 1 view .LVU301
 970 0004 2046     	 mov r0,r4
 971              	.LVL71:
 972              	 .loc 1 1691 3 is_stmt 0 view .LVU302
 973 0006 FFF7FEFF 	 bl HAL_DAC_ConvCpltCallbackCh1
 974              	.LVL72:
1692:Drivers/STM32G4xx_HAL_Driver/Src/stm32g4xx_hal_dac.c **** #endif /* USE_HAL_DAC_REGISTER_CALLBACKS */
1693:Drivers/STM32G4xx_HAL_Driver/Src/stm32g4xx_hal_dac.c **** 
ARM GAS   			page 50


1694:Drivers/STM32G4xx_HAL_Driver/Src/stm32g4xx_hal_dac.c ****   hdac->State = HAL_DAC_STATE_READY;
 975              	 .loc 1 1694 3 is_stmt 1 view .LVU303
 976              	 .loc 1 1694 15 is_stmt 0 view .LVU304
 977 000a 0123     	 movs r3,#1
 978 000c 2371     	 strb r3,[r4,#4]
1695:Drivers/STM32G4xx_HAL_Driver/Src/stm32g4xx_hal_dac.c **** }
 979              	 .loc 1 1695 1 view .LVU305
 980 000e 10BD     	 pop {r4,pc}
 981              	 .loc 1 1695 1 view .LVU306
 982              	 .cfi_endproc
 983              	.LFE379:
 985              	 .section .text.HAL_DAC_ConvHalfCpltCallbackCh1,"ax",%progbits
 986              	 .align 1
 987              	 .p2align 2,,3
 988              	 .weak HAL_DAC_ConvHalfCpltCallbackCh1
 989              	 .syntax unified
 990              	 .thumb
 991              	 .thumb_func
 993              	HAL_DAC_ConvHalfCpltCallbackCh1:
 994              	.LFB387:
 995              	 .cfi_startproc
1028:Drivers/STM32G4xx_HAL_Driver/Src/stm32g4xx_hal_dac.c **** {
 996              	 .loc 1 1028 13 is_stmt 1 view-0
 997              	 
 998              	 
 999              	 
 1000 0000 7047     	 bx lr
 1001              	 .cfi_endproc
 1002              	.LFE387:
 1004 0002 00BF     	 .section .text.DAC_DMAHalfConvCpltCh1,"ax",%progbits
 1005              	 .align 1
 1006              	 .p2align 2,,3
 1007              	 .global DAC_DMAHalfConvCpltCh1
 1008              	 .syntax unified
 1009              	 .thumb
 1010              	 .thumb_func
 1012              	DAC_DMAHalfConvCpltCh1:
 1013              	.LVL73:
 1014              	.LFB380:
1696:Drivers/STM32G4xx_HAL_Driver/Src/stm32g4xx_hal_dac.c **** 
1697:Drivers/STM32G4xx_HAL_Driver/Src/stm32g4xx_hal_dac.c **** /**
1698:Drivers/STM32G4xx_HAL_Driver/Src/stm32g4xx_hal_dac.c ****   * @brief  DMA half transfer complete callback.
1699:Drivers/STM32G4xx_HAL_Driver/Src/stm32g4xx_hal_dac.c ****   * @param  hdma pointer to a DMA_HandleTypeDef structure that contains
1700:Drivers/STM32G4xx_HAL_Driver/Src/stm32g4xx_hal_dac.c ****   *                the configuration information for the specified DMA module.
1701:Drivers/STM32G4xx_HAL_Driver/Src/stm32g4xx_hal_dac.c ****   * @retval None
1702:Drivers/STM32G4xx_HAL_Driver/Src/stm32g4xx_hal_dac.c ****   */
1703:Drivers/STM32G4xx_HAL_Driver/Src/stm32g4xx_hal_dac.c **** void DAC_DMAHalfConvCpltCh1(DMA_HandleTypeDef *hdma)
1704:Drivers/STM32G4xx_HAL_Driver/Src/stm32g4xx_hal_dac.c **** {
 1015              	 .loc 1 1704 1 view-0
 1016              	 .cfi_startproc
 1017              	 
 1018              	 
1705:Drivers/STM32G4xx_HAL_Driver/Src/stm32g4xx_hal_dac.c ****   DAC_HandleTypeDef *hdac = (DAC_HandleTypeDef *)((DMA_HandleTypeDef *)hdma)->Parent;
 1019              	 .loc 1 1705 3 view .LVU309
1706:Drivers/STM32G4xx_HAL_Driver/Src/stm32g4xx_hal_dac.c ****   /* Conversion complete callback */
1707:Drivers/STM32G4xx_HAL_Driver/Src/stm32g4xx_hal_dac.c **** #if (USE_HAL_DAC_REGISTER_CALLBACKS == 1)
1708:Drivers/STM32G4xx_HAL_Driver/Src/stm32g4xx_hal_dac.c ****   hdac->ConvHalfCpltCallbackCh1(hdac);
ARM GAS   			page 51


1709:Drivers/STM32G4xx_HAL_Driver/Src/stm32g4xx_hal_dac.c **** #else
1710:Drivers/STM32G4xx_HAL_Driver/Src/stm32g4xx_hal_dac.c ****   HAL_DAC_ConvHalfCpltCallbackCh1(hdac);
 1020              	 .loc 1 1710 3 view .LVU310
1704:Drivers/STM32G4xx_HAL_Driver/Src/stm32g4xx_hal_dac.c ****   DAC_HandleTypeDef *hdac = (DAC_HandleTypeDef *)((DMA_HandleTypeDef *)hdma)->Parent;
 1021              	 .loc 1 1704 1 is_stmt 0 view .LVU311
 1022 0000 08B5     	 push {r3,lr}
 1023              	 .cfi_def_cfa_offset 8
 1024              	 .cfi_offset 3,-8
 1025              	 .cfi_offset 14,-4
 1026              	 .loc 1 1710 3 view .LVU312
 1027 0002 806A     	 ldr r0,[r0,#40]
 1028              	.LVL74:
 1029              	 .loc 1 1710 3 view .LVU313
 1030 0004 FFF7FEFF 	 bl HAL_DAC_ConvHalfCpltCallbackCh1
 1031              	.LVL75:
1711:Drivers/STM32G4xx_HAL_Driver/Src/stm32g4xx_hal_dac.c **** #endif  /* USE_HAL_DAC_REGISTER_CALLBACKS */
1712:Drivers/STM32G4xx_HAL_Driver/Src/stm32g4xx_hal_dac.c **** }
 1032              	 .loc 1 1712 1 view .LVU314
 1033 0008 08BD     	 pop {r3,pc}
 1034              	 .cfi_endproc
 1035              	.LFE380:
 1037 000a 00BF     	 .section .text.HAL_DAC_ErrorCallbackCh1,"ax",%progbits
 1038              	 .align 1
 1039              	 .p2align 2,,3
 1040              	 .weak HAL_DAC_ErrorCallbackCh1
 1041              	 .syntax unified
 1042              	 .thumb
 1043              	 .thumb_func
 1045              	HAL_DAC_ErrorCallbackCh1:
 1046              	.LFB389:
 1047              	 .cfi_startproc
1044:Drivers/STM32G4xx_HAL_Driver/Src/stm32g4xx_hal_dac.c **** {
 1048              	 .loc 1 1044 13 is_stmt 1 view-0
 1049              	 
 1050              	 
 1051              	 
 1052 0000 7047     	 bx lr
 1053              	 .cfi_endproc
 1054              	.LFE389:
 1056 0002 00BF     	 .section .text.DAC_DMAErrorCh1,"ax",%progbits
 1057              	 .align 1
 1058              	 .p2align 2,,3
 1059              	 .global DAC_DMAErrorCh1
 1060              	 .syntax unified
 1061              	 .thumb
 1062              	 .thumb_func
 1064              	DAC_DMAErrorCh1:
 1065              	.LVL76:
 1066              	.LFB381:
1713:Drivers/STM32G4xx_HAL_Driver/Src/stm32g4xx_hal_dac.c **** 
1714:Drivers/STM32G4xx_HAL_Driver/Src/stm32g4xx_hal_dac.c **** /**
1715:Drivers/STM32G4xx_HAL_Driver/Src/stm32g4xx_hal_dac.c ****   * @brief  DMA error callback
1716:Drivers/STM32G4xx_HAL_Driver/Src/stm32g4xx_hal_dac.c ****   * @param  hdma pointer to a DMA_HandleTypeDef structure that contains
1717:Drivers/STM32G4xx_HAL_Driver/Src/stm32g4xx_hal_dac.c ****   *                the configuration information for the specified DMA module.
1718:Drivers/STM32G4xx_HAL_Driver/Src/stm32g4xx_hal_dac.c ****   * @retval None
1719:Drivers/STM32G4xx_HAL_Driver/Src/stm32g4xx_hal_dac.c ****   */
1720:Drivers/STM32G4xx_HAL_Driver/Src/stm32g4xx_hal_dac.c **** void DAC_DMAErrorCh1(DMA_HandleTypeDef *hdma)
ARM GAS   			page 52


1721:Drivers/STM32G4xx_HAL_Driver/Src/stm32g4xx_hal_dac.c **** {
 1067              	 .loc 1 1721 1 view-0
 1068              	 .cfi_startproc
 1069              	 
 1070              	 
1722:Drivers/STM32G4xx_HAL_Driver/Src/stm32g4xx_hal_dac.c ****   DAC_HandleTypeDef *hdac = (DAC_HandleTypeDef *)((DMA_HandleTypeDef *)hdma)->Parent;
 1071              	 .loc 1 1722 3 view .LVU317
1721:Drivers/STM32G4xx_HAL_Driver/Src/stm32g4xx_hal_dac.c ****   DAC_HandleTypeDef *hdac = (DAC_HandleTypeDef *)((DMA_HandleTypeDef *)hdma)->Parent;
 1072              	 .loc 1 1721 1 is_stmt 0 view .LVU318
 1073 0000 10B5     	 push {r4,lr}
 1074              	 .cfi_def_cfa_offset 8
 1075              	 .cfi_offset 4,-8
 1076              	 .cfi_offset 14,-4
 1077              	 .loc 1 1722 22 view .LVU319
 1078 0002 846A     	 ldr r4,[r0,#40]
 1079              	.LVL77:
1723:Drivers/STM32G4xx_HAL_Driver/Src/stm32g4xx_hal_dac.c **** 
1724:Drivers/STM32G4xx_HAL_Driver/Src/stm32g4xx_hal_dac.c ****   /* Set DAC error code to DMA error */
1725:Drivers/STM32G4xx_HAL_Driver/Src/stm32g4xx_hal_dac.c ****   hdac->ErrorCode |= HAL_DAC_ERROR_DMA;
 1080              	 .loc 1 1725 3 is_stmt 1 view .LVU320
 1081              	 .loc 1 1725 7 is_stmt 0 view .LVU321
 1082 0004 2369     	 ldr r3,[r4,#16]
 1083              	 .loc 1 1725 19 view .LVU322
 1084 0006 43F00403 	 orr r3,r3,#4
 1085 000a 2361     	 str r3,[r4,#16]
1726:Drivers/STM32G4xx_HAL_Driver/Src/stm32g4xx_hal_dac.c **** 
1727:Drivers/STM32G4xx_HAL_Driver/Src/stm32g4xx_hal_dac.c **** #if (USE_HAL_DAC_REGISTER_CALLBACKS == 1)
1728:Drivers/STM32G4xx_HAL_Driver/Src/stm32g4xx_hal_dac.c ****   hdac->ErrorCallbackCh1(hdac);
1729:Drivers/STM32G4xx_HAL_Driver/Src/stm32g4xx_hal_dac.c **** #else
1730:Drivers/STM32G4xx_HAL_Driver/Src/stm32g4xx_hal_dac.c ****   HAL_DAC_ErrorCallbackCh1(hdac);
 1086              	 .loc 1 1730 3 is_stmt 1 view .LVU323
 1087 000c 2046     	 mov r0,r4
 1088              	.LVL78:
 1089              	 .loc 1 1730 3 is_stmt 0 view .LVU324
 1090 000e FFF7FEFF 	 bl HAL_DAC_ErrorCallbackCh1
 1091              	.LVL79:
1731:Drivers/STM32G4xx_HAL_Driver/Src/stm32g4xx_hal_dac.c **** #endif /* USE_HAL_DAC_REGISTER_CALLBACKS */
1732:Drivers/STM32G4xx_HAL_Driver/Src/stm32g4xx_hal_dac.c **** 
1733:Drivers/STM32G4xx_HAL_Driver/Src/stm32g4xx_hal_dac.c ****   hdac->State = HAL_DAC_STATE_READY;
 1092              	 .loc 1 1733 3 is_stmt 1 view .LVU325
 1093              	 .loc 1 1733 15 is_stmt 0 view .LVU326
 1094 0012 0123     	 movs r3,#1
 1095 0014 2371     	 strb r3,[r4,#4]
1734:Drivers/STM32G4xx_HAL_Driver/Src/stm32g4xx_hal_dac.c **** }
 1096              	 .loc 1 1734 1 view .LVU327
 1097 0016 10BD     	 pop {r4,pc}
 1098              	 .loc 1 1734 1 view .LVU328
 1099              	 .cfi_endproc
 1100              	.LFE381:
 1102              	 .section .text.HAL_DAC_DMAUnderrunCallbackCh1,"ax",%progbits
 1103              	 .align 1
 1104              	 .p2align 2,,3
 1105              	 .weak HAL_DAC_DMAUnderrunCallbackCh1
 1106              	 .syntax unified
 1107              	 .thumb
 1108              	 .thumb_func
 1110              	HAL_DAC_DMAUnderrunCallbackCh1:
ARM GAS   			page 53


 1111              	.LFB391:
 1112              	 .cfi_startproc
1060:Drivers/STM32G4xx_HAL_Driver/Src/stm32g4xx_hal_dac.c **** {
 1113              	 .loc 1 1060 13 is_stmt 1 view-0
 1114              	 
 1115              	 
 1116              	 
 1117 0000 7047     	 bx lr
 1118              	 .cfi_endproc
 1119              	.LFE391:
 1121 0002 00BF     	 .section .text.HAL_DAC_IRQHandler,"ax",%progbits
 1122              	 .align 1
 1123              	 .p2align 2,,3
 1124              	 .global HAL_DAC_IRQHandler
 1125              	 .syntax unified
 1126              	 .thumb
 1127              	 .thumb_func
 1129              	HAL_DAC_IRQHandler:
 1130              	.LVL80:
 1131              	.LFB369:
 890:Drivers/STM32G4xx_HAL_Driver/Src/stm32g4xx_hal_dac.c ****   uint32_t itsource = hdac->Instance->CR;
 1132              	 .loc 1 890 1 view-0
 1133              	 .cfi_startproc
 1134              	 
 1135              	 
 891:Drivers/STM32G4xx_HAL_Driver/Src/stm32g4xx_hal_dac.c ****   uint32_t itflag   = hdac->Instance->SR;
 1136              	 .loc 1 891 3 view .LVU331
 891:Drivers/STM32G4xx_HAL_Driver/Src/stm32g4xx_hal_dac.c ****   uint32_t itflag   = hdac->Instance->SR;
 1137              	 .loc 1 891 27 is_stmt 0 view .LVU332
 1138 0000 0368     	 ldr r3,[r0]
 890:Drivers/STM32G4xx_HAL_Driver/Src/stm32g4xx_hal_dac.c ****   uint32_t itsource = hdac->Instance->CR;
 1139              	 .loc 1 890 1 view .LVU333
 1140 0002 70B5     	 push {r4,r5,r6,lr}
 1141              	 .cfi_def_cfa_offset 16
 1142              	 .cfi_offset 4,-16
 1143              	 .cfi_offset 5,-12
 1144              	 .cfi_offset 6,-8
 1145              	 .cfi_offset 14,-4
 891:Drivers/STM32G4xx_HAL_Driver/Src/stm32g4xx_hal_dac.c ****   uint32_t itflag   = hdac->Instance->SR;
 1146              	 .loc 1 891 12 view .LVU334
 1147 0004 1D68     	 ldr r5,[r3]
 1148              	.LVL81:
 892:Drivers/STM32G4xx_HAL_Driver/Src/stm32g4xx_hal_dac.c **** 
 1149              	 .loc 1 892 3 is_stmt 1 view .LVU335
 892:Drivers/STM32G4xx_HAL_Driver/Src/stm32g4xx_hal_dac.c **** 
 1150              	 .loc 1 892 12 is_stmt 0 view .LVU336
 1151 0006 5E6B     	 ldr r6,[r3,#52]
 1152              	.LVL82:
 894:Drivers/STM32G4xx_HAL_Driver/Src/stm32g4xx_hal_dac.c ****   {
 1153              	 .loc 1 894 3 is_stmt 1 view .LVU337
 894:Drivers/STM32G4xx_HAL_Driver/Src/stm32g4xx_hal_dac.c ****   {
 1154              	 .loc 1 894 6 is_stmt 0 view .LVU338
 1155 0008 AA04     	 lsls r2,r5,#18
 890:Drivers/STM32G4xx_HAL_Driver/Src/stm32g4xx_hal_dac.c ****   uint32_t itsource = hdac->Instance->CR;
 1156              	 .loc 1 890 1 view .LVU339
 1157 000a 0446     	 mov r4,r0
 894:Drivers/STM32G4xx_HAL_Driver/Src/stm32g4xx_hal_dac.c ****   {
ARM GAS   			page 54


 1158              	 .loc 1 894 6 view .LVU340
 1159 000c 01D5     	 bpl .L96
 897:Drivers/STM32G4xx_HAL_Driver/Src/stm32g4xx_hal_dac.c ****     {
 1160              	 .loc 1 897 5 is_stmt 1 view .LVU341
 897:Drivers/STM32G4xx_HAL_Driver/Src/stm32g4xx_hal_dac.c ****     {
 1161              	 .loc 1 897 8 is_stmt 0 view .LVU342
 1162 000e B104     	 lsls r1,r6,#18
 1163 0010 17D4     	 bmi .L111
 1164              	.LVL83:
 1165              	.L96:
 921:Drivers/STM32G4xx_HAL_Driver/Src/stm32g4xx_hal_dac.c ****   {
 1166              	 .loc 1 921 3 is_stmt 1 view .LVU343
 921:Drivers/STM32G4xx_HAL_Driver/Src/stm32g4xx_hal_dac.c ****   {
 1167              	 .loc 1 921 6 is_stmt 0 view .LVU344
 1168 0012 AA00     	 lsls r2,r5,#2
 1169 0014 01D5     	 bpl .L95
 924:Drivers/STM32G4xx_HAL_Driver/Src/stm32g4xx_hal_dac.c ****     {
 1170              	 .loc 1 924 5 is_stmt 1 view .LVU345
 924:Drivers/STM32G4xx_HAL_Driver/Src/stm32g4xx_hal_dac.c ****     {
 1171              	 .loc 1 924 8 is_stmt 0 view .LVU346
 1172 0016 B300     	 lsls r3,r6,#2
 1173 0018 00D4     	 bmi .L112
 1174              	.L95:
 947:Drivers/STM32G4xx_HAL_Driver/Src/stm32g4xx_hal_dac.c **** 
 1175              	 .loc 1 947 1 view .LVU347
 1176 001a 70BD     	 pop {r4,r5,r6,pc}
 1177              	.LVL84:
 1178              	.L112:
 927:Drivers/STM32G4xx_HAL_Driver/Src/stm32g4xx_hal_dac.c **** 
 1179              	 .loc 1 927 7 is_stmt 1 view .LVU348
 927:Drivers/STM32G4xx_HAL_Driver/Src/stm32g4xx_hal_dac.c **** 
 1180              	 .loc 1 927 19 is_stmt 0 view .LVU349
 1181 001c 0423     	 movs r3,#4
 1182 001e 2371     	 strb r3,[r4,#4]
 930:Drivers/STM32G4xx_HAL_Driver/Src/stm32g4xx_hal_dac.c **** 
 1183              	 .loc 1 930 7 is_stmt 1 view .LVU350
 1184 0020 2269     	 ldr r2,[r4,#16]
 933:Drivers/STM32G4xx_HAL_Driver/Src/stm32g4xx_hal_dac.c **** 
 1185              	 .loc 1 933 7 is_stmt 0 view .LVU351
 1186 0022 2368     	 ldr r3,[r4]
 930:Drivers/STM32G4xx_HAL_Driver/Src/stm32g4xx_hal_dac.c **** 
 1187              	 .loc 1 930 7 view .LVU352
 1188 0024 42F00202 	 orr r2,r2,#2
 933:Drivers/STM32G4xx_HAL_Driver/Src/stm32g4xx_hal_dac.c **** 
 1189              	 .loc 1 933 7 view .LVU353
 1190 0028 4FF00051 	 mov r1,#536870912
 930:Drivers/STM32G4xx_HAL_Driver/Src/stm32g4xx_hal_dac.c **** 
 1191              	 .loc 1 930 7 view .LVU354
 1192 002c 2261     	 str r2,[r4,#16]
 933:Drivers/STM32G4xx_HAL_Driver/Src/stm32g4xx_hal_dac.c **** 
 1193              	 .loc 1 933 7 is_stmt 1 view .LVU355
 1194 002e 5963     	 str r1,[r3,#52]
 936:Drivers/STM32G4xx_HAL_Driver/Src/stm32g4xx_hal_dac.c **** 
 1195              	 .loc 1 936 7 view .LVU356
 1196 0030 1A68     	 ldr r2,[r3]
 1197 0032 22F08052 	 bic r2,r2,#268435456
 942:Drivers/STM32G4xx_HAL_Driver/Src/stm32g4xx_hal_dac.c **** #endif /* USE_HAL_DAC_REGISTER_CALLBACKS */
ARM GAS   			page 55


 1198              	 .loc 1 942 7 is_stmt 0 view .LVU357
 1199 0036 2046     	 mov r0,r4
 936:Drivers/STM32G4xx_HAL_Driver/Src/stm32g4xx_hal_dac.c **** 
 1200              	 .loc 1 936 7 view .LVU358
 1201 0038 1A60     	 str r2,[r3]
 942:Drivers/STM32G4xx_HAL_Driver/Src/stm32g4xx_hal_dac.c **** #endif /* USE_HAL_DAC_REGISTER_CALLBACKS */
 1202              	 .loc 1 942 7 is_stmt 1 view .LVU359
 947:Drivers/STM32G4xx_HAL_Driver/Src/stm32g4xx_hal_dac.c **** 
 1203              	 .loc 1 947 1 is_stmt 0 view .LVU360
 1204 003a BDE87040 	 pop {r4,r5,r6,lr}
 1205              	 .cfi_remember_state
 1206              	 .cfi_restore 14
 1207              	 .cfi_restore 6
 1208              	 .cfi_restore 5
 1209              	 .cfi_restore 4
 1210              	 .cfi_def_cfa_offset 0
 1211              	.LVL85:
 942:Drivers/STM32G4xx_HAL_Driver/Src/stm32g4xx_hal_dac.c **** #endif /* USE_HAL_DAC_REGISTER_CALLBACKS */
 1212              	 .loc 1 942 7 view .LVU361
 1213 003e FFF7FEBF 	 b HAL_DACEx_DMAUnderrunCallbackCh2
 1214              	.LVL86:
 1215              	.L111:
 1216              	 .cfi_restore_state
 900:Drivers/STM32G4xx_HAL_Driver/Src/stm32g4xx_hal_dac.c **** 
 1217              	 .loc 1 900 7 is_stmt 1 view .LVU362
 900:Drivers/STM32G4xx_HAL_Driver/Src/stm32g4xx_hal_dac.c **** 
 1218              	 .loc 1 900 19 is_stmt 0 view .LVU363
 1219 0042 0422     	 movs r2,#4
 1220 0044 0271     	 strb r2,[r0,#4]
 903:Drivers/STM32G4xx_HAL_Driver/Src/stm32g4xx_hal_dac.c **** 
 1221              	 .loc 1 903 7 is_stmt 1 view .LVU364
 1222 0046 0269     	 ldr r2,[r0,#16]
 1223 0048 42F00102 	 orr r2,r2,#1
 1224 004c 0261     	 str r2,[r0,#16]
 906:Drivers/STM32G4xx_HAL_Driver/Src/stm32g4xx_hal_dac.c **** 
 1225              	 .loc 1 906 7 view .LVU365
 1226 004e 4FF40052 	 mov r2,#8192
 1227 0052 5A63     	 str r2,[r3,#52]
 909:Drivers/STM32G4xx_HAL_Driver/Src/stm32g4xx_hal_dac.c **** 
 1228              	 .loc 1 909 7 view .LVU366
 1229 0054 1A68     	 ldr r2,[r3]
 1230 0056 22F48052 	 bic r2,r2,#4096
 1231 005a 1A60     	 str r2,[r3]
 915:Drivers/STM32G4xx_HAL_Driver/Src/stm32g4xx_hal_dac.c **** #endif /* USE_HAL_DAC_REGISTER_CALLBACKS */
 1232              	 .loc 1 915 7 view .LVU367
 1233 005c FFF7FEFF 	 bl HAL_DAC_DMAUnderrunCallbackCh1
 1234              	.LVL87:
 915:Drivers/STM32G4xx_HAL_Driver/Src/stm32g4xx_hal_dac.c **** #endif /* USE_HAL_DAC_REGISTER_CALLBACKS */
 1235              	 .loc 1 915 7 is_stmt 0 view .LVU368
 1236 0060 D7E7     	 b .L96
 1237              	 .cfi_endproc
 1238              	.LFE369:
 1240 0062 00BF     	 .section .text.HAL_DAC_GetValue,"ax",%progbits
 1241              	 .align 1
 1242              	 .p2align 2,,3
 1243              	 .global HAL_DAC_GetValue
 1244              	 .syntax unified
ARM GAS   			page 56


 1245              	 .thumb
 1246              	 .thumb_func
 1248              	HAL_DAC_GetValue:
 1249              	.LVL88:
 1250              	.LFB375:
1103:Drivers/STM32G4xx_HAL_Driver/Src/stm32g4xx_hal_dac.c ****   uint32_t result;
 1251              	 .loc 1 1103 1 is_stmt 1 view-0
 1252              	 .cfi_startproc
 1253              	 
 1254              	 
 1255              	 
1104:Drivers/STM32G4xx_HAL_Driver/Src/stm32g4xx_hal_dac.c **** 
 1256              	 .loc 1 1104 3 view .LVU370
1107:Drivers/STM32G4xx_HAL_Driver/Src/stm32g4xx_hal_dac.c **** 
 1257              	 .loc 1 1107 3 view .LVU371
1110:Drivers/STM32G4xx_HAL_Driver/Src/stm32g4xx_hal_dac.c **** 
 1258              	 .loc 1 1110 3 view .LVU372
1112:Drivers/STM32G4xx_HAL_Driver/Src/stm32g4xx_hal_dac.c ****   {
 1259              	 .loc 1 1112 3 view .LVU373
1114:Drivers/STM32G4xx_HAL_Driver/Src/stm32g4xx_hal_dac.c ****   }
 1260              	 .loc 1 1114 18 is_stmt 0 view .LVU374
 1261 0000 0368     	 ldr r3,[r0]
1112:Drivers/STM32G4xx_HAL_Driver/Src/stm32g4xx_hal_dac.c ****   {
 1262              	 .loc 1 1112 6 view .LVU375
 1263 0002 09B9     	 cbnz r1,.L114
1114:Drivers/STM32G4xx_HAL_Driver/Src/stm32g4xx_hal_dac.c ****   }
 1264              	 .loc 1 1114 5 is_stmt 1 view .LVU376
1114:Drivers/STM32G4xx_HAL_Driver/Src/stm32g4xx_hal_dac.c ****   }
 1265              	 .loc 1 1114 12 is_stmt 0 view .LVU377
 1266 0004 D86A     	 ldr r0,[r3,#44]
 1267              	.LVL89:
1114:Drivers/STM32G4xx_HAL_Driver/Src/stm32g4xx_hal_dac.c ****   }
 1268              	 .loc 1 1114 12 view .LVU378
 1269 0006 7047     	 bx lr
 1270              	.LVL90:
 1271              	.L114:
1119:Drivers/STM32G4xx_HAL_Driver/Src/stm32g4xx_hal_dac.c ****   }
 1272              	 .loc 1 1119 5 is_stmt 1 view .LVU379
1119:Drivers/STM32G4xx_HAL_Driver/Src/stm32g4xx_hal_dac.c ****   }
 1273              	 .loc 1 1119 12 is_stmt 0 view .LVU380
 1274 0008 186B     	 ldr r0,[r3,#48]
 1275              	.LVL91:
1123:Drivers/STM32G4xx_HAL_Driver/Src/stm32g4xx_hal_dac.c **** }
 1276              	 .loc 1 1123 3 is_stmt 1 view .LVU381
1124:Drivers/STM32G4xx_HAL_Driver/Src/stm32g4xx_hal_dac.c **** 
 1277              	 .loc 1 1124 1 is_stmt 0 view .LVU382
 1278 000a 7047     	 bx lr
 1279              	 .cfi_endproc
 1280              	.LFE375:
 1282              	 .section .text.HAL_DAC_ConfigChannel,"ax",%progbits
 1283              	 .align 1
 1284              	 .p2align 2,,3
 1285              	 .global HAL_DAC_ConfigChannel
 1286              	 .syntax unified
 1287              	 .thumb
 1288              	 .thumb_func
 1290              	HAL_DAC_ConfigChannel:
ARM GAS   			page 57


 1291              	.LVL92:
 1292              	.LFB376:
1147:Drivers/STM32G4xx_HAL_Driver/Src/stm32g4xx_hal_dac.c ****   HAL_StatusTypeDef status = HAL_OK;
 1293              	 .loc 1 1147 1 is_stmt 1 view-0
 1294              	 .cfi_startproc
 1295              	 
 1296              	 
1148:Drivers/STM32G4xx_HAL_Driver/Src/stm32g4xx_hal_dac.c ****   uint32_t tmpreg1;
 1297              	 .loc 1 1148 3 view .LVU384
1149:Drivers/STM32G4xx_HAL_Driver/Src/stm32g4xx_hal_dac.c ****   uint32_t tmpreg2;
 1298              	 .loc 1 1149 3 view .LVU385
1150:Drivers/STM32G4xx_HAL_Driver/Src/stm32g4xx_hal_dac.c ****   uint32_t tickstart;
 1299              	 .loc 1 1150 3 view .LVU386
1151:Drivers/STM32G4xx_HAL_Driver/Src/stm32g4xx_hal_dac.c ****   uint32_t hclkfreq;
 1300              	 .loc 1 1151 3 view .LVU387
1152:Drivers/STM32G4xx_HAL_Driver/Src/stm32g4xx_hal_dac.c ****   uint32_t connectOnChip;
 1301              	 .loc 1 1152 3 view .LVU388
1153:Drivers/STM32G4xx_HAL_Driver/Src/stm32g4xx_hal_dac.c **** 
 1302              	 .loc 1 1153 3 view .LVU389
1156:Drivers/STM32G4xx_HAL_Driver/Src/stm32g4xx_hal_dac.c ****   {
 1303              	 .loc 1 1156 3 view .LVU390
1156:Drivers/STM32G4xx_HAL_Driver/Src/stm32g4xx_hal_dac.c ****   {
 1304              	 .loc 1 1156 6 is_stmt 0 view .LVU391
 1305 0000 0028     	 cmp r0,#0
 1306 0002 00F0C280 	 beq .L136
1147:Drivers/STM32G4xx_HAL_Driver/Src/stm32g4xx_hal_dac.c ****   HAL_StatusTypeDef status = HAL_OK;
 1307              	 .loc 1 1147 1 view .LVU392
 1308 0006 2DE9F041 	 push {r4,r5,r6,r7,r8,lr}
 1309              	 .cfi_def_cfa_offset 24
 1310              	 .cfi_offset 4,-24
 1311              	 .cfi_offset 5,-20
 1312              	 .cfi_offset 6,-16
 1313              	 .cfi_offset 7,-12
 1314              	 .cfi_offset 8,-8
 1315              	 .cfi_offset 14,-4
 1316 000a 0F46     	 mov r7,r1
1156:Drivers/STM32G4xx_HAL_Driver/Src/stm32g4xx_hal_dac.c ****   {
 1317              	 .loc 1 1156 22 discriminator 1 view .LVU393
 1318 000c 0029     	 cmp r1,#0
 1319 000e 00F0BE80 	 beq .L137
1192:Drivers/STM32G4xx_HAL_Driver/Src/stm32g4xx_hal_dac.c **** 
 1320              	 .loc 1 1192 3 view .LVU394
 1321 0012 4379     	 ldrb r3,[r0,#5]
 1322 0014 012B     	 cmp r3,#1
 1323 0016 0546     	 mov r5,r0
1162:Drivers/STM32G4xx_HAL_Driver/Src/stm32g4xx_hal_dac.c ****   assert_param(IS_DAC_TRIGGER(hdac->Instance, sConfig->DAC_Trigger));
 1324              	 .loc 1 1162 3 is_stmt 1 view .LVU395
1163:Drivers/STM32G4xx_HAL_Driver/Src/stm32g4xx_hal_dac.c ****   assert_param(IS_DAC_TRIGGER2(hdac->Instance, sConfig->DAC_Trigger2));
 1325              	 .loc 1 1163 3 view .LVU396
1164:Drivers/STM32G4xx_HAL_Driver/Src/stm32g4xx_hal_dac.c ****   assert_param(IS_DAC_OUTPUT_BUFFER_STATE(sConfig->DAC_OutputBuffer));
 1326              	 .loc 1 1164 3 view .LVU397
1165:Drivers/STM32G4xx_HAL_Driver/Src/stm32g4xx_hal_dac.c ****   assert_param(IS_DAC_CHIP_CONNECTION(sConfig->DAC_ConnectOnChipPeripheral));
 1327              	 .loc 1 1165 3 view .LVU398
1166:Drivers/STM32G4xx_HAL_Driver/Src/stm32g4xx_hal_dac.c ****   assert_param(IS_DAC_TRIMMING(sConfig->DAC_UserTrimming));
 1328              	 .loc 1 1166 3 view .LVU399
1167:Drivers/STM32G4xx_HAL_Driver/Src/stm32g4xx_hal_dac.c ****   if ((sConfig->DAC_UserTrimming) == DAC_TRIMMING_USER)
 1329              	 .loc 1 1167 3 view .LVU400
ARM GAS   			page 58


1168:Drivers/STM32G4xx_HAL_Driver/Src/stm32g4xx_hal_dac.c ****   {
 1330              	 .loc 1 1168 3 view .LVU401
1170:Drivers/STM32G4xx_HAL_Driver/Src/stm32g4xx_hal_dac.c ****   }
 1331              	 .loc 1 1170 5 view .LVU402
1172:Drivers/STM32G4xx_HAL_Driver/Src/stm32g4xx_hal_dac.c ****   if ((sConfig->DAC_SampleAndHold) == DAC_SAMPLEANDHOLD_ENABLE)
 1332              	 .loc 1 1172 3 view .LVU403
1173:Drivers/STM32G4xx_HAL_Driver/Src/stm32g4xx_hal_dac.c ****   {
 1333              	 .loc 1 1173 3 view .LVU404
1173:Drivers/STM32G4xx_HAL_Driver/Src/stm32g4xx_hal_dac.c ****   {
 1334              	 .loc 1 1173 15 is_stmt 0 view .LVU405
 1335 0018 8868     	 ldr r0,[r1,#8]
 1336              	.LVL93:
1184:Drivers/STM32G4xx_HAL_Driver/Src/stm32g4xx_hal_dac.c ****     }
 1337              	 .loc 1 1184 7 is_stmt 1 view .LVU406
1187:Drivers/STM32G4xx_HAL_Driver/Src/stm32g4xx_hal_dac.c ****   assert_param(IS_FUNCTIONAL_STATE(sConfig->DAC_DMADoubleDataMode));
 1338              	 .loc 1 1187 3 view .LVU407
1188:Drivers/STM32G4xx_HAL_Driver/Src/stm32g4xx_hal_dac.c ****   assert_param(IS_FUNCTIONAL_STATE(sConfig->DAC_SignedFormat));
 1339              	 .loc 1 1188 3 view .LVU408
1189:Drivers/STM32G4xx_HAL_Driver/Src/stm32g4xx_hal_dac.c **** 
 1340              	 .loc 1 1189 3 view .LVU409
1192:Drivers/STM32G4xx_HAL_Driver/Src/stm32g4xx_hal_dac.c **** 
 1341              	 .loc 1 1192 3 view .LVU410
1192:Drivers/STM32G4xx_HAL_Driver/Src/stm32g4xx_hal_dac.c **** 
 1342              	 .loc 1 1192 3 view .LVU411
 1343 001a 00F0C780 	 beq .L138
1192:Drivers/STM32G4xx_HAL_Driver/Src/stm32g4xx_hal_dac.c **** 
 1344              	 .loc 1 1192 3 is_stmt 0 discriminator 2 view .LVU412
 1345 001e 0123     	 movs r3,#1
 1346 0020 6B71     	 strb r3,[r5,#5]
1198:Drivers/STM32G4xx_HAL_Driver/Src/stm32g4xx_hal_dac.c ****   {
 1347              	 .loc 1 1198 6 view .LVU413
 1348 0022 0428     	 cmp r0,#4
1195:Drivers/STM32G4xx_HAL_Driver/Src/stm32g4xx_hal_dac.c **** 
 1349              	 .loc 1 1195 15 view .LVU414
 1350 0024 4FF00203 	 mov r3,#2
 1351 0028 1646     	 mov r6,r2
1192:Drivers/STM32G4xx_HAL_Driver/Src/stm32g4xx_hal_dac.c **** 
 1352              	 .loc 1 1192 3 is_stmt 1 discriminator 2 view .LVU415
1192:Drivers/STM32G4xx_HAL_Driver/Src/stm32g4xx_hal_dac.c **** 
 1353              	 .loc 1 1192 3 discriminator 2 view .LVU416
1195:Drivers/STM32G4xx_HAL_Driver/Src/stm32g4xx_hal_dac.c **** 
 1354              	 .loc 1 1195 3 view .LVU417
1195:Drivers/STM32G4xx_HAL_Driver/Src/stm32g4xx_hal_dac.c **** 
 1355              	 .loc 1 1195 15 is_stmt 0 view .LVU418
 1356 002a 2B71     	 strb r3,[r5,#4]
1198:Drivers/STM32G4xx_HAL_Driver/Src/stm32g4xx_hal_dac.c ****   {
 1357              	 .loc 1 1198 3 is_stmt 1 view .LVU419
1198:Drivers/STM32G4xx_HAL_Driver/Src/stm32g4xx_hal_dac.c ****   {
 1358              	 .loc 1 1198 6 is_stmt 0 view .LVU420
 1359 002c 6FD0     	 beq .L118
1264:Drivers/STM32G4xx_HAL_Driver/Src/stm32g4xx_hal_dac.c ****     /* Clear trimming value */
 1360              	 .loc 1 1264 19 view .LVU421
 1361 002e 2B68     	 ldr r3,[r5]
1253:Drivers/STM32G4xx_HAL_Driver/Src/stm32g4xx_hal_dac.c ****                (sConfig->DAC_SampleAndHoldConfig.DAC_HoldTime) << (Channel & 0x10UL));
 1362              	 .loc 1 1253 5 view .LVU422
 1363 0030 02F01006 	 and r6,r2,#16
 1364              	.LVL94:
ARM GAS   			page 59


 1365              	.L119:
1260:Drivers/STM32G4xx_HAL_Driver/Src/stm32g4xx_hal_dac.c ****     /* USER TRIMMING */
 1366              	 .loc 1 1260 3 is_stmt 1 view .LVU423
1260:Drivers/STM32G4xx_HAL_Driver/Src/stm32g4xx_hal_dac.c ****     /* USER TRIMMING */
 1367              	 .loc 1 1260 6 is_stmt 0 view .LVU424
 1368 0034 FA69     	 ldr r2,[r7,#28]
 1369 0036 012A     	 cmp r2,#1
 1370 0038 08D1     	 bne .L131
1264:Drivers/STM32G4xx_HAL_Driver/Src/stm32g4xx_hal_dac.c ****     /* Clear trimming value */
 1371              	 .loc 1 1264 5 is_stmt 1 view .LVU425
1264:Drivers/STM32G4xx_HAL_Driver/Src/stm32g4xx_hal_dac.c ****     /* Clear trimming value */
 1372              	 .loc 1 1264 13 is_stmt 0 view .LVU426
 1373 003a 996B     	 ldr r1,[r3,#56]
 1374              	.LVL95:
1266:Drivers/STM32G4xx_HAL_Driver/Src/stm32g4xx_hal_dac.c ****     /* Configure for the selected trimming offset */
 1375              	 .loc 1 1266 5 is_stmt 1 view .LVU427
1270:Drivers/STM32G4xx_HAL_Driver/Src/stm32g4xx_hal_dac.c ****     /* Write to DAC CCR */
 1376              	 .loc 1 1270 24 is_stmt 0 view .LVU428
 1377 003c 3A6A     	 ldr r2,[r7,#32]
1266:Drivers/STM32G4xx_HAL_Driver/Src/stm32g4xx_hal_dac.c ****     /* Configure for the selected trimming offset */
 1378              	 .loc 1 1266 47 view .LVU429
 1379 003e 1F24     	 movs r4,#31
 1380 0040 B440     	 lsls r4,r4,r6
1270:Drivers/STM32G4xx_HAL_Driver/Src/stm32g4xx_hal_dac.c ****     /* Write to DAC CCR */
 1381              	 .loc 1 1270 24 view .LVU430
 1382 0042 B240     	 lsls r2,r2,r6
1266:Drivers/STM32G4xx_HAL_Driver/Src/stm32g4xx_hal_dac.c ****     /* Configure for the selected trimming offset */
 1383              	 .loc 1 1266 13 view .LVU431
 1384 0044 21EA0401 	 bic r1,r1,r4
 1385              	.LVL96:
1268:Drivers/STM32G4xx_HAL_Driver/Src/stm32g4xx_hal_dac.c ****     /* Calculate CCR register value depending on DAC_Channel */
 1386              	 .loc 1 1268 5 is_stmt 1 view .LVU432
1270:Drivers/STM32G4xx_HAL_Driver/Src/stm32g4xx_hal_dac.c ****     /* Write to DAC CCR */
 1387              	 .loc 1 1270 5 view .LVU433
1270:Drivers/STM32G4xx_HAL_Driver/Src/stm32g4xx_hal_dac.c ****     /* Write to DAC CCR */
 1388              	 .loc 1 1270 13 is_stmt 0 view .LVU434
 1389 0048 0A43     	 orrs r2,r2,r1
 1390              	.LVL97:
1272:Drivers/STM32G4xx_HAL_Driver/Src/stm32g4xx_hal_dac.c ****   }
 1391              	 .loc 1 1272 5 is_stmt 1 view .LVU435
1272:Drivers/STM32G4xx_HAL_Driver/Src/stm32g4xx_hal_dac.c ****   }
 1392              	 .loc 1 1272 25 is_stmt 0 view .LVU436
 1393 004a 9A63     	 str r2,[r3,#56]
 1394              	.LVL98:
 1395              	.L131:
1278:Drivers/STM32G4xx_HAL_Driver/Src/stm32g4xx_hal_dac.c ****   /* Clear DAC_MCR_MODEx bits */
 1396              	 .loc 1 1278 3 is_stmt 1 view .LVU437
1284:Drivers/STM32G4xx_HAL_Driver/Src/stm32g4xx_hal_dac.c ****   {
 1397              	 .loc 1 1284 14 is_stmt 0 view .LVU438
 1398 004c B969     	 ldr r1,[r7,#24]
1278:Drivers/STM32G4xx_HAL_Driver/Src/stm32g4xx_hal_dac.c ****   /* Clear DAC_MCR_MODEx bits */
 1399              	 .loc 1 1278 11 view .LVU439
 1400 004e DA6B     	 ldr r2,[r3,#60]
 1401              	.LVL99:
1280:Drivers/STM32G4xx_HAL_Driver/Src/stm32g4xx_hal_dac.c ****   /* Configure for the selected DAC channel: mode, buffer output & on chip peripheral connect */
 1402              	 .loc 1 1280 3 is_stmt 1 view .LVU440
1284:Drivers/STM32G4xx_HAL_Driver/Src/stm32g4xx_hal_dac.c ****   {
ARM GAS   			page 60


 1403              	 .loc 1 1284 3 view .LVU441
1294:Drivers/STM32G4xx_HAL_Driver/Src/stm32g4xx_hal_dac.c ****     {
 1404              	 .loc 1 1294 16 is_stmt 0 view .LVU442
 1405 0050 D7F814E0 	 ldr lr,[r7,#20]
1284:Drivers/STM32G4xx_HAL_Driver/Src/stm32g4xx_hal_dac.c ****   {
 1406              	 .loc 1 1284 6 view .LVU443
 1407 0054 0129     	 cmp r1,#1
 1408 0056 00F09580 	 beq .L139
1288:Drivers/STM32G4xx_HAL_Driver/Src/stm32g4xx_hal_dac.c ****   {
 1409              	 .loc 1 1288 8 is_stmt 1 view .LVU444
1288:Drivers/STM32G4xx_HAL_Driver/Src/stm32g4xx_hal_dac.c ****   {
 1410              	 .loc 1 1288 11 is_stmt 0 view .LVU445
 1411 005a 0229     	 cmp r1,#2
 1412 005c 00F09A80 	 beq .L140
1294:Drivers/STM32G4xx_HAL_Driver/Src/stm32g4xx_hal_dac.c ****     {
 1413              	 .loc 1 1294 5 is_stmt 1 view .LVU446
1294:Drivers/STM32G4xx_HAL_Driver/Src/stm32g4xx_hal_dac.c ****     {
 1414              	 .loc 1 1294 8 is_stmt 0 view .LVU447
 1415 0060 BEFA8EFC 	 clz ip,lr
 1416 0064 4FEA5C1C 	 lsr ip,ip,#5
 1417              	.L132:
 1418              	.LVL100:
1303:Drivers/STM32G4xx_HAL_Driver/Src/stm32g4xx_hal_dac.c ****   /* Clear DAC_MCR_DMADOUBLEx */
 1419              	 .loc 1 1303 3 is_stmt 1 view .LVU448
1305:Drivers/STM32G4xx_HAL_Driver/Src/stm32g4xx_hal_dac.c ****   /* Configure for the selected DAC channel: DMA double data mode */
 1420              	 .loc 1 1305 3 view .LVU449
1307:Drivers/STM32G4xx_HAL_Driver/Src/stm32g4xx_hal_dac.c ****   /* Clear DAC_MCR_SINFORMATx */
 1421              	 .loc 1 1307 3 view .LVU450
1309:Drivers/STM32G4xx_HAL_Driver/Src/stm32g4xx_hal_dac.c ****   /* Configure for the selected DAC channel: Signed format */
 1422              	 .loc 1 1309 3 view .LVU451
1307:Drivers/STM32G4xx_HAL_Driver/Src/stm32g4xx_hal_dac.c ****   /* Clear DAC_MCR_SINFORMATx */
 1423              	 .loc 1 1307 78 is_stmt 0 view .LVU452
 1424 0068 3C79     	 ldrb r4,[r7,#4]
