ARM GAS   			page 1


   1              	 .cpu cortex-m4
   2              	 .arch armv7e-m
   3              	 .fpu fpv4-sp-d16
   4              	 .eabi_attribute 27,1
   5              	 .eabi_attribute 28,1
   6              	 .eabi_attribute 23,1
   7              	 .eabi_attribute 24,1
   8              	 .eabi_attribute 25,1
   9              	 .eabi_attribute 26,1
  10              	 .eabi_attribute 30,2
  11              	 .eabi_attribute 34,1
  12              	 .eabi_attribute 18,4
  13              	 .file "stm32g4xx_hal_dac_ex.c"
  14              	 .text
  15              	.Ltext0:
  16              	 .cfi_sections .debug_frame
  17              	 .file 1 "Drivers/STM32G4xx_HAL_Driver/Src/stm32g4xx_hal_dac_ex.c"
  18              	 .section .text.HAL_DACEx_DualStart,"ax",%progbits
  19              	 .align 1
  20              	 .p2align 2,,3
  21              	 .global HAL_DACEx_DualStart
  22              	 .syntax unified
  23              	 .thumb
  24              	 .thumb_func
  26              	HAL_DACEx_DualStart:
  27              	.LVL0:
  28              	.LFB361:
   1:Drivers/STM32G4xx_HAL_Driver/Src/stm32g4xx_hal_dac_ex.c **** /**
   2:Drivers/STM32G4xx_HAL_Driver/Src/stm32g4xx_hal_dac_ex.c ****   ******************************************************************************
   3:Drivers/STM32G4xx_HAL_Driver/Src/stm32g4xx_hal_dac_ex.c ****   * @file    stm32g4xx_hal_dac_ex.c
   4:Drivers/STM32G4xx_HAL_Driver/Src/stm32g4xx_hal_dac_ex.c ****   * @author  MCD Application Team
   5:Drivers/STM32G4xx_HAL_Driver/Src/stm32g4xx_hal_dac_ex.c ****   * @brief   Extended DAC HAL module driver.
   6:Drivers/STM32G4xx_HAL_Driver/Src/stm32g4xx_hal_dac_ex.c ****   *          This file provides firmware functions to manage the extended
   7:Drivers/STM32G4xx_HAL_Driver/Src/stm32g4xx_hal_dac_ex.c ****   *          functionalities of the DAC peripheral.
   8:Drivers/STM32G4xx_HAL_Driver/Src/stm32g4xx_hal_dac_ex.c ****   *
   9:Drivers/STM32G4xx_HAL_Driver/Src/stm32g4xx_hal_dac_ex.c ****   *
  10:Drivers/STM32G4xx_HAL_Driver/Src/stm32g4xx_hal_dac_ex.c ****   ******************************************************************************
  11:Drivers/STM32G4xx_HAL_Driver/Src/stm32g4xx_hal_dac_ex.c ****   * @attention
  12:Drivers/STM32G4xx_HAL_Driver/Src/stm32g4xx_hal_dac_ex.c ****   *
  13:Drivers/STM32G4xx_HAL_Driver/Src/stm32g4xx_hal_dac_ex.c ****   * Copyright (c) 2019 STMicroelectronics.
  14:Drivers/STM32G4xx_HAL_Driver/Src/stm32g4xx_hal_dac_ex.c ****   * All rights reserved.
  15:Drivers/STM32G4xx_HAL_Driver/Src/stm32g4xx_hal_dac_ex.c ****   *
  16:Drivers/STM32G4xx_HAL_Driver/Src/stm32g4xx_hal_dac_ex.c ****   * This software is licensed under terms that can be found in the LICENSE file
  17:Drivers/STM32G4xx_HAL_Driver/Src/stm32g4xx_hal_dac_ex.c ****   * in the root directory of this software component.
  18:Drivers/STM32G4xx_HAL_Driver/Src/stm32g4xx_hal_dac_ex.c ****   * If no LICENSE file comes with this software, it is provided AS-IS.
  19:Drivers/STM32G4xx_HAL_Driver/Src/stm32g4xx_hal_dac_ex.c ****   *
  20:Drivers/STM32G4xx_HAL_Driver/Src/stm32g4xx_hal_dac_ex.c ****   ******************************************************************************
  21:Drivers/STM32G4xx_HAL_Driver/Src/stm32g4xx_hal_dac_ex.c ****   @verbatim
  22:Drivers/STM32G4xx_HAL_Driver/Src/stm32g4xx_hal_dac_ex.c ****   ==============================================================================
  23:Drivers/STM32G4xx_HAL_Driver/Src/stm32g4xx_hal_dac_ex.c ****                       ##### How to use this driver #####
  24:Drivers/STM32G4xx_HAL_Driver/Src/stm32g4xx_hal_dac_ex.c ****   ==============================================================================
  25:Drivers/STM32G4xx_HAL_Driver/Src/stm32g4xx_hal_dac_ex.c ****     [..]
  26:Drivers/STM32G4xx_HAL_Driver/Src/stm32g4xx_hal_dac_ex.c ****      *** Dual mode IO operation ***
  27:Drivers/STM32G4xx_HAL_Driver/Src/stm32g4xx_hal_dac_ex.c ****      ==============================
  28:Drivers/STM32G4xx_HAL_Driver/Src/stm32g4xx_hal_dac_ex.c ****      [..]
  29:Drivers/STM32G4xx_HAL_Driver/Src/stm32g4xx_hal_dac_ex.c ****       (+) Use HAL_DACEx_DualStart() to enable both channel and start conversion
  30:Drivers/STM32G4xx_HAL_Driver/Src/stm32g4xx_hal_dac_ex.c ****           for dual mode operation.
ARM GAS   			page 2


  31:Drivers/STM32G4xx_HAL_Driver/Src/stm32g4xx_hal_dac_ex.c ****           If software trigger is selected, using HAL_DACEx_DualStart() will start
  32:Drivers/STM32G4xx_HAL_Driver/Src/stm32g4xx_hal_dac_ex.c ****           the conversion of the value previously set by HAL_DACEx_DualSetValue().
  33:Drivers/STM32G4xx_HAL_Driver/Src/stm32g4xx_hal_dac_ex.c ****       (+) Use HAL_DACEx_DualStop() to disable both channel and stop conversion
  34:Drivers/STM32G4xx_HAL_Driver/Src/stm32g4xx_hal_dac_ex.c ****           for dual mode operation.
  35:Drivers/STM32G4xx_HAL_Driver/Src/stm32g4xx_hal_dac_ex.c ****       (+) Use HAL_DACEx_DualStart_DMA() to enable both channel and start conversion
  36:Drivers/STM32G4xx_HAL_Driver/Src/stm32g4xx_hal_dac_ex.c ****           for dual mode operation using DMA to feed DAC converters.
  37:Drivers/STM32G4xx_HAL_Driver/Src/stm32g4xx_hal_dac_ex.c ****           First issued trigger will start the conversion of the value previously
  38:Drivers/STM32G4xx_HAL_Driver/Src/stm32g4xx_hal_dac_ex.c ****           set by HAL_DACEx_DualSetValue().
  39:Drivers/STM32G4xx_HAL_Driver/Src/stm32g4xx_hal_dac_ex.c ****           The same callbacks that are used in single mode are called in dual mode to notify
  40:Drivers/STM32G4xx_HAL_Driver/Src/stm32g4xx_hal_dac_ex.c ****           transfer completion (half complete or complete), errors or underrun.
  41:Drivers/STM32G4xx_HAL_Driver/Src/stm32g4xx_hal_dac_ex.c ****       (+) Use HAL_DACEx_DualStop_DMA() to disable both channel and stop conversion
  42:Drivers/STM32G4xx_HAL_Driver/Src/stm32g4xx_hal_dac_ex.c ****           for dual mode operation using DMA to feed DAC converters.
  43:Drivers/STM32G4xx_HAL_Driver/Src/stm32g4xx_hal_dac_ex.c ****       (+) When Dual mode is enabled (i.e. DAC Channel1 and Channel2 are used simultaneously) :
  44:Drivers/STM32G4xx_HAL_Driver/Src/stm32g4xx_hal_dac_ex.c ****           Use HAL_DACEx_DualGetValue() to get digital data to be converted and use
  45:Drivers/STM32G4xx_HAL_Driver/Src/stm32g4xx_hal_dac_ex.c ****           HAL_DACEx_DualSetValue() to set digital value to converted simultaneously in
  46:Drivers/STM32G4xx_HAL_Driver/Src/stm32g4xx_hal_dac_ex.c ****           Channel 1 and Channel 2.
  47:Drivers/STM32G4xx_HAL_Driver/Src/stm32g4xx_hal_dac_ex.c ****      *** Signal generation operation ***
  48:Drivers/STM32G4xx_HAL_Driver/Src/stm32g4xx_hal_dac_ex.c ****      ===================================
  49:Drivers/STM32G4xx_HAL_Driver/Src/stm32g4xx_hal_dac_ex.c ****      [..]
  50:Drivers/STM32G4xx_HAL_Driver/Src/stm32g4xx_hal_dac_ex.c ****       (+) Use HAL_DACEx_TriangleWaveGenerate() to generate Triangle signal.
  51:Drivers/STM32G4xx_HAL_Driver/Src/stm32g4xx_hal_dac_ex.c ****       (+) Use HAL_DACEx_NoiseWaveGenerate() to generate Noise signal.
  52:Drivers/STM32G4xx_HAL_Driver/Src/stm32g4xx_hal_dac_ex.c **** 
  53:Drivers/STM32G4xx_HAL_Driver/Src/stm32g4xx_hal_dac_ex.c ****       (+) Use HAL_DACEx_SawtoothWaveGenerate() to generate sawtooth signal.
  54:Drivers/STM32G4xx_HAL_Driver/Src/stm32g4xx_hal_dac_ex.c ****       (+) Use HAL_DACEx_SawtoothWaveDataReset() to reset sawtooth wave.
  55:Drivers/STM32G4xx_HAL_Driver/Src/stm32g4xx_hal_dac_ex.c ****       (+) Use HAL_DACEx_SawtoothWaveDataStep() to step sawtooth wave.
  56:Drivers/STM32G4xx_HAL_Driver/Src/stm32g4xx_hal_dac_ex.c **** 
  57:Drivers/STM32G4xx_HAL_Driver/Src/stm32g4xx_hal_dac_ex.c ****       (+) HAL_DACEx_SelfCalibrate to calibrate one DAC channel.
  58:Drivers/STM32G4xx_HAL_Driver/Src/stm32g4xx_hal_dac_ex.c ****       (+) HAL_DACEx_SetUserTrimming to set user trimming value.
  59:Drivers/STM32G4xx_HAL_Driver/Src/stm32g4xx_hal_dac_ex.c ****       (+) HAL_DACEx_GetTrimOffset to retrieve trimming value (factory setting
  60:Drivers/STM32G4xx_HAL_Driver/Src/stm32g4xx_hal_dac_ex.c ****           after reset, user setting if HAL_DACEx_SetUserTrimming have been used
  61:Drivers/STM32G4xx_HAL_Driver/Src/stm32g4xx_hal_dac_ex.c ****           at least one time after reset).
  62:Drivers/STM32G4xx_HAL_Driver/Src/stm32g4xx_hal_dac_ex.c **** 
  63:Drivers/STM32G4xx_HAL_Driver/Src/stm32g4xx_hal_dac_ex.c ****  @endverbatim
  64:Drivers/STM32G4xx_HAL_Driver/Src/stm32g4xx_hal_dac_ex.c ****   ******************************************************************************
  65:Drivers/STM32G4xx_HAL_Driver/Src/stm32g4xx_hal_dac_ex.c ****   */
  66:Drivers/STM32G4xx_HAL_Driver/Src/stm32g4xx_hal_dac_ex.c **** 
  67:Drivers/STM32G4xx_HAL_Driver/Src/stm32g4xx_hal_dac_ex.c **** 
  68:Drivers/STM32G4xx_HAL_Driver/Src/stm32g4xx_hal_dac_ex.c **** /* Includes ------------------------------------------------------------------*/
  69:Drivers/STM32G4xx_HAL_Driver/Src/stm32g4xx_hal_dac_ex.c **** #include "stm32g4xx_hal.h"
  70:Drivers/STM32G4xx_HAL_Driver/Src/stm32g4xx_hal_dac_ex.c **** 
  71:Drivers/STM32G4xx_HAL_Driver/Src/stm32g4xx_hal_dac_ex.c **** /** @addtogroup STM32G4xx_HAL_Driver
  72:Drivers/STM32G4xx_HAL_Driver/Src/stm32g4xx_hal_dac_ex.c ****   * @{
  73:Drivers/STM32G4xx_HAL_Driver/Src/stm32g4xx_hal_dac_ex.c ****   */
  74:Drivers/STM32G4xx_HAL_Driver/Src/stm32g4xx_hal_dac_ex.c **** 
  75:Drivers/STM32G4xx_HAL_Driver/Src/stm32g4xx_hal_dac_ex.c **** #ifdef HAL_DAC_MODULE_ENABLED
  76:Drivers/STM32G4xx_HAL_Driver/Src/stm32g4xx_hal_dac_ex.c **** 
  77:Drivers/STM32G4xx_HAL_Driver/Src/stm32g4xx_hal_dac_ex.c **** #if defined(DAC1) || defined(DAC2) || defined(DAC3) ||defined (DAC4)
  78:Drivers/STM32G4xx_HAL_Driver/Src/stm32g4xx_hal_dac_ex.c **** 
  79:Drivers/STM32G4xx_HAL_Driver/Src/stm32g4xx_hal_dac_ex.c **** /** @defgroup DACEx DACEx
  80:Drivers/STM32G4xx_HAL_Driver/Src/stm32g4xx_hal_dac_ex.c ****   * @brief DAC Extended HAL module driver
  81:Drivers/STM32G4xx_HAL_Driver/Src/stm32g4xx_hal_dac_ex.c ****   * @{
  82:Drivers/STM32G4xx_HAL_Driver/Src/stm32g4xx_hal_dac_ex.c ****   */
  83:Drivers/STM32G4xx_HAL_Driver/Src/stm32g4xx_hal_dac_ex.c **** 
  84:Drivers/STM32G4xx_HAL_Driver/Src/stm32g4xx_hal_dac_ex.c **** /* Private typedef -----------------------------------------------------------*/
  85:Drivers/STM32G4xx_HAL_Driver/Src/stm32g4xx_hal_dac_ex.c **** /* Private define ------------------------------------------------------------*/
  86:Drivers/STM32G4xx_HAL_Driver/Src/stm32g4xx_hal_dac_ex.c **** 
  87:Drivers/STM32G4xx_HAL_Driver/Src/stm32g4xx_hal_dac_ex.c **** /* Delay for DAC minimum trimming time.                                       */
ARM GAS   			page 3


  88:Drivers/STM32G4xx_HAL_Driver/Src/stm32g4xx_hal_dac_ex.c **** /* Note: minimum time needed between two calibration steps                    */
  89:Drivers/STM32G4xx_HAL_Driver/Src/stm32g4xx_hal_dac_ex.c **** /*       The delay below is specified under conditions:                       */
  90:Drivers/STM32G4xx_HAL_Driver/Src/stm32g4xx_hal_dac_ex.c **** /*        - DAC channel output buffer enabled                                 */
  91:Drivers/STM32G4xx_HAL_Driver/Src/stm32g4xx_hal_dac_ex.c **** /* Literal set to maximum value (refer to device datasheet,                   */
  92:Drivers/STM32G4xx_HAL_Driver/Src/stm32g4xx_hal_dac_ex.c **** /* electrical characteristics, parameter "tTRIM").                            */
  93:Drivers/STM32G4xx_HAL_Driver/Src/stm32g4xx_hal_dac_ex.c **** /* Unit: us                                                                   */
  94:Drivers/STM32G4xx_HAL_Driver/Src/stm32g4xx_hal_dac_ex.c **** #define DAC_DELAY_TRIM_US          (50UL)     /*!< Delay for DAC minimum trimming time */
  95:Drivers/STM32G4xx_HAL_Driver/Src/stm32g4xx_hal_dac_ex.c **** 
  96:Drivers/STM32G4xx_HAL_Driver/Src/stm32g4xx_hal_dac_ex.c **** /* Private macro -------------------------------------------------------------*/
  97:Drivers/STM32G4xx_HAL_Driver/Src/stm32g4xx_hal_dac_ex.c **** /* Private variables ---------------------------------------------------------*/
  98:Drivers/STM32G4xx_HAL_Driver/Src/stm32g4xx_hal_dac_ex.c **** /* Private function prototypes -----------------------------------------------*/
  99:Drivers/STM32G4xx_HAL_Driver/Src/stm32g4xx_hal_dac_ex.c **** /* Exported functions --------------------------------------------------------*/
 100:Drivers/STM32G4xx_HAL_Driver/Src/stm32g4xx_hal_dac_ex.c **** 
 101:Drivers/STM32G4xx_HAL_Driver/Src/stm32g4xx_hal_dac_ex.c **** /** @defgroup DACEx_Exported_Functions DACEx Exported Functions
 102:Drivers/STM32G4xx_HAL_Driver/Src/stm32g4xx_hal_dac_ex.c ****   * @{
 103:Drivers/STM32G4xx_HAL_Driver/Src/stm32g4xx_hal_dac_ex.c ****   */
 104:Drivers/STM32G4xx_HAL_Driver/Src/stm32g4xx_hal_dac_ex.c **** 
 105:Drivers/STM32G4xx_HAL_Driver/Src/stm32g4xx_hal_dac_ex.c **** /** @defgroup DACEx_Exported_Functions_Group2 IO operation functions
 106:Drivers/STM32G4xx_HAL_Driver/Src/stm32g4xx_hal_dac_ex.c ****   *  @brief    Extended IO operation functions
 107:Drivers/STM32G4xx_HAL_Driver/Src/stm32g4xx_hal_dac_ex.c ****   *
 108:Drivers/STM32G4xx_HAL_Driver/Src/stm32g4xx_hal_dac_ex.c **** @verbatim
 109:Drivers/STM32G4xx_HAL_Driver/Src/stm32g4xx_hal_dac_ex.c ****   ==============================================================================
 110:Drivers/STM32G4xx_HAL_Driver/Src/stm32g4xx_hal_dac_ex.c ****                  ##### Extended features functions #####
 111:Drivers/STM32G4xx_HAL_Driver/Src/stm32g4xx_hal_dac_ex.c ****   ==============================================================================
 112:Drivers/STM32G4xx_HAL_Driver/Src/stm32g4xx_hal_dac_ex.c ****     [..]  This section provides functions allowing to:
 113:Drivers/STM32G4xx_HAL_Driver/Src/stm32g4xx_hal_dac_ex.c ****       (+) Start conversion.
 114:Drivers/STM32G4xx_HAL_Driver/Src/stm32g4xx_hal_dac_ex.c ****       (+) Stop conversion.
 115:Drivers/STM32G4xx_HAL_Driver/Src/stm32g4xx_hal_dac_ex.c ****       (+) Start conversion and enable DMA transfer.
 116:Drivers/STM32G4xx_HAL_Driver/Src/stm32g4xx_hal_dac_ex.c ****       (+) Stop conversion and disable DMA transfer.
 117:Drivers/STM32G4xx_HAL_Driver/Src/stm32g4xx_hal_dac_ex.c ****       (+) Get result of conversion.
 118:Drivers/STM32G4xx_HAL_Driver/Src/stm32g4xx_hal_dac_ex.c ****       (+) Get result of dual mode conversion.
 119:Drivers/STM32G4xx_HAL_Driver/Src/stm32g4xx_hal_dac_ex.c **** 
 120:Drivers/STM32G4xx_HAL_Driver/Src/stm32g4xx_hal_dac_ex.c **** @endverbatim
 121:Drivers/STM32G4xx_HAL_Driver/Src/stm32g4xx_hal_dac_ex.c ****   * @{
 122:Drivers/STM32G4xx_HAL_Driver/Src/stm32g4xx_hal_dac_ex.c ****   */
 123:Drivers/STM32G4xx_HAL_Driver/Src/stm32g4xx_hal_dac_ex.c **** 
 124:Drivers/STM32G4xx_HAL_Driver/Src/stm32g4xx_hal_dac_ex.c **** 
 125:Drivers/STM32G4xx_HAL_Driver/Src/stm32g4xx_hal_dac_ex.c **** /**
 126:Drivers/STM32G4xx_HAL_Driver/Src/stm32g4xx_hal_dac_ex.c ****   * @brief  Enables DAC and starts conversion of both channels.
 127:Drivers/STM32G4xx_HAL_Driver/Src/stm32g4xx_hal_dac_ex.c ****   * @param  hdac pointer to a DAC_HandleTypeDef structure that contains
 128:Drivers/STM32G4xx_HAL_Driver/Src/stm32g4xx_hal_dac_ex.c ****   *         the configuration information for the specified DAC.
 129:Drivers/STM32G4xx_HAL_Driver/Src/stm32g4xx_hal_dac_ex.c ****   * @retval HAL status
 130:Drivers/STM32G4xx_HAL_Driver/Src/stm32g4xx_hal_dac_ex.c ****   */
 131:Drivers/STM32G4xx_HAL_Driver/Src/stm32g4xx_hal_dac_ex.c **** HAL_StatusTypeDef HAL_DACEx_DualStart(DAC_HandleTypeDef *hdac)
 132:Drivers/STM32G4xx_HAL_Driver/Src/stm32g4xx_hal_dac_ex.c **** {
  29              	 .loc 1 132 1 view-0
  30              	 .cfi_startproc
  31              	 
  32              	 
  33              	 
 133:Drivers/STM32G4xx_HAL_Driver/Src/stm32g4xx_hal_dac_ex.c ****   uint32_t tmp_swtrig = 0UL;
  34              	 .loc 1 133 3 view .LVU1
 134:Drivers/STM32G4xx_HAL_Driver/Src/stm32g4xx_hal_dac_ex.c ****   __IO uint32_t wait_loop_index;
  35              	 .loc 1 134 3 view .LVU2
 135:Drivers/STM32G4xx_HAL_Driver/Src/stm32g4xx_hal_dac_ex.c **** 
 136:Drivers/STM32G4xx_HAL_Driver/Src/stm32g4xx_hal_dac_ex.c ****   /* Check the DAC peripheral handle */
 137:Drivers/STM32G4xx_HAL_Driver/Src/stm32g4xx_hal_dac_ex.c ****   if (hdac == NULL)
ARM GAS   			page 4


  36              	 .loc 1 137 3 view .LVU3
  37              	 .loc 1 137 6 is_stmt 0 view .LVU4
  38 0000 0028     	 cmp r0,#0
  39 0002 40D0     	 beq .L6
 138:Drivers/STM32G4xx_HAL_Driver/Src/stm32g4xx_hal_dac_ex.c ****   {
 139:Drivers/STM32G4xx_HAL_Driver/Src/stm32g4xx_hal_dac_ex.c ****     return HAL_ERROR;
 140:Drivers/STM32G4xx_HAL_Driver/Src/stm32g4xx_hal_dac_ex.c ****   }
 141:Drivers/STM32G4xx_HAL_Driver/Src/stm32g4xx_hal_dac_ex.c **** 
 142:Drivers/STM32G4xx_HAL_Driver/Src/stm32g4xx_hal_dac_ex.c ****   /* Check the parameters */
 143:Drivers/STM32G4xx_HAL_Driver/Src/stm32g4xx_hal_dac_ex.c ****   assert_param(IS_DAC_CHANNEL(hdac->Instance, DAC_CHANNEL_2));
 144:Drivers/STM32G4xx_HAL_Driver/Src/stm32g4xx_hal_dac_ex.c **** 
 145:Drivers/STM32G4xx_HAL_Driver/Src/stm32g4xx_hal_dac_ex.c ****   /* Process locked */
 146:Drivers/STM32G4xx_HAL_Driver/Src/stm32g4xx_hal_dac_ex.c ****   __HAL_LOCK(hdac);
  40              	 .loc 1 146 3 view .LVU5
  41 0004 4379     	 ldrb r3,[r0,#5]
  42 0006 012B     	 cmp r3,#1
  43 0008 0246     	 mov r2,r0
 143:Drivers/STM32G4xx_HAL_Driver/Src/stm32g4xx_hal_dac_ex.c **** 
  44              	 .loc 1 143 3 is_stmt 1 view .LVU6
  45              	 .loc 1 146 3 view .LVU7
  46              	 .loc 1 146 3 view .LVU8
  47 000a 3ED0     	 beq .L7
  48              	 .loc 1 146 3 discriminator 2 view .LVU9
  49              	 .loc 1 146 3 discriminator 2 view .LVU10
 147:Drivers/STM32G4xx_HAL_Driver/Src/stm32g4xx_hal_dac_ex.c **** 
 148:Drivers/STM32G4xx_HAL_Driver/Src/stm32g4xx_hal_dac_ex.c ****   /* Change DAC state */
 149:Drivers/STM32G4xx_HAL_Driver/Src/stm32g4xx_hal_dac_ex.c ****   hdac->State = HAL_DAC_STATE_BUSY;
  50              	 .loc 1 149 3 view .LVU11
 132:Drivers/STM32G4xx_HAL_Driver/Src/stm32g4xx_hal_dac_ex.c ****   uint32_t tmp_swtrig = 0UL;
  51              	 .loc 1 132 1 is_stmt 0 view .LVU12
  52 000c 10B4     	 push {r4}
  53              	 .cfi_def_cfa_offset 4
  54              	 .cfi_offset 4,-4
 150:Drivers/STM32G4xx_HAL_Driver/Src/stm32g4xx_hal_dac_ex.c **** 
 151:Drivers/STM32G4xx_HAL_Driver/Src/stm32g4xx_hal_dac_ex.c ****   /* Enable the Peripheral */
 152:Drivers/STM32G4xx_HAL_Driver/Src/stm32g4xx_hal_dac_ex.c ****   __HAL_DAC_ENABLE(hdac, DAC_CHANNEL_1);
  55              	 .loc 1 152 3 view .LVU13
  56 000e 0168     	 ldr r1,[r0]
 153:Drivers/STM32G4xx_HAL_Driver/Src/stm32g4xx_hal_dac_ex.c ****   __HAL_DAC_ENABLE(hdac, DAC_CHANNEL_2);
 154:Drivers/STM32G4xx_HAL_Driver/Src/stm32g4xx_hal_dac_ex.c ****   /* Ensure minimum wait before using peripheral after enabling it */
 155:Drivers/STM32G4xx_HAL_Driver/Src/stm32g4xx_hal_dac_ex.c ****   /* Wait loop initialization and execution */
 156:Drivers/STM32G4xx_HAL_Driver/Src/stm32g4xx_hal_dac_ex.c ****   /* Note: Variable divided by 2 to compensate partially              */
 157:Drivers/STM32G4xx_HAL_Driver/Src/stm32g4xx_hal_dac_ex.c ****   /*       CPU processing cycles, scaling in us split to not          */
 158:Drivers/STM32G4xx_HAL_Driver/Src/stm32g4xx_hal_dac_ex.c ****   /*       exceed 32 bits register capacity and handle low frequency. */
 159:Drivers/STM32G4xx_HAL_Driver/Src/stm32g4xx_hal_dac_ex.c ****   wait_loop_index = ((DAC_DELAY_STARTUP_US / 10UL) * ((SystemCoreClock / (100000UL * 2UL)) + 1UL));
  57              	 .loc 1 159 72 view .LVU14
  58 0010 1F4C     	 ldr r4,.L17
 149:Drivers/STM32G4xx_HAL_Driver/Src/stm32g4xx_hal_dac_ex.c **** 
  59              	 .loc 1 149 15 view .LVU15
  60 0012 0223     	 movs r3,#2
 132:Drivers/STM32G4xx_HAL_Driver/Src/stm32g4xx_hal_dac_ex.c ****   uint32_t tmp_swtrig = 0UL;
  61              	 .loc 1 132 1 view .LVU16
  62 0014 83B0     	 sub sp,sp,#12
  63              	 .cfi_def_cfa_offset 16
 149:Drivers/STM32G4xx_HAL_Driver/Src/stm32g4xx_hal_dac_ex.c **** 
  64              	 .loc 1 149 15 view .LVU17
  65 0016 0371     	 strb r3,[r0,#4]
ARM GAS   			page 5


 152:Drivers/STM32G4xx_HAL_Driver/Src/stm32g4xx_hal_dac_ex.c ****   __HAL_DAC_ENABLE(hdac, DAC_CHANNEL_2);
  66              	 .loc 1 152 3 is_stmt 1 view .LVU18
  67              	 .loc 1 159 72 is_stmt 0 view .LVU19
  68 0018 1E4B     	 ldr r3,.L17+4
 152:Drivers/STM32G4xx_HAL_Driver/Src/stm32g4xx_hal_dac_ex.c ****   __HAL_DAC_ENABLE(hdac, DAC_CHANNEL_2);
  69              	 .loc 1 152 3 view .LVU20
  70 001a 0868     	 ldr r0,[r1]
  71              	.LVL1:
  72              	 .loc 1 159 72 view .LVU21
  73 001c 1B68     	 ldr r3,[r3]
 152:Drivers/STM32G4xx_HAL_Driver/Src/stm32g4xx_hal_dac_ex.c ****   __HAL_DAC_ENABLE(hdac, DAC_CHANNEL_2);
  74              	 .loc 1 152 3 view .LVU22
  75 001e 40F00100 	 orr r0,r0,#1
  76 0022 0860     	 str r0,[r1]
 153:Drivers/STM32G4xx_HAL_Driver/Src/stm32g4xx_hal_dac_ex.c ****   /* Ensure minimum wait before using peripheral after enabling it */
  77              	 .loc 1 153 3 is_stmt 1 view .LVU23
  78              	 .loc 1 159 72 is_stmt 0 view .LVU24
  79 0024 9B09     	 lsrs r3,r3,#6
 153:Drivers/STM32G4xx_HAL_Driver/Src/stm32g4xx_hal_dac_ex.c ****   /* Ensure minimum wait before using peripheral after enabling it */
  80              	 .loc 1 153 3 view .LVU25
  81 0026 0868     	 ldr r0,[r1]
  82              	 .loc 1 159 72 view .LVU26
  83 0028 A4FB0343 	 umull r4,r3,r4,r3
  84 002c 9B09     	 lsrs r3,r3,#6
  85              	 .loc 1 159 52 view .LVU27
  86 002e 0133     	 adds r3,r3,#1
 153:Drivers/STM32G4xx_HAL_Driver/Src/stm32g4xx_hal_dac_ex.c ****   /* Ensure minimum wait before using peripheral after enabling it */
  87              	 .loc 1 153 3 view .LVU28
  88 0030 40F48030 	 orr r0,r0,#65536
  89 0034 0860     	 str r0,[r1]
  90              	 .loc 1 159 3 is_stmt 1 view .LVU29
  91              	 .loc 1 159 19 is_stmt 0 view .LVU30
  92 0036 0193     	 str r3,[sp,#4]
 160:Drivers/STM32G4xx_HAL_Driver/Src/stm32g4xx_hal_dac_ex.c ****   while (wait_loop_index != 0UL)
  93              	 .loc 1 160 3 is_stmt 1 view .LVU31
  94              	 .loc 1 160 26 view .LVU32
  95 0038 019B     	 ldr r3,[sp,#4]
  96 003a 2BB1     	 cbz r3,.L3
  97              	.L4:
 161:Drivers/STM32G4xx_HAL_Driver/Src/stm32g4xx_hal_dac_ex.c ****   {
 162:Drivers/STM32G4xx_HAL_Driver/Src/stm32g4xx_hal_dac_ex.c ****     wait_loop_index--;
  98              	 .loc 1 162 5 view .LVU33
  99              	 .loc 1 162 20 is_stmt 0 view .LVU34
 100 003c 019B     	 ldr r3,[sp,#4]
 101 003e 013B     	 subs r3,r3,#1
 102 0040 0193     	 str r3,[sp,#4]
 160:Drivers/STM32G4xx_HAL_Driver/Src/stm32g4xx_hal_dac_ex.c ****   while (wait_loop_index != 0UL)
 103              	 .loc 1 160 26 is_stmt 1 view .LVU35
 104 0042 019B     	 ldr r3,[sp,#4]
 105 0044 002B     	 cmp r3,#0
 106 0046 F9D1     	 bne .L4
 107              	.L3:
 163:Drivers/STM32G4xx_HAL_Driver/Src/stm32g4xx_hal_dac_ex.c ****   }
 164:Drivers/STM32G4xx_HAL_Driver/Src/stm32g4xx_hal_dac_ex.c **** 
 165:Drivers/STM32G4xx_HAL_Driver/Src/stm32g4xx_hal_dac_ex.c ****   /* Check if software trigger enabled */
 166:Drivers/STM32G4xx_HAL_Driver/Src/stm32g4xx_hal_dac_ex.c ****   if ((hdac->Instance->CR & (DAC_CR_TEN1 | DAC_CR_TSEL1)) == DAC_TRIGGER_SOFTWARE)
 108              	 .loc 1 166 3 view .LVU36
ARM GAS   			page 6


 109              	 .loc 1 166 22 is_stmt 0 view .LVU37
 110 0048 0B68     	 ldr r3,[r1]
 167:Drivers/STM32G4xx_HAL_Driver/Src/stm32g4xx_hal_dac_ex.c ****   {
 168:Drivers/STM32G4xx_HAL_Driver/Src/stm32g4xx_hal_dac_ex.c ****     tmp_swtrig |= DAC_SWTRIGR_SWTRIG1;
 169:Drivers/STM32G4xx_HAL_Driver/Src/stm32g4xx_hal_dac_ex.c ****   }
 170:Drivers/STM32G4xx_HAL_Driver/Src/stm32g4xx_hal_dac_ex.c ****   if ((hdac->Instance->CR & (DAC_CR_TEN2 | DAC_CR_TSEL2)) == (DAC_TRIGGER_SOFTWARE << (DAC_CHANNEL_
 111              	 .loc 1 170 22 view .LVU38
 112 004a 0868     	 ldr r0,[r1]
 166:Drivers/STM32G4xx_HAL_Driver/Src/stm32g4xx_hal_dac_ex.c ****   {
 113              	 .loc 1 166 27 view .LVU39
 114 004c 03F03E03 	 and r3,r3,#62
 166:Drivers/STM32G4xx_HAL_Driver/Src/stm32g4xx_hal_dac_ex.c ****   {
 115              	 .loc 1 166 6 view .LVU40
 116 0050 A3F10203 	 sub r3,#2
 117              	 .loc 1 170 27 view .LVU41
 118 0054 00F47810 	 and r0,r0,#4063232
 166:Drivers/STM32G4xx_HAL_Driver/Src/stm32g4xx_hal_dac_ex.c ****   {
 119              	 .loc 1 166 6 view .LVU42
 120 0058 B3FA83F3 	 clz r3,r3
 121              	 .loc 1 170 6 view .LVU43
 122 005c B0F5003F 	 cmp r0,#131072
 166:Drivers/STM32G4xx_HAL_Driver/Src/stm32g4xx_hal_dac_ex.c ****   {
 123              	 .loc 1 166 6 view .LVU44
 124 0060 4FEA5313 	 lsr r3,r3,#5
 125              	.LVL2:
 126              	 .loc 1 170 3 is_stmt 1 view .LVU45
 171:Drivers/STM32G4xx_HAL_Driver/Src/stm32g4xx_hal_dac_ex.c ****   {
 172:Drivers/STM32G4xx_HAL_Driver/Src/stm32g4xx_hal_dac_ex.c ****     tmp_swtrig |= DAC_SWTRIGR_SWTRIG2;
 127              	 .loc 1 172 5 view .LVU46
 173:Drivers/STM32G4xx_HAL_Driver/Src/stm32g4xx_hal_dac_ex.c ****   }
 174:Drivers/STM32G4xx_HAL_Driver/Src/stm32g4xx_hal_dac_ex.c ****   /* Enable the selected DAC software conversion*/
 175:Drivers/STM32G4xx_HAL_Driver/Src/stm32g4xx_hal_dac_ex.c ****   SET_BIT(hdac->Instance->SWTRIGR, tmp_swtrig);
 128              	 .loc 1 175 3 is_stmt 0 view .LVU47
 129 0064 4868     	 ldr r0,[r1,#4]
 176:Drivers/STM32G4xx_HAL_Driver/Src/stm32g4xx_hal_dac_ex.c **** 
 177:Drivers/STM32G4xx_HAL_Driver/Src/stm32g4xx_hal_dac_ex.c ****   /* Change DAC state */
 178:Drivers/STM32G4xx_HAL_Driver/Src/stm32g4xx_hal_dac_ex.c ****   hdac->State = HAL_DAC_STATE_READY;
 179:Drivers/STM32G4xx_HAL_Driver/Src/stm32g4xx_hal_dac_ex.c **** 
 180:Drivers/STM32G4xx_HAL_Driver/Src/stm32g4xx_hal_dac_ex.c ****   /* Process unlocked */
 181:Drivers/STM32G4xx_HAL_Driver/Src/stm32g4xx_hal_dac_ex.c ****   __HAL_UNLOCK(hdac);
 130              	 .loc 1 181 3 view .LVU48
 131 0066 4FF0000C 	 mov ip,#0
 172:Drivers/STM32G4xx_HAL_Driver/Src/stm32g4xx_hal_dac_ex.c ****   }
 132              	 .loc 1 172 16 view .LVU49
 133 006a 08BF     	 it eq
 134 006c 43F00203 	 orreq r3,r3,#2
 135              	.LVL3:
 175:Drivers/STM32G4xx_HAL_Driver/Src/stm32g4xx_hal_dac_ex.c **** 
 136              	 .loc 1 175 3 is_stmt 1 view .LVU50
 137 0070 0343     	 orrs r3,r3,r0
 138              	.LVL4:
 178:Drivers/STM32G4xx_HAL_Driver/Src/stm32g4xx_hal_dac_ex.c **** 
 139              	 .loc 1 178 15 is_stmt 0 view .LVU51
 140 0072 0124     	 movs r4,#1
 182:Drivers/STM32G4xx_HAL_Driver/Src/stm32g4xx_hal_dac_ex.c **** 
 183:Drivers/STM32G4xx_HAL_Driver/Src/stm32g4xx_hal_dac_ex.c ****   /* Return function status */
 184:Drivers/STM32G4xx_HAL_Driver/Src/stm32g4xx_hal_dac_ex.c ****   return HAL_OK;
ARM GAS   			page 7


 141              	 .loc 1 184 10 view .LVU52
 142 0074 6046     	 mov r0,ip
 175:Drivers/STM32G4xx_HAL_Driver/Src/stm32g4xx_hal_dac_ex.c **** 
 143              	 .loc 1 175 3 view .LVU53
 144 0076 4B60     	 str r3,[r1,#4]
 178:Drivers/STM32G4xx_HAL_Driver/Src/stm32g4xx_hal_dac_ex.c **** 
 145              	 .loc 1 178 3 is_stmt 1 view .LVU54
 178:Drivers/STM32G4xx_HAL_Driver/Src/stm32g4xx_hal_dac_ex.c **** 
 146              	 .loc 1 178 15 is_stmt 0 view .LVU55
 147 0078 1471     	 strb r4,[r2,#4]
 181:Drivers/STM32G4xx_HAL_Driver/Src/stm32g4xx_hal_dac_ex.c **** 
 148              	 .loc 1 181 3 is_stmt 1 view .LVU56
 181:Drivers/STM32G4xx_HAL_Driver/Src/stm32g4xx_hal_dac_ex.c **** 
 149              	 .loc 1 181 3 view .LVU57
 150 007a 82F805C0 	 strb ip,[r2,#5]
 181:Drivers/STM32G4xx_HAL_Driver/Src/stm32g4xx_hal_dac_ex.c **** 
 151              	 .loc 1 181 3 view .LVU58
 152              	 .loc 1 184 3 view .LVU59
 185:Drivers/STM32G4xx_HAL_Driver/Src/stm32g4xx_hal_dac_ex.c **** }
 153              	 .loc 1 185 1 is_stmt 0 view .LVU60
 154 007e 03B0     	 add sp,sp,#12
 155              	 .cfi_def_cfa_offset 4
 156              	 
 157 0080 5DF8044B 	 ldr r4,[sp],#4
 158              	 .cfi_restore 4
 159              	 .cfi_def_cfa_offset 0
 160 0084 7047     	 bx lr
 161              	.LVL5:
 162              	.L6:
 139:Drivers/STM32G4xx_HAL_Driver/Src/stm32g4xx_hal_dac_ex.c ****   }
 163              	 .loc 1 139 12 view .LVU61
 164 0086 0120     	 movs r0,#1
 165              	.LVL6:
 139:Drivers/STM32G4xx_HAL_Driver/Src/stm32g4xx_hal_dac_ex.c ****   }
 166              	 .loc 1 139 12 view .LVU62
 167 0088 7047     	 bx lr
 168              	.LVL7:
 169              	.L7:
 146:Drivers/STM32G4xx_HAL_Driver/Src/stm32g4xx_hal_dac_ex.c **** 
 170              	 .loc 1 146 3 discriminator 1 view .LVU63
 171 008a 0220     	 movs r0,#2
 172              	.LVL8:
 173              	 .loc 1 185 1 view .LVU64
 174 008c 7047     	 bx lr
 175              	.L18:
 176 008e 00BF     	 .align 2
 177              	.L17:
 178 0090 632D3E05 	 .word 87960931
 179 0094 00000000 	 .word SystemCoreClock
 180              	 .cfi_endproc
 181              	.LFE361:
 183              	 .section .text.HAL_DACEx_DualStop,"ax",%progbits
 184              	 .align 1
 185              	 .p2align 2,,3
 186              	 .global HAL_DACEx_DualStop
 187              	 .syntax unified
 188              	 .thumb
ARM GAS   			page 8


 189              	 .thumb_func
 191              	HAL_DACEx_DualStop:
 192              	.LVL9:
 193              	.LFB362:
 186:Drivers/STM32G4xx_HAL_Driver/Src/stm32g4xx_hal_dac_ex.c **** 
 187:Drivers/STM32G4xx_HAL_Driver/Src/stm32g4xx_hal_dac_ex.c **** /**
 188:Drivers/STM32G4xx_HAL_Driver/Src/stm32g4xx_hal_dac_ex.c ****   * @brief  Disables DAC and stop conversion of both channels.
 189:Drivers/STM32G4xx_HAL_Driver/Src/stm32g4xx_hal_dac_ex.c ****   * @param  hdac pointer to a DAC_HandleTypeDef structure that contains
 190:Drivers/STM32G4xx_HAL_Driver/Src/stm32g4xx_hal_dac_ex.c ****   *         the configuration information for the specified DAC.
 191:Drivers/STM32G4xx_HAL_Driver/Src/stm32g4xx_hal_dac_ex.c ****   * @retval HAL status
 192:Drivers/STM32G4xx_HAL_Driver/Src/stm32g4xx_hal_dac_ex.c ****   */
 193:Drivers/STM32G4xx_HAL_Driver/Src/stm32g4xx_hal_dac_ex.c **** HAL_StatusTypeDef HAL_DACEx_DualStop(DAC_HandleTypeDef *hdac)
 194:Drivers/STM32G4xx_HAL_Driver/Src/stm32g4xx_hal_dac_ex.c **** {
 194              	 .loc 1 194 1 is_stmt 1 view-0
 195              	 .cfi_startproc
 196              	 
 197              	 
 198              	 
 195:Drivers/STM32G4xx_HAL_Driver/Src/stm32g4xx_hal_dac_ex.c ****   /* Check the DAC peripheral handle */
 196:Drivers/STM32G4xx_HAL_Driver/Src/stm32g4xx_hal_dac_ex.c ****   if (hdac == NULL)
 199              	 .loc 1 196 3 view .LVU66
 200              	 .loc 1 196 6 is_stmt 0 view .LVU67
 201 0000 0346     	 mov r3,r0
 202 0002 70B1     	 cbz r0,.L21
 197:Drivers/STM32G4xx_HAL_Driver/Src/stm32g4xx_hal_dac_ex.c ****   {
 198:Drivers/STM32G4xx_HAL_Driver/Src/stm32g4xx_hal_dac_ex.c ****     return HAL_ERROR;
 199:Drivers/STM32G4xx_HAL_Driver/Src/stm32g4xx_hal_dac_ex.c ****   }
 200:Drivers/STM32G4xx_HAL_Driver/Src/stm32g4xx_hal_dac_ex.c **** 
 201:Drivers/STM32G4xx_HAL_Driver/Src/stm32g4xx_hal_dac_ex.c ****   /* Check the parameters */
 202:Drivers/STM32G4xx_HAL_Driver/Src/stm32g4xx_hal_dac_ex.c ****   assert_param(IS_DAC_CHANNEL(hdac->Instance, DAC_CHANNEL_2));
 203              	 .loc 1 202 3 is_stmt 1 view .LVU68
 203:Drivers/STM32G4xx_HAL_Driver/Src/stm32g4xx_hal_dac_ex.c **** 
 204:Drivers/STM32G4xx_HAL_Driver/Src/stm32g4xx_hal_dac_ex.c ****   /* Disable the Peripheral */
 205:Drivers/STM32G4xx_HAL_Driver/Src/stm32g4xx_hal_dac_ex.c ****   __HAL_DAC_DISABLE(hdac, DAC_CHANNEL_1);
 204              	 .loc 1 205 3 view .LVU69
 205 0004 0268     	 ldr r2,[r0]
 206 0006 1168     	 ldr r1,[r2]
 207 0008 21F00101 	 bic r1,r1,#1
 208 000c 1160     	 str r1,[r2]
 206:Drivers/STM32G4xx_HAL_Driver/Src/stm32g4xx_hal_dac_ex.c ****   __HAL_DAC_DISABLE(hdac, DAC_CHANNEL_2);
 209              	 .loc 1 206 3 view .LVU70
 210 000e 1168     	 ldr r1,[r2]
 207:Drivers/STM32G4xx_HAL_Driver/Src/stm32g4xx_hal_dac_ex.c **** 
 208:Drivers/STM32G4xx_HAL_Driver/Src/stm32g4xx_hal_dac_ex.c ****   /* Change DAC state */
 209:Drivers/STM32G4xx_HAL_Driver/Src/stm32g4xx_hal_dac_ex.c ****   hdac->State = HAL_DAC_STATE_READY;
 211              	 .loc 1 209 15 is_stmt 0 view .LVU71
 212 0010 4FF0010C 	 mov ip,#1
 206:Drivers/STM32G4xx_HAL_Driver/Src/stm32g4xx_hal_dac_ex.c ****   __HAL_DAC_DISABLE(hdac, DAC_CHANNEL_2);
 213              	 .loc 1 206 3 view .LVU72
 214 0014 21F48031 	 bic r1,r1,#65536
 215 0018 1160     	 str r1,[r2]
 216              	 .loc 1 209 3 is_stmt 1 view .LVU73
 210:Drivers/STM32G4xx_HAL_Driver/Src/stm32g4xx_hal_dac_ex.c **** 
 211:Drivers/STM32G4xx_HAL_Driver/Src/stm32g4xx_hal_dac_ex.c ****   /* Return function status */
 212:Drivers/STM32G4xx_HAL_Driver/Src/stm32g4xx_hal_dac_ex.c ****   return HAL_OK;
 217              	 .loc 1 212 10 is_stmt 0 view .LVU74
 218 001a 0020     	 movs r0,#0
ARM GAS   			page 9


 219              	.LVL10:
 209:Drivers/STM32G4xx_HAL_Driver/Src/stm32g4xx_hal_dac_ex.c **** 
 220              	 .loc 1 209 15 view .LVU75
 221 001c 83F804C0 	 strb ip,[r3,#4]
 222              	 .loc 1 212 3 is_stmt 1 view .LVU76
 223              	 .loc 1 212 10 is_stmt 0 view .LVU77
 224 0020 7047     	 bx lr
 225              	.LVL11:
 226              	.L21:
 198:Drivers/STM32G4xx_HAL_Driver/Src/stm32g4xx_hal_dac_ex.c ****   }
 227              	 .loc 1 198 12 view .LVU78
 228 0022 0120     	 movs r0,#1
 229              	.LVL12:
 213:Drivers/STM32G4xx_HAL_Driver/Src/stm32g4xx_hal_dac_ex.c **** }
 230              	 .loc 1 213 1 view .LVU79
 231 0024 7047     	 bx lr
 232              	 .cfi_endproc
 233              	.LFE362:
 235 0026 00BF     	 .section .text.HAL_DACEx_DualStart_DMA,"ax",%progbits
 236              	 .align 1
 237              	 .p2align 2,,3
 238              	 .global HAL_DACEx_DualStart_DMA
 239              	 .syntax unified
 240              	 .thumb
 241              	 .thumb_func
 243              	HAL_DACEx_DualStart_DMA:
 244              	.LVL13:
 245              	.LFB363:
 214:Drivers/STM32G4xx_HAL_Driver/Src/stm32g4xx_hal_dac_ex.c **** 
 215:Drivers/STM32G4xx_HAL_Driver/Src/stm32g4xx_hal_dac_ex.c **** /**
 216:Drivers/STM32G4xx_HAL_Driver/Src/stm32g4xx_hal_dac_ex.c ****   * @brief  Enables DAC and starts conversion of both channel 1 and 2 of the same DAC.
 217:Drivers/STM32G4xx_HAL_Driver/Src/stm32g4xx_hal_dac_ex.c ****   * @param  hdac pointer to a DAC_HandleTypeDef structure that contains
 218:Drivers/STM32G4xx_HAL_Driver/Src/stm32g4xx_hal_dac_ex.c ****   *         the configuration information for the specified DAC.
 219:Drivers/STM32G4xx_HAL_Driver/Src/stm32g4xx_hal_dac_ex.c ****   * @param  Channel The DAC channel that will request data from DMA.
 220:Drivers/STM32G4xx_HAL_Driver/Src/stm32g4xx_hal_dac_ex.c ****   *          This parameter can be one of the following values:
 221:Drivers/STM32G4xx_HAL_Driver/Src/stm32g4xx_hal_dac_ex.c ****   *            @arg DAC_CHANNEL_1: DAC Channel1 selected
 222:Drivers/STM32G4xx_HAL_Driver/Src/stm32g4xx_hal_dac_ex.c ****   *            @arg DAC_CHANNEL_2: DAC Channel2 selected
 223:Drivers/STM32G4xx_HAL_Driver/Src/stm32g4xx_hal_dac_ex.c ****   * @param  pData The destination peripheral Buffer address.
 224:Drivers/STM32G4xx_HAL_Driver/Src/stm32g4xx_hal_dac_ex.c ****   * @param  Length The length of data to be transferred from memory to DAC peripheral
 225:Drivers/STM32G4xx_HAL_Driver/Src/stm32g4xx_hal_dac_ex.c ****   * @param  Alignment Specifies the data alignment for DAC channel.
 226:Drivers/STM32G4xx_HAL_Driver/Src/stm32g4xx_hal_dac_ex.c ****   *          This parameter can be one of the following values:
 227:Drivers/STM32G4xx_HAL_Driver/Src/stm32g4xx_hal_dac_ex.c ****   *            @arg DAC_ALIGN_8B_R: 8bit right data alignment selected
 228:Drivers/STM32G4xx_HAL_Driver/Src/stm32g4xx_hal_dac_ex.c ****   *            @arg DAC_ALIGN_12B_L: 12bit left data alignment selected
 229:Drivers/STM32G4xx_HAL_Driver/Src/stm32g4xx_hal_dac_ex.c ****   *            @arg DAC_ALIGN_12B_R: 12bit right data alignment selected
 230:Drivers/STM32G4xx_HAL_Driver/Src/stm32g4xx_hal_dac_ex.c ****   * @retval HAL status
 231:Drivers/STM32G4xx_HAL_Driver/Src/stm32g4xx_hal_dac_ex.c ****   */
 232:Drivers/STM32G4xx_HAL_Driver/Src/stm32g4xx_hal_dac_ex.c **** HAL_StatusTypeDef HAL_DACEx_DualStart_DMA(DAC_HandleTypeDef *hdac, uint32_t Channel,
 233:Drivers/STM32G4xx_HAL_Driver/Src/stm32g4xx_hal_dac_ex.c ****                                           const uint32_t *pData, uint32_t Length, uint32_t Alignmen
 234:Drivers/STM32G4xx_HAL_Driver/Src/stm32g4xx_hal_dac_ex.c **** {
 246              	 .loc 1 234 1 is_stmt 1 view-0
 247              	 .cfi_startproc
 248              	 
 249              	 
 235:Drivers/STM32G4xx_HAL_Driver/Src/stm32g4xx_hal_dac_ex.c ****   HAL_StatusTypeDef status;
 250              	 .loc 1 235 3 view .LVU81
 236:Drivers/STM32G4xx_HAL_Driver/Src/stm32g4xx_hal_dac_ex.c ****   uint32_t tmpreg = 0UL;
 251              	 .loc 1 236 3 view .LVU82
ARM GAS   			page 10


 237:Drivers/STM32G4xx_HAL_Driver/Src/stm32g4xx_hal_dac_ex.c ****   __IO uint32_t wait_loop_index;
 252              	 .loc 1 237 3 view .LVU83
 238:Drivers/STM32G4xx_HAL_Driver/Src/stm32g4xx_hal_dac_ex.c **** 
 239:Drivers/STM32G4xx_HAL_Driver/Src/stm32g4xx_hal_dac_ex.c ****   /* Check the DAC peripheral handle */
 240:Drivers/STM32G4xx_HAL_Driver/Src/stm32g4xx_hal_dac_ex.c ****   if (hdac == NULL)
 253              	 .loc 1 240 3 view .LVU84
 234:Drivers/STM32G4xx_HAL_Driver/Src/stm32g4xx_hal_dac_ex.c ****   HAL_StatusTypeDef status;
 254              	 .loc 1 234 1 is_stmt 0 view .LVU85
 255 0000 F0B5     	 push {r4,r5,r6,r7,lr}
 256              	 .cfi_def_cfa_offset 20
 257              	 .cfi_offset 4,-20
 258              	 .cfi_offset 5,-16
 259              	 .cfi_offset 6,-12
 260              	 .cfi_offset 7,-8
 261              	 .cfi_offset 14,-4
 262 0002 83B0     	 sub sp,sp,#12
 263              	 .cfi_def_cfa_offset 32
 234:Drivers/STM32G4xx_HAL_Driver/Src/stm32g4xx_hal_dac_ex.c ****   HAL_StatusTypeDef status;
 264              	 .loc 1 234 1 view .LVU86
 265 0004 089F     	 ldr r7,[sp,#32]
 266              	 .loc 1 240 6 view .LVU87
 267 0006 0028     	 cmp r0,#0
 268 0008 71D0     	 beq .L38
 269 000a 0D46     	 mov r5,r1
 270 000c 1146     	 mov r1,r2
 271              	.LVL14:
 241:Drivers/STM32G4xx_HAL_Driver/Src/stm32g4xx_hal_dac_ex.c ****   {
 242:Drivers/STM32G4xx_HAL_Driver/Src/stm32g4xx_hal_dac_ex.c ****     return HAL_ERROR;
 243:Drivers/STM32G4xx_HAL_Driver/Src/stm32g4xx_hal_dac_ex.c ****   }
 244:Drivers/STM32G4xx_HAL_Driver/Src/stm32g4xx_hal_dac_ex.c **** 
 245:Drivers/STM32G4xx_HAL_Driver/Src/stm32g4xx_hal_dac_ex.c ****   /* Check the parameters */
 246:Drivers/STM32G4xx_HAL_Driver/Src/stm32g4xx_hal_dac_ex.c ****   assert_param(IS_DAC_CHANNEL(hdac->Instance, Channel));
 247:Drivers/STM32G4xx_HAL_Driver/Src/stm32g4xx_hal_dac_ex.c ****   /* Ensure Channel 2 exists for this particular DAC instance */
 248:Drivers/STM32G4xx_HAL_Driver/Src/stm32g4xx_hal_dac_ex.c ****   assert_param(IS_DAC_CHANNEL(hdac->Instance, DAC_CHANNEL_2));
 249:Drivers/STM32G4xx_HAL_Driver/Src/stm32g4xx_hal_dac_ex.c ****   assert_param(IS_DAC_ALIGN(Alignment));
 250:Drivers/STM32G4xx_HAL_Driver/Src/stm32g4xx_hal_dac_ex.c **** 
 251:Drivers/STM32G4xx_HAL_Driver/Src/stm32g4xx_hal_dac_ex.c ****   /* Process locked */
 252:Drivers/STM32G4xx_HAL_Driver/Src/stm32g4xx_hal_dac_ex.c ****   __HAL_LOCK(hdac);
 272              	 .loc 1 252 3 view .LVU88
 273 000e 4279     	 ldrb r2,[r0,#5]
 274              	.LVL15:
 275              	 .loc 1 252 3 view .LVU89
 276 0010 012A     	 cmp r2,#1
 277 0012 0446     	 mov r4,r0
 246:Drivers/STM32G4xx_HAL_Driver/Src/stm32g4xx_hal_dac_ex.c ****   /* Ensure Channel 2 exists for this particular DAC instance */
 278              	 .loc 1 246 3 is_stmt 1 view .LVU90
 248:Drivers/STM32G4xx_HAL_Driver/Src/stm32g4xx_hal_dac_ex.c ****   assert_param(IS_DAC_ALIGN(Alignment));
 279              	 .loc 1 248 3 view .LVU91
 249:Drivers/STM32G4xx_HAL_Driver/Src/stm32g4xx_hal_dac_ex.c **** 
 280              	 .loc 1 249 3 view .LVU92
 281              	 .loc 1 252 3 view .LVU93
 282              	 .loc 1 252 3 view .LVU94
 283 0014 6ED0     	 beq .L39
 284              	 .loc 1 252 3 discriminator 2 view .LVU95
 285 0016 0122     	 movs r2,#1
 286 0018 4271     	 strb r2,[r0,#5]
 287              	 .loc 1 252 3 discriminator 2 view .LVU96
ARM GAS   			page 11


 253:Drivers/STM32G4xx_HAL_Driver/Src/stm32g4xx_hal_dac_ex.c **** 
 254:Drivers/STM32G4xx_HAL_Driver/Src/stm32g4xx_hal_dac_ex.c ****   /* Change DAC state */
 255:Drivers/STM32G4xx_HAL_Driver/Src/stm32g4xx_hal_dac_ex.c ****   hdac->State = HAL_DAC_STATE_BUSY;
 288              	 .loc 1 255 3 view .LVU97
 256:Drivers/STM32G4xx_HAL_Driver/Src/stm32g4xx_hal_dac_ex.c **** 
 257:Drivers/STM32G4xx_HAL_Driver/Src/stm32g4xx_hal_dac_ex.c ****   if (Channel == DAC_CHANNEL_1)
 258:Drivers/STM32G4xx_HAL_Driver/Src/stm32g4xx_hal_dac_ex.c ****   {
 259:Drivers/STM32G4xx_HAL_Driver/Src/stm32g4xx_hal_dac_ex.c ****     /* Set the DMA transfer complete callback for channel1 */
 260:Drivers/STM32G4xx_HAL_Driver/Src/stm32g4xx_hal_dac_ex.c ****     hdac->DMA_Handle1->XferCpltCallback = DAC_DMAConvCpltCh1;
 261:Drivers/STM32G4xx_HAL_Driver/Src/stm32g4xx_hal_dac_ex.c **** 
 262:Drivers/STM32G4xx_HAL_Driver/Src/stm32g4xx_hal_dac_ex.c ****     /* Set the DMA half transfer complete callback for channel1 */
 263:Drivers/STM32G4xx_HAL_Driver/Src/stm32g4xx_hal_dac_ex.c ****     hdac->DMA_Handle1->XferHalfCpltCallback = DAC_DMAHalfConvCpltCh1;
 264:Drivers/STM32G4xx_HAL_Driver/Src/stm32g4xx_hal_dac_ex.c **** 
 265:Drivers/STM32G4xx_HAL_Driver/Src/stm32g4xx_hal_dac_ex.c ****     /* Set the DMA error callback for channel1 */
 266:Drivers/STM32G4xx_HAL_Driver/Src/stm32g4xx_hal_dac_ex.c ****     hdac->DMA_Handle1->XferErrorCallback = DAC_DMAErrorCh1;
 267:Drivers/STM32G4xx_HAL_Driver/Src/stm32g4xx_hal_dac_ex.c **** 
 268:Drivers/STM32G4xx_HAL_Driver/Src/stm32g4xx_hal_dac_ex.c ****     /* Enable the selected DAC channel1 DMA request */
 269:Drivers/STM32G4xx_HAL_Driver/Src/stm32g4xx_hal_dac_ex.c ****     SET_BIT(hdac->Instance->CR, DAC_CR_DMAEN1);
 289              	 .loc 1 269 5 is_stmt 0 view .LVU98
 290 001a 0668     	 ldr r6,[r0]
 255:Drivers/STM32G4xx_HAL_Driver/Src/stm32g4xx_hal_dac_ex.c **** 
 291              	 .loc 1 255 15 view .LVU99
 292 001c 0222     	 movs r2,#2
 293 001e 0271     	 strb r2,[r0,#4]
 257:Drivers/STM32G4xx_HAL_Driver/Src/stm32g4xx_hal_dac_ex.c ****   {
 294              	 .loc 1 257 3 is_stmt 1 view .LVU100
 295              	 .loc 1 269 5 is_stmt 0 view .LVU101
 296 0020 3268     	 ldr r2,[r6]
 257:Drivers/STM32G4xx_HAL_Driver/Src/stm32g4xx_hal_dac_ex.c ****   {
 297              	 .loc 1 257 6 view .LVU102
 298 0022 002D     	 cmp r5,#0
 299 0024 3DD1     	 bne .L24
 260:Drivers/STM32G4xx_HAL_Driver/Src/stm32g4xx_hal_dac_ex.c **** 
 300              	 .loc 1 260 5 is_stmt 1 view .LVU103
 260:Drivers/STM32G4xx_HAL_Driver/Src/stm32g4xx_hal_dac_ex.c **** 
 301              	 .loc 1 260 9 is_stmt 0 view .LVU104
 302 0026 8068     	 ldr r0,[r0,#8]
 303              	.LVL16:
 260:Drivers/STM32G4xx_HAL_Driver/Src/stm32g4xx_hal_dac_ex.c **** 
 304              	 .loc 1 260 41 view .LVU105
 305 0028 DFF8F4C0 	 ldr ip,.L44+20
 306 002c C0F82CC0 	 str ip,[r0,#44]
 263:Drivers/STM32G4xx_HAL_Driver/Src/stm32g4xx_hal_dac_ex.c **** 
 307              	 .loc 1 263 5 is_stmt 1 view .LVU106
 263:Drivers/STM32G4xx_HAL_Driver/Src/stm32g4xx_hal_dac_ex.c **** 
 308              	 .loc 1 263 45 is_stmt 0 view .LVU107
 309 0030 DFF8F0C0 	 ldr ip,.L44+24
 310 0034 C0F830C0 	 str ip,[r0,#48]
 266:Drivers/STM32G4xx_HAL_Driver/Src/stm32g4xx_hal_dac_ex.c **** 
 311              	 .loc 1 266 5 is_stmt 1 view .LVU108
 312              	 .loc 1 269 5 is_stmt 0 view .LVU109
 313 0038 42F48052 	 orr r2,r2,#4096
 266:Drivers/STM32G4xx_HAL_Driver/Src/stm32g4xx_hal_dac_ex.c **** 
 314              	 .loc 1 266 42 view .LVU110
 315 003c DFF8E8C0 	 ldr ip,.L44+28
 316 0040 C0F834C0 	 str ip,[r0,#52]
 317              	 .loc 1 269 5 is_stmt 1 view .LVU111
ARM GAS   			page 12


 270:Drivers/STM32G4xx_HAL_Driver/Src/stm32g4xx_hal_dac_ex.c ****   }
 271:Drivers/STM32G4xx_HAL_Driver/Src/stm32g4xx_hal_dac_ex.c ****   else
 272:Drivers/STM32G4xx_HAL_Driver/Src/stm32g4xx_hal_dac_ex.c ****   {
 273:Drivers/STM32G4xx_HAL_Driver/Src/stm32g4xx_hal_dac_ex.c ****     /* Set the DMA transfer complete callback for channel2 */
 274:Drivers/STM32G4xx_HAL_Driver/Src/stm32g4xx_hal_dac_ex.c ****     hdac->DMA_Handle2->XferCpltCallback = DAC_DMAConvCpltCh2;
 275:Drivers/STM32G4xx_HAL_Driver/Src/stm32g4xx_hal_dac_ex.c **** 
 276:Drivers/STM32G4xx_HAL_Driver/Src/stm32g4xx_hal_dac_ex.c ****     /* Set the DMA half transfer complete callback for channel2 */
 277:Drivers/STM32G4xx_HAL_Driver/Src/stm32g4xx_hal_dac_ex.c ****     hdac->DMA_Handle2->XferHalfCpltCallback = DAC_DMAHalfConvCpltCh2;
 278:Drivers/STM32G4xx_HAL_Driver/Src/stm32g4xx_hal_dac_ex.c **** 
 279:Drivers/STM32G4xx_HAL_Driver/Src/stm32g4xx_hal_dac_ex.c ****     /* Set the DMA error callback for channel2 */
 280:Drivers/STM32G4xx_HAL_Driver/Src/stm32g4xx_hal_dac_ex.c ****     hdac->DMA_Handle2->XferErrorCallback = DAC_DMAErrorCh2;
 281:Drivers/STM32G4xx_HAL_Driver/Src/stm32g4xx_hal_dac_ex.c **** 
 282:Drivers/STM32G4xx_HAL_Driver/Src/stm32g4xx_hal_dac_ex.c ****     /* Enable the selected DAC channel2 DMA request */
 283:Drivers/STM32G4xx_HAL_Driver/Src/stm32g4xx_hal_dac_ex.c ****     SET_BIT(hdac->Instance->CR, DAC_CR_DMAEN2);
 284:Drivers/STM32G4xx_HAL_Driver/Src/stm32g4xx_hal_dac_ex.c ****   }
 285:Drivers/STM32G4xx_HAL_Driver/Src/stm32g4xx_hal_dac_ex.c **** 
 286:Drivers/STM32G4xx_HAL_Driver/Src/stm32g4xx_hal_dac_ex.c ****   switch (Alignment)
 318              	 .loc 1 286 3 is_stmt 0 view .LVU112
 319 0044 042F     	 cmp r7,#4
 269:Drivers/STM32G4xx_HAL_Driver/Src/stm32g4xx_hal_dac_ex.c ****   }
 320              	 .loc 1 269 5 view .LVU113
 321 0046 3260     	 str r2,[r6]
 322              	 .loc 1 286 3 is_stmt 1 view .LVU114
 323 0048 5AD0     	 beq .L25
 324 004a 082F     	 cmp r7,#8
 325 004c 4CD0     	 beq .L26
 326 004e 0FB9     	 cbnz r7,.L27
 287:Drivers/STM32G4xx_HAL_Driver/Src/stm32g4xx_hal_dac_ex.c ****   {
 288:Drivers/STM32G4xx_HAL_Driver/Src/stm32g4xx_hal_dac_ex.c ****     case DAC_ALIGN_12B_R:
 289:Drivers/STM32G4xx_HAL_Driver/Src/stm32g4xx_hal_dac_ex.c ****       /* Get DHR12R1 address */
 290:Drivers/STM32G4xx_HAL_Driver/Src/stm32g4xx_hal_dac_ex.c ****       tmpreg = (uint32_t)&hdac->Instance->DHR12RD;
 327              	 .loc 1 290 7 view .LVU115
 328              	 .loc 1 290 26 is_stmt 0 view .LVU116
 329 0050 06F12005 	 add r5,r6,#32
 330              	.LVL17:
 291:Drivers/STM32G4xx_HAL_Driver/Src/stm32g4xx_hal_dac_ex.c ****       break;
 331              	 .loc 1 291 7 is_stmt 1 view .LVU117
 292:Drivers/STM32G4xx_HAL_Driver/Src/stm32g4xx_hal_dac_ex.c ****     case DAC_ALIGN_12B_L:
 293:Drivers/STM32G4xx_HAL_Driver/Src/stm32g4xx_hal_dac_ex.c ****       /* Get DHR12L1 address */
 294:Drivers/STM32G4xx_HAL_Driver/Src/stm32g4xx_hal_dac_ex.c ****       tmpreg = (uint32_t)&hdac->Instance->DHR12LD;
 295:Drivers/STM32G4xx_HAL_Driver/Src/stm32g4xx_hal_dac_ex.c ****       break;
 296:Drivers/STM32G4xx_HAL_Driver/Src/stm32g4xx_hal_dac_ex.c ****     case DAC_ALIGN_8B_R:
 297:Drivers/STM32G4xx_HAL_Driver/Src/stm32g4xx_hal_dac_ex.c ****       /* Get DHR8R1 address */
 298:Drivers/STM32G4xx_HAL_Driver/Src/stm32g4xx_hal_dac_ex.c ****       tmpreg = (uint32_t)&hdac->Instance->DHR8RD;
 299:Drivers/STM32G4xx_HAL_Driver/Src/stm32g4xx_hal_dac_ex.c ****       break;
 300:Drivers/STM32G4xx_HAL_Driver/Src/stm32g4xx_hal_dac_ex.c ****     default:
 301:Drivers/STM32G4xx_HAL_Driver/Src/stm32g4xx_hal_dac_ex.c ****       break;
 302:Drivers/STM32G4xx_HAL_Driver/Src/stm32g4xx_hal_dac_ex.c ****   }
 303:Drivers/STM32G4xx_HAL_Driver/Src/stm32g4xx_hal_dac_ex.c **** 
 304:Drivers/STM32G4xx_HAL_Driver/Src/stm32g4xx_hal_dac_ex.c ****   /* Enable the DMA channel */
 305:Drivers/STM32G4xx_HAL_Driver/Src/stm32g4xx_hal_dac_ex.c ****   if (Channel == DAC_CHANNEL_1)
 332              	 .loc 1 305 3 view .LVU118
 333              	.L27:
 306:Drivers/STM32G4xx_HAL_Driver/Src/stm32g4xx_hal_dac_ex.c ****   {
 307:Drivers/STM32G4xx_HAL_Driver/Src/stm32g4xx_hal_dac_ex.c ****     /* Enable the DAC DMA underrun interrupt */
 308:Drivers/STM32G4xx_HAL_Driver/Src/stm32g4xx_hal_dac_ex.c ****     __HAL_DAC_ENABLE_IT(hdac, DAC_IT_DMAUDR1);
 334              	 .loc 1 308 5 view .LVU119
ARM GAS   			page 13


 309:Drivers/STM32G4xx_HAL_Driver/Src/stm32g4xx_hal_dac_ex.c **** 
 310:Drivers/STM32G4xx_HAL_Driver/Src/stm32g4xx_hal_dac_ex.c ****     /* Enable the DMA channel */
 311:Drivers/STM32G4xx_HAL_Driver/Src/stm32g4xx_hal_dac_ex.c ****     status = HAL_DMA_Start_IT(hdac->DMA_Handle1, (uint32_t)pData, tmpreg, Length);
 335              	 .loc 1 311 14 is_stmt 0 view .LVU120
 336 0054 2A46     	 mov r2,r5
 308:Drivers/STM32G4xx_HAL_Driver/Src/stm32g4xx_hal_dac_ex.c **** 
 337              	 .loc 1 308 5 view .LVU121
 338 0056 3568     	 ldr r5,[r6]
 339              	.LVL18:
 308:Drivers/STM32G4xx_HAL_Driver/Src/stm32g4xx_hal_dac_ex.c **** 
 340              	 .loc 1 308 5 view .LVU122
 341 0058 45F40055 	 orr r5,r5,#8192
 342 005c 3560     	 str r5,[r6]
 343              	.LVL19:
 344              	 .loc 1 311 5 is_stmt 1 view .LVU123
 345              	 .loc 1 311 14 is_stmt 0 view .LVU124
 346 005e FFF7FEFF 	 bl HAL_DMA_Start_IT
 347              	.LVL20:
 312:Drivers/STM32G4xx_HAL_Driver/Src/stm32g4xx_hal_dac_ex.c ****   }
 313:Drivers/STM32G4xx_HAL_Driver/Src/stm32g4xx_hal_dac_ex.c ****   else
 314:Drivers/STM32G4xx_HAL_Driver/Src/stm32g4xx_hal_dac_ex.c ****   {
 315:Drivers/STM32G4xx_HAL_Driver/Src/stm32g4xx_hal_dac_ex.c ****     /* Enable the DAC DMA underrun interrupt */
 316:Drivers/STM32G4xx_HAL_Driver/Src/stm32g4xx_hal_dac_ex.c ****     __HAL_DAC_ENABLE_IT(hdac, DAC_IT_DMAUDR2);
 317:Drivers/STM32G4xx_HAL_Driver/Src/stm32g4xx_hal_dac_ex.c **** 
 318:Drivers/STM32G4xx_HAL_Driver/Src/stm32g4xx_hal_dac_ex.c ****     /* Enable the DMA channel */
 319:Drivers/STM32G4xx_HAL_Driver/Src/stm32g4xx_hal_dac_ex.c ****     status = HAL_DMA_Start_IT(hdac->DMA_Handle2, (uint32_t)pData, tmpreg, Length);
 320:Drivers/STM32G4xx_HAL_Driver/Src/stm32g4xx_hal_dac_ex.c ****   }
 321:Drivers/STM32G4xx_HAL_Driver/Src/stm32g4xx_hal_dac_ex.c **** 
 322:Drivers/STM32G4xx_HAL_Driver/Src/stm32g4xx_hal_dac_ex.c ****   /* Process Unlocked */
 323:Drivers/STM32G4xx_HAL_Driver/Src/stm32g4xx_hal_dac_ex.c ****   __HAL_UNLOCK(hdac);
 348              	 .loc 1 323 3 is_stmt 1 view .LVU125
 349              	 .loc 1 323 3 view .LVU126
 350 0062 0023     	 movs r3,#0
 351 0064 6371     	 strb r3,[r4,#5]
 352              	 .loc 1 323 3 view .LVU127
 324:Drivers/STM32G4xx_HAL_Driver/Src/stm32g4xx_hal_dac_ex.c **** 
 325:Drivers/STM32G4xx_HAL_Driver/Src/stm32g4xx_hal_dac_ex.c ****   if (status == HAL_OK)
 353              	 .loc 1 325 3 view .LVU128
 354              	 .loc 1 325 6 is_stmt 0 view .LVU129
 355 0066 0028     	 cmp r0,#0
 356 0068 35D1     	 bne .L35
 357              	.LVL21:
 358              	.L43:
 326:Drivers/STM32G4xx_HAL_Driver/Src/stm32g4xx_hal_dac_ex.c ****   {
 327:Drivers/STM32G4xx_HAL_Driver/Src/stm32g4xx_hal_dac_ex.c ****     /* Enable the Peripheral */
 328:Drivers/STM32G4xx_HAL_Driver/Src/stm32g4xx_hal_dac_ex.c ****     __HAL_DAC_ENABLE(hdac, DAC_CHANNEL_1);
 359              	 .loc 1 328 5 is_stmt 1 view .LVU130
 360 006a 2268     	 ldr r2,[r4]
 329:Drivers/STM32G4xx_HAL_Driver/Src/stm32g4xx_hal_dac_ex.c ****     __HAL_DAC_ENABLE(hdac, DAC_CHANNEL_2);
 330:Drivers/STM32G4xx_HAL_Driver/Src/stm32g4xx_hal_dac_ex.c ****     /* Ensure minimum wait before using peripheral after enabling it */
 331:Drivers/STM32G4xx_HAL_Driver/Src/stm32g4xx_hal_dac_ex.c ****     /* Wait loop initialization and execution */
 332:Drivers/STM32G4xx_HAL_Driver/Src/stm32g4xx_hal_dac_ex.c ****     /* Note: Variable divided by 2 to compensate partially              */
 333:Drivers/STM32G4xx_HAL_Driver/Src/stm32g4xx_hal_dac_ex.c ****     /*       CPU processing cycles, scaling in us split to not          */
 334:Drivers/STM32G4xx_HAL_Driver/Src/stm32g4xx_hal_dac_ex.c ****     /*       exceed 32 bits register capacity and handle low frequency. */
 335:Drivers/STM32G4xx_HAL_Driver/Src/stm32g4xx_hal_dac_ex.c ****     wait_loop_index = ((DAC_DELAY_STARTUP_US / 10UL) * ((SystemCoreClock / (100000UL * 2UL)) + 1UL)
 361              	 .loc 1 335 74 is_stmt 0 view .LVU131
 362 006c 274B     	 ldr r3,.L44
ARM GAS   			page 14


 328:Drivers/STM32G4xx_HAL_Driver/Src/stm32g4xx_hal_dac_ex.c ****     __HAL_DAC_ENABLE(hdac, DAC_CHANNEL_2);
 363              	 .loc 1 328 5 view .LVU132
 364 006e 1168     	 ldr r1,[r2]
 365              	 .loc 1 335 74 view .LVU133
 366 0070 1B68     	 ldr r3,[r3]
 367 0072 274C     	 ldr r4,.L44+4
 368              	.LVL22:
 328:Drivers/STM32G4xx_HAL_Driver/Src/stm32g4xx_hal_dac_ex.c ****     __HAL_DAC_ENABLE(hdac, DAC_CHANNEL_2);
 369              	 .loc 1 328 5 view .LVU134
 370 0074 41F00101 	 orr r1,r1,#1
 371 0078 1160     	 str r1,[r2]
 329:Drivers/STM32G4xx_HAL_Driver/Src/stm32g4xx_hal_dac_ex.c ****     __HAL_DAC_ENABLE(hdac, DAC_CHANNEL_2);
 372              	 .loc 1 329 5 is_stmt 1 view .LVU135
 373              	 .loc 1 335 74 is_stmt 0 view .LVU136
 374 007a 9B09     	 lsrs r3,r3,#6
 329:Drivers/STM32G4xx_HAL_Driver/Src/stm32g4xx_hal_dac_ex.c ****     __HAL_DAC_ENABLE(hdac, DAC_CHANNEL_2);
 375              	 .loc 1 329 5 view .LVU137
 376 007c 1168     	 ldr r1,[r2]
 377              	 .loc 1 335 74 view .LVU138
 378 007e A4FB0343 	 umull r4,r3,r4,r3
 379 0082 9B09     	 lsrs r3,r3,#6
 380              	 .loc 1 335 54 view .LVU139
 381 0084 0133     	 adds r3,r3,#1
 329:Drivers/STM32G4xx_HAL_Driver/Src/stm32g4xx_hal_dac_ex.c ****     __HAL_DAC_ENABLE(hdac, DAC_CHANNEL_2);
 382              	 .loc 1 329 5 view .LVU140
 383 0086 41F48031 	 orr r1,r1,#65536
 384 008a 1160     	 str r1,[r2]
 385              	 .loc 1 335 5 is_stmt 1 view .LVU141
 386              	 .loc 1 335 21 is_stmt 0 view .LVU142
 387 008c 0193     	 str r3,[sp,#4]
 336:Drivers/STM32G4xx_HAL_Driver/Src/stm32g4xx_hal_dac_ex.c ****     while (wait_loop_index != 0UL)
 388              	 .loc 1 336 5 is_stmt 1 view .LVU143
 389              	 .loc 1 336 28 view .LVU144
 390 008e 019B     	 ldr r3,[sp,#4]
 391 0090 2BB1     	 cbz r3,.L23
 392              	.L36:
 337:Drivers/STM32G4xx_HAL_Driver/Src/stm32g4xx_hal_dac_ex.c ****     {
 338:Drivers/STM32G4xx_HAL_Driver/Src/stm32g4xx_hal_dac_ex.c ****       wait_loop_index--;
 393              	 .loc 1 338 7 view .LVU145
 394              	 .loc 1 338 22 is_stmt 0 view .LVU146
 395 0092 019B     	 ldr r3,[sp,#4]
 396 0094 013B     	 subs r3,r3,#1
 397 0096 0193     	 str r3,[sp,#4]
 336:Drivers/STM32G4xx_HAL_Driver/Src/stm32g4xx_hal_dac_ex.c ****     while (wait_loop_index != 0UL)
 398              	 .loc 1 336 28 is_stmt 1 view .LVU147
 399 0098 019B     	 ldr r3,[sp,#4]
 400 009a 002B     	 cmp r3,#0
 401 009c F9D1     	 bne .L36
 402              	.L23:
 339:Drivers/STM32G4xx_HAL_Driver/Src/stm32g4xx_hal_dac_ex.c ****     }
 340:Drivers/STM32G4xx_HAL_Driver/Src/stm32g4xx_hal_dac_ex.c ****   }
 341:Drivers/STM32G4xx_HAL_Driver/Src/stm32g4xx_hal_dac_ex.c ****   else
 342:Drivers/STM32G4xx_HAL_Driver/Src/stm32g4xx_hal_dac_ex.c ****   {
 343:Drivers/STM32G4xx_HAL_Driver/Src/stm32g4xx_hal_dac_ex.c ****     hdac->ErrorCode |= HAL_DAC_ERROR_DMA;
 344:Drivers/STM32G4xx_HAL_Driver/Src/stm32g4xx_hal_dac_ex.c ****   }
 345:Drivers/STM32G4xx_HAL_Driver/Src/stm32g4xx_hal_dac_ex.c **** 
 346:Drivers/STM32G4xx_HAL_Driver/Src/stm32g4xx_hal_dac_ex.c ****   /* Return function status */
ARM GAS   			page 15


 347:Drivers/STM32G4xx_HAL_Driver/Src/stm32g4xx_hal_dac_ex.c ****   return status;
 348:Drivers/STM32G4xx_HAL_Driver/Src/stm32g4xx_hal_dac_ex.c **** }
 403              	 .loc 1 348 1 is_stmt 0 view .LVU148
 404 009e 03B0     	 add sp,sp,#12
 405              	 .cfi_remember_state
 406              	 .cfi_def_cfa_offset 20
 407              	 
 408 00a0 F0BD     	 pop {r4,r5,r6,r7,pc}
 409              	.LVL23:
 410              	.L24:
 411              	 .cfi_restore_state
 274:Drivers/STM32G4xx_HAL_Driver/Src/stm32g4xx_hal_dac_ex.c **** 
 412              	 .loc 1 274 5 is_stmt 1 view .LVU149
 274:Drivers/STM32G4xx_HAL_Driver/Src/stm32g4xx_hal_dac_ex.c **** 
 413              	 .loc 1 274 9 is_stmt 0 view .LVU150
 414 00a2 C068     	 ldr r0,[r0,#12]
 415              	.LVL24:
 274:Drivers/STM32G4xx_HAL_Driver/Src/stm32g4xx_hal_dac_ex.c **** 
 416              	 .loc 1 274 41 view .LVU151
 417 00a4 1B4D     	 ldr r5,.L44+8
 418              	.LVL25:
 274:Drivers/STM32G4xx_HAL_Driver/Src/stm32g4xx_hal_dac_ex.c **** 
 419              	 .loc 1 274 41 view .LVU152
 420 00a6 C562     	 str r5,[r0,#44]
 277:Drivers/STM32G4xx_HAL_Driver/Src/stm32g4xx_hal_dac_ex.c **** 
 421              	 .loc 1 277 5 is_stmt 1 view .LVU153
 277:Drivers/STM32G4xx_HAL_Driver/Src/stm32g4xx_hal_dac_ex.c **** 
 422              	 .loc 1 277 45 is_stmt 0 view .LVU154
 423 00a8 1B4D     	 ldr r5,.L44+12
 424 00aa 0563     	 str r5,[r0,#48]
 280:Drivers/STM32G4xx_HAL_Driver/Src/stm32g4xx_hal_dac_ex.c **** 
 425              	 .loc 1 280 5 is_stmt 1 view .LVU155
 283:Drivers/STM32G4xx_HAL_Driver/Src/stm32g4xx_hal_dac_ex.c ****   }
 426              	 .loc 1 283 5 is_stmt 0 view .LVU156
 427 00ac 42F08052 	 orr r2,r2,#268435456
 280:Drivers/STM32G4xx_HAL_Driver/Src/stm32g4xx_hal_dac_ex.c **** 
 428              	 .loc 1 280 42 view .LVU157
 429 00b0 1A4D     	 ldr r5,.L44+16
 430 00b2 4563     	 str r5,[r0,#52]
 283:Drivers/STM32G4xx_HAL_Driver/Src/stm32g4xx_hal_dac_ex.c ****   }
 431              	 .loc 1 283 5 is_stmt 1 view .LVU158
 286:Drivers/STM32G4xx_HAL_Driver/Src/stm32g4xx_hal_dac_ex.c ****   {
 432              	 .loc 1 286 3 is_stmt 0 view .LVU159
 433 00b4 042F     	 cmp r7,#4
 283:Drivers/STM32G4xx_HAL_Driver/Src/stm32g4xx_hal_dac_ex.c ****   }
 434              	 .loc 1 283 5 view .LVU160
 435 00b6 3260     	 str r2,[r6]
 286:Drivers/STM32G4xx_HAL_Driver/Src/stm32g4xx_hal_dac_ex.c ****   {
 436              	 .loc 1 286 3 is_stmt 1 view .LVU161
 437 00b8 1FD0     	 beq .L30
 438 00ba 082F     	 cmp r7,#8
 439 00bc 11D0     	 beq .L31
 440 00be 17B3     	 cbz r7,.L32
 441 00c0 0022     	 movs r2,#0
 442              	.LVL26:
 443              	.L33:
 316:Drivers/STM32G4xx_HAL_Driver/Src/stm32g4xx_hal_dac_ex.c **** 
ARM GAS   			page 16


 444              	 .loc 1 316 5 view .LVU162
 445 00c2 3568     	 ldr r5,[r6]
 446 00c4 45F00055 	 orr r5,r5,#536870912
 447 00c8 3560     	 str r5,[r6]
 448              	.LVL27:
 319:Drivers/STM32G4xx_HAL_Driver/Src/stm32g4xx_hal_dac_ex.c ****   }
 449              	 .loc 1 319 5 view .LVU163
 319:Drivers/STM32G4xx_HAL_Driver/Src/stm32g4xx_hal_dac_ex.c ****   }
 450              	 .loc 1 319 14 is_stmt 0 view .LVU164
 451 00ca FFF7FEFF 	 bl HAL_DMA_Start_IT
 452              	.LVL28:
 323:Drivers/STM32G4xx_HAL_Driver/Src/stm32g4xx_hal_dac_ex.c **** 
 453              	 .loc 1 323 3 is_stmt 1 view .LVU165
 323:Drivers/STM32G4xx_HAL_Driver/Src/stm32g4xx_hal_dac_ex.c **** 
 454              	 .loc 1 323 3 view .LVU166
 455 00ce 0023     	 movs r3,#0
 456 00d0 6371     	 strb r3,[r4,#5]
 323:Drivers/STM32G4xx_HAL_Driver/Src/stm32g4xx_hal_dac_ex.c **** 
 457              	 .loc 1 323 3 view .LVU167
 325:Drivers/STM32G4xx_HAL_Driver/Src/stm32g4xx_hal_dac_ex.c ****   {
 458              	 .loc 1 325 3 view .LVU168
 325:Drivers/STM32G4xx_HAL_Driver/Src/stm32g4xx_hal_dac_ex.c ****   {
 459              	 .loc 1 325 6 is_stmt 0 view .LVU169
 460 00d2 0028     	 cmp r0,#0
 461 00d4 C9D0     	 beq .L43
 462              	.LVL29:
 463              	.L35:
 343:Drivers/STM32G4xx_HAL_Driver/Src/stm32g4xx_hal_dac_ex.c ****   }
 464              	 .loc 1 343 5 is_stmt 1 view .LVU170
 343:Drivers/STM32G4xx_HAL_Driver/Src/stm32g4xx_hal_dac_ex.c ****   }
 465              	 .loc 1 343 9 is_stmt 0 view .LVU171
 466 00d6 2369     	 ldr r3,[r4,#16]
 343:Drivers/STM32G4xx_HAL_Driver/Src/stm32g4xx_hal_dac_ex.c ****   }
 467              	 .loc 1 343 21 view .LVU172
 468 00d8 43F00403 	 orr r3,r3,#4
 469 00dc 2361     	 str r3,[r4,#16]
 470              	 .loc 1 348 1 view .LVU173
 471 00de 03B0     	 add sp,sp,#12
 472              	 .cfi_remember_state
 473              	 .cfi_def_cfa_offset 20
 474              	 
 475 00e0 F0BD     	 pop {r4,r5,r6,r7,pc}
 476              	.LVL30:
 477              	.L31:
 478              	 .cfi_restore_state
 298:Drivers/STM32G4xx_HAL_Driver/Src/stm32g4xx_hal_dac_ex.c ****       break;
 479              	 .loc 1 298 7 is_stmt 1 view .LVU174
 298:Drivers/STM32G4xx_HAL_Driver/Src/stm32g4xx_hal_dac_ex.c ****       break;
 480              	 .loc 1 298 26 is_stmt 0 view .LVU175
 481 00e2 06F12802 	 add r2,r6,#40
 482              	.LVL31:
 299:Drivers/STM32G4xx_HAL_Driver/Src/stm32g4xx_hal_dac_ex.c ****     default:
 483              	 .loc 1 299 7 is_stmt 1 view .LVU176
 305:Drivers/STM32G4xx_HAL_Driver/Src/stm32g4xx_hal_dac_ex.c ****   {
 484              	 .loc 1 305 3 view .LVU177
 485 00e6 ECE7     	 b .L33
 486              	.LVL32:
ARM GAS   			page 17


 487              	.L26:
 298:Drivers/STM32G4xx_HAL_Driver/Src/stm32g4xx_hal_dac_ex.c ****       break;
 488              	 .loc 1 298 7 view .LVU178
 298:Drivers/STM32G4xx_HAL_Driver/Src/stm32g4xx_hal_dac_ex.c ****       break;
 489              	 .loc 1 298 26 is_stmt 0 view .LVU179
 490 00e8 06F12805 	 add r5,r6,#40
 491              	.LVL33:
 299:Drivers/STM32G4xx_HAL_Driver/Src/stm32g4xx_hal_dac_ex.c ****     default:
 492              	 .loc 1 299 7 is_stmt 1 view .LVU180
 305:Drivers/STM32G4xx_HAL_Driver/Src/stm32g4xx_hal_dac_ex.c ****   {
 493              	 .loc 1 305 3 view .LVU181
 494 00ec B2E7     	 b .L27
 495              	.LVL34:
 496              	.L38:
 242:Drivers/STM32G4xx_HAL_Driver/Src/stm32g4xx_hal_dac_ex.c ****   }
 497              	 .loc 1 242 12 is_stmt 0 view .LVU182
 498 00ee 0120     	 movs r0,#1
 499              	.LVL35:
 500              	 .loc 1 348 1 view .LVU183
 501 00f0 03B0     	 add sp,sp,#12
 502              	 .cfi_remember_state
 503              	 .cfi_def_cfa_offset 20
 504              	 
 505 00f2 F0BD     	 pop {r4,r5,r6,r7,pc}
 506              	.LVL36:
 507              	.L39:
 508              	 .cfi_restore_state
 252:Drivers/STM32G4xx_HAL_Driver/Src/stm32g4xx_hal_dac_ex.c **** 
 509              	 .loc 1 252 3 discriminator 1 view .LVU184
 510 00f4 0220     	 movs r0,#2
 511              	.LVL37:
 512              	 .loc 1 348 1 view .LVU185
 513 00f6 03B0     	 add sp,sp,#12
 514              	 .cfi_remember_state
 515              	 .cfi_def_cfa_offset 20
 516              	 
 517 00f8 F0BD     	 pop {r4,r5,r6,r7,pc}
 518              	.LVL38:
 519              	.L30:
 520              	 .cfi_restore_state
 294:Drivers/STM32G4xx_HAL_Driver/Src/stm32g4xx_hal_dac_ex.c ****       break;
 521              	 .loc 1 294 7 is_stmt 1 view .LVU186
 294:Drivers/STM32G4xx_HAL_Driver/Src/stm32g4xx_hal_dac_ex.c ****       break;
 522              	 .loc 1 294 26 is_stmt 0 view .LVU187
 523 00fa 06F12402 	 add r2,r6,#36
 524              	.LVL39:
 295:Drivers/STM32G4xx_HAL_Driver/Src/stm32g4xx_hal_dac_ex.c ****     case DAC_ALIGN_8B_R:
 525              	 .loc 1 295 7 is_stmt 1 view .LVU188
 305:Drivers/STM32G4xx_HAL_Driver/Src/stm32g4xx_hal_dac_ex.c ****   {
 526              	 .loc 1 305 3 view .LVU189
 527 00fe E0E7     	 b .L33
 528              	.LVL40:
 529              	.L25:
 294:Drivers/STM32G4xx_HAL_Driver/Src/stm32g4xx_hal_dac_ex.c ****       break;
 530              	 .loc 1 294 7 view .LVU190
 294:Drivers/STM32G4xx_HAL_Driver/Src/stm32g4xx_hal_dac_ex.c ****       break;
 531              	 .loc 1 294 26 is_stmt 0 view .LVU191
ARM GAS   			page 18


 532 0100 06F12405 	 add r5,r6,#36
 533              	.LVL41:
 295:Drivers/STM32G4xx_HAL_Driver/Src/stm32g4xx_hal_dac_ex.c ****     case DAC_ALIGN_8B_R:
 534              	 .loc 1 295 7 is_stmt 1 view .LVU192
 305:Drivers/STM32G4xx_HAL_Driver/Src/stm32g4xx_hal_dac_ex.c ****   {
 535              	 .loc 1 305 3 view .LVU193
 536 0104 A6E7     	 b .L27
 537              	.LVL42:
 538              	.L32:
 290:Drivers/STM32G4xx_HAL_Driver/Src/stm32g4xx_hal_dac_ex.c ****       break;
 539              	 .loc 1 290 7 view .LVU194
 290:Drivers/STM32G4xx_HAL_Driver/Src/stm32g4xx_hal_dac_ex.c ****       break;
 540              	 .loc 1 290 26 is_stmt 0 view .LVU195
 541 0106 06F12002 	 add r2,r6,#32
 542              	.LVL43:
 291:Drivers/STM32G4xx_HAL_Driver/Src/stm32g4xx_hal_dac_ex.c ****     case DAC_ALIGN_12B_L:
 543              	 .loc 1 291 7 is_stmt 1 view .LVU196
 305:Drivers/STM32G4xx_HAL_Driver/Src/stm32g4xx_hal_dac_ex.c ****   {
 544              	 .loc 1 305 3 view .LVU197
 545 010a DAE7     	 b .L33
 546              	.L45:
 547              	 .align 2
 548              	.L44:
 549 010c 00000000 	 .word SystemCoreClock
 550 0110 632D3E05 	 .word 87960931
 551 0114 00000000 	 .word DAC_DMAConvCpltCh2
 552 0118 00000000 	 .word DAC_DMAHalfConvCpltCh2
 553 011c 00000000 	 .word DAC_DMAErrorCh2
 554 0120 00000000 	 .word DAC_DMAConvCpltCh1
 555 0124 00000000 	 .word DAC_DMAHalfConvCpltCh1
 556 0128 00000000 	 .word DAC_DMAErrorCh1
 557              	 .cfi_endproc
 558              	.LFE363:
 560              	 .section .text.HAL_DACEx_DualStop_DMA,"ax",%progbits
 561              	 .align 1
 562              	 .p2align 2,,3
 563              	 .global HAL_DACEx_DualStop_DMA
 564              	 .syntax unified
 565              	 .thumb
 566              	 .thumb_func
 568              	HAL_DACEx_DualStop_DMA:
 569              	.LVL44:
 570              	.LFB364:
 349:Drivers/STM32G4xx_HAL_Driver/Src/stm32g4xx_hal_dac_ex.c **** 
 350:Drivers/STM32G4xx_HAL_Driver/Src/stm32g4xx_hal_dac_ex.c **** /**
 351:Drivers/STM32G4xx_HAL_Driver/Src/stm32g4xx_hal_dac_ex.c ****   * @brief  Disables DAC and stop conversion both channel.
 352:Drivers/STM32G4xx_HAL_Driver/Src/stm32g4xx_hal_dac_ex.c ****   * @param  hdac pointer to a DAC_HandleTypeDef structure that contains
 353:Drivers/STM32G4xx_HAL_Driver/Src/stm32g4xx_hal_dac_ex.c ****   *         the configuration information for the specified DAC.
 354:Drivers/STM32G4xx_HAL_Driver/Src/stm32g4xx_hal_dac_ex.c ****   * @param  Channel The DAC channel that requests data from DMA.
 355:Drivers/STM32G4xx_HAL_Driver/Src/stm32g4xx_hal_dac_ex.c ****   *          This parameter can be one of the following values:
 356:Drivers/STM32G4xx_HAL_Driver/Src/stm32g4xx_hal_dac_ex.c ****   *            @arg DAC_CHANNEL_1: DAC Channel1 selected
 357:Drivers/STM32G4xx_HAL_Driver/Src/stm32g4xx_hal_dac_ex.c ****   *            @arg DAC_CHANNEL_2: DAC Channel2 selected
 358:Drivers/STM32G4xx_HAL_Driver/Src/stm32g4xx_hal_dac_ex.c ****   * @retval HAL status
 359:Drivers/STM32G4xx_HAL_Driver/Src/stm32g4xx_hal_dac_ex.c ****   */
 360:Drivers/STM32G4xx_HAL_Driver/Src/stm32g4xx_hal_dac_ex.c **** HAL_StatusTypeDef HAL_DACEx_DualStop_DMA(DAC_HandleTypeDef *hdac, uint32_t Channel)
 361:Drivers/STM32G4xx_HAL_Driver/Src/stm32g4xx_hal_dac_ex.c **** {
 571              	 .loc 1 361 1 view-0
ARM GAS   			page 19


 572              	 .cfi_startproc
 573              	 
 574              	 
 362:Drivers/STM32G4xx_HAL_Driver/Src/stm32g4xx_hal_dac_ex.c ****   HAL_StatusTypeDef status;
 575              	 .loc 1 362 3 view .LVU199
 363:Drivers/STM32G4xx_HAL_Driver/Src/stm32g4xx_hal_dac_ex.c **** 
 364:Drivers/STM32G4xx_HAL_Driver/Src/stm32g4xx_hal_dac_ex.c ****   /* Check the DAC peripheral handle */
 365:Drivers/STM32G4xx_HAL_Driver/Src/stm32g4xx_hal_dac_ex.c ****   if (hdac == NULL)
 576              	 .loc 1 365 3 view .LVU200
 577              	 .loc 1 365 6 is_stmt 0 view .LVU201
 578 0000 40B3     	 cbz r0,.L51
 366:Drivers/STM32G4xx_HAL_Driver/Src/stm32g4xx_hal_dac_ex.c ****   {
 367:Drivers/STM32G4xx_HAL_Driver/Src/stm32g4xx_hal_dac_ex.c ****     return HAL_ERROR;
 368:Drivers/STM32G4xx_HAL_Driver/Src/stm32g4xx_hal_dac_ex.c ****   }
 369:Drivers/STM32G4xx_HAL_Driver/Src/stm32g4xx_hal_dac_ex.c **** 
 370:Drivers/STM32G4xx_HAL_Driver/Src/stm32g4xx_hal_dac_ex.c ****   /* Ensure Channel 2 exists for this particular DAC instance */
 371:Drivers/STM32G4xx_HAL_Driver/Src/stm32g4xx_hal_dac_ex.c ****   assert_param(IS_DAC_CHANNEL(hdac->Instance, DAC_CHANNEL_2));
 579              	 .loc 1 371 3 is_stmt 1 view .LVU202
 372:Drivers/STM32G4xx_HAL_Driver/Src/stm32g4xx_hal_dac_ex.c **** 
 373:Drivers/STM32G4xx_HAL_Driver/Src/stm32g4xx_hal_dac_ex.c ****   /* Disable the selected DAC channel DMA request */
 374:Drivers/STM32G4xx_HAL_Driver/Src/stm32g4xx_hal_dac_ex.c ****   CLEAR_BIT(hdac->Instance->CR, DAC_CR_DMAEN2 | DAC_CR_DMAEN1);
 580              	 .loc 1 374 3 view .LVU203
 581 0002 0368     	 ldr r3,[r0]
 582 0004 1A68     	 ldr r2,[r3]
 583 0006 22F01022 	 bic r2,r2,#268439552
 361:Drivers/STM32G4xx_HAL_Driver/Src/stm32g4xx_hal_dac_ex.c ****   HAL_StatusTypeDef status;
 584              	 .loc 1 361 1 is_stmt 0 view .LVU204
 585 000a 10B5     	 push {r4,lr}
 586              	 .cfi_def_cfa_offset 8
 587              	 .cfi_offset 4,-8
 588              	 .cfi_offset 14,-4
 589              	 .loc 1 374 3 view .LVU205
 590 000c 1A60     	 str r2,[r3]
 375:Drivers/STM32G4xx_HAL_Driver/Src/stm32g4xx_hal_dac_ex.c **** 
 376:Drivers/STM32G4xx_HAL_Driver/Src/stm32g4xx_hal_dac_ex.c ****   /* Disable the Peripheral */
 377:Drivers/STM32G4xx_HAL_Driver/Src/stm32g4xx_hal_dac_ex.c ****   __HAL_DAC_DISABLE(hdac, DAC_CHANNEL_1);
 591              	 .loc 1 377 3 is_stmt 1 view .LVU206
 592 000e 1A68     	 ldr r2,[r3]
 593 0010 22F00102 	 bic r2,r2,#1
 594 0014 1A60     	 str r2,[r3]
 378:Drivers/STM32G4xx_HAL_Driver/Src/stm32g4xx_hal_dac_ex.c ****   __HAL_DAC_DISABLE(hdac, DAC_CHANNEL_2);
 595              	 .loc 1 378 3 view .LVU207
 596 0016 1A68     	 ldr r2,[r3]
 597 0018 22F48032 	 bic r2,r2,#65536
 598 001c 0446     	 mov r4,r0
 599 001e 1A60     	 str r2,[r3]
 379:Drivers/STM32G4xx_HAL_Driver/Src/stm32g4xx_hal_dac_ex.c **** 
 380:Drivers/STM32G4xx_HAL_Driver/Src/stm32g4xx_hal_dac_ex.c ****   /* Disable the DMA channel */
 381:Drivers/STM32G4xx_HAL_Driver/Src/stm32g4xx_hal_dac_ex.c **** 
 382:Drivers/STM32G4xx_HAL_Driver/Src/stm32g4xx_hal_dac_ex.c ****   /* Channel1 is used */
 383:Drivers/STM32G4xx_HAL_Driver/Src/stm32g4xx_hal_dac_ex.c ****   if (Channel == DAC_CHANNEL_1)
 600              	 .loc 1 383 3 view .LVU208
 601              	 .loc 1 383 6 is_stmt 0 view .LVU209
 602 0020 59B9     	 cbnz r1,.L48
 384:Drivers/STM32G4xx_HAL_Driver/Src/stm32g4xx_hal_dac_ex.c ****   {
 385:Drivers/STM32G4xx_HAL_Driver/Src/stm32g4xx_hal_dac_ex.c ****     /* Disable the DMA channel */
 386:Drivers/STM32G4xx_HAL_Driver/Src/stm32g4xx_hal_dac_ex.c ****     status = HAL_DMA_Abort(hdac->DMA_Handle1);
ARM GAS   			page 20


 603              	 .loc 1 386 5 is_stmt 1 view .LVU210
 604              	 .loc 1 386 14 is_stmt 0 view .LVU211
 605 0022 8068     	 ldr r0,[r0,#8]
 606              	.LVL45:
 607              	 .loc 1 386 14 view .LVU212
 608 0024 FFF7FEFF 	 bl HAL_DMA_Abort
 609              	.LVL46:
 387:Drivers/STM32G4xx_HAL_Driver/Src/stm32g4xx_hal_dac_ex.c **** 
 388:Drivers/STM32G4xx_HAL_Driver/Src/stm32g4xx_hal_dac_ex.c ****     /* Disable the DAC DMA underrun interrupt */
 389:Drivers/STM32G4xx_HAL_Driver/Src/stm32g4xx_hal_dac_ex.c ****     __HAL_DAC_DISABLE_IT(hdac, DAC_IT_DMAUDR1);
 610              	 .loc 1 389 5 is_stmt 1 view .LVU213
 390:Drivers/STM32G4xx_HAL_Driver/Src/stm32g4xx_hal_dac_ex.c ****   }
 391:Drivers/STM32G4xx_HAL_Driver/Src/stm32g4xx_hal_dac_ex.c ****   else
 392:Drivers/STM32G4xx_HAL_Driver/Src/stm32g4xx_hal_dac_ex.c ****   {
 393:Drivers/STM32G4xx_HAL_Driver/Src/stm32g4xx_hal_dac_ex.c ****     /* Disable the DMA channel */
 394:Drivers/STM32G4xx_HAL_Driver/Src/stm32g4xx_hal_dac_ex.c ****     status = HAL_DMA_Abort(hdac->DMA_Handle2);
 395:Drivers/STM32G4xx_HAL_Driver/Src/stm32g4xx_hal_dac_ex.c **** 
 396:Drivers/STM32G4xx_HAL_Driver/Src/stm32g4xx_hal_dac_ex.c ****     /* Disable the DAC DMA underrun interrupt */
 397:Drivers/STM32G4xx_HAL_Driver/Src/stm32g4xx_hal_dac_ex.c ****     __HAL_DAC_DISABLE_IT(hdac, DAC_IT_DMAUDR2);
 398:Drivers/STM32G4xx_HAL_Driver/Src/stm32g4xx_hal_dac_ex.c ****   }
 399:Drivers/STM32G4xx_HAL_Driver/Src/stm32g4xx_hal_dac_ex.c **** 
 400:Drivers/STM32G4xx_HAL_Driver/Src/stm32g4xx_hal_dac_ex.c ****   /* Check if DMA Channel effectively disabled */
 401:Drivers/STM32G4xx_HAL_Driver/Src/stm32g4xx_hal_dac_ex.c ****   if (status != HAL_OK)
 611              	 .loc 1 401 3 view .LVU214
 389:Drivers/STM32G4xx_HAL_Driver/Src/stm32g4xx_hal_dac_ex.c ****   }
 612              	 .loc 1 389 5 is_stmt 0 view .LVU215
 613 0028 2268     	 ldr r2,[r4]
 614 002a 1368     	 ldr r3,[r2]
 615 002c 23F40053 	 bic r3,r3,#8192
 616 0030 1360     	 str r3,[r2]
 617              	 .loc 1 401 6 view .LVU216
 618 0032 60B1     	 cbz r0,.L50
 619              	.L56:
 402:Drivers/STM32G4xx_HAL_Driver/Src/stm32g4xx_hal_dac_ex.c ****   {
 403:Drivers/STM32G4xx_HAL_Driver/Src/stm32g4xx_hal_dac_ex.c ****     /* Update DAC state machine to error */
 404:Drivers/STM32G4xx_HAL_Driver/Src/stm32g4xx_hal_dac_ex.c ****     hdac->State = HAL_DAC_STATE_ERROR;
 620              	 .loc 1 404 5 is_stmt 1 view .LVU217
 621              	 .loc 1 404 17 is_stmt 0 view .LVU218
 622 0034 0423     	 movs r3,#4
 623 0036 2371     	 strb r3,[r4,#4]
 405:Drivers/STM32G4xx_HAL_Driver/Src/stm32g4xx_hal_dac_ex.c ****   }
 406:Drivers/STM32G4xx_HAL_Driver/Src/stm32g4xx_hal_dac_ex.c ****   else
 407:Drivers/STM32G4xx_HAL_Driver/Src/stm32g4xx_hal_dac_ex.c ****   {
 408:Drivers/STM32G4xx_HAL_Driver/Src/stm32g4xx_hal_dac_ex.c ****     /* Change DAC state */
 409:Drivers/STM32G4xx_HAL_Driver/Src/stm32g4xx_hal_dac_ex.c ****     hdac->State = HAL_DAC_STATE_READY;
 410:Drivers/STM32G4xx_HAL_Driver/Src/stm32g4xx_hal_dac_ex.c ****   }
 411:Drivers/STM32G4xx_HAL_Driver/Src/stm32g4xx_hal_dac_ex.c **** 
 412:Drivers/STM32G4xx_HAL_Driver/Src/stm32g4xx_hal_dac_ex.c ****   /* Return function status */
 413:Drivers/STM32G4xx_HAL_Driver/Src/stm32g4xx_hal_dac_ex.c ****   return status;
 414:Drivers/STM32G4xx_HAL_Driver/Src/stm32g4xx_hal_dac_ex.c **** }
 624              	 .loc 1 414 1 view .LVU219
 625 0038 10BD     	 pop {r4,pc}
 626              	.LVL47:
 627              	.L48:
 394:Drivers/STM32G4xx_HAL_Driver/Src/stm32g4xx_hal_dac_ex.c **** 
 628              	 .loc 1 394 5 is_stmt 1 view .LVU220
 394:Drivers/STM32G4xx_HAL_Driver/Src/stm32g4xx_hal_dac_ex.c **** 
ARM GAS   			page 21


 629              	 .loc 1 394 14 is_stmt 0 view .LVU221
 630 003a C068     	 ldr r0,[r0,#12]
 631              	.LVL48:
 394:Drivers/STM32G4xx_HAL_Driver/Src/stm32g4xx_hal_dac_ex.c **** 
 632              	 .loc 1 394 14 view .LVU222
 633 003c FFF7FEFF 	 bl HAL_DMA_Abort
 634              	.LVL49:
 397:Drivers/STM32G4xx_HAL_Driver/Src/stm32g4xx_hal_dac_ex.c ****   }
 635              	 .loc 1 397 5 is_stmt 1 view .LVU223
 636 0040 2268     	 ldr r2,[r4]
 637 0042 1368     	 ldr r3,[r2]
 638 0044 23F00053 	 bic r3,r3,#536870912
 639 0048 1360     	 str r3,[r2]
 401:Drivers/STM32G4xx_HAL_Driver/Src/stm32g4xx_hal_dac_ex.c ****   {
 640              	 .loc 1 401 3 view .LVU224
 401:Drivers/STM32G4xx_HAL_Driver/Src/stm32g4xx_hal_dac_ex.c ****   {
 641              	 .loc 1 401 6 is_stmt 0 view .LVU225
 642 004a 0028     	 cmp r0,#0
 643 004c F2D1     	 bne .L56
 644              	.L50:
 409:Drivers/STM32G4xx_HAL_Driver/Src/stm32g4xx_hal_dac_ex.c ****   }
 645              	 .loc 1 409 5 is_stmt 1 view .LVU226
 409:Drivers/STM32G4xx_HAL_Driver/Src/stm32g4xx_hal_dac_ex.c ****   }
 646              	 .loc 1 409 17 is_stmt 0 view .LVU227
 647 004e 0123     	 movs r3,#1
 648 0050 2371     	 strb r3,[r4,#4]
 649              	 .loc 1 414 1 view .LVU228
 650 0052 10BD     	 pop {r4,pc}
 651              	.LVL50:
 652              	.L51:
 653              	 .cfi_def_cfa_offset 0
 654              	 .cfi_restore 4
 655              	 .cfi_restore 14
 367:Drivers/STM32G4xx_HAL_Driver/Src/stm32g4xx_hal_dac_ex.c ****   }
 656              	 .loc 1 367 12 view .LVU229
 657 0054 0120     	 movs r0,#1
 658              	.LVL51:
 659              	 .loc 1 414 1 view .LVU230
 660 0056 7047     	 bx lr
 661              	 .cfi_endproc
 662              	.LFE364:
 664              	 .section .text.HAL_DACEx_TriangleWaveGenerate,"ax",%progbits
 665              	 .align 1
 666              	 .p2align 2,,3
 667              	 .global HAL_DACEx_TriangleWaveGenerate
 668              	 .syntax unified
 669              	 .thumb
 670              	 .thumb_func
 672              	HAL_DACEx_TriangleWaveGenerate:
 673              	.LVL52:
 674              	.LFB365:
 415:Drivers/STM32G4xx_HAL_Driver/Src/stm32g4xx_hal_dac_ex.c **** 
 416:Drivers/STM32G4xx_HAL_Driver/Src/stm32g4xx_hal_dac_ex.c **** 
 417:Drivers/STM32G4xx_HAL_Driver/Src/stm32g4xx_hal_dac_ex.c **** /**
 418:Drivers/STM32G4xx_HAL_Driver/Src/stm32g4xx_hal_dac_ex.c ****   * @brief  Enable or disable the selected DAC channel wave generation.
 419:Drivers/STM32G4xx_HAL_Driver/Src/stm32g4xx_hal_dac_ex.c ****   * @param  hdac pointer to a DAC_HandleTypeDef structure that contains
 420:Drivers/STM32G4xx_HAL_Driver/Src/stm32g4xx_hal_dac_ex.c ****   *         the configuration information for the specified DAC.
ARM GAS   			page 22


 421:Drivers/STM32G4xx_HAL_Driver/Src/stm32g4xx_hal_dac_ex.c ****   * @param  Channel The selected DAC channel.
 422:Drivers/STM32G4xx_HAL_Driver/Src/stm32g4xx_hal_dac_ex.c ****   *          This parameter can be one of the following values:
 423:Drivers/STM32G4xx_HAL_Driver/Src/stm32g4xx_hal_dac_ex.c ****   *            @arg DAC_CHANNEL_1: DAC Channel1 selected
 424:Drivers/STM32G4xx_HAL_Driver/Src/stm32g4xx_hal_dac_ex.c ****   *            @arg DAC_CHANNEL_2: DAC Channel2 selected (1)
 425:Drivers/STM32G4xx_HAL_Driver/Src/stm32g4xx_hal_dac_ex.c ****   *
 426:Drivers/STM32G4xx_HAL_Driver/Src/stm32g4xx_hal_dac_ex.c ****   *         (1) On this STM32 series, parameter not available on all instances.
 427:Drivers/STM32G4xx_HAL_Driver/Src/stm32g4xx_hal_dac_ex.c ****   *             Refer to device datasheet for channels availability.
 428:Drivers/STM32G4xx_HAL_Driver/Src/stm32g4xx_hal_dac_ex.c ****   * @param  Amplitude Select max triangle amplitude.
 429:Drivers/STM32G4xx_HAL_Driver/Src/stm32g4xx_hal_dac_ex.c ****   *          This parameter can be one of the following values:
 430:Drivers/STM32G4xx_HAL_Driver/Src/stm32g4xx_hal_dac_ex.c ****   *            @arg DAC_TRIANGLEAMPLITUDE_1: Select max triangle amplitude of 1
 431:Drivers/STM32G4xx_HAL_Driver/Src/stm32g4xx_hal_dac_ex.c ****   *            @arg DAC_TRIANGLEAMPLITUDE_3: Select max triangle amplitude of 3
 432:Drivers/STM32G4xx_HAL_Driver/Src/stm32g4xx_hal_dac_ex.c ****   *            @arg DAC_TRIANGLEAMPLITUDE_7: Select max triangle amplitude of 7
 433:Drivers/STM32G4xx_HAL_Driver/Src/stm32g4xx_hal_dac_ex.c ****   *            @arg DAC_TRIANGLEAMPLITUDE_15: Select max triangle amplitude of 15
 434:Drivers/STM32G4xx_HAL_Driver/Src/stm32g4xx_hal_dac_ex.c ****   *            @arg DAC_TRIANGLEAMPLITUDE_31: Select max triangle amplitude of 31
 435:Drivers/STM32G4xx_HAL_Driver/Src/stm32g4xx_hal_dac_ex.c ****   *            @arg DAC_TRIANGLEAMPLITUDE_63: Select max triangle amplitude of 63
 436:Drivers/STM32G4xx_HAL_Driver/Src/stm32g4xx_hal_dac_ex.c ****   *            @arg DAC_TRIANGLEAMPLITUDE_127: Select max triangle amplitude of 127
 437:Drivers/STM32G4xx_HAL_Driver/Src/stm32g4xx_hal_dac_ex.c ****   *            @arg DAC_TRIANGLEAMPLITUDE_255: Select max triangle amplitude of 255
 438:Drivers/STM32G4xx_HAL_Driver/Src/stm32g4xx_hal_dac_ex.c ****   *            @arg DAC_TRIANGLEAMPLITUDE_511: Select max triangle amplitude of 511
 439:Drivers/STM32G4xx_HAL_Driver/Src/stm32g4xx_hal_dac_ex.c ****   *            @arg DAC_TRIANGLEAMPLITUDE_1023: Select max triangle amplitude of 1023
 440:Drivers/STM32G4xx_HAL_Driver/Src/stm32g4xx_hal_dac_ex.c ****   *            @arg DAC_TRIANGLEAMPLITUDE_2047: Select max triangle amplitude of 2047
 441:Drivers/STM32G4xx_HAL_Driver/Src/stm32g4xx_hal_dac_ex.c ****   *            @arg DAC_TRIANGLEAMPLITUDE_4095: Select max triangle amplitude of 4095
 442:Drivers/STM32G4xx_HAL_Driver/Src/stm32g4xx_hal_dac_ex.c ****   * @retval HAL status
 443:Drivers/STM32G4xx_HAL_Driver/Src/stm32g4xx_hal_dac_ex.c ****   */
 444:Drivers/STM32G4xx_HAL_Driver/Src/stm32g4xx_hal_dac_ex.c **** HAL_StatusTypeDef HAL_DACEx_TriangleWaveGenerate(DAC_HandleTypeDef *hdac, uint32_t Channel, uint32_
 445:Drivers/STM32G4xx_HAL_Driver/Src/stm32g4xx_hal_dac_ex.c **** {
 675              	 .loc 1 445 1 is_stmt 1 view-0
 676              	 .cfi_startproc
 677              	 
 678              	 
 679              	 
 446:Drivers/STM32G4xx_HAL_Driver/Src/stm32g4xx_hal_dac_ex.c ****   /* Check the DAC peripheral handle */
 447:Drivers/STM32G4xx_HAL_Driver/Src/stm32g4xx_hal_dac_ex.c ****   if (hdac == NULL)
 680              	 .loc 1 447 3 view .LVU232
 681              	 .loc 1 447 6 is_stmt 0 view .LVU233
 682 0000 E0B1     	 cbz r0,.L59
 683 0002 0346     	 mov r3,r0
 448:Drivers/STM32G4xx_HAL_Driver/Src/stm32g4xx_hal_dac_ex.c ****   {
 449:Drivers/STM32G4xx_HAL_Driver/Src/stm32g4xx_hal_dac_ex.c ****     return HAL_ERROR;
 450:Drivers/STM32G4xx_HAL_Driver/Src/stm32g4xx_hal_dac_ex.c ****   }
 451:Drivers/STM32G4xx_HAL_Driver/Src/stm32g4xx_hal_dac_ex.c **** 
 452:Drivers/STM32G4xx_HAL_Driver/Src/stm32g4xx_hal_dac_ex.c ****   /* Check the parameters */
 453:Drivers/STM32G4xx_HAL_Driver/Src/stm32g4xx_hal_dac_ex.c ****   assert_param(IS_DAC_CHANNEL(hdac->Instance, Channel));
 684              	 .loc 1 453 3 is_stmt 1 view .LVU234
 454:Drivers/STM32G4xx_HAL_Driver/Src/stm32g4xx_hal_dac_ex.c ****   assert_param(IS_DAC_LFSR_UNMASK_TRIANGLE_AMPLITUDE(Amplitude));
 685              	 .loc 1 454 3 view .LVU235
 455:Drivers/STM32G4xx_HAL_Driver/Src/stm32g4xx_hal_dac_ex.c **** 
 456:Drivers/STM32G4xx_HAL_Driver/Src/stm32g4xx_hal_dac_ex.c ****   /* Process locked */
 457:Drivers/STM32G4xx_HAL_Driver/Src/stm32g4xx_hal_dac_ex.c ****   __HAL_LOCK(hdac);
 686              	 .loc 1 457 3 view .LVU236
 687              	 .loc 1 457 3 view .LVU237
 688 0004 4079     	 ldrb r0,[r0,#5]
 689              	.LVL53:
 690              	 .loc 1 457 3 is_stmt 0 view .LVU238
 691 0006 0128     	 cmp r0,#1
 692 0008 1AD0     	 beq .L60
 693              	 .loc 1 457 3 is_stmt 1 discriminator 2 view .LVU239
 694              	 .loc 1 457 3 discriminator 2 view .LVU240
ARM GAS   			page 23


 458:Drivers/STM32G4xx_HAL_Driver/Src/stm32g4xx_hal_dac_ex.c **** 
 459:Drivers/STM32G4xx_HAL_Driver/Src/stm32g4xx_hal_dac_ex.c ****   /* Change DAC state */
 460:Drivers/STM32G4xx_HAL_Driver/Src/stm32g4xx_hal_dac_ex.c ****   hdac->State = HAL_DAC_STATE_BUSY;
 695              	 .loc 1 460 3 view .LVU241
 445:Drivers/STM32G4xx_HAL_Driver/Src/stm32g4xx_hal_dac_ex.c ****   /* Check the DAC peripheral handle */
 696              	 .loc 1 445 1 is_stmt 0 view .LVU242
 697 000a 10B4     	 push {r4}
 698              	 .cfi_def_cfa_offset 4
 699              	 .cfi_offset 4,-4
 700              	 .loc 1 460 15 view .LVU243
 701 000c 0220     	 movs r0,#2
 461:Drivers/STM32G4xx_HAL_Driver/Src/stm32g4xx_hal_dac_ex.c **** 
 462:Drivers/STM32G4xx_HAL_Driver/Src/stm32g4xx_hal_dac_ex.c ****   /* Enable the triangle wave generation for the selected DAC channel */
 463:Drivers/STM32G4xx_HAL_Driver/Src/stm32g4xx_hal_dac_ex.c ****   MODIFY_REG(hdac->Instance->CR, ((DAC_CR_WAVE1) | (DAC_CR_MAMP1)) << (Channel & 0x10UL),
 702              	 .loc 1 463 3 view .LVU244
 703 000e 1C68     	 ldr r4,[r3]
 460:Drivers/STM32G4xx_HAL_Driver/Src/stm32g4xx_hal_dac_ex.c **** 
 704              	 .loc 1 460 15 view .LVU245
 705 0010 1871     	 strb r0,[r3,#4]
 706              	 .loc 1 463 3 is_stmt 1 view .LVU246
 707 0012 2068     	 ldr r0,[r4]
 708 0014 01F01001 	 and r1,r1,#16
 709              	.LVL54:
 710              	 .loc 1 463 3 is_stmt 0 view .LVU247
 711 0018 42F08002 	 orr r2,r2,#128
 712              	.LVL55:
 713              	 .loc 1 463 3 view .LVU248
 714 001c 4FF47C6C 	 mov ip,#4032
 715 0020 8A40     	 lsls r2,r2,r1
 716 0022 0CFA01F1 	 lsl r1,ip,r1
 717 0026 20EA0101 	 bic r1,r0,r1
 718 002a 0A43     	 orrs r2,r2,r1
 464:Drivers/STM32G4xx_HAL_Driver/Src/stm32g4xx_hal_dac_ex.c ****              (DAC_CR_WAVE1_1 | Amplitude) << (Channel & 0x10UL));
 465:Drivers/STM32G4xx_HAL_Driver/Src/stm32g4xx_hal_dac_ex.c **** 
 466:Drivers/STM32G4xx_HAL_Driver/Src/stm32g4xx_hal_dac_ex.c ****   /* Change DAC state */
 467:Drivers/STM32G4xx_HAL_Driver/Src/stm32g4xx_hal_dac_ex.c ****   hdac->State = HAL_DAC_STATE_READY;
 468:Drivers/STM32G4xx_HAL_Driver/Src/stm32g4xx_hal_dac_ex.c **** 
 469:Drivers/STM32G4xx_HAL_Driver/Src/stm32g4xx_hal_dac_ex.c ****   /* Process unlocked */
 470:Drivers/STM32G4xx_HAL_Driver/Src/stm32g4xx_hal_dac_ex.c ****   __HAL_UNLOCK(hdac);
 719              	 .loc 1 470 3 view .LVU249
 720 002c 0020     	 movs r0,#0
 467:Drivers/STM32G4xx_HAL_Driver/Src/stm32g4xx_hal_dac_ex.c **** 
 721              	 .loc 1 467 15 view .LVU250
 722 002e 0121     	 movs r1,#1
 463:Drivers/STM32G4xx_HAL_Driver/Src/stm32g4xx_hal_dac_ex.c ****              (DAC_CR_WAVE1_1 | Amplitude) << (Channel & 0x10UL));
 723              	 .loc 1 463 3 view .LVU251
 724 0030 2260     	 str r2,[r4]
 467:Drivers/STM32G4xx_HAL_Driver/Src/stm32g4xx_hal_dac_ex.c **** 
 725              	 .loc 1 467 3 is_stmt 1 view .LVU252
 467:Drivers/STM32G4xx_HAL_Driver/Src/stm32g4xx_hal_dac_ex.c **** 
 726              	 .loc 1 467 15 is_stmt 0 view .LVU253
 727 0032 1971     	 strb r1,[r3,#4]
 728              	 .loc 1 470 3 is_stmt 1 view .LVU254
 729              	 .loc 1 470 3 view .LVU255
 730 0034 5871     	 strb r0,[r3,#5]
 731              	 .loc 1 470 3 view .LVU256
 471:Drivers/STM32G4xx_HAL_Driver/Src/stm32g4xx_hal_dac_ex.c **** 
ARM GAS   			page 24


 472:Drivers/STM32G4xx_HAL_Driver/Src/stm32g4xx_hal_dac_ex.c ****   /* Return function status */
 473:Drivers/STM32G4xx_HAL_Driver/Src/stm32g4xx_hal_dac_ex.c ****   return HAL_OK;
 732              	 .loc 1 473 3 view .LVU257
 474:Drivers/STM32G4xx_HAL_Driver/Src/stm32g4xx_hal_dac_ex.c **** }
 733              	 .loc 1 474 1 is_stmt 0 view .LVU258
 734 0036 5DF8044B 	 ldr r4,[sp],#4
 735              	 .cfi_restore 4
 736              	 .cfi_def_cfa_offset 0
 737 003a 7047     	 bx lr
 738              	.LVL56:
 739              	.L59:
 449:Drivers/STM32G4xx_HAL_Driver/Src/stm32g4xx_hal_dac_ex.c ****   }
 740              	 .loc 1 449 12 view .LVU259
 741 003c 0120     	 movs r0,#1
 742              	.LVL57:
 449:Drivers/STM32G4xx_HAL_Driver/Src/stm32g4xx_hal_dac_ex.c ****   }
 743              	 .loc 1 449 12 view .LVU260
 744 003e 7047     	 bx lr
 745              	.LVL58:
 746              	.L60:
 457:Drivers/STM32G4xx_HAL_Driver/Src/stm32g4xx_hal_dac_ex.c **** 
 747              	 .loc 1 457 3 discriminator 1 view .LVU261
 748 0040 0220     	 movs r0,#2
 749              	 .loc 1 474 1 view .LVU262
 750 0042 7047     	 bx lr
 751              	 .cfi_endproc
 752              	.LFE365:
 754              	 .section .text.HAL_DACEx_NoiseWaveGenerate,"ax",%progbits
 755              	 .align 1
 756              	 .p2align 2,,3
 757              	 .global HAL_DACEx_NoiseWaveGenerate
 758              	 .syntax unified
 759              	 .thumb
 760              	 .thumb_func
 762              	HAL_DACEx_NoiseWaveGenerate:
 763              	.LVL59:
 764              	.LFB366:
 475:Drivers/STM32G4xx_HAL_Driver/Src/stm32g4xx_hal_dac_ex.c **** 
 476:Drivers/STM32G4xx_HAL_Driver/Src/stm32g4xx_hal_dac_ex.c **** /**
 477:Drivers/STM32G4xx_HAL_Driver/Src/stm32g4xx_hal_dac_ex.c ****   * @brief  Enable or disable the selected DAC channel wave generation.
 478:Drivers/STM32G4xx_HAL_Driver/Src/stm32g4xx_hal_dac_ex.c ****   * @param  hdac pointer to a DAC_HandleTypeDef structure that contains
 479:Drivers/STM32G4xx_HAL_Driver/Src/stm32g4xx_hal_dac_ex.c ****   *         the configuration information for the specified DAC.
 480:Drivers/STM32G4xx_HAL_Driver/Src/stm32g4xx_hal_dac_ex.c ****   * @param  Channel The selected DAC channel.
 481:Drivers/STM32G4xx_HAL_Driver/Src/stm32g4xx_hal_dac_ex.c ****   *          This parameter can be one of the following values:
 482:Drivers/STM32G4xx_HAL_Driver/Src/stm32g4xx_hal_dac_ex.c ****   *            @arg DAC_CHANNEL_1: DAC Channel1 selected
 483:Drivers/STM32G4xx_HAL_Driver/Src/stm32g4xx_hal_dac_ex.c ****   *            @arg DAC_CHANNEL_2: DAC Channel2 selected (1)
 484:Drivers/STM32G4xx_HAL_Driver/Src/stm32g4xx_hal_dac_ex.c ****   *
 485:Drivers/STM32G4xx_HAL_Driver/Src/stm32g4xx_hal_dac_ex.c ****   *         (1) On this STM32 series, parameter not available on all instances.
 486:Drivers/STM32G4xx_HAL_Driver/Src/stm32g4xx_hal_dac_ex.c ****   *             Refer to device datasheet for channels availability.
 487:Drivers/STM32G4xx_HAL_Driver/Src/stm32g4xx_hal_dac_ex.c ****   * @param  Amplitude Unmask DAC channel LFSR for noise wave generation.
 488:Drivers/STM32G4xx_HAL_Driver/Src/stm32g4xx_hal_dac_ex.c ****   *          This parameter can be one of the following values:
 489:Drivers/STM32G4xx_HAL_Driver/Src/stm32g4xx_hal_dac_ex.c ****   *            @arg DAC_LFSRUNMASK_BIT0: Unmask DAC channel LFSR bit0 for noise wave generation
 490:Drivers/STM32G4xx_HAL_Driver/Src/stm32g4xx_hal_dac_ex.c ****   *            @arg DAC_LFSRUNMASK_BITS1_0: Unmask DAC channel LFSR bit[1:0] for noise wave generat
 491:Drivers/STM32G4xx_HAL_Driver/Src/stm32g4xx_hal_dac_ex.c ****   *            @arg DAC_LFSRUNMASK_BITS2_0: Unmask DAC channel LFSR bit[2:0] for noise wave generat
 492:Drivers/STM32G4xx_HAL_Driver/Src/stm32g4xx_hal_dac_ex.c ****   *            @arg DAC_LFSRUNMASK_BITS3_0: Unmask DAC channel LFSR bit[3:0] for noise wave generat
 493:Drivers/STM32G4xx_HAL_Driver/Src/stm32g4xx_hal_dac_ex.c ****   *            @arg DAC_LFSRUNMASK_BITS4_0: Unmask DAC channel LFSR bit[4:0] for noise wave generat
 494:Drivers/STM32G4xx_HAL_Driver/Src/stm32g4xx_hal_dac_ex.c ****   *            @arg DAC_LFSRUNMASK_BITS5_0: Unmask DAC channel LFSR bit[5:0] for noise wave generat
ARM GAS   			page 25


 495:Drivers/STM32G4xx_HAL_Driver/Src/stm32g4xx_hal_dac_ex.c ****   *            @arg DAC_LFSRUNMASK_BITS6_0: Unmask DAC channel LFSR bit[6:0] for noise wave generat
 496:Drivers/STM32G4xx_HAL_Driver/Src/stm32g4xx_hal_dac_ex.c ****   *            @arg DAC_LFSRUNMASK_BITS7_0: Unmask DAC channel LFSR bit[7:0] for noise wave generat
 497:Drivers/STM32G4xx_HAL_Driver/Src/stm32g4xx_hal_dac_ex.c ****   *            @arg DAC_LFSRUNMASK_BITS8_0: Unmask DAC channel LFSR bit[8:0] for noise wave generat
 498:Drivers/STM32G4xx_HAL_Driver/Src/stm32g4xx_hal_dac_ex.c ****   *            @arg DAC_LFSRUNMASK_BITS9_0: Unmask DAC channel LFSR bit[9:0] for noise wave generat
 499:Drivers/STM32G4xx_HAL_Driver/Src/stm32g4xx_hal_dac_ex.c ****   *            @arg DAC_LFSRUNMASK_BITS10_0: Unmask DAC channel LFSR bit[10:0] for noise wave gener
 500:Drivers/STM32G4xx_HAL_Driver/Src/stm32g4xx_hal_dac_ex.c ****   *            @arg DAC_LFSRUNMASK_BITS11_0: Unmask DAC channel LFSR bit[11:0] for noise wave gener
 501:Drivers/STM32G4xx_HAL_Driver/Src/stm32g4xx_hal_dac_ex.c ****   * @retval HAL status
 502:Drivers/STM32G4xx_HAL_Driver/Src/stm32g4xx_hal_dac_ex.c ****   */
 503:Drivers/STM32G4xx_HAL_Driver/Src/stm32g4xx_hal_dac_ex.c **** HAL_StatusTypeDef HAL_DACEx_NoiseWaveGenerate(DAC_HandleTypeDef *hdac, uint32_t Channel, uint32_t A
 504:Drivers/STM32G4xx_HAL_Driver/Src/stm32g4xx_hal_dac_ex.c **** {
 765              	 .loc 1 504 1 is_stmt 1 view-0
 766              	 .cfi_startproc
 767              	 
 768              	 
 769              	 
 505:Drivers/STM32G4xx_HAL_Driver/Src/stm32g4xx_hal_dac_ex.c ****   /* Check the DAC peripheral handle */
 506:Drivers/STM32G4xx_HAL_Driver/Src/stm32g4xx_hal_dac_ex.c ****   if (hdac == NULL)
 770              	 .loc 1 506 3 view .LVU264
 771              	 .loc 1 506 6 is_stmt 0 view .LVU265
 772 0000 E0B1     	 cbz r0,.L67
 773 0002 0346     	 mov r3,r0
 507:Drivers/STM32G4xx_HAL_Driver/Src/stm32g4xx_hal_dac_ex.c ****   {
 508:Drivers/STM32G4xx_HAL_Driver/Src/stm32g4xx_hal_dac_ex.c ****     return HAL_ERROR;
 509:Drivers/STM32G4xx_HAL_Driver/Src/stm32g4xx_hal_dac_ex.c ****   }
 510:Drivers/STM32G4xx_HAL_Driver/Src/stm32g4xx_hal_dac_ex.c **** 
 511:Drivers/STM32G4xx_HAL_Driver/Src/stm32g4xx_hal_dac_ex.c ****   /* Check the parameters */
 512:Drivers/STM32G4xx_HAL_Driver/Src/stm32g4xx_hal_dac_ex.c ****   assert_param(IS_DAC_CHANNEL(hdac->Instance, Channel));
 774              	 .loc 1 512 3 is_stmt 1 view .LVU266
 513:Drivers/STM32G4xx_HAL_Driver/Src/stm32g4xx_hal_dac_ex.c ****   assert_param(IS_DAC_LFSR_UNMASK_TRIANGLE_AMPLITUDE(Amplitude));
 775              	 .loc 1 513 3 view .LVU267
 514:Drivers/STM32G4xx_HAL_Driver/Src/stm32g4xx_hal_dac_ex.c **** 
 515:Drivers/STM32G4xx_HAL_Driver/Src/stm32g4xx_hal_dac_ex.c ****   /* Process locked */
 516:Drivers/STM32G4xx_HAL_Driver/Src/stm32g4xx_hal_dac_ex.c ****   __HAL_LOCK(hdac);
 776              	 .loc 1 516 3 view .LVU268
 777              	 .loc 1 516 3 view .LVU269
 778 0004 4079     	 ldrb r0,[r0,#5]
 779              	.LVL60:
 780              	 .loc 1 516 3 is_stmt 0 view .LVU270
 781 0006 0128     	 cmp r0,#1
 782 0008 1AD0     	 beq .L68
 783              	 .loc 1 516 3 is_stmt 1 discriminator 2 view .LVU271
 784              	 .loc 1 516 3 discriminator 2 view .LVU272
 517:Drivers/STM32G4xx_HAL_Driver/Src/stm32g4xx_hal_dac_ex.c **** 
 518:Drivers/STM32G4xx_HAL_Driver/Src/stm32g4xx_hal_dac_ex.c ****   /* Change DAC state */
 519:Drivers/STM32G4xx_HAL_Driver/Src/stm32g4xx_hal_dac_ex.c ****   hdac->State = HAL_DAC_STATE_BUSY;
 785              	 .loc 1 519 3 view .LVU273
 504:Drivers/STM32G4xx_HAL_Driver/Src/stm32g4xx_hal_dac_ex.c ****   /* Check the DAC peripheral handle */
 786              	 .loc 1 504 1 is_stmt 0 view .LVU274
 787 000a 10B4     	 push {r4}
 788              	 .cfi_def_cfa_offset 4
 789              	 .cfi_offset 4,-4
 790              	 .loc 1 519 15 view .LVU275
 791 000c 0220     	 movs r0,#2
 520:Drivers/STM32G4xx_HAL_Driver/Src/stm32g4xx_hal_dac_ex.c **** 
 521:Drivers/STM32G4xx_HAL_Driver/Src/stm32g4xx_hal_dac_ex.c ****   /* Enable the noise wave generation for the selected DAC channel */
 522:Drivers/STM32G4xx_HAL_Driver/Src/stm32g4xx_hal_dac_ex.c ****   MODIFY_REG(hdac->Instance->CR, ((DAC_CR_WAVE1) | (DAC_CR_MAMP1)) << (Channel & 0x10UL),
 792              	 .loc 1 522 3 view .LVU276
ARM GAS   			page 26


 793 000e 1C68     	 ldr r4,[r3]
 519:Drivers/STM32G4xx_HAL_Driver/Src/stm32g4xx_hal_dac_ex.c **** 
 794              	 .loc 1 519 15 view .LVU277
 795 0010 1871     	 strb r0,[r3,#4]
 796              	 .loc 1 522 3 is_stmt 1 view .LVU278
 797 0012 2068     	 ldr r0,[r4]
 798 0014 01F01001 	 and r1,r1,#16
 799              	.LVL61:
 800              	 .loc 1 522 3 is_stmt 0 view .LVU279
 801 0018 42F04002 	 orr r2,r2,#64
 802              	.LVL62:
 803              	 .loc 1 522 3 view .LVU280
 804 001c 4FF47C6C 	 mov ip,#4032
 805 0020 8A40     	 lsls r2,r2,r1
 806 0022 0CFA01F1 	 lsl r1,ip,r1
 807 0026 20EA0101 	 bic r1,r0,r1
 808 002a 0A43     	 orrs r2,r2,r1
 523:Drivers/STM32G4xx_HAL_Driver/Src/stm32g4xx_hal_dac_ex.c ****              (DAC_CR_WAVE1_0 | Amplitude) << (Channel & 0x10UL));
 524:Drivers/STM32G4xx_HAL_Driver/Src/stm32g4xx_hal_dac_ex.c **** 
 525:Drivers/STM32G4xx_HAL_Driver/Src/stm32g4xx_hal_dac_ex.c ****   /* Change DAC state */
 526:Drivers/STM32G4xx_HAL_Driver/Src/stm32g4xx_hal_dac_ex.c ****   hdac->State = HAL_DAC_STATE_READY;
 527:Drivers/STM32G4xx_HAL_Driver/Src/stm32g4xx_hal_dac_ex.c **** 
 528:Drivers/STM32G4xx_HAL_Driver/Src/stm32g4xx_hal_dac_ex.c ****   /* Process unlocked */
 529:Drivers/STM32G4xx_HAL_Driver/Src/stm32g4xx_hal_dac_ex.c ****   __HAL_UNLOCK(hdac);
 809              	 .loc 1 529 3 view .LVU281
 810 002c 0020     	 movs r0,#0
 526:Drivers/STM32G4xx_HAL_Driver/Src/stm32g4xx_hal_dac_ex.c **** 
 811              	 .loc 1 526 15 view .LVU282
 812 002e 0121     	 movs r1,#1
 522:Drivers/STM32G4xx_HAL_Driver/Src/stm32g4xx_hal_dac_ex.c ****              (DAC_CR_WAVE1_0 | Amplitude) << (Channel & 0x10UL));
 813              	 .loc 1 522 3 view .LVU283
 814 0030 2260     	 str r2,[r4]
 526:Drivers/STM32G4xx_HAL_Driver/Src/stm32g4xx_hal_dac_ex.c **** 
 815              	 .loc 1 526 3 is_stmt 1 view .LVU284
 526:Drivers/STM32G4xx_HAL_Driver/Src/stm32g4xx_hal_dac_ex.c **** 
 816              	 .loc 1 526 15 is_stmt 0 view .LVU285
 817 0032 1971     	 strb r1,[r3,#4]
 818              	 .loc 1 529 3 is_stmt 1 view .LVU286
 819              	 .loc 1 529 3 view .LVU287
 820 0034 5871     	 strb r0,[r3,#5]
 821              	 .loc 1 529 3 view .LVU288
 530:Drivers/STM32G4xx_HAL_Driver/Src/stm32g4xx_hal_dac_ex.c **** 
 531:Drivers/STM32G4xx_HAL_Driver/Src/stm32g4xx_hal_dac_ex.c ****   /* Return function status */
 532:Drivers/STM32G4xx_HAL_Driver/Src/stm32g4xx_hal_dac_ex.c ****   return HAL_OK;
 822              	 .loc 1 532 3 view .LVU289
 533:Drivers/STM32G4xx_HAL_Driver/Src/stm32g4xx_hal_dac_ex.c **** }
 823              	 .loc 1 533 1 is_stmt 0 view .LVU290
 824 0036 5DF8044B 	 ldr r4,[sp],#4
 825              	 .cfi_restore 4
 826              	 .cfi_def_cfa_offset 0
 827 003a 7047     	 bx lr
 828              	.LVL63:
 829              	.L67:
 508:Drivers/STM32G4xx_HAL_Driver/Src/stm32g4xx_hal_dac_ex.c ****   }
 830              	 .loc 1 508 12 view .LVU291
 831 003c 0120     	 movs r0,#1
 832              	.LVL64:
ARM GAS   			page 27


 508:Drivers/STM32G4xx_HAL_Driver/Src/stm32g4xx_hal_dac_ex.c ****   }
 833              	 .loc 1 508 12 view .LVU292
 834 003e 7047     	 bx lr
 835              	.LVL65:
 836              	.L68:
 516:Drivers/STM32G4xx_HAL_Driver/Src/stm32g4xx_hal_dac_ex.c **** 
 837              	 .loc 1 516 3 discriminator 1 view .LVU293
 838 0040 0220     	 movs r0,#2
 839              	 .loc 1 533 1 view .LVU294
 840 0042 7047     	 bx lr
 841              	 .cfi_endproc
 842              	.LFE366:
 844              	 .section .text.HAL_DACEx_SawtoothWaveGenerate,"ax",%progbits
 845              	 .align 1
 846              	 .p2align 2,,3
 847              	 .global HAL_DACEx_SawtoothWaveGenerate
 848              	 .syntax unified
 849              	 .thumb
 850              	 .thumb_func
 852              	HAL_DACEx_SawtoothWaveGenerate:
 853              	.LVL66:
 854              	.LFB367:
 534:Drivers/STM32G4xx_HAL_Driver/Src/stm32g4xx_hal_dac_ex.c **** 
 535:Drivers/STM32G4xx_HAL_Driver/Src/stm32g4xx_hal_dac_ex.c **** /**
 536:Drivers/STM32G4xx_HAL_Driver/Src/stm32g4xx_hal_dac_ex.c ****   * @brief  Enable or disable the selected DAC channel sawtooth wave generation.
 537:Drivers/STM32G4xx_HAL_Driver/Src/stm32g4xx_hal_dac_ex.c ****   * @param  hdac pointer to a DAC_HandleTypeDef structure that contains
 538:Drivers/STM32G4xx_HAL_Driver/Src/stm32g4xx_hal_dac_ex.c ****   *         the configuration information for the specified DAC.
 539:Drivers/STM32G4xx_HAL_Driver/Src/stm32g4xx_hal_dac_ex.c ****   * @param  Channel The selected DAC channel.
 540:Drivers/STM32G4xx_HAL_Driver/Src/stm32g4xx_hal_dac_ex.c ****   *          This parameter can be one of the following values:
 541:Drivers/STM32G4xx_HAL_Driver/Src/stm32g4xx_hal_dac_ex.c ****   *            @arg DAC_CHANNEL_1: DAC Channel1 selected
 542:Drivers/STM32G4xx_HAL_Driver/Src/stm32g4xx_hal_dac_ex.c ****   *            @arg DAC_CHANNEL_2: DAC Channel2 selected (1)
 543:Drivers/STM32G4xx_HAL_Driver/Src/stm32g4xx_hal_dac_ex.c ****   *
 544:Drivers/STM32G4xx_HAL_Driver/Src/stm32g4xx_hal_dac_ex.c ****   *         (1) On this STM32 series, parameter not available on all instances.
 545:Drivers/STM32G4xx_HAL_Driver/Src/stm32g4xx_hal_dac_ex.c ****   *             Refer to device datasheet for channels availability.
 546:Drivers/STM32G4xx_HAL_Driver/Src/stm32g4xx_hal_dac_ex.c ****   * @param  Polarity polarity to be used for wave generation.
 547:Drivers/STM32G4xx_HAL_Driver/Src/stm32g4xx_hal_dac_ex.c ****   *          This parameter can be one of the following values:
 548:Drivers/STM32G4xx_HAL_Driver/Src/stm32g4xx_hal_dac_ex.c ****   *            @arg DAC_SAWTOOTH_POLARITY_DECREMENT
 549:Drivers/STM32G4xx_HAL_Driver/Src/stm32g4xx_hal_dac_ex.c ****   *            @arg DAC_SAWTOOTH_POLARITY_INCREMENT
 550:Drivers/STM32G4xx_HAL_Driver/Src/stm32g4xx_hal_dac_ex.c ****   * @param  ResetData Sawtooth wave reset value.
 551:Drivers/STM32G4xx_HAL_Driver/Src/stm32g4xx_hal_dac_ex.c ****   *          Range is from 0 to DAC full range 4095 (0xFFF)
 552:Drivers/STM32G4xx_HAL_Driver/Src/stm32g4xx_hal_dac_ex.c ****   * @param  StepData Sawtooth wave step value.
 553:Drivers/STM32G4xx_HAL_Driver/Src/stm32g4xx_hal_dac_ex.c ****   *          12.4 bit format, unsigned: 12 bits exponent / 4 bits mantissa
 554:Drivers/STM32G4xx_HAL_Driver/Src/stm32g4xx_hal_dac_ex.c ****   *          Step value step is 1/16 = 0.0625
 555:Drivers/STM32G4xx_HAL_Driver/Src/stm32g4xx_hal_dac_ex.c ****   *          Step value range is 0.0000 to 4095.9375 (0xFFF.F)
 556:Drivers/STM32G4xx_HAL_Driver/Src/stm32g4xx_hal_dac_ex.c ****   * @note    Sawtooth reset and step triggers are configured by calling @ref HAL_DAC_ConfigChannel
 557:Drivers/STM32G4xx_HAL_Driver/Src/stm32g4xx_hal_dac_ex.c ****   * @retval HAL status
 558:Drivers/STM32G4xx_HAL_Driver/Src/stm32g4xx_hal_dac_ex.c ****   */
 559:Drivers/STM32G4xx_HAL_Driver/Src/stm32g4xx_hal_dac_ex.c **** HAL_StatusTypeDef HAL_DACEx_SawtoothWaveGenerate(DAC_HandleTypeDef *hdac, uint32_t Channel, uint32_
 560:Drivers/STM32G4xx_HAL_Driver/Src/stm32g4xx_hal_dac_ex.c ****                                                  uint32_t ResetData, uint32_t StepData)
 561:Drivers/STM32G4xx_HAL_Driver/Src/stm32g4xx_hal_dac_ex.c **** {
 855              	 .loc 1 561 1 is_stmt 1 view-0
 856              	 .cfi_startproc
 857              	 
 858              	 
 859              	 
 562:Drivers/STM32G4xx_HAL_Driver/Src/stm32g4xx_hal_dac_ex.c ****   /* Check the DAC peripheral handle */
 563:Drivers/STM32G4xx_HAL_Driver/Src/stm32g4xx_hal_dac_ex.c ****   if (hdac == NULL)
ARM GAS   			page 28


 860              	 .loc 1 563 3 view .LVU296
 861              	 .loc 1 563 6 is_stmt 0 view .LVU297
 862 0000 68B3     	 cbz r0,.L77
 863 0002 8446     	 mov ip,r0
 564:Drivers/STM32G4xx_HAL_Driver/Src/stm32g4xx_hal_dac_ex.c ****   {
 565:Drivers/STM32G4xx_HAL_Driver/Src/stm32g4xx_hal_dac_ex.c ****     return HAL_ERROR;
 566:Drivers/STM32G4xx_HAL_Driver/Src/stm32g4xx_hal_dac_ex.c ****   }
 567:Drivers/STM32G4xx_HAL_Driver/Src/stm32g4xx_hal_dac_ex.c **** 
 568:Drivers/STM32G4xx_HAL_Driver/Src/stm32g4xx_hal_dac_ex.c ****   /* Check the parameters */
 569:Drivers/STM32G4xx_HAL_Driver/Src/stm32g4xx_hal_dac_ex.c ****   assert_param(IS_DAC_CHANNEL(hdac->Instance, Channel));
 864              	 .loc 1 569 3 is_stmt 1 view .LVU298
 570:Drivers/STM32G4xx_HAL_Driver/Src/stm32g4xx_hal_dac_ex.c ****   assert_param(IS_DAC_SAWTOOTH_POLARITY(Polarity));
 865              	 .loc 1 570 3 view .LVU299
 571:Drivers/STM32G4xx_HAL_Driver/Src/stm32g4xx_hal_dac_ex.c ****   assert_param(IS_DAC_RESET_DATA(ResetData));
 866              	 .loc 1 571 3 view .LVU300
 572:Drivers/STM32G4xx_HAL_Driver/Src/stm32g4xx_hal_dac_ex.c ****   assert_param(IS_DAC_STEP_DATA(StepData));
 867              	 .loc 1 572 3 view .LVU301
 573:Drivers/STM32G4xx_HAL_Driver/Src/stm32g4xx_hal_dac_ex.c **** 
 574:Drivers/STM32G4xx_HAL_Driver/Src/stm32g4xx_hal_dac_ex.c ****   /* Process locked */
 575:Drivers/STM32G4xx_HAL_Driver/Src/stm32g4xx_hal_dac_ex.c ****   __HAL_LOCK(hdac);
 868              	 .loc 1 575 3 view .LVU302
 869              	 .loc 1 575 3 view .LVU303
 870 0004 4079     	 ldrb r0,[r0,#5]
 871              	.LVL67:
 872              	 .loc 1 575 3 is_stmt 0 view .LVU304
 873 0006 0128     	 cmp r0,#1
 874 0008 2BD0     	 beq .L78
 875              	 .loc 1 575 3 is_stmt 1 discriminator 2 view .LVU305
 561:Drivers/STM32G4xx_HAL_Driver/Src/stm32g4xx_hal_dac_ex.c ****   /* Check the DAC peripheral handle */
 876              	 .loc 1 561 1 is_stmt 0 view .LVU306
 877 000a 10B4     	 push {r4}
 878              	 .cfi_def_cfa_offset 4
 879              	 .cfi_offset 4,-4
 576:Drivers/STM32G4xx_HAL_Driver/Src/stm32g4xx_hal_dac_ex.c **** 
 577:Drivers/STM32G4xx_HAL_Driver/Src/stm32g4xx_hal_dac_ex.c ****   /* Change DAC state */
 578:Drivers/STM32G4xx_HAL_Driver/Src/stm32g4xx_hal_dac_ex.c ****   hdac->State = HAL_DAC_STATE_BUSY;
 579:Drivers/STM32G4xx_HAL_Driver/Src/stm32g4xx_hal_dac_ex.c **** 
 580:Drivers/STM32G4xx_HAL_Driver/Src/stm32g4xx_hal_dac_ex.c ****   if (Channel == DAC_CHANNEL_1)
 581:Drivers/STM32G4xx_HAL_Driver/Src/stm32g4xx_hal_dac_ex.c ****   {
 582:Drivers/STM32G4xx_HAL_Driver/Src/stm32g4xx_hal_dac_ex.c ****     /* Configure the sawtooth wave generation data parameters */
 583:Drivers/STM32G4xx_HAL_Driver/Src/stm32g4xx_hal_dac_ex.c ****     MODIFY_REG(hdac->Instance->STR1,
 880              	 .loc 1 583 5 view .LVU307
 881 000c 1A43     	 orrs r2,r2,r3
 882              	.LVL68:
 578:Drivers/STM32G4xx_HAL_Driver/Src/stm32g4xx_hal_dac_ex.c **** 
 883              	 .loc 1 578 15 view .LVU308
 884 000e 0223     	 movs r3,#2
 885              	.LVL69:
 578:Drivers/STM32G4xx_HAL_Driver/Src/stm32g4xx_hal_dac_ex.c **** 
 886              	 .loc 1 578 15 view .LVU309
 887 0010 8CF80430 	 strb r3,[ip,#4]
 888              	 .loc 1 583 5 view .LVU310
 889 0014 019B     	 ldr r3,[sp,#4]
 575:Drivers/STM32G4xx_HAL_Driver/Src/stm32g4xx_hal_dac_ex.c **** 
 890              	 .loc 1 575 3 discriminator 2 view .LVU311
 891 0016 0120     	 movs r0,#1
 892 0018 8CF80500 	 strb r0,[ip,#5]
ARM GAS   			page 29


 575:Drivers/STM32G4xx_HAL_Driver/Src/stm32g4xx_hal_dac_ex.c **** 
 893              	 .loc 1 575 3 is_stmt 1 discriminator 2 view .LVU312
 578:Drivers/STM32G4xx_HAL_Driver/Src/stm32g4xx_hal_dac_ex.c **** 
 894              	 .loc 1 578 3 view .LVU313
 580:Drivers/STM32G4xx_HAL_Driver/Src/stm32g4xx_hal_dac_ex.c ****   {
 895              	 .loc 1 580 3 view .LVU314
 896              	 .loc 1 583 5 is_stmt 0 view .LVU315
 897 001c 42EA0342 	 orr r2,r2,r3,lsl#16
 898 0020 DCF80000 	 ldr r0,[ip]
 580:Drivers/STM32G4xx_HAL_Driver/Src/stm32g4xx_hal_dac_ex.c ****   {
 899              	 .loc 1 580 6 view .LVU316
 900 0024 A9B1     	 cbz r1,.L83
 584:Drivers/STM32G4xx_HAL_Driver/Src/stm32g4xx_hal_dac_ex.c ****                DAC_STR1_STINCDATA1 | DAC_STR1_STDIR1 | DAC_STR1_STRSTDATA1,
 585:Drivers/STM32G4xx_HAL_Driver/Src/stm32g4xx_hal_dac_ex.c ****                (StepData << DAC_STR1_STINCDATA1_Pos)
 586:Drivers/STM32G4xx_HAL_Driver/Src/stm32g4xx_hal_dac_ex.c ****                | Polarity
 587:Drivers/STM32G4xx_HAL_Driver/Src/stm32g4xx_hal_dac_ex.c ****                | (ResetData << DAC_STR1_STRSTDATA1_Pos));
 588:Drivers/STM32G4xx_HAL_Driver/Src/stm32g4xx_hal_dac_ex.c ****   }
 589:Drivers/STM32G4xx_HAL_Driver/Src/stm32g4xx_hal_dac_ex.c ****   else
 590:Drivers/STM32G4xx_HAL_Driver/Src/stm32g4xx_hal_dac_ex.c ****   {
 591:Drivers/STM32G4xx_HAL_Driver/Src/stm32g4xx_hal_dac_ex.c ****     /* Configure the sawtooth wave generation data parameters */
 592:Drivers/STM32G4xx_HAL_Driver/Src/stm32g4xx_hal_dac_ex.c ****     MODIFY_REG(hdac->Instance->STR2,
 901              	 .loc 1 592 5 is_stmt 1 view .LVU317
 902 0026 C36D     	 ldr r3,[r0,#92]
 903 0028 03F46043 	 and r3,r3,#57344
 904 002c 1343     	 orrs r3,r3,r2
 905 002e C365     	 str r3,[r0,#92]
 906              	.L76:
 593:Drivers/STM32G4xx_HAL_Driver/Src/stm32g4xx_hal_dac_ex.c ****                DAC_STR2_STINCDATA2 | DAC_STR2_STDIR2 | DAC_STR2_STRSTDATA2,
 594:Drivers/STM32G4xx_HAL_Driver/Src/stm32g4xx_hal_dac_ex.c ****                (StepData << DAC_STR2_STINCDATA2_Pos)
 595:Drivers/STM32G4xx_HAL_Driver/Src/stm32g4xx_hal_dac_ex.c ****                | Polarity
 596:Drivers/STM32G4xx_HAL_Driver/Src/stm32g4xx_hal_dac_ex.c ****                | (ResetData << DAC_STR2_STRSTDATA2_Pos));
 597:Drivers/STM32G4xx_HAL_Driver/Src/stm32g4xx_hal_dac_ex.c ****   }
 598:Drivers/STM32G4xx_HAL_Driver/Src/stm32g4xx_hal_dac_ex.c **** 
 599:Drivers/STM32G4xx_HAL_Driver/Src/stm32g4xx_hal_dac_ex.c ****   /* Enable the sawtooth wave generation for the selected DAC channel */
 600:Drivers/STM32G4xx_HAL_Driver/Src/stm32g4xx_hal_dac_ex.c ****   MODIFY_REG(hdac->Instance->CR,
 907              	 .loc 1 600 3 view .LVU318
 908 0030 0468     	 ldr r4,[r0]
 909 0032 01F01001 	 and r1,r1,#16
 910              	.LVL70:
 911              	 .loc 1 600 3 is_stmt 0 view .LVU319
 912 0036 C023     	 movs r3,#192
 913 0038 8B40     	 lsls r3,r3,r1
 601:Drivers/STM32G4xx_HAL_Driver/Src/stm32g4xx_hal_dac_ex.c ****              (DAC_CR_WAVE1) << (Channel & 0x10UL),
 602:Drivers/STM32G4xx_HAL_Driver/Src/stm32g4xx_hal_dac_ex.c ****              (uint32_t)(DAC_CR_WAVE1_1 | DAC_CR_WAVE1_0) << (Channel & 0x10UL));
 603:Drivers/STM32G4xx_HAL_Driver/Src/stm32g4xx_hal_dac_ex.c **** 
 604:Drivers/STM32G4xx_HAL_Driver/Src/stm32g4xx_hal_dac_ex.c ****   /* Change DAC state */
 605:Drivers/STM32G4xx_HAL_Driver/Src/stm32g4xx_hal_dac_ex.c ****   hdac->State = HAL_DAC_STATE_READY;
 606:Drivers/STM32G4xx_HAL_Driver/Src/stm32g4xx_hal_dac_ex.c **** 
 607:Drivers/STM32G4xx_HAL_Driver/Src/stm32g4xx_hal_dac_ex.c ****   /* Process unlocked */
 608:Drivers/STM32G4xx_HAL_Driver/Src/stm32g4xx_hal_dac_ex.c ****   __HAL_UNLOCK(hdac);
 914              	 .loc 1 608 3 view .LVU320
 915 003a 0022     	 movs r2,#0
 600:Drivers/STM32G4xx_HAL_Driver/Src/stm32g4xx_hal_dac_ex.c ****              (DAC_CR_WAVE1) << (Channel & 0x10UL),
 916              	 .loc 1 600 3 view .LVU321
 917 003c 2343     	 orrs r3,r3,r4
 605:Drivers/STM32G4xx_HAL_Driver/Src/stm32g4xx_hal_dac_ex.c **** 
 918              	 .loc 1 605 15 view .LVU322
ARM GAS   			page 30


 919 003e 0121     	 movs r1,#1
 600:Drivers/STM32G4xx_HAL_Driver/Src/stm32g4xx_hal_dac_ex.c ****              (DAC_CR_WAVE1) << (Channel & 0x10UL),
 920              	 .loc 1 600 3 view .LVU323
 921 0040 0360     	 str r3,[r0]
 605:Drivers/STM32G4xx_HAL_Driver/Src/stm32g4xx_hal_dac_ex.c **** 
 922              	 .loc 1 605 3 is_stmt 1 view .LVU324
 605:Drivers/STM32G4xx_HAL_Driver/Src/stm32g4xx_hal_dac_ex.c **** 
 923              	 .loc 1 605 15 is_stmt 0 view .LVU325
 924 0042 8CF80410 	 strb r1,[ip,#4]
 925              	 .loc 1 608 3 is_stmt 1 view .LVU326
 926              	 .loc 1 608 3 view .LVU327
 927 0046 8CF80520 	 strb r2,[ip,#5]
 928              	 .loc 1 608 3 view .LVU328
 609:Drivers/STM32G4xx_HAL_Driver/Src/stm32g4xx_hal_dac_ex.c **** 
 610:Drivers/STM32G4xx_HAL_Driver/Src/stm32g4xx_hal_dac_ex.c ****   /* Return function status */
 611:Drivers/STM32G4xx_HAL_Driver/Src/stm32g4xx_hal_dac_ex.c ****   return HAL_OK;
 929              	 .loc 1 611 3 view .LVU329
 930              	 .loc 1 611 10 is_stmt 0 view .LVU330
 931 004a 1046     	 mov r0,r2
 612:Drivers/STM32G4xx_HAL_Driver/Src/stm32g4xx_hal_dac_ex.c **** }
 932              	 .loc 1 612 1 view .LVU331
 933 004c 5DF8044B 	 ldr r4,[sp],#4
 934              	 .cfi_remember_state
 935              	 .cfi_restore 4
 936              	 .cfi_def_cfa_offset 0
 937              	.LVL71:
 938              	 .loc 1 612 1 view .LVU332
 939 0050 7047     	 bx lr
 940              	.LVL72:
 941              	.L83:
 942              	 .cfi_restore_state
 583:Drivers/STM32G4xx_HAL_Driver/Src/stm32g4xx_hal_dac_ex.c ****                DAC_STR1_STINCDATA1 | DAC_STR1_STDIR1 | DAC_STR1_STRSTDATA1,
 943              	 .loc 1 583 5 is_stmt 1 view .LVU333
 944 0052 836D     	 ldr r3,[r0,#88]
 945 0054 03F46043 	 and r3,r3,#57344
 946 0058 1343     	 orrs r3,r3,r2
 947 005a 8365     	 str r3,[r0,#88]
 948 005c E8E7     	 b .L76
 949              	.LVL73:
 950              	.L77:
 951              	 .cfi_def_cfa_offset 0
 952              	 .cfi_restore 4
 565:Drivers/STM32G4xx_HAL_Driver/Src/stm32g4xx_hal_dac_ex.c ****   }
 953              	 .loc 1 565 12 is_stmt 0 view .LVU334
 954 005e 0120     	 movs r0,#1
 955              	.LVL74:
 565:Drivers/STM32G4xx_HAL_Driver/Src/stm32g4xx_hal_dac_ex.c ****   }
 956              	 .loc 1 565 12 view .LVU335
 957 0060 7047     	 bx lr
 958              	.LVL75:
 959              	.L78:
 575:Drivers/STM32G4xx_HAL_Driver/Src/stm32g4xx_hal_dac_ex.c **** 
 960              	 .loc 1 575 3 discriminator 1 view .LVU336
 961 0062 0220     	 movs r0,#2
 962              	 .loc 1 612 1 view .LVU337
 963 0064 7047     	 bx lr
 964              	 .cfi_endproc
ARM GAS   			page 31


 965              	.LFE367:
 967 0066 00BF     	 .section .text.HAL_DACEx_SawtoothWaveDataReset,"ax",%progbits
 968              	 .align 1
 969              	 .p2align 2,,3
 970              	 .global HAL_DACEx_SawtoothWaveDataReset
 971              	 .syntax unified
 972              	 .thumb
 973              	 .thumb_func
 975              	HAL_DACEx_SawtoothWaveDataReset:
 976              	.LVL76:
 977              	.LFB368:
 613:Drivers/STM32G4xx_HAL_Driver/Src/stm32g4xx_hal_dac_ex.c **** 
 614:Drivers/STM32G4xx_HAL_Driver/Src/stm32g4xx_hal_dac_ex.c **** /**
 615:Drivers/STM32G4xx_HAL_Driver/Src/stm32g4xx_hal_dac_ex.c ****   * @brief  Trig sawtooth wave reset
 616:Drivers/STM32G4xx_HAL_Driver/Src/stm32g4xx_hal_dac_ex.c ****   * @note   This function allows to reset sawtooth wave in case of SW trigger
 617:Drivers/STM32G4xx_HAL_Driver/Src/stm32g4xx_hal_dac_ex.c ****   *         has been configured for this usage.
 618:Drivers/STM32G4xx_HAL_Driver/Src/stm32g4xx_hal_dac_ex.c ****   * @param  hdac pointer to a DAC_HandleTypeDef structure that contains
 619:Drivers/STM32G4xx_HAL_Driver/Src/stm32g4xx_hal_dac_ex.c ****   *         the configuration information for the specified DAC.
 620:Drivers/STM32G4xx_HAL_Driver/Src/stm32g4xx_hal_dac_ex.c ****   * @param  Channel The selected DAC channel.
 621:Drivers/STM32G4xx_HAL_Driver/Src/stm32g4xx_hal_dac_ex.c ****   *          This parameter can be one of the following values:
 622:Drivers/STM32G4xx_HAL_Driver/Src/stm32g4xx_hal_dac_ex.c ****   *            @arg DAC_CHANNEL_1: DAC Channel1 selected
 623:Drivers/STM32G4xx_HAL_Driver/Src/stm32g4xx_hal_dac_ex.c ****   *            @arg DAC_CHANNEL_2: DAC Channel2 selected (1)
 624:Drivers/STM32G4xx_HAL_Driver/Src/stm32g4xx_hal_dac_ex.c ****   *
 625:Drivers/STM32G4xx_HAL_Driver/Src/stm32g4xx_hal_dac_ex.c ****   *         (1) On this STM32 series, parameter not available on all instances.
 626:Drivers/STM32G4xx_HAL_Driver/Src/stm32g4xx_hal_dac_ex.c ****   *             Refer to device datasheet for channels availability.
 627:Drivers/STM32G4xx_HAL_Driver/Src/stm32g4xx_hal_dac_ex.c ****   * @retval HAL status
 628:Drivers/STM32G4xx_HAL_Driver/Src/stm32g4xx_hal_dac_ex.c ****   */
 629:Drivers/STM32G4xx_HAL_Driver/Src/stm32g4xx_hal_dac_ex.c **** HAL_StatusTypeDef HAL_DACEx_SawtoothWaveDataReset(DAC_HandleTypeDef *hdac, uint32_t Channel)
 630:Drivers/STM32G4xx_HAL_Driver/Src/stm32g4xx_hal_dac_ex.c **** {
 978              	 .loc 1 630 1 is_stmt 1 view-0
 979              	 .cfi_startproc
 980              	 
 981              	 
 982              	 
 631:Drivers/STM32G4xx_HAL_Driver/Src/stm32g4xx_hal_dac_ex.c ****   HAL_StatusTypeDef status = HAL_OK;
 983              	 .loc 1 631 3 view .LVU339
 632:Drivers/STM32G4xx_HAL_Driver/Src/stm32g4xx_hal_dac_ex.c **** 
 633:Drivers/STM32G4xx_HAL_Driver/Src/stm32g4xx_hal_dac_ex.c ****   /* Check the DAC peripheral handle */
 634:Drivers/STM32G4xx_HAL_Driver/Src/stm32g4xx_hal_dac_ex.c ****   if (hdac == NULL)
 984              	 .loc 1 634 3 view .LVU340
 985              	 .loc 1 634 6 is_stmt 0 view .LVU341
 986 0000 00B3     	 cbz r0,.L89
 635:Drivers/STM32G4xx_HAL_Driver/Src/stm32g4xx_hal_dac_ex.c ****   {
 636:Drivers/STM32G4xx_HAL_Driver/Src/stm32g4xx_hal_dac_ex.c ****     return HAL_ERROR;
 637:Drivers/STM32G4xx_HAL_Driver/Src/stm32g4xx_hal_dac_ex.c ****   }
 638:Drivers/STM32G4xx_HAL_Driver/Src/stm32g4xx_hal_dac_ex.c **** 
 639:Drivers/STM32G4xx_HAL_Driver/Src/stm32g4xx_hal_dac_ex.c ****   /* Check the parameters */
 640:Drivers/STM32G4xx_HAL_Driver/Src/stm32g4xx_hal_dac_ex.c ****   assert_param(IS_DAC_CHANNEL(hdac->Instance, Channel));
 641:Drivers/STM32G4xx_HAL_Driver/Src/stm32g4xx_hal_dac_ex.c **** 
 642:Drivers/STM32G4xx_HAL_Driver/Src/stm32g4xx_hal_dac_ex.c ****   /* Process locked */
 643:Drivers/STM32G4xx_HAL_Driver/Src/stm32g4xx_hal_dac_ex.c ****   __HAL_LOCK(hdac);
 987              	 .loc 1 643 3 view .LVU342
 988 0002 4279     	 ldrb r2,[r0,#5]
 989 0004 012A     	 cmp r2,#1
 990 0006 0346     	 mov r3,r0
 640:Drivers/STM32G4xx_HAL_Driver/Src/stm32g4xx_hal_dac_ex.c **** 
 991              	 .loc 1 640 3 is_stmt 1 view .LVU343
ARM GAS   			page 32


 992              	 .loc 1 643 3 view .LVU344
 993              	 .loc 1 643 3 view .LVU345
 994 0008 1ED0     	 beq .L90
 995              	 .loc 1 643 3 discriminator 2 view .LVU346
 630:Drivers/STM32G4xx_HAL_Driver/Src/stm32g4xx_hal_dac_ex.c ****   HAL_StatusTypeDef status = HAL_OK;
 996              	 .loc 1 630 1 is_stmt 0 view .LVU347
 997 000a 10B4     	 push {r4}
 998              	 .cfi_def_cfa_offset 4
 999              	 .cfi_offset 4,-4
 644:Drivers/STM32G4xx_HAL_Driver/Src/stm32g4xx_hal_dac_ex.c **** 
 645:Drivers/STM32G4xx_HAL_Driver/Src/stm32g4xx_hal_dac_ex.c ****   if (((hdac->Instance->STMODR >> (Channel & 0x10UL)) & DAC_STMODR_STRSTTRIGSEL1) == 0UL /* SW TRIG
 1000              	 .loc 1 645 13 view .LVU348
 1001 000c 0468     	 ldr r4,[r0]
 643:Drivers/STM32G4xx_HAL_Driver/Src/stm32g4xx_hal_dac_ex.c **** 
 1002              	 .loc 1 643 3 discriminator 2 view .LVU349
 1003 000e 0120     	 movs r0,#1
 1004              	.LVL77:
 643:Drivers/STM32G4xx_HAL_Driver/Src/stm32g4xx_hal_dac_ex.c **** 
 1005              	 .loc 1 643 3 discriminator 2 view .LVU350
 1006 0010 5871     	 strb r0,[r3,#5]
 643:Drivers/STM32G4xx_HAL_Driver/Src/stm32g4xx_hal_dac_ex.c **** 
 1007              	 .loc 1 643 3 is_stmt 1 discriminator 2 view .LVU351
 1008              	 .loc 1 645 3 view .LVU352
 1009              	 .loc 1 645 23 is_stmt 0 view .LVU353
 1010 0012 226E     	 ldr r2,[r4,#96]
 1011              	 .loc 1 645 44 view .LVU354
 1012 0014 01F0100C 	 and ip,r1,#16
 1013              	 .loc 1 645 32 view .LVU355
 1014 0018 22FA0CF2 	 lsr r2,r2,ip
 1015              	 .loc 1 645 6 view .LVU356
 1016 001c 1207     	 lsls r2,r2,#28
 1017 001e 09D1     	 bne .L86
 646:Drivers/STM32G4xx_HAL_Driver/Src/stm32g4xx_hal_dac_ex.c ****   {
 647:Drivers/STM32G4xx_HAL_Driver/Src/stm32g4xx_hal_dac_ex.c ****     /* Change DAC state */
 648:Drivers/STM32G4xx_HAL_Driver/Src/stm32g4xx_hal_dac_ex.c ****     hdac->State = HAL_DAC_STATE_BUSY;
 1018              	 .loc 1 648 5 is_stmt 1 view .LVU357
 1019              	 .loc 1 648 17 is_stmt 0 view .LVU358
 1020 0020 0222     	 movs r2,#2
 1021 0022 1A71     	 strb r2,[r3,#4]
 649:Drivers/STM32G4xx_HAL_Driver/Src/stm32g4xx_hal_dac_ex.c **** 
 650:Drivers/STM32G4xx_HAL_Driver/Src/stm32g4xx_hal_dac_ex.c ****     if (Channel == DAC_CHANNEL_1)
 1022              	 .loc 1 650 5 is_stmt 1 view .LVU359
 651:Drivers/STM32G4xx_HAL_Driver/Src/stm32g4xx_hal_dac_ex.c ****     {
 652:Drivers/STM32G4xx_HAL_Driver/Src/stm32g4xx_hal_dac_ex.c ****       /* Enable the selected DAC software conversion */
 653:Drivers/STM32G4xx_HAL_Driver/Src/stm32g4xx_hal_dac_ex.c ****       SET_BIT(hdac->Instance->SWTRIGR, DAC_SWTRIGR_SWTRIG1);
 1023              	 .loc 1 653 7 is_stmt 0 view .LVU360
 1024 0024 6268     	 ldr r2,[r4,#4]
 650:Drivers/STM32G4xx_HAL_Driver/Src/stm32g4xx_hal_dac_ex.c ****     {
 1025              	 .loc 1 650 8 view .LVU361
 1026 0026 51B1     	 cbz r1,.L96
 654:Drivers/STM32G4xx_HAL_Driver/Src/stm32g4xx_hal_dac_ex.c ****     }
 655:Drivers/STM32G4xx_HAL_Driver/Src/stm32g4xx_hal_dac_ex.c ****     else
 656:Drivers/STM32G4xx_HAL_Driver/Src/stm32g4xx_hal_dac_ex.c ****     {
 657:Drivers/STM32G4xx_HAL_Driver/Src/stm32g4xx_hal_dac_ex.c ****       /* Enable the selected DAC software conversion */
 658:Drivers/STM32G4xx_HAL_Driver/Src/stm32g4xx_hal_dac_ex.c ****       SET_BIT(hdac->Instance->SWTRIGR, DAC_SWTRIGR_SWTRIG2);
 1027              	 .loc 1 658 7 is_stmt 1 view .LVU362
 1028 0028 42F00202 	 orr r2,r2,#2
ARM GAS   			page 33


 1029 002c 6260     	 str r2,[r4,#4]
 1030              	.L88:
 659:Drivers/STM32G4xx_HAL_Driver/Src/stm32g4xx_hal_dac_ex.c ****     }
 660:Drivers/STM32G4xx_HAL_Driver/Src/stm32g4xx_hal_dac_ex.c **** 
 661:Drivers/STM32G4xx_HAL_Driver/Src/stm32g4xx_hal_dac_ex.c ****     /* Change DAC state */
 662:Drivers/STM32G4xx_HAL_Driver/Src/stm32g4xx_hal_dac_ex.c ****     hdac->State = HAL_DAC_STATE_READY;
 1031              	 .loc 1 662 5 view .LVU363
 1032              	 .loc 1 662 17 is_stmt 0 view .LVU364
 1033 002e 0122     	 movs r2,#1
 1034 0030 1A71     	 strb r2,[r3,#4]
 631:Drivers/STM32G4xx_HAL_Driver/Src/stm32g4xx_hal_dac_ex.c **** 
 1035              	 .loc 1 631 21 view .LVU365
 1036 0032 0020     	 movs r0,#0
 1037              	.L86:
 1038              	.LVL78:
 663:Drivers/STM32G4xx_HAL_Driver/Src/stm32g4xx_hal_dac_ex.c ****   }
 664:Drivers/STM32G4xx_HAL_Driver/Src/stm32g4xx_hal_dac_ex.c ****   else
 665:Drivers/STM32G4xx_HAL_Driver/Src/stm32g4xx_hal_dac_ex.c ****   {
 666:Drivers/STM32G4xx_HAL_Driver/Src/stm32g4xx_hal_dac_ex.c ****     status = HAL_ERROR;
 667:Drivers/STM32G4xx_HAL_Driver/Src/stm32g4xx_hal_dac_ex.c ****   }
 668:Drivers/STM32G4xx_HAL_Driver/Src/stm32g4xx_hal_dac_ex.c **** 
 669:Drivers/STM32G4xx_HAL_Driver/Src/stm32g4xx_hal_dac_ex.c ****   /* Process unlocked */
 670:Drivers/STM32G4xx_HAL_Driver/Src/stm32g4xx_hal_dac_ex.c ****   __HAL_UNLOCK(hdac);
 1039              	 .loc 1 670 3 is_stmt 1 view .LVU366
 1040              	 .loc 1 670 3 view .LVU367
 1041 0034 0022     	 movs r2,#0
 1042 0036 5A71     	 strb r2,[r3,#5]
 1043              	 .loc 1 670 3 view .LVU368
 671:Drivers/STM32G4xx_HAL_Driver/Src/stm32g4xx_hal_dac_ex.c **** 
 672:Drivers/STM32G4xx_HAL_Driver/Src/stm32g4xx_hal_dac_ex.c ****   /* Return function status */
 673:Drivers/STM32G4xx_HAL_Driver/Src/stm32g4xx_hal_dac_ex.c ****   return status;
 1044              	 .loc 1 673 3 view .LVU369
 674:Drivers/STM32G4xx_HAL_Driver/Src/stm32g4xx_hal_dac_ex.c **** }
 1045              	 .loc 1 674 1 is_stmt 0 view .LVU370
 1046 0038 5DF8044B 	 ldr r4,[sp],#4
 1047              	 .cfi_remember_state
 1048              	 .cfi_restore 4
 1049              	 .cfi_def_cfa_offset 0
 1050 003c 7047     	 bx lr
 1051              	.LVL79:
 1052              	.L96:
 1053              	 .cfi_restore_state
 653:Drivers/STM32G4xx_HAL_Driver/Src/stm32g4xx_hal_dac_ex.c ****     }
 1054              	 .loc 1 653 7 is_stmt 1 view .LVU371
 1055 003e 0243     	 orrs r2,r2,r0
 1056 0040 6260     	 str r2,[r4,#4]
 1057 0042 F4E7     	 b .L88
 1058              	.LVL80:
 1059              	.L89:
 1060              	 .cfi_def_cfa_offset 0
 1061              	 .cfi_restore 4
 636:Drivers/STM32G4xx_HAL_Driver/Src/stm32g4xx_hal_dac_ex.c ****   }
 1062              	 .loc 1 636 12 is_stmt 0 view .LVU372
 1063 0044 0120     	 movs r0,#1
 1064              	.LVL81:
 636:Drivers/STM32G4xx_HAL_Driver/Src/stm32g4xx_hal_dac_ex.c ****   }
 1065              	 .loc 1 636 12 view .LVU373
ARM GAS   			page 34


 1066 0046 7047     	 bx lr
 1067              	.LVL82:
 1068              	.L90:
 643:Drivers/STM32G4xx_HAL_Driver/Src/stm32g4xx_hal_dac_ex.c **** 
 1069              	 .loc 1 643 3 discriminator 1 view .LVU374
 1070 0048 0220     	 movs r0,#2
 1071              	.LVL83:
 1072              	 .loc 1 674 1 view .LVU375
 1073 004a 7047     	 bx lr
 1074              	 .cfi_endproc
 1075              	.LFE368:
 1077              	 .section .text.HAL_DACEx_SawtoothWaveDataStep,"ax",%progbits
 1078              	 .align 1
 1079              	 .p2align 2,,3
 1080              	 .global HAL_DACEx_SawtoothWaveDataStep
 1081              	 .syntax unified
 1082              	 .thumb
 1083              	 .thumb_func
 1085              	HAL_DACEx_SawtoothWaveDataStep:
 1086              	.LVL84:
 1087              	.LFB369:
 675:Drivers/STM32G4xx_HAL_Driver/Src/stm32g4xx_hal_dac_ex.c **** 
 676:Drivers/STM32G4xx_HAL_Driver/Src/stm32g4xx_hal_dac_ex.c **** /**
 677:Drivers/STM32G4xx_HAL_Driver/Src/stm32g4xx_hal_dac_ex.c ****   * @brief  Trig sawtooth wave step
 678:Drivers/STM32G4xx_HAL_Driver/Src/stm32g4xx_hal_dac_ex.c ****   * @note   This function allows to generate step  in sawtooth wave in case of
 679:Drivers/STM32G4xx_HAL_Driver/Src/stm32g4xx_hal_dac_ex.c ****   *         SW trigger has been configured for this usage.
 680:Drivers/STM32G4xx_HAL_Driver/Src/stm32g4xx_hal_dac_ex.c ****   * @param  hdac pointer to a DAC_HandleTypeDef structure that contains
 681:Drivers/STM32G4xx_HAL_Driver/Src/stm32g4xx_hal_dac_ex.c ****   *         the configuration information for the specified DAC.
 682:Drivers/STM32G4xx_HAL_Driver/Src/stm32g4xx_hal_dac_ex.c ****   * @param  Channel The selected DAC channel.
 683:Drivers/STM32G4xx_HAL_Driver/Src/stm32g4xx_hal_dac_ex.c ****   *          This parameter can be one of the following values:
 684:Drivers/STM32G4xx_HAL_Driver/Src/stm32g4xx_hal_dac_ex.c ****   *            @arg DAC_CHANNEL_1: DAC Channel1 selected
 685:Drivers/STM32G4xx_HAL_Driver/Src/stm32g4xx_hal_dac_ex.c ****   *            @arg DAC_CHANNEL_2: DAC Channel2 selected (1)
 686:Drivers/STM32G4xx_HAL_Driver/Src/stm32g4xx_hal_dac_ex.c ****   *
 687:Drivers/STM32G4xx_HAL_Driver/Src/stm32g4xx_hal_dac_ex.c ****   *         (1) On this STM32 series, parameter not available on all instances.
 688:Drivers/STM32G4xx_HAL_Driver/Src/stm32g4xx_hal_dac_ex.c ****   *             Refer to device datasheet for channels availability.
 689:Drivers/STM32G4xx_HAL_Driver/Src/stm32g4xx_hal_dac_ex.c ****   * @retval HAL status
 690:Drivers/STM32G4xx_HAL_Driver/Src/stm32g4xx_hal_dac_ex.c ****   */
 691:Drivers/STM32G4xx_HAL_Driver/Src/stm32g4xx_hal_dac_ex.c **** HAL_StatusTypeDef HAL_DACEx_SawtoothWaveDataStep(DAC_HandleTypeDef *hdac, uint32_t Channel)
 692:Drivers/STM32G4xx_HAL_Driver/Src/stm32g4xx_hal_dac_ex.c **** {
 1088              	 .loc 1 692 1 is_stmt 1 view-0
 1089              	 .cfi_startproc
 1090              	 
 1091              	 
 1092              	 
 693:Drivers/STM32G4xx_HAL_Driver/Src/stm32g4xx_hal_dac_ex.c ****   HAL_StatusTypeDef status = HAL_OK;
 1093              	 .loc 1 693 3 view .LVU377
 694:Drivers/STM32G4xx_HAL_Driver/Src/stm32g4xx_hal_dac_ex.c **** 
 695:Drivers/STM32G4xx_HAL_Driver/Src/stm32g4xx_hal_dac_ex.c ****   /* Check the DAC peripheral handle */
 696:Drivers/STM32G4xx_HAL_Driver/Src/stm32g4xx_hal_dac_ex.c ****   if (hdac == NULL)
 1094              	 .loc 1 696 3 view .LVU378
 1095              	 .loc 1 696 6 is_stmt 0 view .LVU379
 1096 0000 10B3     	 cbz r0,.L102
 697:Drivers/STM32G4xx_HAL_Driver/Src/stm32g4xx_hal_dac_ex.c ****   {
 698:Drivers/STM32G4xx_HAL_Driver/Src/stm32g4xx_hal_dac_ex.c ****     return HAL_ERROR;
 699:Drivers/STM32G4xx_HAL_Driver/Src/stm32g4xx_hal_dac_ex.c ****   }
 700:Drivers/STM32G4xx_HAL_Driver/Src/stm32g4xx_hal_dac_ex.c **** 
 701:Drivers/STM32G4xx_HAL_Driver/Src/stm32g4xx_hal_dac_ex.c ****   /* Check the parameters */
ARM GAS   			page 35


 702:Drivers/STM32G4xx_HAL_Driver/Src/stm32g4xx_hal_dac_ex.c ****   assert_param(IS_DAC_CHANNEL(hdac->Instance, Channel));
 703:Drivers/STM32G4xx_HAL_Driver/Src/stm32g4xx_hal_dac_ex.c **** 
 704:Drivers/STM32G4xx_HAL_Driver/Src/stm32g4xx_hal_dac_ex.c ****   /* Process locked */
 705:Drivers/STM32G4xx_HAL_Driver/Src/stm32g4xx_hal_dac_ex.c ****   __HAL_LOCK(hdac);
 1097              	 .loc 1 705 3 view .LVU380
 1098 0002 4279     	 ldrb r2,[r0,#5]
 1099 0004 012A     	 cmp r2,#1
 1100 0006 0346     	 mov r3,r0
 702:Drivers/STM32G4xx_HAL_Driver/Src/stm32g4xx_hal_dac_ex.c **** 
 1101              	 .loc 1 702 3 is_stmt 1 view .LVU381
 1102              	 .loc 1 705 3 view .LVU382
 1103              	 .loc 1 705 3 view .LVU383
 1104 0008 20D0     	 beq .L103
 1105              	 .loc 1 705 3 discriminator 2 view .LVU384
 692:Drivers/STM32G4xx_HAL_Driver/Src/stm32g4xx_hal_dac_ex.c ****   HAL_StatusTypeDef status = HAL_OK;
 1106              	 .loc 1 692 1 is_stmt 0 view .LVU385
 1107 000a 10B4     	 push {r4}
 1108              	 .cfi_def_cfa_offset 4
 1109              	 .cfi_offset 4,-4
 706:Drivers/STM32G4xx_HAL_Driver/Src/stm32g4xx_hal_dac_ex.c **** 
 707:Drivers/STM32G4xx_HAL_Driver/Src/stm32g4xx_hal_dac_ex.c ****   if (((hdac->Instance->STMODR >> (Channel & 0x10UL)) & DAC_STMODR_STINCTRIGSEL1) == 0UL /* SW TRIG
 1110              	 .loc 1 707 13 view .LVU386
 1111 000c 0468     	 ldr r4,[r0]
 705:Drivers/STM32G4xx_HAL_Driver/Src/stm32g4xx_hal_dac_ex.c **** 
 1112              	 .loc 1 705 3 discriminator 2 view .LVU387
 1113 000e 0120     	 movs r0,#1
 1114              	.LVL85:
 705:Drivers/STM32G4xx_HAL_Driver/Src/stm32g4xx_hal_dac_ex.c **** 
 1115              	 .loc 1 705 3 discriminator 2 view .LVU388
 1116 0010 5871     	 strb r0,[r3,#5]
 705:Drivers/STM32G4xx_HAL_Driver/Src/stm32g4xx_hal_dac_ex.c **** 
 1117              	 .loc 1 705 3 is_stmt 1 discriminator 2 view .LVU389
 1118              	 .loc 1 707 3 view .LVU390
 1119              	 .loc 1 707 23 is_stmt 0 view .LVU391
 1120 0012 226E     	 ldr r2,[r4,#96]
 1121              	 .loc 1 707 44 view .LVU392
 1122 0014 01F0100C 	 and ip,r1,#16
 1123              	 .loc 1 707 32 view .LVU393
 1124 0018 22FA0CF2 	 lsr r2,r2,ip
 1125              	 .loc 1 707 6 view .LVU394
 1126 001c 12F4706F 	 tst r2,#3840
 1127 0020 09D1     	 bne .L99
 708:Drivers/STM32G4xx_HAL_Driver/Src/stm32g4xx_hal_dac_ex.c ****   {
 709:Drivers/STM32G4xx_HAL_Driver/Src/stm32g4xx_hal_dac_ex.c ****     /* Change DAC state */
 710:Drivers/STM32G4xx_HAL_Driver/Src/stm32g4xx_hal_dac_ex.c ****     hdac->State = HAL_DAC_STATE_BUSY;
 1128              	 .loc 1 710 5 is_stmt 1 view .LVU395
 1129              	 .loc 1 710 17 is_stmt 0 view .LVU396
 1130 0022 0222     	 movs r2,#2
 1131 0024 1A71     	 strb r2,[r3,#4]
 711:Drivers/STM32G4xx_HAL_Driver/Src/stm32g4xx_hal_dac_ex.c **** 
 712:Drivers/STM32G4xx_HAL_Driver/Src/stm32g4xx_hal_dac_ex.c ****     if (Channel == DAC_CHANNEL_1)
 1132              	 .loc 1 712 5 is_stmt 1 view .LVU397
 713:Drivers/STM32G4xx_HAL_Driver/Src/stm32g4xx_hal_dac_ex.c ****     {
 714:Drivers/STM32G4xx_HAL_Driver/Src/stm32g4xx_hal_dac_ex.c ****       /* Enable the selected DAC software conversion */
 715:Drivers/STM32G4xx_HAL_Driver/Src/stm32g4xx_hal_dac_ex.c ****       SET_BIT(hdac->Instance->SWTRIGR, DAC_SWTRIGR_SWTRIGB1);
 1133              	 .loc 1 715 7 is_stmt 0 view .LVU398
 1134 0026 6268     	 ldr r2,[r4,#4]
ARM GAS   			page 36


 712:Drivers/STM32G4xx_HAL_Driver/Src/stm32g4xx_hal_dac_ex.c ****     {
 1135              	 .loc 1 712 8 view .LVU399
 1136 0028 51B1     	 cbz r1,.L109
 716:Drivers/STM32G4xx_HAL_Driver/Src/stm32g4xx_hal_dac_ex.c ****     }
 717:Drivers/STM32G4xx_HAL_Driver/Src/stm32g4xx_hal_dac_ex.c ****     else
 718:Drivers/STM32G4xx_HAL_Driver/Src/stm32g4xx_hal_dac_ex.c ****     {
 719:Drivers/STM32G4xx_HAL_Driver/Src/stm32g4xx_hal_dac_ex.c ****       /* Enable the selected DAC software conversion */
 720:Drivers/STM32G4xx_HAL_Driver/Src/stm32g4xx_hal_dac_ex.c ****       SET_BIT(hdac->Instance->SWTRIGR, DAC_SWTRIGR_SWTRIGB2);
 1137              	 .loc 1 720 7 is_stmt 1 view .LVU400
 1138 002a 42F40032 	 orr r2,r2,#131072
 1139 002e 6260     	 str r2,[r4,#4]
 1140              	.L101:
 721:Drivers/STM32G4xx_HAL_Driver/Src/stm32g4xx_hal_dac_ex.c ****     }
 722:Drivers/STM32G4xx_HAL_Driver/Src/stm32g4xx_hal_dac_ex.c **** 
 723:Drivers/STM32G4xx_HAL_Driver/Src/stm32g4xx_hal_dac_ex.c ****     /* Change DAC state */
 724:Drivers/STM32G4xx_HAL_Driver/Src/stm32g4xx_hal_dac_ex.c ****     hdac->State = HAL_DAC_STATE_READY;
 1141              	 .loc 1 724 5 view .LVU401
 1142              	 .loc 1 724 17 is_stmt 0 view .LVU402
 1143 0030 0122     	 movs r2,#1
 1144 0032 1A71     	 strb r2,[r3,#4]
 693:Drivers/STM32G4xx_HAL_Driver/Src/stm32g4xx_hal_dac_ex.c **** 
 1145              	 .loc 1 693 21 view .LVU403
 1146 0034 0020     	 movs r0,#0
 1147              	.L99:
 1148              	.LVL86:
 725:Drivers/STM32G4xx_HAL_Driver/Src/stm32g4xx_hal_dac_ex.c ****   }
 726:Drivers/STM32G4xx_HAL_Driver/Src/stm32g4xx_hal_dac_ex.c ****   else
 727:Drivers/STM32G4xx_HAL_Driver/Src/stm32g4xx_hal_dac_ex.c ****   {
 728:Drivers/STM32G4xx_HAL_Driver/Src/stm32g4xx_hal_dac_ex.c ****     status = HAL_ERROR;
 729:Drivers/STM32G4xx_HAL_Driver/Src/stm32g4xx_hal_dac_ex.c ****   }
 730:Drivers/STM32G4xx_HAL_Driver/Src/stm32g4xx_hal_dac_ex.c **** 
 731:Drivers/STM32G4xx_HAL_Driver/Src/stm32g4xx_hal_dac_ex.c ****   /* Process unlocked */
 732:Drivers/STM32G4xx_HAL_Driver/Src/stm32g4xx_hal_dac_ex.c ****   __HAL_UNLOCK(hdac);
 1149              	 .loc 1 732 3 is_stmt 1 view .LVU404
 1150              	 .loc 1 732 3 view .LVU405
 1151 0036 0022     	 movs r2,#0
 1152 0038 5A71     	 strb r2,[r3,#5]
 1153              	 .loc 1 732 3 view .LVU406
 733:Drivers/STM32G4xx_HAL_Driver/Src/stm32g4xx_hal_dac_ex.c **** 
 734:Drivers/STM32G4xx_HAL_Driver/Src/stm32g4xx_hal_dac_ex.c ****   /* Return function status */
 735:Drivers/STM32G4xx_HAL_Driver/Src/stm32g4xx_hal_dac_ex.c ****   return status;
 1154              	 .loc 1 735 3 view .LVU407
 736:Drivers/STM32G4xx_HAL_Driver/Src/stm32g4xx_hal_dac_ex.c **** }
 1155              	 .loc 1 736 1 is_stmt 0 view .LVU408
 1156 003a 5DF8044B 	 ldr r4,[sp],#4
 1157              	 .cfi_remember_state
 1158              	 .cfi_restore 4
 1159              	 .cfi_def_cfa_offset 0
 1160 003e 7047     	 bx lr
 1161              	.LVL87:
 1162              	.L109:
 1163              	 .cfi_restore_state
 715:Drivers/STM32G4xx_HAL_Driver/Src/stm32g4xx_hal_dac_ex.c ****     }
 1164              	 .loc 1 715 7 is_stmt 1 view .LVU409
 1165 0040 42F48032 	 orr r2,r2,#65536
 1166 0044 6260     	 str r2,[r4,#4]
 1167 0046 F3E7     	 b .L101
ARM GAS   			page 37


 1168              	.LVL88:
 1169              	.L102:
 1170              	 .cfi_def_cfa_offset 0
 1171              	 .cfi_restore 4
 698:Drivers/STM32G4xx_HAL_Driver/Src/stm32g4xx_hal_dac_ex.c ****   }
 1172              	 .loc 1 698 12 is_stmt 0 view .LVU410
 1173 0048 0120     	 movs r0,#1
 1174              	.LVL89:
 698:Drivers/STM32G4xx_HAL_Driver/Src/stm32g4xx_hal_dac_ex.c ****   }
 1175              	 .loc 1 698 12 view .LVU411
 1176 004a 7047     	 bx lr
 1177              	.LVL90:
 1178              	.L103:
 705:Drivers/STM32G4xx_HAL_Driver/Src/stm32g4xx_hal_dac_ex.c **** 
 1179              	 .loc 1 705 3 discriminator 1 view .LVU412
 1180 004c 0220     	 movs r0,#2
 1181              	.LVL91:
 1182              	 .loc 1 736 1 view .LVU413
 1183 004e 7047     	 bx lr
 1184              	 .cfi_endproc
 1185              	.LFE369:
 1187              	 .section .text.HAL_DACEx_DualSetValue,"ax",%progbits
 1188              	 .align 1
 1189              	 .p2align 2,,3
 1190              	 .global HAL_DACEx_DualSetValue
 1191              	 .syntax unified
 1192              	 .thumb
 1193              	 .thumb_func
 1195              	HAL_DACEx_DualSetValue:
 1196              	.LVL92:
 1197              	.LFB370:
 737:Drivers/STM32G4xx_HAL_Driver/Src/stm32g4xx_hal_dac_ex.c **** 
 738:Drivers/STM32G4xx_HAL_Driver/Src/stm32g4xx_hal_dac_ex.c **** 
 739:Drivers/STM32G4xx_HAL_Driver/Src/stm32g4xx_hal_dac_ex.c **** /**
 740:Drivers/STM32G4xx_HAL_Driver/Src/stm32g4xx_hal_dac_ex.c ****   * @brief  Set the specified data holding register value for dual DAC channel.
 741:Drivers/STM32G4xx_HAL_Driver/Src/stm32g4xx_hal_dac_ex.c ****   * @param  hdac pointer to a DAC_HandleTypeDef structure that contains
 742:Drivers/STM32G4xx_HAL_Driver/Src/stm32g4xx_hal_dac_ex.c ****   *               the configuration information for the specified DAC.
 743:Drivers/STM32G4xx_HAL_Driver/Src/stm32g4xx_hal_dac_ex.c ****   * @param  Alignment Specifies the data alignment for dual channel DAC.
 744:Drivers/STM32G4xx_HAL_Driver/Src/stm32g4xx_hal_dac_ex.c ****   *          This parameter can be one of the following values:
 745:Drivers/STM32G4xx_HAL_Driver/Src/stm32g4xx_hal_dac_ex.c ****   *            DAC_ALIGN_8B_R: 8bit right data alignment selected
 746:Drivers/STM32G4xx_HAL_Driver/Src/stm32g4xx_hal_dac_ex.c ****   *            DAC_ALIGN_12B_L: 12bit left data alignment selected
 747:Drivers/STM32G4xx_HAL_Driver/Src/stm32g4xx_hal_dac_ex.c ****   *            DAC_ALIGN_12B_R: 12bit right data alignment selected
 748:Drivers/STM32G4xx_HAL_Driver/Src/stm32g4xx_hal_dac_ex.c ****   * @param  Data1 Data for DAC Channel1 to be loaded in the selected data holding register.
 749:Drivers/STM32G4xx_HAL_Driver/Src/stm32g4xx_hal_dac_ex.c ****   * @param  Data2 Data for DAC Channel2 to be loaded in the selected data  holding register.
 750:Drivers/STM32G4xx_HAL_Driver/Src/stm32g4xx_hal_dac_ex.c ****   * @note   In dual mode, a unique register access is required to write in both
 751:Drivers/STM32G4xx_HAL_Driver/Src/stm32g4xx_hal_dac_ex.c ****   *          DAC channels at the same time.
 752:Drivers/STM32G4xx_HAL_Driver/Src/stm32g4xx_hal_dac_ex.c ****   * @retval HAL status
 753:Drivers/STM32G4xx_HAL_Driver/Src/stm32g4xx_hal_dac_ex.c ****   */
 754:Drivers/STM32G4xx_HAL_Driver/Src/stm32g4xx_hal_dac_ex.c **** HAL_StatusTypeDef HAL_DACEx_DualSetValue(DAC_HandleTypeDef *hdac, uint32_t Alignment, uint32_t Data
 755:Drivers/STM32G4xx_HAL_Driver/Src/stm32g4xx_hal_dac_ex.c **** {
 1198              	 .loc 1 755 1 is_stmt 1 view-0
 1199              	 .cfi_startproc
 1200              	 
 1201              	 
 1202              	 
 756:Drivers/STM32G4xx_HAL_Driver/Src/stm32g4xx_hal_dac_ex.c ****   uint32_t data;
 1203              	 .loc 1 756 3 view .LVU415
ARM GAS   			page 38


 757:Drivers/STM32G4xx_HAL_Driver/Src/stm32g4xx_hal_dac_ex.c ****   uint32_t tmp;
 1204              	 .loc 1 757 3 view .LVU416
 758:Drivers/STM32G4xx_HAL_Driver/Src/stm32g4xx_hal_dac_ex.c **** 
 759:Drivers/STM32G4xx_HAL_Driver/Src/stm32g4xx_hal_dac_ex.c ****   /* Check the DAC peripheral handle */
 760:Drivers/STM32G4xx_HAL_Driver/Src/stm32g4xx_hal_dac_ex.c ****   if (hdac == NULL)
 1205              	 .loc 1 760 3 view .LVU417
 1206              	 .loc 1 760 6 is_stmt 0 view .LVU418
 1207 0000 50B1     	 cbz r0,.L114
 761:Drivers/STM32G4xx_HAL_Driver/Src/stm32g4xx_hal_dac_ex.c ****   {
 762:Drivers/STM32G4xx_HAL_Driver/Src/stm32g4xx_hal_dac_ex.c ****     return HAL_ERROR;
 763:Drivers/STM32G4xx_HAL_Driver/Src/stm32g4xx_hal_dac_ex.c ****   }
 764:Drivers/STM32G4xx_HAL_Driver/Src/stm32g4xx_hal_dac_ex.c **** 
 765:Drivers/STM32G4xx_HAL_Driver/Src/stm32g4xx_hal_dac_ex.c ****   /* Check the parameters */
 766:Drivers/STM32G4xx_HAL_Driver/Src/stm32g4xx_hal_dac_ex.c ****   assert_param(IS_DAC_ALIGN(Alignment));
 1208              	 .loc 1 766 3 is_stmt 1 view .LVU419
 767:Drivers/STM32G4xx_HAL_Driver/Src/stm32g4xx_hal_dac_ex.c ****   assert_param(IS_DAC_DATA(Data1));
 1209              	 .loc 1 767 3 view .LVU420
 768:Drivers/STM32G4xx_HAL_Driver/Src/stm32g4xx_hal_dac_ex.c ****   assert_param(IS_DAC_DATA(Data2));
 1210              	 .loc 1 768 3 view .LVU421
 769:Drivers/STM32G4xx_HAL_Driver/Src/stm32g4xx_hal_dac_ex.c **** 
 770:Drivers/STM32G4xx_HAL_Driver/Src/stm32g4xx_hal_dac_ex.c ****   /* Calculate and set dual DAC data holding register value */
 771:Drivers/STM32G4xx_HAL_Driver/Src/stm32g4xx_hal_dac_ex.c ****   if (Alignment == DAC_ALIGN_8B_R)
 1211              	 .loc 1 771 3 view .LVU422
 772:Drivers/STM32G4xx_HAL_Driver/Src/stm32g4xx_hal_dac_ex.c ****   {
 773:Drivers/STM32G4xx_HAL_Driver/Src/stm32g4xx_hal_dac_ex.c ****     data = ((uint32_t)Data2 << 8U) | Data1;
 1212              	 .loc 1 773 5 view .LVU423
 771:Drivers/STM32G4xx_HAL_Driver/Src/stm32g4xx_hal_dac_ex.c ****   {
 1213              	 .loc 1 771 6 is_stmt 0 view .LVU424
 1214 0002 0829     	 cmp r1,#8
 1215              	 .loc 1 773 10 view .LVU425
 1216 0004 0CBF     	 ite eq
 1217 0006 42EA0322 	 orreq r2,r2,r3,lsl#8
 1218              	.LVL93:
 774:Drivers/STM32G4xx_HAL_Driver/Src/stm32g4xx_hal_dac_ex.c ****   }
 775:Drivers/STM32G4xx_HAL_Driver/Src/stm32g4xx_hal_dac_ex.c ****   else
 776:Drivers/STM32G4xx_HAL_Driver/Src/stm32g4xx_hal_dac_ex.c ****   {
 777:Drivers/STM32G4xx_HAL_Driver/Src/stm32g4xx_hal_dac_ex.c ****     data = ((uint32_t)Data2 << 16U) | Data1;
 1219              	 .loc 1 777 5 is_stmt 1 view .LVU426
 1220              	 .loc 1 777 10 is_stmt 0 view .LVU427
 1221 000a 42EA0342 	 orrne r2,r2,r3,lsl#16
 1222              	.LVL94:
 778:Drivers/STM32G4xx_HAL_Driver/Src/stm32g4xx_hal_dac_ex.c ****   }
 779:Drivers/STM32G4xx_HAL_Driver/Src/stm32g4xx_hal_dac_ex.c **** 
 780:Drivers/STM32G4xx_HAL_Driver/Src/stm32g4xx_hal_dac_ex.c ****   tmp = (uint32_t)hdac->Instance;
 1223              	 .loc 1 780 3 is_stmt 1 view .LVU428
 781:Drivers/STM32G4xx_HAL_Driver/Src/stm32g4xx_hal_dac_ex.c ****   tmp += DAC_DHR12RD_ALIGNMENT(Alignment);
 1224              	 .loc 1 781 7 is_stmt 0 view .LVU429
 1225 000e 2031     	 adds r1,r1,#32
 1226              	.LVL95:
 780:Drivers/STM32G4xx_HAL_Driver/Src/stm32g4xx_hal_dac_ex.c ****   tmp += DAC_DHR12RD_ALIGNMENT(Alignment);
 1227              	 .loc 1 780 7 view .LVU430
 1228 0010 0368     	 ldr r3,[r0]
 1229              	.LVL96:
 1230              	 .loc 1 781 3 is_stmt 1 view .LVU431
 782:Drivers/STM32G4xx_HAL_Driver/Src/stm32g4xx_hal_dac_ex.c **** 
 783:Drivers/STM32G4xx_HAL_Driver/Src/stm32g4xx_hal_dac_ex.c ****   /* Set the dual DAC selected data holding register */
 784:Drivers/STM32G4xx_HAL_Driver/Src/stm32g4xx_hal_dac_ex.c ****   *(__IO uint32_t *)tmp = data;
ARM GAS   			page 39


 1231              	 .loc 1 784 3 view .LVU432
 785:Drivers/STM32G4xx_HAL_Driver/Src/stm32g4xx_hal_dac_ex.c **** 
 786:Drivers/STM32G4xx_HAL_Driver/Src/stm32g4xx_hal_dac_ex.c ****   /* Return function status */
 787:Drivers/STM32G4xx_HAL_Driver/Src/stm32g4xx_hal_dac_ex.c ****   return HAL_OK;
 1232              	 .loc 1 787 10 is_stmt 0 view .LVU433
 1233 0012 0020     	 movs r0,#0
 1234              	.LVL97:
 784:Drivers/STM32G4xx_HAL_Driver/Src/stm32g4xx_hal_dac_ex.c **** 
 1235              	 .loc 1 784 25 view .LVU434
 1236 0014 CA50     	 str r2,[r1,r3]
 1237              	 .loc 1 787 3 is_stmt 1 view .LVU435
 1238              	 .loc 1 787 10 is_stmt 0 view .LVU436
 1239 0016 7047     	 bx lr
 1240              	.LVL98:
 1241              	.L114:
 762:Drivers/STM32G4xx_HAL_Driver/Src/stm32g4xx_hal_dac_ex.c ****   }
 1242              	 .loc 1 762 12 view .LVU437
 1243 0018 0120     	 movs r0,#1
 1244              	.LVL99:
 788:Drivers/STM32G4xx_HAL_Driver/Src/stm32g4xx_hal_dac_ex.c **** }
 1245              	 .loc 1 788 1 view .LVU438
 1246 001a 7047     	 bx lr
 1247              	 .cfi_endproc
 1248              	.LFE370:
 1250              	 .section .text.HAL_DACEx_ConvCpltCallbackCh2,"ax",%progbits
 1251              	 .align 1
 1252              	 .p2align 2,,3
 1253              	 .weak HAL_DACEx_ConvCpltCallbackCh2
 1254              	 .syntax unified
 1255              	 .thumb
 1256              	 .thumb_func
 1258              	HAL_DACEx_ConvCpltCallbackCh2:
 1259              	.LVL100:
 1260              	.LFB371:
 789:Drivers/STM32G4xx_HAL_Driver/Src/stm32g4xx_hal_dac_ex.c **** 
 790:Drivers/STM32G4xx_HAL_Driver/Src/stm32g4xx_hal_dac_ex.c **** /**
 791:Drivers/STM32G4xx_HAL_Driver/Src/stm32g4xx_hal_dac_ex.c ****   * @brief  Conversion complete callback in non-blocking mode for Channel2.
 792:Drivers/STM32G4xx_HAL_Driver/Src/stm32g4xx_hal_dac_ex.c ****   * @param  hdac pointer to a DAC_HandleTypeDef structure that contains
 793:Drivers/STM32G4xx_HAL_Driver/Src/stm32g4xx_hal_dac_ex.c ****   *         the configuration information for the specified DAC.
 794:Drivers/STM32G4xx_HAL_Driver/Src/stm32g4xx_hal_dac_ex.c ****   * @retval None
 795:Drivers/STM32G4xx_HAL_Driver/Src/stm32g4xx_hal_dac_ex.c ****   */
 796:Drivers/STM32G4xx_HAL_Driver/Src/stm32g4xx_hal_dac_ex.c **** __weak void HAL_DACEx_ConvCpltCallbackCh2(DAC_HandleTypeDef *hdac)
 797:Drivers/STM32G4xx_HAL_Driver/Src/stm32g4xx_hal_dac_ex.c **** {
 1261              	 .loc 1 797 1 is_stmt 1 view-0
 1262              	 .cfi_startproc
 1263              	 
 1264              	 
 1265              	 
 798:Drivers/STM32G4xx_HAL_Driver/Src/stm32g4xx_hal_dac_ex.c ****   /* Prevent unused argument(s) compilation warning */
 799:Drivers/STM32G4xx_HAL_Driver/Src/stm32g4xx_hal_dac_ex.c ****   UNUSED(hdac);
 1266              	 .loc 1 799 3 view .LVU440
 800:Drivers/STM32G4xx_HAL_Driver/Src/stm32g4xx_hal_dac_ex.c **** 
 801:Drivers/STM32G4xx_HAL_Driver/Src/stm32g4xx_hal_dac_ex.c ****   /* NOTE : This function should not be modified, when the callback is needed,
 802:Drivers/STM32G4xx_HAL_Driver/Src/stm32g4xx_hal_dac_ex.c ****             the HAL_DACEx_ConvCpltCallbackCh2 could be implemented in the user file
 803:Drivers/STM32G4xx_HAL_Driver/Src/stm32g4xx_hal_dac_ex.c ****    */
 804:Drivers/STM32G4xx_HAL_Driver/Src/stm32g4xx_hal_dac_ex.c **** }
 1267              	 .loc 1 804 1 is_stmt 0 view .LVU441
ARM GAS   			page 40


 1268 0000 7047     	 bx lr
 1269              	 .cfi_endproc
 1270              	.LFE371:
 1272 0002 00BF     	 .section .text.DAC_DMAConvCpltCh2,"ax",%progbits
 1273              	 .align 1
 1274              	 .p2align 2,,3
 1275              	 .global DAC_DMAConvCpltCh2
 1276              	 .syntax unified
 1277              	 .thumb
 1278              	 .thumb_func
 1280              	DAC_DMAConvCpltCh2:
 1281              	.LVL101:
 1282              	.LFB379:
 805:Drivers/STM32G4xx_HAL_Driver/Src/stm32g4xx_hal_dac_ex.c **** 
 806:Drivers/STM32G4xx_HAL_Driver/Src/stm32g4xx_hal_dac_ex.c **** /**
 807:Drivers/STM32G4xx_HAL_Driver/Src/stm32g4xx_hal_dac_ex.c ****   * @brief  Conversion half DMA transfer callback in non-blocking mode for Channel2.
 808:Drivers/STM32G4xx_HAL_Driver/Src/stm32g4xx_hal_dac_ex.c ****   * @param  hdac pointer to a DAC_HandleTypeDef structure that contains
 809:Drivers/STM32G4xx_HAL_Driver/Src/stm32g4xx_hal_dac_ex.c ****   *         the configuration information for the specified DAC.
 810:Drivers/STM32G4xx_HAL_Driver/Src/stm32g4xx_hal_dac_ex.c ****   * @retval None
 811:Drivers/STM32G4xx_HAL_Driver/Src/stm32g4xx_hal_dac_ex.c ****   */
 812:Drivers/STM32G4xx_HAL_Driver/Src/stm32g4xx_hal_dac_ex.c **** __weak void HAL_DACEx_ConvHalfCpltCallbackCh2(DAC_HandleTypeDef *hdac)
 813:Drivers/STM32G4xx_HAL_Driver/Src/stm32g4xx_hal_dac_ex.c **** {
 814:Drivers/STM32G4xx_HAL_Driver/Src/stm32g4xx_hal_dac_ex.c ****   /* Prevent unused argument(s) compilation warning */
 815:Drivers/STM32G4xx_HAL_Driver/Src/stm32g4xx_hal_dac_ex.c ****   UNUSED(hdac);
 816:Drivers/STM32G4xx_HAL_Driver/Src/stm32g4xx_hal_dac_ex.c **** 
 817:Drivers/STM32G4xx_HAL_Driver/Src/stm32g4xx_hal_dac_ex.c ****   /* NOTE : This function should not be modified, when the callback is needed,
 818:Drivers/STM32G4xx_HAL_Driver/Src/stm32g4xx_hal_dac_ex.c ****             the HAL_DACEx_ConvHalfCpltCallbackCh2 could be implemented in the user file
 819:Drivers/STM32G4xx_HAL_Driver/Src/stm32g4xx_hal_dac_ex.c ****    */
 820:Drivers/STM32G4xx_HAL_Driver/Src/stm32g4xx_hal_dac_ex.c **** }
 821:Drivers/STM32G4xx_HAL_Driver/Src/stm32g4xx_hal_dac_ex.c **** 
 822:Drivers/STM32G4xx_HAL_Driver/Src/stm32g4xx_hal_dac_ex.c **** /**
 823:Drivers/STM32G4xx_HAL_Driver/Src/stm32g4xx_hal_dac_ex.c ****   * @brief  Error DAC callback for Channel2.
 824:Drivers/STM32G4xx_HAL_Driver/Src/stm32g4xx_hal_dac_ex.c ****   * @param  hdac pointer to a DAC_HandleTypeDef structure that contains
 825:Drivers/STM32G4xx_HAL_Driver/Src/stm32g4xx_hal_dac_ex.c ****   *         the configuration information for the specified DAC.
 826:Drivers/STM32G4xx_HAL_Driver/Src/stm32g4xx_hal_dac_ex.c ****   * @retval None
 827:Drivers/STM32G4xx_HAL_Driver/Src/stm32g4xx_hal_dac_ex.c ****   */
 828:Drivers/STM32G4xx_HAL_Driver/Src/stm32g4xx_hal_dac_ex.c **** __weak void HAL_DACEx_ErrorCallbackCh2(DAC_HandleTypeDef *hdac)
 829:Drivers/STM32G4xx_HAL_Driver/Src/stm32g4xx_hal_dac_ex.c **** {
 830:Drivers/STM32G4xx_HAL_Driver/Src/stm32g4xx_hal_dac_ex.c ****   /* Prevent unused argument(s) compilation warning */
 831:Drivers/STM32G4xx_HAL_Driver/Src/stm32g4xx_hal_dac_ex.c ****   UNUSED(hdac);
 832:Drivers/STM32G4xx_HAL_Driver/Src/stm32g4xx_hal_dac_ex.c **** 
 833:Drivers/STM32G4xx_HAL_Driver/Src/stm32g4xx_hal_dac_ex.c ****   /* NOTE : This function should not be modified, when the callback is needed,
 834:Drivers/STM32G4xx_HAL_Driver/Src/stm32g4xx_hal_dac_ex.c ****             the HAL_DACEx_ErrorCallbackCh2 could be implemented in the user file
 835:Drivers/STM32G4xx_HAL_Driver/Src/stm32g4xx_hal_dac_ex.c ****    */
 836:Drivers/STM32G4xx_HAL_Driver/Src/stm32g4xx_hal_dac_ex.c **** }
 837:Drivers/STM32G4xx_HAL_Driver/Src/stm32g4xx_hal_dac_ex.c **** 
 838:Drivers/STM32G4xx_HAL_Driver/Src/stm32g4xx_hal_dac_ex.c **** /**
 839:Drivers/STM32G4xx_HAL_Driver/Src/stm32g4xx_hal_dac_ex.c ****   * @brief  DMA underrun DAC callback for Channel2.
 840:Drivers/STM32G4xx_HAL_Driver/Src/stm32g4xx_hal_dac_ex.c ****   * @param  hdac pointer to a DAC_HandleTypeDef structure that contains
 841:Drivers/STM32G4xx_HAL_Driver/Src/stm32g4xx_hal_dac_ex.c ****   *         the configuration information for the specified DAC.
 842:Drivers/STM32G4xx_HAL_Driver/Src/stm32g4xx_hal_dac_ex.c ****   * @retval None
 843:Drivers/STM32G4xx_HAL_Driver/Src/stm32g4xx_hal_dac_ex.c ****   */
 844:Drivers/STM32G4xx_HAL_Driver/Src/stm32g4xx_hal_dac_ex.c **** __weak void HAL_DACEx_DMAUnderrunCallbackCh2(DAC_HandleTypeDef *hdac)
 845:Drivers/STM32G4xx_HAL_Driver/Src/stm32g4xx_hal_dac_ex.c **** {
 846:Drivers/STM32G4xx_HAL_Driver/Src/stm32g4xx_hal_dac_ex.c ****   /* Prevent unused argument(s) compilation warning */
 847:Drivers/STM32G4xx_HAL_Driver/Src/stm32g4xx_hal_dac_ex.c ****   UNUSED(hdac);
 848:Drivers/STM32G4xx_HAL_Driver/Src/stm32g4xx_hal_dac_ex.c **** 
ARM GAS   			page 41


 849:Drivers/STM32G4xx_HAL_Driver/Src/stm32g4xx_hal_dac_ex.c ****   /* NOTE : This function should not be modified, when the callback is needed,
 850:Drivers/STM32G4xx_HAL_Driver/Src/stm32g4xx_hal_dac_ex.c ****             the HAL_DACEx_DMAUnderrunCallbackCh2 could be implemented in the user file
 851:Drivers/STM32G4xx_HAL_Driver/Src/stm32g4xx_hal_dac_ex.c ****    */
 852:Drivers/STM32G4xx_HAL_Driver/Src/stm32g4xx_hal_dac_ex.c **** }
 853:Drivers/STM32G4xx_HAL_Driver/Src/stm32g4xx_hal_dac_ex.c **** 
 854:Drivers/STM32G4xx_HAL_Driver/Src/stm32g4xx_hal_dac_ex.c **** 
 855:Drivers/STM32G4xx_HAL_Driver/Src/stm32g4xx_hal_dac_ex.c **** /**
 856:Drivers/STM32G4xx_HAL_Driver/Src/stm32g4xx_hal_dac_ex.c ****   * @brief  Run the self calibration of one DAC channel.
 857:Drivers/STM32G4xx_HAL_Driver/Src/stm32g4xx_hal_dac_ex.c ****   * @param  hdac pointer to a DAC_HandleTypeDef structure that contains
 858:Drivers/STM32G4xx_HAL_Driver/Src/stm32g4xx_hal_dac_ex.c ****   *         the configuration information for the specified DAC.
 859:Drivers/STM32G4xx_HAL_Driver/Src/stm32g4xx_hal_dac_ex.c ****   * @param  sConfig DAC channel configuration structure.
 860:Drivers/STM32G4xx_HAL_Driver/Src/stm32g4xx_hal_dac_ex.c ****   * @param  Channel The selected DAC channel.
 861:Drivers/STM32G4xx_HAL_Driver/Src/stm32g4xx_hal_dac_ex.c ****   *          This parameter can be one of the following values:
 862:Drivers/STM32G4xx_HAL_Driver/Src/stm32g4xx_hal_dac_ex.c ****   *            @arg DAC_CHANNEL_1: DAC Channel1 selected
 863:Drivers/STM32G4xx_HAL_Driver/Src/stm32g4xx_hal_dac_ex.c ****   *            @arg DAC_CHANNEL_2: DAC Channel2 selected (1)
 864:Drivers/STM32G4xx_HAL_Driver/Src/stm32g4xx_hal_dac_ex.c ****   *
 865:Drivers/STM32G4xx_HAL_Driver/Src/stm32g4xx_hal_dac_ex.c ****   *         (1) On this STM32 series, parameter not available on all instances.
 866:Drivers/STM32G4xx_HAL_Driver/Src/stm32g4xx_hal_dac_ex.c ****   *             Refer to device datasheet for channels availability.
 867:Drivers/STM32G4xx_HAL_Driver/Src/stm32g4xx_hal_dac_ex.c ****   * @retval Updates DAC_TrimmingValue. , DAC_UserTrimming set to DAC_UserTrimming
 868:Drivers/STM32G4xx_HAL_Driver/Src/stm32g4xx_hal_dac_ex.c ****   * @retval HAL status
 869:Drivers/STM32G4xx_HAL_Driver/Src/stm32g4xx_hal_dac_ex.c ****   * @note   Calibration runs about 7 ms.
 870:Drivers/STM32G4xx_HAL_Driver/Src/stm32g4xx_hal_dac_ex.c ****   */
 871:Drivers/STM32G4xx_HAL_Driver/Src/stm32g4xx_hal_dac_ex.c **** HAL_StatusTypeDef HAL_DACEx_SelfCalibrate(DAC_HandleTypeDef *hdac, DAC_ChannelConfTypeDef *sConfig,
 872:Drivers/STM32G4xx_HAL_Driver/Src/stm32g4xx_hal_dac_ex.c **** {
 873:Drivers/STM32G4xx_HAL_Driver/Src/stm32g4xx_hal_dac_ex.c ****   HAL_StatusTypeDef status = HAL_OK;
 874:Drivers/STM32G4xx_HAL_Driver/Src/stm32g4xx_hal_dac_ex.c **** 
 875:Drivers/STM32G4xx_HAL_Driver/Src/stm32g4xx_hal_dac_ex.c ****   uint32_t trimmingvalue;
 876:Drivers/STM32G4xx_HAL_Driver/Src/stm32g4xx_hal_dac_ex.c ****   uint32_t delta;
 877:Drivers/STM32G4xx_HAL_Driver/Src/stm32g4xx_hal_dac_ex.c ****   __IO uint32_t wait_loop_index;
 878:Drivers/STM32G4xx_HAL_Driver/Src/stm32g4xx_hal_dac_ex.c **** 
 879:Drivers/STM32G4xx_HAL_Driver/Src/stm32g4xx_hal_dac_ex.c ****   /* store/restore channel configuration structure purpose */
 880:Drivers/STM32G4xx_HAL_Driver/Src/stm32g4xx_hal_dac_ex.c ****   uint32_t oldmodeconfiguration;
 881:Drivers/STM32G4xx_HAL_Driver/Src/stm32g4xx_hal_dac_ex.c **** 
 882:Drivers/STM32G4xx_HAL_Driver/Src/stm32g4xx_hal_dac_ex.c ****   /* Check the parameters */
 883:Drivers/STM32G4xx_HAL_Driver/Src/stm32g4xx_hal_dac_ex.c ****   assert_param(IS_DAC_CHANNEL(hdac->Instance, Channel));
 884:Drivers/STM32G4xx_HAL_Driver/Src/stm32g4xx_hal_dac_ex.c **** 
 885:Drivers/STM32G4xx_HAL_Driver/Src/stm32g4xx_hal_dac_ex.c ****   /* Check the DAC handle allocation */
 886:Drivers/STM32G4xx_HAL_Driver/Src/stm32g4xx_hal_dac_ex.c ****   /* Check if DAC running */
 887:Drivers/STM32G4xx_HAL_Driver/Src/stm32g4xx_hal_dac_ex.c ****   if ((hdac == NULL) || (sConfig == NULL))
 888:Drivers/STM32G4xx_HAL_Driver/Src/stm32g4xx_hal_dac_ex.c ****   {
 889:Drivers/STM32G4xx_HAL_Driver/Src/stm32g4xx_hal_dac_ex.c ****     status = HAL_ERROR;
 890:Drivers/STM32G4xx_HAL_Driver/Src/stm32g4xx_hal_dac_ex.c ****   }
 891:Drivers/STM32G4xx_HAL_Driver/Src/stm32g4xx_hal_dac_ex.c ****   else if (hdac->State == HAL_DAC_STATE_BUSY)
 892:Drivers/STM32G4xx_HAL_Driver/Src/stm32g4xx_hal_dac_ex.c ****   {
 893:Drivers/STM32G4xx_HAL_Driver/Src/stm32g4xx_hal_dac_ex.c ****     status = HAL_ERROR;
 894:Drivers/STM32G4xx_HAL_Driver/Src/stm32g4xx_hal_dac_ex.c ****   }
 895:Drivers/STM32G4xx_HAL_Driver/Src/stm32g4xx_hal_dac_ex.c ****   else
 896:Drivers/STM32G4xx_HAL_Driver/Src/stm32g4xx_hal_dac_ex.c ****   {
 897:Drivers/STM32G4xx_HAL_Driver/Src/stm32g4xx_hal_dac_ex.c ****     /* Process locked */
 898:Drivers/STM32G4xx_HAL_Driver/Src/stm32g4xx_hal_dac_ex.c ****     __HAL_LOCK(hdac);
 899:Drivers/STM32G4xx_HAL_Driver/Src/stm32g4xx_hal_dac_ex.c **** 
 900:Drivers/STM32G4xx_HAL_Driver/Src/stm32g4xx_hal_dac_ex.c ****     /* Store configuration */
 901:Drivers/STM32G4xx_HAL_Driver/Src/stm32g4xx_hal_dac_ex.c ****     oldmodeconfiguration = (hdac->Instance->MCR & (DAC_MCR_MODE1 << (Channel & 0x10UL)));
 902:Drivers/STM32G4xx_HAL_Driver/Src/stm32g4xx_hal_dac_ex.c **** 
 903:Drivers/STM32G4xx_HAL_Driver/Src/stm32g4xx_hal_dac_ex.c ****     /* Disable the selected DAC channel */
 904:Drivers/STM32G4xx_HAL_Driver/Src/stm32g4xx_hal_dac_ex.c ****     CLEAR_BIT((hdac->Instance->CR), (DAC_CR_EN1 << (Channel & 0x10UL)));
 905:Drivers/STM32G4xx_HAL_Driver/Src/stm32g4xx_hal_dac_ex.c ****     /* Wait for ready bit to be de-asserted */
ARM GAS   			page 42


 906:Drivers/STM32G4xx_HAL_Driver/Src/stm32g4xx_hal_dac_ex.c ****     HAL_Delay(1);
 907:Drivers/STM32G4xx_HAL_Driver/Src/stm32g4xx_hal_dac_ex.c **** 
 908:Drivers/STM32G4xx_HAL_Driver/Src/stm32g4xx_hal_dac_ex.c ****     /* Set mode in MCR  for calibration */
 909:Drivers/STM32G4xx_HAL_Driver/Src/stm32g4xx_hal_dac_ex.c ****     MODIFY_REG(hdac->Instance->MCR, (DAC_MCR_MODE1 << (Channel & 0x10UL)), 0U);
 910:Drivers/STM32G4xx_HAL_Driver/Src/stm32g4xx_hal_dac_ex.c **** 
 911:Drivers/STM32G4xx_HAL_Driver/Src/stm32g4xx_hal_dac_ex.c ****     /* Enable the selected DAC channel calibration */
 912:Drivers/STM32G4xx_HAL_Driver/Src/stm32g4xx_hal_dac_ex.c ****     /* i.e. set DAC_CR_CENx bit */
 913:Drivers/STM32G4xx_HAL_Driver/Src/stm32g4xx_hal_dac_ex.c ****     SET_BIT((hdac->Instance->CR), (DAC_CR_CEN1 << (Channel & 0x10UL)));
 914:Drivers/STM32G4xx_HAL_Driver/Src/stm32g4xx_hal_dac_ex.c **** 
 915:Drivers/STM32G4xx_HAL_Driver/Src/stm32g4xx_hal_dac_ex.c ****     /* Init trimming counter */
 916:Drivers/STM32G4xx_HAL_Driver/Src/stm32g4xx_hal_dac_ex.c ****     /* Medium value */
 917:Drivers/STM32G4xx_HAL_Driver/Src/stm32g4xx_hal_dac_ex.c ****     trimmingvalue = 0x10UL;
 918:Drivers/STM32G4xx_HAL_Driver/Src/stm32g4xx_hal_dac_ex.c ****     delta = 0x08UL;
 919:Drivers/STM32G4xx_HAL_Driver/Src/stm32g4xx_hal_dac_ex.c ****     while (delta != 0UL)
 920:Drivers/STM32G4xx_HAL_Driver/Src/stm32g4xx_hal_dac_ex.c ****     {
 921:Drivers/STM32G4xx_HAL_Driver/Src/stm32g4xx_hal_dac_ex.c ****       /* Set candidate trimming */
 922:Drivers/STM32G4xx_HAL_Driver/Src/stm32g4xx_hal_dac_ex.c ****       MODIFY_REG(hdac->Instance->CCR, (DAC_CCR_OTRIM1 << (Channel & 0x10UL)), (trimmingvalue << (Ch
 923:Drivers/STM32G4xx_HAL_Driver/Src/stm32g4xx_hal_dac_ex.c **** 
 924:Drivers/STM32G4xx_HAL_Driver/Src/stm32g4xx_hal_dac_ex.c ****       /* Wait minimum time needed between two calibration steps (OTRIM) */
 925:Drivers/STM32G4xx_HAL_Driver/Src/stm32g4xx_hal_dac_ex.c ****       /* Wait loop initialization and execution */
 926:Drivers/STM32G4xx_HAL_Driver/Src/stm32g4xx_hal_dac_ex.c ****       /* Note: Variable divided by 2 to compensate partially CPU processing cycles, scaling in us s
 927:Drivers/STM32G4xx_HAL_Driver/Src/stm32g4xx_hal_dac_ex.c ****       /*       32 bits register capacity and handle low frequency. */
 928:Drivers/STM32G4xx_HAL_Driver/Src/stm32g4xx_hal_dac_ex.c ****       wait_loop_index = ((DAC_DELAY_TRIM_US / 10UL) * ((SystemCoreClock / (100000UL * 2UL)) + 1UL))
 929:Drivers/STM32G4xx_HAL_Driver/Src/stm32g4xx_hal_dac_ex.c ****       while (wait_loop_index != 0UL)
 930:Drivers/STM32G4xx_HAL_Driver/Src/stm32g4xx_hal_dac_ex.c ****       {
 931:Drivers/STM32G4xx_HAL_Driver/Src/stm32g4xx_hal_dac_ex.c ****         wait_loop_index--;
 932:Drivers/STM32G4xx_HAL_Driver/Src/stm32g4xx_hal_dac_ex.c ****       }
 933:Drivers/STM32G4xx_HAL_Driver/Src/stm32g4xx_hal_dac_ex.c **** 
 934:Drivers/STM32G4xx_HAL_Driver/Src/stm32g4xx_hal_dac_ex.c ****       if ((hdac->Instance->SR & (DAC_SR_CAL_FLAG1 << (Channel & 0x10UL))) == (DAC_SR_CAL_FLAG1 << (
 935:Drivers/STM32G4xx_HAL_Driver/Src/stm32g4xx_hal_dac_ex.c ****       {
 936:Drivers/STM32G4xx_HAL_Driver/Src/stm32g4xx_hal_dac_ex.c ****         /* DAC_SR_CAL_FLAGx is HIGH try higher trimming */
 937:Drivers/STM32G4xx_HAL_Driver/Src/stm32g4xx_hal_dac_ex.c ****         trimmingvalue -= delta;
 938:Drivers/STM32G4xx_HAL_Driver/Src/stm32g4xx_hal_dac_ex.c ****       }
 939:Drivers/STM32G4xx_HAL_Driver/Src/stm32g4xx_hal_dac_ex.c ****       else
 940:Drivers/STM32G4xx_HAL_Driver/Src/stm32g4xx_hal_dac_ex.c ****       {
 941:Drivers/STM32G4xx_HAL_Driver/Src/stm32g4xx_hal_dac_ex.c ****         /* DAC_SR_CAL_FLAGx is LOW try lower trimming */
 942:Drivers/STM32G4xx_HAL_Driver/Src/stm32g4xx_hal_dac_ex.c ****         trimmingvalue += delta;
 943:Drivers/STM32G4xx_HAL_Driver/Src/stm32g4xx_hal_dac_ex.c ****       }
 944:Drivers/STM32G4xx_HAL_Driver/Src/stm32g4xx_hal_dac_ex.c ****       delta >>= 1UL;
 945:Drivers/STM32G4xx_HAL_Driver/Src/stm32g4xx_hal_dac_ex.c ****     }
 946:Drivers/STM32G4xx_HAL_Driver/Src/stm32g4xx_hal_dac_ex.c **** 
 947:Drivers/STM32G4xx_HAL_Driver/Src/stm32g4xx_hal_dac_ex.c ****     /* Still need to check if right calibration is current value or one step below */
 948:Drivers/STM32G4xx_HAL_Driver/Src/stm32g4xx_hal_dac_ex.c ****     /* Indeed the first value that causes the DAC_SR_CAL_FLAGx bit to change from 0 to 1  */
 949:Drivers/STM32G4xx_HAL_Driver/Src/stm32g4xx_hal_dac_ex.c ****     /* Set candidate trimming */
 950:Drivers/STM32G4xx_HAL_Driver/Src/stm32g4xx_hal_dac_ex.c ****     MODIFY_REG(hdac->Instance->CCR, (DAC_CCR_OTRIM1 << (Channel & 0x10UL)), (trimmingvalue << (Chan
 951:Drivers/STM32G4xx_HAL_Driver/Src/stm32g4xx_hal_dac_ex.c **** 
 952:Drivers/STM32G4xx_HAL_Driver/Src/stm32g4xx_hal_dac_ex.c ****     /* Wait minimum time needed between two calibration steps (OTRIM) */
 953:Drivers/STM32G4xx_HAL_Driver/Src/stm32g4xx_hal_dac_ex.c ****     /* Wait loop initialization and execution */
 954:Drivers/STM32G4xx_HAL_Driver/Src/stm32g4xx_hal_dac_ex.c ****     /* Note: Variable divided by 2 to compensate partially CPU processing cycles, scaling in us spl
 955:Drivers/STM32G4xx_HAL_Driver/Src/stm32g4xx_hal_dac_ex.c ****     /*       32 bits register capacity and handle low frequency. */
 956:Drivers/STM32G4xx_HAL_Driver/Src/stm32g4xx_hal_dac_ex.c ****     wait_loop_index = ((DAC_DELAY_TRIM_US / 10UL) * ((SystemCoreClock / (100000UL * 2UL)) + 1UL));
 957:Drivers/STM32G4xx_HAL_Driver/Src/stm32g4xx_hal_dac_ex.c ****     while (wait_loop_index != 0UL)
 958:Drivers/STM32G4xx_HAL_Driver/Src/stm32g4xx_hal_dac_ex.c ****     {
 959:Drivers/STM32G4xx_HAL_Driver/Src/stm32g4xx_hal_dac_ex.c ****       wait_loop_index--;
 960:Drivers/STM32G4xx_HAL_Driver/Src/stm32g4xx_hal_dac_ex.c ****     }
 961:Drivers/STM32G4xx_HAL_Driver/Src/stm32g4xx_hal_dac_ex.c **** 
 962:Drivers/STM32G4xx_HAL_Driver/Src/stm32g4xx_hal_dac_ex.c ****     if ((hdac->Instance->SR & (DAC_SR_CAL_FLAG1 << (Channel & 0x10UL))) == 0UL)
ARM GAS   			page 43


 963:Drivers/STM32G4xx_HAL_Driver/Src/stm32g4xx_hal_dac_ex.c ****     {
 964:Drivers/STM32G4xx_HAL_Driver/Src/stm32g4xx_hal_dac_ex.c ****       /* Check trimming value below maximum */
 965:Drivers/STM32G4xx_HAL_Driver/Src/stm32g4xx_hal_dac_ex.c ****       if (trimmingvalue < 0x1FU)
 966:Drivers/STM32G4xx_HAL_Driver/Src/stm32g4xx_hal_dac_ex.c ****       {
 967:Drivers/STM32G4xx_HAL_Driver/Src/stm32g4xx_hal_dac_ex.c ****         /* Trimming is actually one value more */
 968:Drivers/STM32G4xx_HAL_Driver/Src/stm32g4xx_hal_dac_ex.c ****         trimmingvalue++;
 969:Drivers/STM32G4xx_HAL_Driver/Src/stm32g4xx_hal_dac_ex.c ****       }
 970:Drivers/STM32G4xx_HAL_Driver/Src/stm32g4xx_hal_dac_ex.c ****       /* Set right trimming */
 971:Drivers/STM32G4xx_HAL_Driver/Src/stm32g4xx_hal_dac_ex.c ****       MODIFY_REG(hdac->Instance->CCR, (DAC_CCR_OTRIM1 << (Channel & 0x10UL)), (trimmingvalue << (Ch
 972:Drivers/STM32G4xx_HAL_Driver/Src/stm32g4xx_hal_dac_ex.c ****     }
 973:Drivers/STM32G4xx_HAL_Driver/Src/stm32g4xx_hal_dac_ex.c **** 
 974:Drivers/STM32G4xx_HAL_Driver/Src/stm32g4xx_hal_dac_ex.c ****     /* Disable the selected DAC channel calibration */
 975:Drivers/STM32G4xx_HAL_Driver/Src/stm32g4xx_hal_dac_ex.c ****     /* i.e. clear DAC_CR_CENx bit */
 976:Drivers/STM32G4xx_HAL_Driver/Src/stm32g4xx_hal_dac_ex.c ****     CLEAR_BIT((hdac->Instance->CR), (DAC_CR_CEN1 << (Channel & 0x10UL)));
 977:Drivers/STM32G4xx_HAL_Driver/Src/stm32g4xx_hal_dac_ex.c **** 
 978:Drivers/STM32G4xx_HAL_Driver/Src/stm32g4xx_hal_dac_ex.c ****     sConfig->DAC_TrimmingValue = trimmingvalue;
 979:Drivers/STM32G4xx_HAL_Driver/Src/stm32g4xx_hal_dac_ex.c ****     sConfig->DAC_UserTrimming = DAC_TRIMMING_USER;
 980:Drivers/STM32G4xx_HAL_Driver/Src/stm32g4xx_hal_dac_ex.c **** 
 981:Drivers/STM32G4xx_HAL_Driver/Src/stm32g4xx_hal_dac_ex.c ****     /* Restore configuration */
 982:Drivers/STM32G4xx_HAL_Driver/Src/stm32g4xx_hal_dac_ex.c ****     MODIFY_REG(hdac->Instance->MCR, (DAC_MCR_MODE1 << (Channel & 0x10UL)), oldmodeconfiguration);
 983:Drivers/STM32G4xx_HAL_Driver/Src/stm32g4xx_hal_dac_ex.c **** 
 984:Drivers/STM32G4xx_HAL_Driver/Src/stm32g4xx_hal_dac_ex.c ****     /* Process unlocked */
 985:Drivers/STM32G4xx_HAL_Driver/Src/stm32g4xx_hal_dac_ex.c ****     __HAL_UNLOCK(hdac);
 986:Drivers/STM32G4xx_HAL_Driver/Src/stm32g4xx_hal_dac_ex.c ****   }
 987:Drivers/STM32G4xx_HAL_Driver/Src/stm32g4xx_hal_dac_ex.c **** 
 988:Drivers/STM32G4xx_HAL_Driver/Src/stm32g4xx_hal_dac_ex.c ****   return status;
 989:Drivers/STM32G4xx_HAL_Driver/Src/stm32g4xx_hal_dac_ex.c **** }
 990:Drivers/STM32G4xx_HAL_Driver/Src/stm32g4xx_hal_dac_ex.c **** 
 991:Drivers/STM32G4xx_HAL_Driver/Src/stm32g4xx_hal_dac_ex.c **** /**
 992:Drivers/STM32G4xx_HAL_Driver/Src/stm32g4xx_hal_dac_ex.c ****   * @brief  Set the trimming mode and trimming value (user trimming mode applied).
 993:Drivers/STM32G4xx_HAL_Driver/Src/stm32g4xx_hal_dac_ex.c ****   * @param  hdac pointer to a DAC_HandleTypeDef structure that contains
 994:Drivers/STM32G4xx_HAL_Driver/Src/stm32g4xx_hal_dac_ex.c ****   *         the configuration information for the specified DAC.
 995:Drivers/STM32G4xx_HAL_Driver/Src/stm32g4xx_hal_dac_ex.c ****   * @param  sConfig DAC configuration structure updated with new DAC trimming value.
 996:Drivers/STM32G4xx_HAL_Driver/Src/stm32g4xx_hal_dac_ex.c ****   * @param  Channel The selected DAC channel.
 997:Drivers/STM32G4xx_HAL_Driver/Src/stm32g4xx_hal_dac_ex.c ****   *          This parameter can be one of the following values:
 998:Drivers/STM32G4xx_HAL_Driver/Src/stm32g4xx_hal_dac_ex.c ****   *            @arg DAC_CHANNEL_1: DAC Channel1 selected
 999:Drivers/STM32G4xx_HAL_Driver/Src/stm32g4xx_hal_dac_ex.c ****   *            @arg DAC_CHANNEL_2: DAC Channel2 selected (1)
1000:Drivers/STM32G4xx_HAL_Driver/Src/stm32g4xx_hal_dac_ex.c ****   *
1001:Drivers/STM32G4xx_HAL_Driver/Src/stm32g4xx_hal_dac_ex.c ****   *         (1) On this STM32 series, parameter not available on all instances.
1002:Drivers/STM32G4xx_HAL_Driver/Src/stm32g4xx_hal_dac_ex.c ****   *             Refer to device datasheet for channels availability.
1003:Drivers/STM32G4xx_HAL_Driver/Src/stm32g4xx_hal_dac_ex.c ****   * @param  NewTrimmingValue DAC new trimming value
1004:Drivers/STM32G4xx_HAL_Driver/Src/stm32g4xx_hal_dac_ex.c ****   * @retval HAL status
1005:Drivers/STM32G4xx_HAL_Driver/Src/stm32g4xx_hal_dac_ex.c ****   */
1006:Drivers/STM32G4xx_HAL_Driver/Src/stm32g4xx_hal_dac_ex.c **** HAL_StatusTypeDef HAL_DACEx_SetUserTrimming(DAC_HandleTypeDef *hdac, DAC_ChannelConfTypeDef *sConfi
1007:Drivers/STM32G4xx_HAL_Driver/Src/stm32g4xx_hal_dac_ex.c ****                                             uint32_t NewTrimmingValue)
1008:Drivers/STM32G4xx_HAL_Driver/Src/stm32g4xx_hal_dac_ex.c **** {
1009:Drivers/STM32G4xx_HAL_Driver/Src/stm32g4xx_hal_dac_ex.c ****   HAL_StatusTypeDef status = HAL_OK;
1010:Drivers/STM32G4xx_HAL_Driver/Src/stm32g4xx_hal_dac_ex.c **** 
1011:Drivers/STM32G4xx_HAL_Driver/Src/stm32g4xx_hal_dac_ex.c ****   /* Check the parameters */
1012:Drivers/STM32G4xx_HAL_Driver/Src/stm32g4xx_hal_dac_ex.c ****   assert_param(IS_DAC_CHANNEL(hdac->Instance, Channel));
1013:Drivers/STM32G4xx_HAL_Driver/Src/stm32g4xx_hal_dac_ex.c ****   assert_param(IS_DAC_NEWTRIMMINGVALUE(NewTrimmingValue));
1014:Drivers/STM32G4xx_HAL_Driver/Src/stm32g4xx_hal_dac_ex.c **** 
1015:Drivers/STM32G4xx_HAL_Driver/Src/stm32g4xx_hal_dac_ex.c ****   /* Check the DAC handle and channel configuration struct allocation */
1016:Drivers/STM32G4xx_HAL_Driver/Src/stm32g4xx_hal_dac_ex.c ****   if ((hdac == NULL) || (sConfig == NULL))
1017:Drivers/STM32G4xx_HAL_Driver/Src/stm32g4xx_hal_dac_ex.c ****   {
1018:Drivers/STM32G4xx_HAL_Driver/Src/stm32g4xx_hal_dac_ex.c ****     status = HAL_ERROR;
1019:Drivers/STM32G4xx_HAL_Driver/Src/stm32g4xx_hal_dac_ex.c ****   }
ARM GAS   			page 44


1020:Drivers/STM32G4xx_HAL_Driver/Src/stm32g4xx_hal_dac_ex.c ****   else
1021:Drivers/STM32G4xx_HAL_Driver/Src/stm32g4xx_hal_dac_ex.c ****   {
1022:Drivers/STM32G4xx_HAL_Driver/Src/stm32g4xx_hal_dac_ex.c ****     /* Process locked */
1023:Drivers/STM32G4xx_HAL_Driver/Src/stm32g4xx_hal_dac_ex.c ****     __HAL_LOCK(hdac);
1024:Drivers/STM32G4xx_HAL_Driver/Src/stm32g4xx_hal_dac_ex.c **** 
1025:Drivers/STM32G4xx_HAL_Driver/Src/stm32g4xx_hal_dac_ex.c ****     /* Set new trimming */
1026:Drivers/STM32G4xx_HAL_Driver/Src/stm32g4xx_hal_dac_ex.c ****     MODIFY_REG(hdac->Instance->CCR, (DAC_CCR_OTRIM1 << (Channel & 0x10UL)), (NewTrimmingValue << (C
1027:Drivers/STM32G4xx_HAL_Driver/Src/stm32g4xx_hal_dac_ex.c **** 
1028:Drivers/STM32G4xx_HAL_Driver/Src/stm32g4xx_hal_dac_ex.c ****     /* Update trimming mode */
1029:Drivers/STM32G4xx_HAL_Driver/Src/stm32g4xx_hal_dac_ex.c ****     sConfig->DAC_UserTrimming = DAC_TRIMMING_USER;
1030:Drivers/STM32G4xx_HAL_Driver/Src/stm32g4xx_hal_dac_ex.c ****     sConfig->DAC_TrimmingValue = NewTrimmingValue;
1031:Drivers/STM32G4xx_HAL_Driver/Src/stm32g4xx_hal_dac_ex.c **** 
1032:Drivers/STM32G4xx_HAL_Driver/Src/stm32g4xx_hal_dac_ex.c ****     /* Process unlocked */
1033:Drivers/STM32G4xx_HAL_Driver/Src/stm32g4xx_hal_dac_ex.c ****     __HAL_UNLOCK(hdac);
1034:Drivers/STM32G4xx_HAL_Driver/Src/stm32g4xx_hal_dac_ex.c ****   }
1035:Drivers/STM32G4xx_HAL_Driver/Src/stm32g4xx_hal_dac_ex.c ****   return status;
1036:Drivers/STM32G4xx_HAL_Driver/Src/stm32g4xx_hal_dac_ex.c **** }
1037:Drivers/STM32G4xx_HAL_Driver/Src/stm32g4xx_hal_dac_ex.c **** 
1038:Drivers/STM32G4xx_HAL_Driver/Src/stm32g4xx_hal_dac_ex.c **** /**
1039:Drivers/STM32G4xx_HAL_Driver/Src/stm32g4xx_hal_dac_ex.c ****   * @brief  Return the DAC trimming value.
1040:Drivers/STM32G4xx_HAL_Driver/Src/stm32g4xx_hal_dac_ex.c ****   * @param  hdac DAC handle
1041:Drivers/STM32G4xx_HAL_Driver/Src/stm32g4xx_hal_dac_ex.c ****   * @param  Channel The selected DAC channel.
1042:Drivers/STM32G4xx_HAL_Driver/Src/stm32g4xx_hal_dac_ex.c ****   *          This parameter can be one of the following values:
1043:Drivers/STM32G4xx_HAL_Driver/Src/stm32g4xx_hal_dac_ex.c ****   *            @arg DAC_CHANNEL_1: DAC Channel1 selected
1044:Drivers/STM32G4xx_HAL_Driver/Src/stm32g4xx_hal_dac_ex.c ****   *            @arg DAC_CHANNEL_2: DAC Channel2 selected (1)
1045:Drivers/STM32G4xx_HAL_Driver/Src/stm32g4xx_hal_dac_ex.c ****   *
1046:Drivers/STM32G4xx_HAL_Driver/Src/stm32g4xx_hal_dac_ex.c ****   *         (1) On this STM32 series, parameter not available on all instances.
1047:Drivers/STM32G4xx_HAL_Driver/Src/stm32g4xx_hal_dac_ex.c ****   *             Refer to device datasheet for channels availability.
1048:Drivers/STM32G4xx_HAL_Driver/Src/stm32g4xx_hal_dac_ex.c ****   * @retval TrimmingValue Value between Min_Data=0x00 and Max_Data=0x1F
1049:Drivers/STM32G4xx_HAL_Driver/Src/stm32g4xx_hal_dac_ex.c ****  */
1050:Drivers/STM32G4xx_HAL_Driver/Src/stm32g4xx_hal_dac_ex.c **** uint32_t HAL_DACEx_GetTrimOffset(const DAC_HandleTypeDef *hdac, uint32_t Channel)
1051:Drivers/STM32G4xx_HAL_Driver/Src/stm32g4xx_hal_dac_ex.c **** {
1052:Drivers/STM32G4xx_HAL_Driver/Src/stm32g4xx_hal_dac_ex.c ****   /* Check the parameter */
1053:Drivers/STM32G4xx_HAL_Driver/Src/stm32g4xx_hal_dac_ex.c ****   assert_param(IS_DAC_CHANNEL(hdac->Instance, Channel));
1054:Drivers/STM32G4xx_HAL_Driver/Src/stm32g4xx_hal_dac_ex.c **** 
1055:Drivers/STM32G4xx_HAL_Driver/Src/stm32g4xx_hal_dac_ex.c ****   /* Retrieve trimming */
1056:Drivers/STM32G4xx_HAL_Driver/Src/stm32g4xx_hal_dac_ex.c ****   return ((hdac->Instance->CCR & (DAC_CCR_OTRIM1 << (Channel & 0x10UL))) >> (Channel & 0x10UL));
1057:Drivers/STM32G4xx_HAL_Driver/Src/stm32g4xx_hal_dac_ex.c **** }
1058:Drivers/STM32G4xx_HAL_Driver/Src/stm32g4xx_hal_dac_ex.c **** 
1059:Drivers/STM32G4xx_HAL_Driver/Src/stm32g4xx_hal_dac_ex.c **** /**
1060:Drivers/STM32G4xx_HAL_Driver/Src/stm32g4xx_hal_dac_ex.c ****   * @}
1061:Drivers/STM32G4xx_HAL_Driver/Src/stm32g4xx_hal_dac_ex.c ****   */
1062:Drivers/STM32G4xx_HAL_Driver/Src/stm32g4xx_hal_dac_ex.c **** 
1063:Drivers/STM32G4xx_HAL_Driver/Src/stm32g4xx_hal_dac_ex.c **** /** @defgroup DACEx_Exported_Functions_Group3 Peripheral Control functions
1064:Drivers/STM32G4xx_HAL_Driver/Src/stm32g4xx_hal_dac_ex.c ****   *  @brief    Extended Peripheral Control functions
1065:Drivers/STM32G4xx_HAL_Driver/Src/stm32g4xx_hal_dac_ex.c ****   *
1066:Drivers/STM32G4xx_HAL_Driver/Src/stm32g4xx_hal_dac_ex.c **** @verbatim
1067:Drivers/STM32G4xx_HAL_Driver/Src/stm32g4xx_hal_dac_ex.c ****   ==============================================================================
1068:Drivers/STM32G4xx_HAL_Driver/Src/stm32g4xx_hal_dac_ex.c ****              ##### Peripheral Control functions #####
1069:Drivers/STM32G4xx_HAL_Driver/Src/stm32g4xx_hal_dac_ex.c ****   ==============================================================================
1070:Drivers/STM32G4xx_HAL_Driver/Src/stm32g4xx_hal_dac_ex.c ****     [..]  This section provides functions allowing to:
1071:Drivers/STM32G4xx_HAL_Driver/Src/stm32g4xx_hal_dac_ex.c ****       (+) Set the specified data holding register value for DAC channel.
1072:Drivers/STM32G4xx_HAL_Driver/Src/stm32g4xx_hal_dac_ex.c **** 
1073:Drivers/STM32G4xx_HAL_Driver/Src/stm32g4xx_hal_dac_ex.c **** @endverbatim
1074:Drivers/STM32G4xx_HAL_Driver/Src/stm32g4xx_hal_dac_ex.c ****   * @{
1075:Drivers/STM32G4xx_HAL_Driver/Src/stm32g4xx_hal_dac_ex.c ****   */
1076:Drivers/STM32G4xx_HAL_Driver/Src/stm32g4xx_hal_dac_ex.c **** 
ARM GAS   			page 45


1077:Drivers/STM32G4xx_HAL_Driver/Src/stm32g4xx_hal_dac_ex.c **** 
1078:Drivers/STM32G4xx_HAL_Driver/Src/stm32g4xx_hal_dac_ex.c **** /**
1079:Drivers/STM32G4xx_HAL_Driver/Src/stm32g4xx_hal_dac_ex.c ****   * @brief  Return the last data output value of the selected DAC channel.
1080:Drivers/STM32G4xx_HAL_Driver/Src/stm32g4xx_hal_dac_ex.c ****   * @param  hdac pointer to a DAC_HandleTypeDef structure that contains
1081:Drivers/STM32G4xx_HAL_Driver/Src/stm32g4xx_hal_dac_ex.c ****   *         the configuration information for the specified DAC.
1082:Drivers/STM32G4xx_HAL_Driver/Src/stm32g4xx_hal_dac_ex.c ****   * @retval The selected DAC channel data output value.
1083:Drivers/STM32G4xx_HAL_Driver/Src/stm32g4xx_hal_dac_ex.c ****   */
1084:Drivers/STM32G4xx_HAL_Driver/Src/stm32g4xx_hal_dac_ex.c **** uint32_t HAL_DACEx_DualGetValue(const DAC_HandleTypeDef *hdac)
1085:Drivers/STM32G4xx_HAL_Driver/Src/stm32g4xx_hal_dac_ex.c **** {
1086:Drivers/STM32G4xx_HAL_Driver/Src/stm32g4xx_hal_dac_ex.c ****   uint32_t tmp = 0UL;
1087:Drivers/STM32G4xx_HAL_Driver/Src/stm32g4xx_hal_dac_ex.c **** 
1088:Drivers/STM32G4xx_HAL_Driver/Src/stm32g4xx_hal_dac_ex.c ****   tmp |= hdac->Instance->DOR1;
1089:Drivers/STM32G4xx_HAL_Driver/Src/stm32g4xx_hal_dac_ex.c **** 
1090:Drivers/STM32G4xx_HAL_Driver/Src/stm32g4xx_hal_dac_ex.c ****   tmp |= hdac->Instance->DOR2 << 16UL;
1091:Drivers/STM32G4xx_HAL_Driver/Src/stm32g4xx_hal_dac_ex.c **** 
1092:Drivers/STM32G4xx_HAL_Driver/Src/stm32g4xx_hal_dac_ex.c ****   /* Returns the DAC channel data output register value */
1093:Drivers/STM32G4xx_HAL_Driver/Src/stm32g4xx_hal_dac_ex.c ****   return tmp;
1094:Drivers/STM32G4xx_HAL_Driver/Src/stm32g4xx_hal_dac_ex.c **** }
1095:Drivers/STM32G4xx_HAL_Driver/Src/stm32g4xx_hal_dac_ex.c **** 
1096:Drivers/STM32G4xx_HAL_Driver/Src/stm32g4xx_hal_dac_ex.c **** 
1097:Drivers/STM32G4xx_HAL_Driver/Src/stm32g4xx_hal_dac_ex.c **** /**
1098:Drivers/STM32G4xx_HAL_Driver/Src/stm32g4xx_hal_dac_ex.c ****   * @}
1099:Drivers/STM32G4xx_HAL_Driver/Src/stm32g4xx_hal_dac_ex.c ****   */
1100:Drivers/STM32G4xx_HAL_Driver/Src/stm32g4xx_hal_dac_ex.c **** /**
1101:Drivers/STM32G4xx_HAL_Driver/Src/stm32g4xx_hal_dac_ex.c ****   * @}
1102:Drivers/STM32G4xx_HAL_Driver/Src/stm32g4xx_hal_dac_ex.c ****   */
1103:Drivers/STM32G4xx_HAL_Driver/Src/stm32g4xx_hal_dac_ex.c **** 
1104:Drivers/STM32G4xx_HAL_Driver/Src/stm32g4xx_hal_dac_ex.c **** /* Private functions ---------------------------------------------------------*/
1105:Drivers/STM32G4xx_HAL_Driver/Src/stm32g4xx_hal_dac_ex.c **** /** @defgroup DACEx_Private_Functions DACEx private functions
1106:Drivers/STM32G4xx_HAL_Driver/Src/stm32g4xx_hal_dac_ex.c ****   *  @brief    Extended private functions
1107:Drivers/STM32G4xx_HAL_Driver/Src/stm32g4xx_hal_dac_ex.c ****   * @{
1108:Drivers/STM32G4xx_HAL_Driver/Src/stm32g4xx_hal_dac_ex.c ****   */
1109:Drivers/STM32G4xx_HAL_Driver/Src/stm32g4xx_hal_dac_ex.c **** 
1110:Drivers/STM32G4xx_HAL_Driver/Src/stm32g4xx_hal_dac_ex.c **** 
1111:Drivers/STM32G4xx_HAL_Driver/Src/stm32g4xx_hal_dac_ex.c **** /**
1112:Drivers/STM32G4xx_HAL_Driver/Src/stm32g4xx_hal_dac_ex.c ****   * @brief  DMA conversion complete callback.
1113:Drivers/STM32G4xx_HAL_Driver/Src/stm32g4xx_hal_dac_ex.c ****   * @param  hdma pointer to a DMA_HandleTypeDef structure that contains
1114:Drivers/STM32G4xx_HAL_Driver/Src/stm32g4xx_hal_dac_ex.c ****   *                the configuration information for the specified DMA module.
1115:Drivers/STM32G4xx_HAL_Driver/Src/stm32g4xx_hal_dac_ex.c ****   * @retval None
1116:Drivers/STM32G4xx_HAL_Driver/Src/stm32g4xx_hal_dac_ex.c ****   */
1117:Drivers/STM32G4xx_HAL_Driver/Src/stm32g4xx_hal_dac_ex.c **** void DAC_DMAConvCpltCh2(DMA_HandleTypeDef *hdma)
1118:Drivers/STM32G4xx_HAL_Driver/Src/stm32g4xx_hal_dac_ex.c **** {
 1283              	 .loc 1 1118 1 is_stmt 1 view-0
 1284              	 .cfi_startproc
 1285              	 
 1286              	 
1119:Drivers/STM32G4xx_HAL_Driver/Src/stm32g4xx_hal_dac_ex.c ****   DAC_HandleTypeDef *hdac = (DAC_HandleTypeDef *)((DMA_HandleTypeDef *)hdma)->Parent;
 1287              	 .loc 1 1119 3 view .LVU443
1118:Drivers/STM32G4xx_HAL_Driver/Src/stm32g4xx_hal_dac_ex.c ****   DAC_HandleTypeDef *hdac = (DAC_HandleTypeDef *)((DMA_HandleTypeDef *)hdma)->Parent;
 1288              	 .loc 1 1118 1 is_stmt 0 view .LVU444
 1289 0000 10B5     	 push {r4,lr}
 1290              	 .cfi_def_cfa_offset 8
 1291              	 .cfi_offset 4,-8
 1292              	 .cfi_offset 14,-4
 1293              	 .loc 1 1119 22 view .LVU445
 1294 0002 846A     	 ldr r4,[r0,#40]
 1295              	.LVL102:
ARM GAS   			page 46


1120:Drivers/STM32G4xx_HAL_Driver/Src/stm32g4xx_hal_dac_ex.c **** 
1121:Drivers/STM32G4xx_HAL_Driver/Src/stm32g4xx_hal_dac_ex.c **** #if (USE_HAL_DAC_REGISTER_CALLBACKS == 1)
1122:Drivers/STM32G4xx_HAL_Driver/Src/stm32g4xx_hal_dac_ex.c ****   hdac->ConvCpltCallbackCh2(hdac);
1123:Drivers/STM32G4xx_HAL_Driver/Src/stm32g4xx_hal_dac_ex.c **** #else
1124:Drivers/STM32G4xx_HAL_Driver/Src/stm32g4xx_hal_dac_ex.c ****   HAL_DACEx_ConvCpltCallbackCh2(hdac);
 1296              	 .loc 1 1124 3 is_stmt 1 view .LVU446
 1297 0004 2046     	 mov r0,r4
 1298              	.LVL103:
 1299              	 .loc 1 1124 3 is_stmt 0 view .LVU447
 1300 0006 FFF7FEFF 	 bl HAL_DACEx_ConvCpltCallbackCh2
 1301              	.LVL104:
1125:Drivers/STM32G4xx_HAL_Driver/Src/stm32g4xx_hal_dac_ex.c **** #endif /* USE_HAL_DAC_REGISTER_CALLBACKS */
1126:Drivers/STM32G4xx_HAL_Driver/Src/stm32g4xx_hal_dac_ex.c **** 
1127:Drivers/STM32G4xx_HAL_Driver/Src/stm32g4xx_hal_dac_ex.c ****   hdac->State = HAL_DAC_STATE_READY;
 1302              	 .loc 1 1127 3 is_stmt 1 view .LVU448
 1303              	 .loc 1 1127 15 is_stmt 0 view .LVU449
 1304 000a 0123     	 movs r3,#1
 1305 000c 2371     	 strb r3,[r4,#4]
1128:Drivers/STM32G4xx_HAL_Driver/Src/stm32g4xx_hal_dac_ex.c **** }
 1306              	 .loc 1 1128 1 view .LVU450
 1307 000e 10BD     	 pop {r4,pc}
 1308              	 .loc 1 1128 1 view .LVU451
 1309              	 .cfi_endproc
 1310              	.LFE379:
 1312              	 .section .text.HAL_DACEx_ConvHalfCpltCallbackCh2,"ax",%progbits
 1313              	 .align 1
 1314              	 .p2align 2,,3
 1315              	 .weak HAL_DACEx_ConvHalfCpltCallbackCh2
 1316              	 .syntax unified
 1317              	 .thumb
 1318              	 .thumb_func
 1320              	HAL_DACEx_ConvHalfCpltCallbackCh2:
 1321              	.LFB383:
 1322              	 .cfi_startproc
 812:Drivers/STM32G4xx_HAL_Driver/Src/stm32g4xx_hal_dac_ex.c **** {
 1323              	 .loc 1 812 13 is_stmt 1 view-0
 1324              	 
 1325              	 
 1326              	 
 1327 0000 7047     	 bx lr
 1328              	 .cfi_endproc
 1329              	.LFE383:
 1331 0002 00BF     	 .section .text.DAC_DMAHalfConvCpltCh2,"ax",%progbits
 1332              	 .align 1
 1333              	 .p2align 2,,3
 1334              	 .global DAC_DMAHalfConvCpltCh2
 1335              	 .syntax unified
 1336              	 .thumb
 1337              	 .thumb_func
 1339              	DAC_DMAHalfConvCpltCh2:
 1340              	.LVL105:
 1341              	.LFB380:
1129:Drivers/STM32G4xx_HAL_Driver/Src/stm32g4xx_hal_dac_ex.c **** 
1130:Drivers/STM32G4xx_HAL_Driver/Src/stm32g4xx_hal_dac_ex.c **** /**
1131:Drivers/STM32G4xx_HAL_Driver/Src/stm32g4xx_hal_dac_ex.c ****   * @brief  DMA half transfer complete callback.
1132:Drivers/STM32G4xx_HAL_Driver/Src/stm32g4xx_hal_dac_ex.c ****   * @param  hdma pointer to a DMA_HandleTypeDef structure that contains
1133:Drivers/STM32G4xx_HAL_Driver/Src/stm32g4xx_hal_dac_ex.c ****   *                the configuration information for the specified DMA module.
ARM GAS   			page 47


1134:Drivers/STM32G4xx_HAL_Driver/Src/stm32g4xx_hal_dac_ex.c ****   * @retval None
1135:Drivers/STM32G4xx_HAL_Driver/Src/stm32g4xx_hal_dac_ex.c ****   */
1136:Drivers/STM32G4xx_HAL_Driver/Src/stm32g4xx_hal_dac_ex.c **** void DAC_DMAHalfConvCpltCh2(DMA_HandleTypeDef *hdma)
1137:Drivers/STM32G4xx_HAL_Driver/Src/stm32g4xx_hal_dac_ex.c **** {
 1342              	 .loc 1 1137 1 view-0
 1343              	 .cfi_startproc
 1344              	 
 1345              	 
1138:Drivers/STM32G4xx_HAL_Driver/Src/stm32g4xx_hal_dac_ex.c ****   DAC_HandleTypeDef *hdac = (DAC_HandleTypeDef *)((DMA_HandleTypeDef *)hdma)->Parent;
 1346              	 .loc 1 1138 3 view .LVU454
1139:Drivers/STM32G4xx_HAL_Driver/Src/stm32g4xx_hal_dac_ex.c ****   /* Conversion complete callback */
1140:Drivers/STM32G4xx_HAL_Driver/Src/stm32g4xx_hal_dac_ex.c **** #if (USE_HAL_DAC_REGISTER_CALLBACKS == 1)
1141:Drivers/STM32G4xx_HAL_Driver/Src/stm32g4xx_hal_dac_ex.c ****   hdac->ConvHalfCpltCallbackCh2(hdac);
1142:Drivers/STM32G4xx_HAL_Driver/Src/stm32g4xx_hal_dac_ex.c **** #else
1143:Drivers/STM32G4xx_HAL_Driver/Src/stm32g4xx_hal_dac_ex.c ****   HAL_DACEx_ConvHalfCpltCallbackCh2(hdac);
 1347              	 .loc 1 1143 3 view .LVU455
1137:Drivers/STM32G4xx_HAL_Driver/Src/stm32g4xx_hal_dac_ex.c ****   DAC_HandleTypeDef *hdac = (DAC_HandleTypeDef *)((DMA_HandleTypeDef *)hdma)->Parent;
 1348              	 .loc 1 1137 1 is_stmt 0 view .LVU456
 1349 0000 08B5     	 push {r3,lr}
 1350              	 .cfi_def_cfa_offset 8
 1351              	 .cfi_offset 3,-8
 1352              	 .cfi_offset 14,-4
 1353              	 .loc 1 1143 3 view .LVU457
 1354 0002 806A     	 ldr r0,[r0,#40]
 1355              	.LVL106:
 1356              	 .loc 1 1143 3 view .LVU458
 1357 0004 FFF7FEFF 	 bl HAL_DACEx_ConvHalfCpltCallbackCh2
 1358              	.LVL107:
1144:Drivers/STM32G4xx_HAL_Driver/Src/stm32g4xx_hal_dac_ex.c **** #endif /* USE_HAL_DAC_REGISTER_CALLBACKS */
1145:Drivers/STM32G4xx_HAL_Driver/Src/stm32g4xx_hal_dac_ex.c **** }
 1359              	 .loc 1 1145 1 view .LVU459
 1360 0008 08BD     	 pop {r3,pc}
 1361              	 .cfi_endproc
 1362              	.LFE380:
 1364 000a 00BF     	 .section .text.HAL_DACEx_ErrorCallbackCh2,"ax",%progbits
 1365              	 .align 1
 1366              	 .p2align 2,,3
 1367              	 .weak HAL_DACEx_ErrorCallbackCh2
 1368              	 .syntax unified
 1369              	 .thumb
 1370              	 .thumb_func
 1372              	HAL_DACEx_ErrorCallbackCh2:
 1373              	.LFB385:
 1374              	 .cfi_startproc
 828:Drivers/STM32G4xx_HAL_Driver/Src/stm32g4xx_hal_dac_ex.c **** {
 1375              	 .loc 1 828 13 is_stmt 1 view-0
 1376              	 
 1377              	 
 1378              	 
 1379 0000 7047     	 bx lr
 1380              	 .cfi_endproc
 1381              	.LFE385:
 1383 0002 00BF     	 .section .text.DAC_DMAErrorCh2,"ax",%progbits
 1384              	 .align 1
 1385              	 .p2align 2,,3
 1386              	 .global DAC_DMAErrorCh2
 1387              	 .syntax unified
ARM GAS   			page 48


 1388              	 .thumb
 1389              	 .thumb_func
 1391              	DAC_DMAErrorCh2:
 1392              	.LVL108:
 1393              	.LFB381:
1146:Drivers/STM32G4xx_HAL_Driver/Src/stm32g4xx_hal_dac_ex.c **** 
1147:Drivers/STM32G4xx_HAL_Driver/Src/stm32g4xx_hal_dac_ex.c **** /**
1148:Drivers/STM32G4xx_HAL_Driver/Src/stm32g4xx_hal_dac_ex.c ****   * @brief  DMA error callback.
1149:Drivers/STM32G4xx_HAL_Driver/Src/stm32g4xx_hal_dac_ex.c ****   * @param  hdma pointer to a DMA_HandleTypeDef structure that contains
1150:Drivers/STM32G4xx_HAL_Driver/Src/stm32g4xx_hal_dac_ex.c ****   *                the configuration information for the specified DMA module.
1151:Drivers/STM32G4xx_HAL_Driver/Src/stm32g4xx_hal_dac_ex.c ****   * @retval None
1152:Drivers/STM32G4xx_HAL_Driver/Src/stm32g4xx_hal_dac_ex.c ****   */
1153:Drivers/STM32G4xx_HAL_Driver/Src/stm32g4xx_hal_dac_ex.c **** void DAC_DMAErrorCh2(DMA_HandleTypeDef *hdma)
1154:Drivers/STM32G4xx_HAL_Driver/Src/stm32g4xx_hal_dac_ex.c **** {
 1394              	 .loc 1 1154 1 view-0
 1395              	 .cfi_startproc
 1396              	 
 1397              	 
1155:Drivers/STM32G4xx_HAL_Driver/Src/stm32g4xx_hal_dac_ex.c ****   DAC_HandleTypeDef *hdac = (DAC_HandleTypeDef *)((DMA_HandleTypeDef *)hdma)->Parent;
 1398              	 .loc 1 1155 3 view .LVU462
1154:Drivers/STM32G4xx_HAL_Driver/Src/stm32g4xx_hal_dac_ex.c ****   DAC_HandleTypeDef *hdac = (DAC_HandleTypeDef *)((DMA_HandleTypeDef *)hdma)->Parent;
 1399              	 .loc 1 1154 1 is_stmt 0 view .LVU463
 1400 0000 10B5     	 push {r4,lr}
 1401              	 .cfi_def_cfa_offset 8
 1402              	 .cfi_offset 4,-8
 1403              	 .cfi_offset 14,-4
 1404              	 .loc 1 1155 22 view .LVU464
 1405 0002 846A     	 ldr r4,[r0,#40]
 1406              	.LVL109:
1156:Drivers/STM32G4xx_HAL_Driver/Src/stm32g4xx_hal_dac_ex.c **** 
1157:Drivers/STM32G4xx_HAL_Driver/Src/stm32g4xx_hal_dac_ex.c ****   /* Set DAC error code to DMA error */
1158:Drivers/STM32G4xx_HAL_Driver/Src/stm32g4xx_hal_dac_ex.c ****   hdac->ErrorCode |= HAL_DAC_ERROR_DMA;
 1407              	 .loc 1 1158 3 is_stmt 1 view .LVU465
 1408              	 .loc 1 1158 7 is_stmt 0 view .LVU466
 1409 0004 2369     	 ldr r3,[r4,#16]
 1410              	 .loc 1 1158 19 view .LVU467
 1411 0006 43F00403 	 orr r3,r3,#4
 1412 000a 2361     	 str r3,[r4,#16]
1159:Drivers/STM32G4xx_HAL_Driver/Src/stm32g4xx_hal_dac_ex.c **** 
1160:Drivers/STM32G4xx_HAL_Driver/Src/stm32g4xx_hal_dac_ex.c **** #if (USE_HAL_DAC_REGISTER_CALLBACKS == 1)
1161:Drivers/STM32G4xx_HAL_Driver/Src/stm32g4xx_hal_dac_ex.c ****   hdac->ErrorCallbackCh2(hdac);
1162:Drivers/STM32G4xx_HAL_Driver/Src/stm32g4xx_hal_dac_ex.c **** #else
1163:Drivers/STM32G4xx_HAL_Driver/Src/stm32g4xx_hal_dac_ex.c ****   HAL_DACEx_ErrorCallbackCh2(hdac);
 1413              	 .loc 1 1163 3 is_stmt 1 view .LVU468
 1414 000c 2046     	 mov r0,r4
 1415              	.LVL110:
 1416              	 .loc 1 1163 3 is_stmt 0 view .LVU469
 1417 000e FFF7FEFF 	 bl HAL_DACEx_ErrorCallbackCh2
 1418              	.LVL111:
1164:Drivers/STM32G4xx_HAL_Driver/Src/stm32g4xx_hal_dac_ex.c **** #endif /* USE_HAL_DAC_REGISTER_CALLBACKS */
1165:Drivers/STM32G4xx_HAL_Driver/Src/stm32g4xx_hal_dac_ex.c **** 
1166:Drivers/STM32G4xx_HAL_Driver/Src/stm32g4xx_hal_dac_ex.c ****   hdac->State = HAL_DAC_STATE_READY;
 1419              	 .loc 1 1166 3 is_stmt 1 view .LVU470
 1420              	 .loc 1 1166 15 is_stmt 0 view .LVU471
 1421 0012 0123     	 movs r3,#1
 1422 0014 2371     	 strb r3,[r4,#4]
1167:Drivers/STM32G4xx_HAL_Driver/Src/stm32g4xx_hal_dac_ex.c **** }
ARM GAS   			page 49


 1423              	 .loc 1 1167 1 view .LVU472
 1424 0016 10BD     	 pop {r4,pc}
 1425              	 .loc 1 1167 1 view .LVU473
 1426              	 .cfi_endproc
 1427              	.LFE381:
 1429              	 .section .text.HAL_DACEx_DMAUnderrunCallbackCh2,"ax",%progbits
 1430              	 .align 1
 1431              	 .p2align 2,,3
 1432              	 .weak HAL_DACEx_DMAUnderrunCallbackCh2
 1433              	 .syntax unified
 1434              	 .thumb
 1435              	 .thumb_func
 1437              	HAL_DACEx_DMAUnderrunCallbackCh2:
 1438              	.LFB387:
 1439              	 .cfi_startproc
 844:Drivers/STM32G4xx_HAL_Driver/Src/stm32g4xx_hal_dac_ex.c **** {
 1440              	 .loc 1 844 13 is_stmt 1 view-0
 1441              	 
 1442              	 
 1443              	 
 1444 0000 7047     	 bx lr
 1445              	 .cfi_endproc
 1446              	.LFE387:
 1448 0002 00BF     	 .section .text.HAL_DACEx_SelfCalibrate,"ax",%progbits
 1449              	 .align 1
 1450              	 .p2align 2,,3
 1451              	 .global HAL_DACEx_SelfCalibrate
 1452              	 .syntax unified
 1453              	 .thumb
 1454              	 .thumb_func
 1456              	HAL_DACEx_SelfCalibrate:
 1457              	.LVL112:
 1458              	.LFB375:
 872:Drivers/STM32G4xx_HAL_Driver/Src/stm32g4xx_hal_dac_ex.c ****   HAL_StatusTypeDef status = HAL_OK;
 1459              	 .loc 1 872 1 view-0
 1460              	 .cfi_startproc
 1461              	 
 1462              	 
 873:Drivers/STM32G4xx_HAL_Driver/Src/stm32g4xx_hal_dac_ex.c **** 
 1463              	 .loc 1 873 3 view .LVU476
 875:Drivers/STM32G4xx_HAL_Driver/Src/stm32g4xx_hal_dac_ex.c ****   uint32_t delta;
 1464              	 .loc 1 875 3 view .LVU477
 876:Drivers/STM32G4xx_HAL_Driver/Src/stm32g4xx_hal_dac_ex.c ****   __IO uint32_t wait_loop_index;
 1465              	 .loc 1 876 3 view .LVU478
 877:Drivers/STM32G4xx_HAL_Driver/Src/stm32g4xx_hal_dac_ex.c **** 
 1466              	 .loc 1 877 3 view .LVU479
 880:Drivers/STM32G4xx_HAL_Driver/Src/stm32g4xx_hal_dac_ex.c **** 
 1467              	 .loc 1 880 3 view .LVU480
 883:Drivers/STM32G4xx_HAL_Driver/Src/stm32g4xx_hal_dac_ex.c **** 
 1468              	 .loc 1 883 3 view .LVU481
 887:Drivers/STM32G4xx_HAL_Driver/Src/stm32g4xx_hal_dac_ex.c ****   {
 1469              	 .loc 1 887 3 view .LVU482
 887:Drivers/STM32G4xx_HAL_Driver/Src/stm32g4xx_hal_dac_ex.c ****   {
 1470              	 .loc 1 887 6 is_stmt 0 view .LVU483
 1471 0000 0028     	 cmp r0,#0
 1472 0002 00F09A80 	 beq .L138
 872:Drivers/STM32G4xx_HAL_Driver/Src/stm32g4xx_hal_dac_ex.c ****   HAL_StatusTypeDef status = HAL_OK;
ARM GAS   			page 50


 1473              	 .loc 1 872 1 view .LVU484
 1474 0006 2DE9F04F 	 push {r4,r5,r6,r7,r8,r9,r10,fp,lr}
 1475              	 .cfi_def_cfa_offset 36
 1476              	 .cfi_offset 4,-36
 1477              	 .cfi_offset 5,-32
 1478              	 .cfi_offset 6,-28
 1479              	 .cfi_offset 7,-24
 1480              	 .cfi_offset 8,-20
 1481              	 .cfi_offset 9,-16
 1482              	 .cfi_offset 10,-12
 1483              	 .cfi_offset 11,-8
 1484              	 .cfi_offset 14,-4
 1485 000a 0E46     	 mov r6,r1
 1486 000c 83B0     	 sub sp,sp,#12
 1487              	 .cfi_def_cfa_offset 48
 887:Drivers/STM32G4xx_HAL_Driver/Src/stm32g4xx_hal_dac_ex.c ****   {
 1488              	 .loc 1 887 22 discriminator 1 view .LVU485
 1489 000e 0029     	 cmp r1,#0
 1490 0010 00F08C80 	 beq .L140
 891:Drivers/STM32G4xx_HAL_Driver/Src/stm32g4xx_hal_dac_ex.c ****   {
 1491              	 .loc 1 891 8 is_stmt 1 view .LVU486
 891:Drivers/STM32G4xx_HAL_Driver/Src/stm32g4xx_hal_dac_ex.c ****   {
 1492              	 .loc 1 891 16 is_stmt 0 view .LVU487
 1493 0014 0379     	 ldrb r3,[r0,#4]
 891:Drivers/STM32G4xx_HAL_Driver/Src/stm32g4xx_hal_dac_ex.c ****   {
 1494              	 .loc 1 891 11 view .LVU488
 1495 0016 022B     	 cmp r3,#2
 1496 0018 0446     	 mov r4,r0
 1497 001a 00F08780 	 beq .L140
 898:Drivers/STM32G4xx_HAL_Driver/Src/stm32g4xx_hal_dac_ex.c **** 
 1498              	 .loc 1 898 5 is_stmt 1 view .LVU489
 898:Drivers/STM32G4xx_HAL_Driver/Src/stm32g4xx_hal_dac_ex.c **** 
 1499              	 .loc 1 898 5 view .LVU490
 1500 001e 4379     	 ldrb r3,[r0,#5]
 1501 0020 012B     	 cmp r3,#1
 1502 0022 00F08C80 	 beq .L141
 898:Drivers/STM32G4xx_HAL_Driver/Src/stm32g4xx_hal_dac_ex.c **** 
 1503              	 .loc 1 898 5 discriminator 2 view .LVU491
 901:Drivers/STM32G4xx_HAL_Driver/Src/stm32g4xx_hal_dac_ex.c **** 
 1504              	 .loc 1 901 33 is_stmt 0 view .LVU492
 1505 0026 0368     	 ldr r3,[r0]
 898:Drivers/STM32G4xx_HAL_Driver/Src/stm32g4xx_hal_dac_ex.c **** 
 1506              	 .loc 1 898 5 discriminator 2 view .LVU493
 1507 0028 0120     	 movs r0,#1
 1508              	.LVL113:
 898:Drivers/STM32G4xx_HAL_Driver/Src/stm32g4xx_hal_dac_ex.c **** 
 1509              	 .loc 1 898 5 discriminator 2 view .LVU494
 1510 002a 6071     	 strb r0,[r4,#5]
 898:Drivers/STM32G4xx_HAL_Driver/Src/stm32g4xx_hal_dac_ex.c **** 
 1511              	 .loc 1 898 5 is_stmt 1 discriminator 2 view .LVU495
 901:Drivers/STM32G4xx_HAL_Driver/Src/stm32g4xx_hal_dac_ex.c **** 
 1512              	 .loc 1 901 5 view .LVU496
 901:Drivers/STM32G4xx_HAL_Driver/Src/stm32g4xx_hal_dac_ex.c **** 
 1513              	 .loc 1 901 78 is_stmt 0 view .LVU497
 1514 002c 02F01005 	 and r5,r2,#16
 901:Drivers/STM32G4xx_HAL_Driver/Src/stm32g4xx_hal_dac_ex.c **** 
 1515              	 .loc 1 901 43 view .LVU498
ARM GAS   			page 51


 1516 0030 DF6B     	 ldr r7,[r3,#60]
 904:Drivers/STM32G4xx_HAL_Driver/Src/stm32g4xx_hal_dac_ex.c ****     /* Wait for ready bit to be de-asserted */
 1517              	 .loc 1 904 5 view .LVU499
 1518 0032 1A68     	 ldr r2,[r3]
 1519              	.LVL114:
 904:Drivers/STM32G4xx_HAL_Driver/Src/stm32g4xx_hal_dac_ex.c ****     /* Wait for ready bit to be de-asserted */
 1520              	 .loc 1 904 5 view .LVU500
 1521 0034 00FA05F1 	 lsl r1,r0,r5
 1522              	.LVL115:
 904:Drivers/STM32G4xx_HAL_Driver/Src/stm32g4xx_hal_dac_ex.c ****     /* Wait for ready bit to be de-asserted */
 1523              	 .loc 1 904 5 view .LVU501
 1524 0038 22EA0102 	 bic r2,r2,r1
 1525 003c 1A60     	 str r2,[r3]
 906:Drivers/STM32G4xx_HAL_Driver/Src/stm32g4xx_hal_dac_ex.c **** 
 1526              	 .loc 1 906 5 view .LVU502
 1527 003e FFF7FEFF 	 bl HAL_Delay
 1528              	.LVL116:
 928:Drivers/STM32G4xx_HAL_Driver/Src/stm32g4xx_hal_dac_ex.c ****       while (wait_loop_index != 0UL)
 1529              	 .loc 1 928 73 view .LVU503
 1530 0042 404B     	 ldr r3,.L153
 909:Drivers/STM32G4xx_HAL_Driver/Src/stm32g4xx_hal_dac_ex.c **** 
 1531              	 .loc 1 909 5 view .LVU504
 1532 0044 2268     	 ldr r2,[r4]
 928:Drivers/STM32G4xx_HAL_Driver/Src/stm32g4xx_hal_dac_ex.c ****       while (wait_loop_index != 0UL)
 1533              	 .loc 1 928 73 view .LVU505
 1534 0046 1868     	 ldr r0,[r3]
 1535 0048 3F4B     	 ldr r3,.L153+4
 1536 004a 8009     	 lsrs r0,r0,#6
 1537 004c A3FB0030 	 umull r3,r0,r3,r0
 901:Drivers/STM32G4xx_HAL_Driver/Src/stm32g4xx_hal_dac_ex.c **** 
 1538              	 .loc 1 901 66 view .LVU506
 1539 0050 4FF00708 	 mov r8,#7
 909:Drivers/STM32G4xx_HAL_Driver/Src/stm32g4xx_hal_dac_ex.c **** 
 1540              	 .loc 1 909 5 view .LVU507
 1541 0054 D36B     	 ldr r3,[r2,#60]
 901:Drivers/STM32G4xx_HAL_Driver/Src/stm32g4xx_hal_dac_ex.c **** 
 1542              	 .loc 1 901 66 view .LVU508
 1543 0056 08FA05F8 	 lsl r8,r8,r5
 1544              	.LVL117:
 904:Drivers/STM32G4xx_HAL_Driver/Src/stm32g4xx_hal_dac_ex.c ****     /* Wait for ready bit to be de-asserted */
 1545              	 .loc 1 904 5 is_stmt 1 view .LVU509
 906:Drivers/STM32G4xx_HAL_Driver/Src/stm32g4xx_hal_dac_ex.c **** 
 1546              	 .loc 1 906 5 view .LVU510
 909:Drivers/STM32G4xx_HAL_Driver/Src/stm32g4xx_hal_dac_ex.c **** 
 1547              	 .loc 1 909 5 view .LVU511
 1548 005a 23EA0803 	 bic r3,r3,r8
 1549 005e D363     	 str r3,[r2,#60]
 913:Drivers/STM32G4xx_HAL_Driver/Src/stm32g4xx_hal_dac_ex.c **** 
 1550              	 .loc 1 913 5 view .LVU512
 1551 0060 1368     	 ldr r3,[r2]
 1552 0062 4FF4804A 	 mov r10,#16384
 928:Drivers/STM32G4xx_HAL_Driver/Src/stm32g4xx_hal_dac_ex.c ****       while (wait_loop_index != 0UL)
 1553              	 .loc 1 928 73 is_stmt 0 view .LVU513
 1554 0066 8009     	 lsrs r0,r0,#6
 913:Drivers/STM32G4xx_HAL_Driver/Src/stm32g4xx_hal_dac_ex.c **** 
 1555              	 .loc 1 913 5 view .LVU514
 1556 0068 0AFA05FA 	 lsl r10,r10,r5
ARM GAS   			page 52


 922:Drivers/STM32G4xx_HAL_Driver/Src/stm32g4xx_hal_dac_ex.c **** 
 1557              	 .loc 1 922 7 view .LVU515
 1558 006c 4FF01F09 	 mov r9,#31
 928:Drivers/STM32G4xx_HAL_Driver/Src/stm32g4xx_hal_dac_ex.c ****       while (wait_loop_index != 0UL)
 1559              	 .loc 1 928 53 view .LVU516
 1560 0070 0130     	 adds r0,r0,#1
 913:Drivers/STM32G4xx_HAL_Driver/Src/stm32g4xx_hal_dac_ex.c **** 
 1561              	 .loc 1 913 5 view .LVU517
 1562 0072 43EA0A03 	 orr r3,r3,r10
 922:Drivers/STM32G4xx_HAL_Driver/Src/stm32g4xx_hal_dac_ex.c **** 
 1563              	 .loc 1 922 7 view .LVU518
 1564 0076 09FA05F9 	 lsl r9,r9,r5
 928:Drivers/STM32G4xx_HAL_Driver/Src/stm32g4xx_hal_dac_ex.c ****       while (wait_loop_index != 0UL)
 1565              	 .loc 1 928 53 view .LVU519
 1566 007a 00EB8000 	 add r0,r0,r0,lsl#2
 913:Drivers/STM32G4xx_HAL_Driver/Src/stm32g4xx_hal_dac_ex.c **** 
 1567              	 .loc 1 913 5 view .LVU520
 1568 007e 1360     	 str r3,[r2]
 917:Drivers/STM32G4xx_HAL_Driver/Src/stm32g4xx_hal_dac_ex.c ****     delta = 0x08UL;
 1569              	 .loc 1 917 5 is_stmt 1 view .LVU521
 1570              	.LVL118:
 918:Drivers/STM32G4xx_HAL_Driver/Src/stm32g4xx_hal_dac_ex.c ****     while (delta != 0UL)
 1571              	 .loc 1 918 5 view .LVU522
 919:Drivers/STM32G4xx_HAL_Driver/Src/stm32g4xx_hal_dac_ex.c ****     {
 1572              	 .loc 1 919 5 view .LVU523
 919:Drivers/STM32G4xx_HAL_Driver/Src/stm32g4xx_hal_dac_ex.c ****     {
 1573              	 .loc 1 919 18 view .LVU524
 922:Drivers/STM32G4xx_HAL_Driver/Src/stm32g4xx_hal_dac_ex.c **** 
 1574              	 .loc 1 922 7 is_stmt 0 view .LVU525
 1575 0080 6FEA0909 	 mvn r9,r9
 928:Drivers/STM32G4xx_HAL_Driver/Src/stm32g4xx_hal_dac_ex.c ****       while (wait_loop_index != 0UL)
 1576              	 .loc 1 928 53 view .LVU526
 1577 0084 4FF0040C 	 mov ip,#4
 918:Drivers/STM32G4xx_HAL_Driver/Src/stm32g4xx_hal_dac_ex.c ****     while (delta != 0UL)
 1578              	 .loc 1 918 11 view .LVU527
 1579 0088 4FF0080E 	 mov lr,#8
 917:Drivers/STM32G4xx_HAL_Driver/Src/stm32g4xx_hal_dac_ex.c ****     delta = 0x08UL;
 1580              	 .loc 1 917 19 view .LVU528
 1581 008c 1021     	 movs r1,#16
 1582              	.LVL119:
 1583              	.L132:
 922:Drivers/STM32G4xx_HAL_Driver/Src/stm32g4xx_hal_dac_ex.c **** 
 1584              	 .loc 1 922 7 is_stmt 1 view .LVU529
 1585 008e 936B     	 ldr r3,[r2,#56]
 1586 0090 01FA05FB 	 lsl fp,r1,r5
 1587 0094 03EA0903 	 and r3,r3,r9
 1588 0098 43EA0B03 	 orr r3,r3,fp
 1589 009c 9363     	 str r3,[r2,#56]
 928:Drivers/STM32G4xx_HAL_Driver/Src/stm32g4xx_hal_dac_ex.c ****       while (wait_loop_index != 0UL)
 1590              	 .loc 1 928 7 view .LVU530
 928:Drivers/STM32G4xx_HAL_Driver/Src/stm32g4xx_hal_dac_ex.c ****       while (wait_loop_index != 0UL)
 1591              	 .loc 1 928 23 is_stmt 0 view .LVU531
 1592 009e 0190     	 str r0,[sp,#4]
 929:Drivers/STM32G4xx_HAL_Driver/Src/stm32g4xx_hal_dac_ex.c ****       {
 1593              	 .loc 1 929 7 is_stmt 1 view .LVU532
 929:Drivers/STM32G4xx_HAL_Driver/Src/stm32g4xx_hal_dac_ex.c ****       {
 1594              	 .loc 1 929 30 view .LVU533
ARM GAS   			page 53


 1595 00a0 019B     	 ldr r3,[sp,#4]
 1596 00a2 2BB1     	 cbz r3,.L130
 1597              	.L127:
 931:Drivers/STM32G4xx_HAL_Driver/Src/stm32g4xx_hal_dac_ex.c ****       }
 1598              	 .loc 1 931 9 view .LVU534
 931:Drivers/STM32G4xx_HAL_Driver/Src/stm32g4xx_hal_dac_ex.c ****       }
 1599              	 .loc 1 931 24 is_stmt 0 view .LVU535
 1600 00a4 019B     	 ldr r3,[sp,#4]
 1601 00a6 013B     	 subs r3,r3,#1
 1602 00a8 0193     	 str r3,[sp,#4]
 929:Drivers/STM32G4xx_HAL_Driver/Src/stm32g4xx_hal_dac_ex.c ****       {
 1603              	 .loc 1 929 30 is_stmt 1 view .LVU536
 1604 00aa 019B     	 ldr r3,[sp,#4]
 1605 00ac 002B     	 cmp r3,#0
 1606 00ae F9D1     	 bne .L127
 1607              	.L130:
 934:Drivers/STM32G4xx_HAL_Driver/Src/stm32g4xx_hal_dac_ex.c ****       {
 1608              	 .loc 1 934 7 view .LVU537
 934:Drivers/STM32G4xx_HAL_Driver/Src/stm32g4xx_hal_dac_ex.c ****       {
 1609              	 .loc 1 934 26 is_stmt 0 view .LVU538
 1610 00b0 536B     	 ldr r3,[r2,#52]
 934:Drivers/STM32G4xx_HAL_Driver/Src/stm32g4xx_hal_dac_ex.c ****       {
 1611              	 .loc 1 934 10 view .LVU539
 1612 00b2 3AEA0303 	 bics r3,r10,r3
 1613 00b6 3DD0     	 beq .L152
 942:Drivers/STM32G4xx_HAL_Driver/Src/stm32g4xx_hal_dac_ex.c ****       }
 1614              	 .loc 1 942 9 is_stmt 1 view .LVU540
 942:Drivers/STM32G4xx_HAL_Driver/Src/stm32g4xx_hal_dac_ex.c ****       }
 1615              	 .loc 1 942 23 is_stmt 0 view .LVU541
 1616 00b8 7144     	 add r1,r1,lr
 1617              	.LVL120:
 1618              	.L131:
 944:Drivers/STM32G4xx_HAL_Driver/Src/stm32g4xx_hal_dac_ex.c ****     }
 1619              	 .loc 1 944 7 is_stmt 1 view .LVU542
 919:Drivers/STM32G4xx_HAL_Driver/Src/stm32g4xx_hal_dac_ex.c ****     {
 1620              	 .loc 1 919 18 is_stmt 0 view .LVU543
 1621 00ba BCF1010C 	 subs ip,ip,#1
 944:Drivers/STM32G4xx_HAL_Driver/Src/stm32g4xx_hal_dac_ex.c ****     }
 1622              	 .loc 1 944 13 view .LVU544
 1623 00be 4FEA5E0E 	 lsr lr,lr,#1
 1624              	.LVL121:
 919:Drivers/STM32G4xx_HAL_Driver/Src/stm32g4xx_hal_dac_ex.c ****     {
 1625              	 .loc 1 919 18 is_stmt 1 view .LVU545
 1626 00c2 E4D1     	 bne .L132
 950:Drivers/STM32G4xx_HAL_Driver/Src/stm32g4xx_hal_dac_ex.c **** 
 1627              	 .loc 1 950 5 view .LVU546
 1628 00c4 936B     	 ldr r3,[r2,#56]
 1629 00c6 01FA05FC 	 lsl ip,r1,r5
 1630 00ca 09EA0303 	 and r3,r9,r3
 1631 00ce 43EA0C03 	 orr r3,r3,ip
 1632 00d2 9363     	 str r3,[r2,#56]
 956:Drivers/STM32G4xx_HAL_Driver/Src/stm32g4xx_hal_dac_ex.c ****     while (wait_loop_index != 0UL)
 1633              	 .loc 1 956 5 view .LVU547
 956:Drivers/STM32G4xx_HAL_Driver/Src/stm32g4xx_hal_dac_ex.c ****     while (wait_loop_index != 0UL)
 1634              	 .loc 1 956 21 is_stmt 0 view .LVU548
 1635 00d4 0190     	 str r0,[sp,#4]
 957:Drivers/STM32G4xx_HAL_Driver/Src/stm32g4xx_hal_dac_ex.c ****     {
ARM GAS   			page 54


 1636              	 .loc 1 957 5 is_stmt 1 view .LVU549
 957:Drivers/STM32G4xx_HAL_Driver/Src/stm32g4xx_hal_dac_ex.c ****     {
 1637              	 .loc 1 957 28 view .LVU550
 1638 00d6 019B     	 ldr r3,[sp,#4]
 1639 00d8 2BB1     	 cbz r3,.L136
 1640              	.L133:
 959:Drivers/STM32G4xx_HAL_Driver/Src/stm32g4xx_hal_dac_ex.c ****     }
 1641              	 .loc 1 959 7 view .LVU551
 959:Drivers/STM32G4xx_HAL_Driver/Src/stm32g4xx_hal_dac_ex.c ****     }
 1642              	 .loc 1 959 22 is_stmt 0 view .LVU552
 1643 00da 019B     	 ldr r3,[sp,#4]
 1644 00dc 013B     	 subs r3,r3,#1
 1645 00de 0193     	 str r3,[sp,#4]
 957:Drivers/STM32G4xx_HAL_Driver/Src/stm32g4xx_hal_dac_ex.c ****     {
 1646              	 .loc 1 957 28 is_stmt 1 view .LVU553
 1647 00e0 019B     	 ldr r3,[sp,#4]
 1648 00e2 002B     	 cmp r3,#0
 1649 00e4 F9D1     	 bne .L133
 1650              	.L136:
 962:Drivers/STM32G4xx_HAL_Driver/Src/stm32g4xx_hal_dac_ex.c ****     {
 1651              	 .loc 1 962 5 view .LVU554
 962:Drivers/STM32G4xx_HAL_Driver/Src/stm32g4xx_hal_dac_ex.c ****     {
 1652              	 .loc 1 962 24 is_stmt 0 view .LVU555
 1653 00e6 536B     	 ldr r3,[r2,#52]
 962:Drivers/STM32G4xx_HAL_Driver/Src/stm32g4xx_hal_dac_ex.c ****     {
 1654              	 .loc 1 962 8 view .LVU556
 1655 00e8 1AEA030F 	 tst r10,r3
 1656 00ec 0AD1     	 bne .L135
 965:Drivers/STM32G4xx_HAL_Driver/Src/stm32g4xx_hal_dac_ex.c ****       {
 1657              	 .loc 1 965 7 is_stmt 1 view .LVU557
 971:Drivers/STM32G4xx_HAL_Driver/Src/stm32g4xx_hal_dac_ex.c ****     }
 1658              	 .loc 1 971 7 is_stmt 0 view .LVU558
 1659 00ee 936B     	 ldr r3,[r2,#56]
 965:Drivers/STM32G4xx_HAL_Driver/Src/stm32g4xx_hal_dac_ex.c ****       {
 1660              	 .loc 1 965 10 view .LVU559
 1661 00f0 1E29     	 cmp r1,#30
 968:Drivers/STM32G4xx_HAL_Driver/Src/stm32g4xx_hal_dac_ex.c ****       }
 1662              	 .loc 1 968 9 is_stmt 1 view .LVU560
 968:Drivers/STM32G4xx_HAL_Driver/Src/stm32g4xx_hal_dac_ex.c ****       }
 1663              	 .loc 1 968 22 is_stmt 0 view .LVU561
 1664 00f2 9CBF     	 itt ls
 1665 00f4 0131     	 addls r1,r1,#1
 1666              	.LVL122:
 971:Drivers/STM32G4xx_HAL_Driver/Src/stm32g4xx_hal_dac_ex.c ****     }
 1667              	 .loc 1 971 7 view .LVU562
 1668 00f6 01FA05FC 	 lslls ip,r1,r5
 971:Drivers/STM32G4xx_HAL_Driver/Src/stm32g4xx_hal_dac_ex.c ****     }
 1669              	 .loc 1 971 7 is_stmt 1 view .LVU563
 1670 00fa 09EA0303 	 and r3,r9,r3
 1671 00fe 43EA0C03 	 orr r3,r3,ip
 1672 0102 9363     	 str r3,[r2,#56]
 1673              	.L135:
 976:Drivers/STM32G4xx_HAL_Driver/Src/stm32g4xx_hal_dac_ex.c **** 
 1674              	 .loc 1 976 5 view .LVU564
 1675 0104 1368     	 ldr r3,[r2]
 1676 0106 23EA0A03 	 bic r3,r3,r10
 1677 010a 1360     	 str r3,[r2]
ARM GAS   			page 55


 978:Drivers/STM32G4xx_HAL_Driver/Src/stm32g4xx_hal_dac_ex.c ****     sConfig->DAC_UserTrimming = DAC_TRIMMING_USER;
 1678              	 .loc 1 978 5 view .LVU565
 978:Drivers/STM32G4xx_HAL_Driver/Src/stm32g4xx_hal_dac_ex.c ****     sConfig->DAC_UserTrimming = DAC_TRIMMING_USER;
 1679              	 .loc 1 978 32 is_stmt 0 view .LVU566
 1680 010c 3162     	 str r1,[r6,#32]
 979:Drivers/STM32G4xx_HAL_Driver/Src/stm32g4xx_hal_dac_ex.c **** 
 1681              	 .loc 1 979 5 is_stmt 1 view .LVU567
 982:Drivers/STM32G4xx_HAL_Driver/Src/stm32g4xx_hal_dac_ex.c **** 
 1682              	 .loc 1 982 5 is_stmt 0 view .LVU568
 1683 010e D16B     	 ldr r1,[r2,#60]
 1684              	.LVL123:
 982:Drivers/STM32G4xx_HAL_Driver/Src/stm32g4xx_hal_dac_ex.c **** 
 1685              	 .loc 1 982 5 view .LVU569
 1686 0110 87EA0103 	 eor r3,r7,r1
 1687 0114 03EA0803 	 and r3,r3,r8
 1688 0118 4B40     	 eors r3,r3,r1
 979:Drivers/STM32G4xx_HAL_Driver/Src/stm32g4xx_hal_dac_ex.c **** 
 1689              	 .loc 1 979 31 view .LVU570
 1690 011a 0120     	 movs r0,#1
 985:Drivers/STM32G4xx_HAL_Driver/Src/stm32g4xx_hal_dac_ex.c ****   }
 1691              	 .loc 1 985 5 view .LVU571
 1692 011c 0021     	 movs r1,#0
 979:Drivers/STM32G4xx_HAL_Driver/Src/stm32g4xx_hal_dac_ex.c **** 
 1693              	 .loc 1 979 31 view .LVU572
 1694 011e F061     	 str r0,[r6,#28]
 982:Drivers/STM32G4xx_HAL_Driver/Src/stm32g4xx_hal_dac_ex.c **** 
 1695              	 .loc 1 982 5 is_stmt 1 view .LVU573
 873:Drivers/STM32G4xx_HAL_Driver/Src/stm32g4xx_hal_dac_ex.c **** 
 1696              	 .loc 1 873 21 is_stmt 0 view .LVU574
 1697 0120 0846     	 mov r0,r1
 982:Drivers/STM32G4xx_HAL_Driver/Src/stm32g4xx_hal_dac_ex.c **** 
 1698              	 .loc 1 982 5 view .LVU575
 1699 0122 D363     	 str r3,[r2,#60]
 985:Drivers/STM32G4xx_HAL_Driver/Src/stm32g4xx_hal_dac_ex.c ****   }
 1700              	 .loc 1 985 5 is_stmt 1 view .LVU576
 985:Drivers/STM32G4xx_HAL_Driver/Src/stm32g4xx_hal_dac_ex.c ****   }
 1701              	 .loc 1 985 5 view .LVU577
 1702 0124 6171     	 strb r1,[r4,#5]
 1703              	.LVL124:
 989:Drivers/STM32G4xx_HAL_Driver/Src/stm32g4xx_hal_dac_ex.c **** 
 1704              	 .loc 1 989 1 is_stmt 0 view .LVU578
 1705 0126 03B0     	 add sp,sp,#12
 1706              	 .cfi_remember_state
 1707              	 .cfi_def_cfa_offset 36
 1708              	 
 1709 0128 BDE8F08F 	 pop {r4,r5,r6,r7,r8,r9,r10,fp,pc}
 1710              	.LVL125:
 1711              	.L140:
 1712              	 .cfi_restore_state
 893:Drivers/STM32G4xx_HAL_Driver/Src/stm32g4xx_hal_dac_ex.c ****   }
 1713              	 .loc 1 893 12 view .LVU579
 1714 012c 0120     	 movs r0,#1
 1715              	.LVL126:
 1716              	.L126:
 989:Drivers/STM32G4xx_HAL_Driver/Src/stm32g4xx_hal_dac_ex.c **** 
 1717              	 .loc 1 989 1 view .LVU580
 1718 012e 03B0     	 add sp,sp,#12
ARM GAS   			page 56


 1719              	 .cfi_remember_state
 1720              	 .cfi_def_cfa_offset 36
 1721              	 
 1722 0130 BDE8F08F 	 pop {r4,r5,r6,r7,r8,r9,r10,fp,pc}
 1723              	.LVL127:
 1724              	.L152:
 1725              	 .cfi_restore_state
 937:Drivers/STM32G4xx_HAL_Driver/Src/stm32g4xx_hal_dac_ex.c ****       }
 1726              	 .loc 1 937 9 is_stmt 1 view .LVU581
 937:Drivers/STM32G4xx_HAL_Driver/Src/stm32g4xx_hal_dac_ex.c ****       }
 1727              	 .loc 1 937 23 is_stmt 0 view .LVU582
 1728 0134 A1EB0E01 	 sub r1,r1,lr
 1729              	.LVL128:
 937:Drivers/STM32G4xx_HAL_Driver/Src/stm32g4xx_hal_dac_ex.c ****       }
 1730              	 .loc 1 937 23 view .LVU583
 1731 0138 BFE7     	 b .L131
 1732              	.LVL129:
 1733              	.L138:
 1734              	 .cfi_def_cfa_offset 0
 1735              	 .cfi_restore 4
 1736              	 .cfi_restore 5
 1737              	 .cfi_restore 6
 1738              	 .cfi_restore 7
 1739              	 .cfi_restore 8
 1740              	 .cfi_restore 9
 1741              	 .cfi_restore 10
 1742              	 .cfi_restore 11
 1743              	 .cfi_restore 14
 893:Drivers/STM32G4xx_HAL_Driver/Src/stm32g4xx_hal_dac_ex.c ****   }
 1744              	 .loc 1 893 12 view .LVU584
 1745 013a 0120     	 movs r0,#1
 1746              	.LVL130:
 989:Drivers/STM32G4xx_HAL_Driver/Src/stm32g4xx_hal_dac_ex.c **** 
 1747              	 .loc 1 989 1 view .LVU585
 1748 013c 7047     	 bx lr
 1749              	.LVL131:
 1750              	.L141:
 1751              	 .cfi_def_cfa_offset 48
 1752              	 .cfi_offset 4,-36
 1753              	 .cfi_offset 5,-32
 1754              	 .cfi_offset 6,-28
 1755              	 .cfi_offset 7,-24
 1756              	 .cfi_offset 8,-20
 1757              	 .cfi_offset 9,-16
 1758              	 .cfi_offset 10,-12
 1759              	 .cfi_offset 11,-8
 1760              	 .cfi_offset 14,-4
 898:Drivers/STM32G4xx_HAL_Driver/Src/stm32g4xx_hal_dac_ex.c **** 
 1761              	 .loc 1 898 5 discriminator 1 view .LVU586
 1762 013e 0220     	 movs r0,#2
 1763              	.LVL132:
 898:Drivers/STM32G4xx_HAL_Driver/Src/stm32g4xx_hal_dac_ex.c **** 
 1764              	 .loc 1 898 5 discriminator 1 view .LVU587
 1765 0140 F5E7     	 b .L126
 1766              	.L154:
 1767 0142 00BF     	 .align 2
 1768              	.L153:
ARM GAS   			page 57


 1769 0144 00000000 	 .word SystemCoreClock
 1770 0148 632D3E05 	 .word 87960931
 1771              	 .cfi_endproc
 1772              	.LFE375:
 1774              	 .section .text.HAL_DACEx_SetUserTrimming,"ax",%progbits
 1775              	 .align 1
 1776              	 .p2align 2,,3
 1777              	 .global HAL_DACEx_SetUserTrimming
 1778              	 .syntax unified
 1779              	 .thumb
 1780              	 .thumb_func
 1782              	HAL_DACEx_SetUserTrimming:
 1783              	.LVL133:
 1784              	.LFB376:
1008:Drivers/STM32G4xx_HAL_Driver/Src/stm32g4xx_hal_dac_ex.c ****   HAL_StatusTypeDef status = HAL_OK;
 1785              	 .loc 1 1008 1 is_stmt 1 view-0
 1786              	 .cfi_startproc
 1787              	 
 1788              	 
1009:Drivers/STM32G4xx_HAL_Driver/Src/stm32g4xx_hal_dac_ex.c **** 
 1789              	 .loc 1 1009 3 view .LVU589
1012:Drivers/STM32G4xx_HAL_Driver/Src/stm32g4xx_hal_dac_ex.c ****   assert_param(IS_DAC_NEWTRIMMINGVALUE(NewTrimmingValue));
 1790              	 .loc 1 1012 3 view .LVU590
1013:Drivers/STM32G4xx_HAL_Driver/Src/stm32g4xx_hal_dac_ex.c **** 
 1791              	 .loc 1 1013 3 view .LVU591
1016:Drivers/STM32G4xx_HAL_Driver/Src/stm32g4xx_hal_dac_ex.c ****   {
 1792              	 .loc 1 1016 3 view .LVU592
1016:Drivers/STM32G4xx_HAL_Driver/Src/stm32g4xx_hal_dac_ex.c ****   {
 1793              	 .loc 1 1016 6 is_stmt 0 view .LVU593
 1794 0000 E0B1     	 cbz r0,.L158
1016:Drivers/STM32G4xx_HAL_Driver/Src/stm32g4xx_hal_dac_ex.c ****   {
 1795              	 .loc 1 1016 22 discriminator 1 view .LVU594
 1796 0002 D9B1     	 cbz r1,.L158
 1797 0004 8446     	 mov ip,r0
1023:Drivers/STM32G4xx_HAL_Driver/Src/stm32g4xx_hal_dac_ex.c **** 
 1798              	 .loc 1 1023 5 is_stmt 1 view .LVU595
1023:Drivers/STM32G4xx_HAL_Driver/Src/stm32g4xx_hal_dac_ex.c **** 
 1799              	 .loc 1 1023 5 view .LVU596
 1800 0006 4079     	 ldrb r0,[r0,#5]
 1801              	.LVL134:
1023:Drivers/STM32G4xx_HAL_Driver/Src/stm32g4xx_hal_dac_ex.c **** 
 1802              	 .loc 1 1023 5 is_stmt 0 view .LVU597
 1803 0008 0128     	 cmp r0,#1
 1804 000a 19D0     	 beq .L159
1023:Drivers/STM32G4xx_HAL_Driver/Src/stm32g4xx_hal_dac_ex.c **** 
 1805              	 .loc 1 1023 5 is_stmt 1 discriminator 2 view .LVU598
1023:Drivers/STM32G4xx_HAL_Driver/Src/stm32g4xx_hal_dac_ex.c **** 
 1806              	 .loc 1 1023 5 discriminator 2 view .LVU599
1026:Drivers/STM32G4xx_HAL_Driver/Src/stm32g4xx_hal_dac_ex.c **** 
 1807              	 .loc 1 1026 5 view .LVU600
1008:Drivers/STM32G4xx_HAL_Driver/Src/stm32g4xx_hal_dac_ex.c ****   HAL_StatusTypeDef status = HAL_OK;
 1808              	 .loc 1 1008 1 is_stmt 0 view .LVU601
 1809 000c 10B5     	 push {r4,lr}
 1810              	 .cfi_def_cfa_offset 8
 1811              	 .cfi_offset 4,-8
 1812              	 .cfi_offset 14,-4
1026:Drivers/STM32G4xx_HAL_Driver/Src/stm32g4xx_hal_dac_ex.c **** 
ARM GAS   			page 58


 1813              	 .loc 1 1026 5 view .LVU602
 1814 000e DCF80040 	 ldr r4,[ip]
 1815 0012 02F01002 	 and r2,r2,#16
 1816              	.LVL135:
1026:Drivers/STM32G4xx_HAL_Driver/Src/stm32g4xx_hal_dac_ex.c **** 
 1817              	 .loc 1 1026 5 view .LVU603
 1818 0016 A06B     	 ldr r0,[r4,#56]
 1819 0018 4FF01F0E 	 mov lr,#31
 1820 001c 0EFA02FE 	 lsl lr,lr,r2
 1821 0020 20EA0E00 	 bic r0,r0,lr
 1822 0024 03FA02F2 	 lsl r2,r3,r2
 1823 0028 0243     	 orrs r2,r2,r0
 1824 002a A263     	 str r2,[r4,#56]
1029:Drivers/STM32G4xx_HAL_Driver/Src/stm32g4xx_hal_dac_ex.c ****     sConfig->DAC_TrimmingValue = NewTrimmingValue;
 1825              	 .loc 1 1029 5 is_stmt 1 view .LVU604
1029:Drivers/STM32G4xx_HAL_Driver/Src/stm32g4xx_hal_dac_ex.c ****     sConfig->DAC_TrimmingValue = NewTrimmingValue;
 1826              	 .loc 1 1029 31 is_stmt 0 view .LVU605
 1827 002c 0120     	 movs r0,#1
1033:Drivers/STM32G4xx_HAL_Driver/Src/stm32g4xx_hal_dac_ex.c ****   }
 1828              	 .loc 1 1033 5 view .LVU606
 1829 002e 0022     	 movs r2,#0
1030:Drivers/STM32G4xx_HAL_Driver/Src/stm32g4xx_hal_dac_ex.c **** 
 1830              	 .loc 1 1030 32 view .LVU607
 1831 0030 C1E90703 	 strd r0,r3,[r1,#28]
1033:Drivers/STM32G4xx_HAL_Driver/Src/stm32g4xx_hal_dac_ex.c ****   }
 1832              	 .loc 1 1033 5 is_stmt 1 view .LVU608
1033:Drivers/STM32G4xx_HAL_Driver/Src/stm32g4xx_hal_dac_ex.c ****   }
 1833              	 .loc 1 1033 5 view .LVU609
 1834 0034 8CF80520 	 strb r2,[ip,#5]
 1835              	.LVL136:
1009:Drivers/STM32G4xx_HAL_Driver/Src/stm32g4xx_hal_dac_ex.c **** 
 1836              	 .loc 1 1009 21 is_stmt 0 view .LVU610
 1837 0038 1046     	 mov r0,r2
1036:Drivers/STM32G4xx_HAL_Driver/Src/stm32g4xx_hal_dac_ex.c **** 
 1838              	 .loc 1 1036 1 view .LVU611
 1839 003a 10BD     	 pop {r4,pc}
 1840              	.LVL137:
 1841              	.L158:
 1842              	 .cfi_def_cfa_offset 0
 1843              	 .cfi_restore 4
 1844              	 .cfi_restore 14
1018:Drivers/STM32G4xx_HAL_Driver/Src/stm32g4xx_hal_dac_ex.c ****   }
 1845              	 .loc 1 1018 12 view .LVU612
 1846 003c 0120     	 movs r0,#1
 1847              	.LVL138:
1018:Drivers/STM32G4xx_HAL_Driver/Src/stm32g4xx_hal_dac_ex.c ****   }
 1848              	 .loc 1 1018 12 view .LVU613
 1849 003e 7047     	 bx lr
 1850              	.LVL139:
 1851              	.L159:
1023:Drivers/STM32G4xx_HAL_Driver/Src/stm32g4xx_hal_dac_ex.c **** 
 1852              	 .loc 1 1023 5 discriminator 1 view .LVU614
 1853 0040 0220     	 movs r0,#2
 1854              	.LVL140:
1036:Drivers/STM32G4xx_HAL_Driver/Src/stm32g4xx_hal_dac_ex.c **** 
 1855              	 .loc 1 1036 1 view .LVU615
 1856 0042 7047     	 bx lr
ARM GAS   			page 59


 1857              	 .cfi_endproc
 1858              	.LFE376:
 1860              	 .section .text.HAL_DACEx_GetTrimOffset,"ax",%progbits
 1861              	 .align 1
 1862              	 .p2align 2,,3
 1863              	 .global HAL_DACEx_GetTrimOffset
 1864              	 .syntax unified
 1865              	 .thumb
 1866              	 .thumb_func
 1868              	HAL_DACEx_GetTrimOffset:
 1869              	.LVL141:
 1870              	.LFB377:
1051:Drivers/STM32G4xx_HAL_Driver/Src/stm32g4xx_hal_dac_ex.c ****   /* Check the parameter */
 1871              	 .loc 1 1051 1 is_stmt 1 view-0
 1872              	 .cfi_startproc
 1873              	 
 1874              	 
 1875              	 
1053:Drivers/STM32G4xx_HAL_Driver/Src/stm32g4xx_hal_dac_ex.c **** 
 1876              	 .loc 1 1053 3 view .LVU617
1056:Drivers/STM32G4xx_HAL_Driver/Src/stm32g4xx_hal_dac_ex.c **** }
 1877              	 .loc 1 1056 3 view .LVU618
1056:Drivers/STM32G4xx_HAL_Driver/Src/stm32g4xx_hal_dac_ex.c **** }
 1878              	 .loc 1 1056 16 is_stmt 0 view .LVU619
 1879 0000 0368     	 ldr r3,[r0]
1056:Drivers/STM32G4xx_HAL_Driver/Src/stm32g4xx_hal_dac_ex.c **** }
 1880              	 .loc 1 1056 62 view .LVU620
 1881 0002 01F01000 	 and r0,r1,#16
 1882              	.LVL142:
1056:Drivers/STM32G4xx_HAL_Driver/Src/stm32g4xx_hal_dac_ex.c **** }
 1883              	 .loc 1 1056 26 view .LVU621
 1884 0006 9A6B     	 ldr r2,[r3,#56]
1056:Drivers/STM32G4xx_HAL_Driver/Src/stm32g4xx_hal_dac_ex.c **** }
 1885              	 .loc 1 1056 50 view .LVU622
 1886 0008 1F23     	 movs r3,#31
 1887 000a 8340     	 lsls r3,r3,r0
1056:Drivers/STM32G4xx_HAL_Driver/Src/stm32g4xx_hal_dac_ex.c **** }
 1888              	 .loc 1 1056 32 view .LVU623
 1889 000c 1340     	 ands r3,r3,r2
1057:Drivers/STM32G4xx_HAL_Driver/Src/stm32g4xx_hal_dac_ex.c **** 
 1890              	 .loc 1 1057 1 view .LVU624
 1891 000e 23FA00F0 	 lsr r0,r3,r0
 1892 0012 7047     	 bx lr
 1893              	 .cfi_endproc
 1894              	.LFE377:
 1896              	 .section .text.HAL_DACEx_DualGetValue,"ax",%progbits
 1897              	 .align 1
 1898              	 .p2align 2,,3
 1899              	 .global HAL_DACEx_DualGetValue
 1900              	 .syntax unified
 1901              	 .thumb
 1902              	 .thumb_func
 1904              	HAL_DACEx_DualGetValue:
 1905              	.LVL143:
 1906              	.LFB378:
1085:Drivers/STM32G4xx_HAL_Driver/Src/stm32g4xx_hal_dac_ex.c ****   uint32_t tmp = 0UL;
 1907              	 .loc 1 1085 1 is_stmt 1 view-0
ARM GAS   			page 60


 1908              	 .cfi_startproc
 1909              	 
 1910              	 
 1911              	 
1086:Drivers/STM32G4xx_HAL_Driver/Src/stm32g4xx_hal_dac_ex.c **** 
 1912              	 .loc 1 1086 3 view .LVU626
1088:Drivers/STM32G4xx_HAL_Driver/Src/stm32g4xx_hal_dac_ex.c **** 
 1913              	 .loc 1 1088 3 view .LVU627
1088:Drivers/STM32G4xx_HAL_Driver/Src/stm32g4xx_hal_dac_ex.c **** 
 1914              	 .loc 1 1088 14 is_stmt 0 view .LVU628
 1915 0000 0368     	 ldr r3,[r0]
1088:Drivers/STM32G4xx_HAL_Driver/Src/stm32g4xx_hal_dac_ex.c **** 
 1916              	 .loc 1 1088 24 view .LVU629
 1917 0002 DA6A     	 ldr r2,[r3,#44]
 1918              	.LVL144:
1090:Drivers/STM32G4xx_HAL_Driver/Src/stm32g4xx_hal_dac_ex.c **** 
 1919              	 .loc 1 1090 3 is_stmt 1 view .LVU630
1090:Drivers/STM32G4xx_HAL_Driver/Src/stm32g4xx_hal_dac_ex.c **** 
 1920              	 .loc 1 1090 24 is_stmt 0 view .LVU631
 1921 0004 186B     	 ldr r0,[r3,#48]
 1922              	.LVL145:
1093:Drivers/STM32G4xx_HAL_Driver/Src/stm32g4xx_hal_dac_ex.c **** }
 1923              	 .loc 1 1093 3 is_stmt 1 view .LVU632
1094:Drivers/STM32G4xx_HAL_Driver/Src/stm32g4xx_hal_dac_ex.c **** 
 1924              	 .loc 1 1094 1 is_stmt 0 view .LVU633
 1925 0006 42EA0040 	 orr r0,r2,r0,lsl#16
 1926              	.LVL146:
1094:Drivers/STM32G4xx_HAL_Driver/Src/stm32g4xx_hal_dac_ex.c **** 
 1927              	 .loc 1 1094 1 view .LVU634
 1928 000a 7047     	 bx lr
 1929              	 .cfi_endproc
 1930              	.LFE378:
 1932              	 .text
 1933              	.Letext0:
 1934              	 .file 2 "D:/msys2/mingw64/arm-none-eabi/include/machine/_default_types.h"
 1935              	 .file 3 "D:/msys2/mingw64/arm-none-eabi/include/sys/_stdint.h"
 1936              	 .file 4 "Drivers/CMSIS/Device/ST/STM32G4xx/Include/stm32g474xx.h"
 1937              	 .file 5 "Drivers/CMSIS/Device/ST/STM32G4xx/Include/stm32g4xx.h"
 1938              	 .file 6 "Drivers/STM32G4xx_HAL_Driver/Inc/stm32g4xx_hal_def.h"
 1939              	 .file 7 "Drivers/STM32G4xx_HAL_Driver/Inc/stm32g4xx_hal_dma.h"
 1940              	 .file 8 "Drivers/STM32G4xx_HAL_Driver/Inc/stm32g4xx_hal_dac.h"
 1941              	 .file 9 "Drivers/STM32G4xx_HAL_Driver/Inc/stm32g4xx_hal.h"
 1942              	 .file 10 "Drivers/CMSIS/Device/ST/STM32G4xx/Include/system_stm32g4xx.h"
ARM GAS   			page 61

