ARM GAS   			page 1


   1              	 .cpu cortex-m4
   2              	 .arch armv7e-m
   3              	 .fpu fpv4-sp-d16
   4              	 .eabi_attribute 27,1
   5              	 .eabi_attribute 28,1
   6              	 .eabi_attribute 23,1
   7              	 .eabi_attribute 24,1
   8              	 .eabi_attribute 25,1
   9              	 .eabi_attribute 26,1
  10              	 .eabi_attribute 30,2
  11              	 .eabi_attribute 34,1
  12              	 .eabi_attribute 18,4
  13              	 .file "stm32g4xx_hal_rcc.c"
  14              	 .text
  15              	.Ltext0:
  16              	 .cfi_sections .debug_frame
  17              	 .file 1 "Drivers/STM32G4xx_HAL_Driver/Src/stm32g4xx_hal_rcc.c"
  18              	 .section .text.HAL_RCC_DeInit,"ax",%progbits
  19              	 .align 1
  20              	 .p2align 2,,3
  21              	 .global HAL_RCC_DeInit
  22              	 .syntax unified
  23              	 .thumb
  24              	 .thumb_func
  26              	HAL_RCC_DeInit:
  27              	.LFB361:
   1:Drivers/STM32G4xx_HAL_Driver/Src/stm32g4xx_hal_rcc.c **** /**
   2:Drivers/STM32G4xx_HAL_Driver/Src/stm32g4xx_hal_rcc.c ****   ******************************************************************************
   3:Drivers/STM32G4xx_HAL_Driver/Src/stm32g4xx_hal_rcc.c ****   * @file    stm32g4xx_hal_rcc.c
   4:Drivers/STM32G4xx_HAL_Driver/Src/stm32g4xx_hal_rcc.c ****   * @author  MCD Application Team
   5:Drivers/STM32G4xx_HAL_Driver/Src/stm32g4xx_hal_rcc.c ****   * @brief   RCC HAL module driver.
   6:Drivers/STM32G4xx_HAL_Driver/Src/stm32g4xx_hal_rcc.c ****   *          This file provides firmware functions to manage the following
   7:Drivers/STM32G4xx_HAL_Driver/Src/stm32g4xx_hal_rcc.c ****   *          functionalities of the Reset and Clock Control (RCC) peripheral:
   8:Drivers/STM32G4xx_HAL_Driver/Src/stm32g4xx_hal_rcc.c ****   *           + Initialization and de-initialization functions
   9:Drivers/STM32G4xx_HAL_Driver/Src/stm32g4xx_hal_rcc.c ****   *           + Peripheral Control functions
  10:Drivers/STM32G4xx_HAL_Driver/Src/stm32g4xx_hal_rcc.c ****   *
  11:Drivers/STM32G4xx_HAL_Driver/Src/stm32g4xx_hal_rcc.c ****   @verbatim
  12:Drivers/STM32G4xx_HAL_Driver/Src/stm32g4xx_hal_rcc.c ****   ==============================================================================
  13:Drivers/STM32G4xx_HAL_Driver/Src/stm32g4xx_hal_rcc.c ****                       ##### RCC specific features #####
  14:Drivers/STM32G4xx_HAL_Driver/Src/stm32g4xx_hal_rcc.c ****   ==============================================================================
  15:Drivers/STM32G4xx_HAL_Driver/Src/stm32g4xx_hal_rcc.c ****     [..]
  16:Drivers/STM32G4xx_HAL_Driver/Src/stm32g4xx_hal_rcc.c ****       After reset the device is running from High Speed Internal oscillator
  17:Drivers/STM32G4xx_HAL_Driver/Src/stm32g4xx_hal_rcc.c ****       (16 MHz) with Flash 0 wait state. Flash prefetch buffer, D-Cache
  18:Drivers/STM32G4xx_HAL_Driver/Src/stm32g4xx_hal_rcc.c ****       and I-Cache are disabled, and all peripherals are off except internal
  19:Drivers/STM32G4xx_HAL_Driver/Src/stm32g4xx_hal_rcc.c ****       SRAM, Flash and JTAG.
  20:Drivers/STM32G4xx_HAL_Driver/Src/stm32g4xx_hal_rcc.c **** 
  21:Drivers/STM32G4xx_HAL_Driver/Src/stm32g4xx_hal_rcc.c ****       (+) There is no prescaler on High speed (AHBs) and Low speed (APBs) buses:
  22:Drivers/STM32G4xx_HAL_Driver/Src/stm32g4xx_hal_rcc.c ****           all peripherals mapped on these buses are running at HSI speed.
  23:Drivers/STM32G4xx_HAL_Driver/Src/stm32g4xx_hal_rcc.c ****       (+) The clock for all peripherals is switched off, except the SRAM and FLASH.
  24:Drivers/STM32G4xx_HAL_Driver/Src/stm32g4xx_hal_rcc.c ****       (+) All GPIOs are in analog mode, except the JTAG pins which
  25:Drivers/STM32G4xx_HAL_Driver/Src/stm32g4xx_hal_rcc.c ****           are assigned to be used for debug purpose.
  26:Drivers/STM32G4xx_HAL_Driver/Src/stm32g4xx_hal_rcc.c **** 
  27:Drivers/STM32G4xx_HAL_Driver/Src/stm32g4xx_hal_rcc.c ****     [..]
  28:Drivers/STM32G4xx_HAL_Driver/Src/stm32g4xx_hal_rcc.c ****       Once the device started from reset, the user application has to:
  29:Drivers/STM32G4xx_HAL_Driver/Src/stm32g4xx_hal_rcc.c ****       (+) Configure the clock source to be used to drive the System clock
  30:Drivers/STM32G4xx_HAL_Driver/Src/stm32g4xx_hal_rcc.c ****           (if the application needs higher frequency/performance)
  31:Drivers/STM32G4xx_HAL_Driver/Src/stm32g4xx_hal_rcc.c ****       (+) Configure the System clock frequency and Flash settings
ARM GAS   			page 2


  32:Drivers/STM32G4xx_HAL_Driver/Src/stm32g4xx_hal_rcc.c ****       (+) Configure the AHB and APB buses prescalers
  33:Drivers/STM32G4xx_HAL_Driver/Src/stm32g4xx_hal_rcc.c ****       (+) Enable the clock for the peripheral(s) to be used
  34:Drivers/STM32G4xx_HAL_Driver/Src/stm32g4xx_hal_rcc.c ****       (+) Configure the clock source(s) for peripherals which clocks are not
  35:Drivers/STM32G4xx_HAL_Driver/Src/stm32g4xx_hal_rcc.c ****           derived from the System clock (USB, RNG, USART, LPUART, FDCAN, some TIMERs,
  36:Drivers/STM32G4xx_HAL_Driver/Src/stm32g4xx_hal_rcc.c ****           UCPD, I2S, I2C, LPTIM, ADC, QSPI)
  37:Drivers/STM32G4xx_HAL_Driver/Src/stm32g4xx_hal_rcc.c **** 
  38:Drivers/STM32G4xx_HAL_Driver/Src/stm32g4xx_hal_rcc.c ****   @endverbatim
  39:Drivers/STM32G4xx_HAL_Driver/Src/stm32g4xx_hal_rcc.c ****   ******************************************************************************
  40:Drivers/STM32G4xx_HAL_Driver/Src/stm32g4xx_hal_rcc.c ****   * @attention
  41:Drivers/STM32G4xx_HAL_Driver/Src/stm32g4xx_hal_rcc.c ****   *
  42:Drivers/STM32G4xx_HAL_Driver/Src/stm32g4xx_hal_rcc.c ****   * Copyright (c) 2019 STMicroelectronics.
  43:Drivers/STM32G4xx_HAL_Driver/Src/stm32g4xx_hal_rcc.c ****   * All rights reserved.
  44:Drivers/STM32G4xx_HAL_Driver/Src/stm32g4xx_hal_rcc.c ****   *
  45:Drivers/STM32G4xx_HAL_Driver/Src/stm32g4xx_hal_rcc.c ****   * This software is licensed under terms that can be found in the LICENSE file in
  46:Drivers/STM32G4xx_HAL_Driver/Src/stm32g4xx_hal_rcc.c ****   * the root directory of this software component.
  47:Drivers/STM32G4xx_HAL_Driver/Src/stm32g4xx_hal_rcc.c ****   * If no LICENSE file comes with this software, it is provided AS-IS.
  48:Drivers/STM32G4xx_HAL_Driver/Src/stm32g4xx_hal_rcc.c ****   ******************************************************************************
  49:Drivers/STM32G4xx_HAL_Driver/Src/stm32g4xx_hal_rcc.c ****   */
  50:Drivers/STM32G4xx_HAL_Driver/Src/stm32g4xx_hal_rcc.c **** 
  51:Drivers/STM32G4xx_HAL_Driver/Src/stm32g4xx_hal_rcc.c **** /* Includes ------------------------------------------------------------------*/
  52:Drivers/STM32G4xx_HAL_Driver/Src/stm32g4xx_hal_rcc.c **** #include "stm32g4xx_hal.h"
  53:Drivers/STM32G4xx_HAL_Driver/Src/stm32g4xx_hal_rcc.c **** 
  54:Drivers/STM32G4xx_HAL_Driver/Src/stm32g4xx_hal_rcc.c **** /** @addtogroup STM32G4xx_HAL_Driver
  55:Drivers/STM32G4xx_HAL_Driver/Src/stm32g4xx_hal_rcc.c ****   * @{
  56:Drivers/STM32G4xx_HAL_Driver/Src/stm32g4xx_hal_rcc.c ****   */
  57:Drivers/STM32G4xx_HAL_Driver/Src/stm32g4xx_hal_rcc.c **** 
  58:Drivers/STM32G4xx_HAL_Driver/Src/stm32g4xx_hal_rcc.c **** /** @defgroup RCC RCC
  59:Drivers/STM32G4xx_HAL_Driver/Src/stm32g4xx_hal_rcc.c ****   * @brief RCC HAL module driver
  60:Drivers/STM32G4xx_HAL_Driver/Src/stm32g4xx_hal_rcc.c ****   * @{
  61:Drivers/STM32G4xx_HAL_Driver/Src/stm32g4xx_hal_rcc.c ****   */
  62:Drivers/STM32G4xx_HAL_Driver/Src/stm32g4xx_hal_rcc.c **** 
  63:Drivers/STM32G4xx_HAL_Driver/Src/stm32g4xx_hal_rcc.c **** #ifdef HAL_RCC_MODULE_ENABLED
  64:Drivers/STM32G4xx_HAL_Driver/Src/stm32g4xx_hal_rcc.c **** 
  65:Drivers/STM32G4xx_HAL_Driver/Src/stm32g4xx_hal_rcc.c **** /* Private typedef -----------------------------------------------------------*/
  66:Drivers/STM32G4xx_HAL_Driver/Src/stm32g4xx_hal_rcc.c **** /* Private define ------------------------------------------------------------*/
  67:Drivers/STM32G4xx_HAL_Driver/Src/stm32g4xx_hal_rcc.c **** /** @defgroup RCC_Private_Constants RCC Private Constants
  68:Drivers/STM32G4xx_HAL_Driver/Src/stm32g4xx_hal_rcc.c ****  * @{
  69:Drivers/STM32G4xx_HAL_Driver/Src/stm32g4xx_hal_rcc.c ****  */
  70:Drivers/STM32G4xx_HAL_Driver/Src/stm32g4xx_hal_rcc.c **** #define HSE_TIMEOUT_VALUE          HSE_STARTUP_TIMEOUT
  71:Drivers/STM32G4xx_HAL_Driver/Src/stm32g4xx_hal_rcc.c **** #define HSI_TIMEOUT_VALUE          2U                /* 2 ms (minimum Tick + 1) */
  72:Drivers/STM32G4xx_HAL_Driver/Src/stm32g4xx_hal_rcc.c **** #define LSI_TIMEOUT_VALUE          2U                /* 2 ms (minimum Tick + 1) */
  73:Drivers/STM32G4xx_HAL_Driver/Src/stm32g4xx_hal_rcc.c **** #define HSI48_TIMEOUT_VALUE        2U                /* 2 ms (minimum Tick + 1) */
  74:Drivers/STM32G4xx_HAL_Driver/Src/stm32g4xx_hal_rcc.c **** #define PLL_TIMEOUT_VALUE          2U                /* 2 ms (minimum Tick + 1) */
  75:Drivers/STM32G4xx_HAL_Driver/Src/stm32g4xx_hal_rcc.c **** #define CLOCKSWITCH_TIMEOUT_VALUE  5000U             /* 5 s    */
  76:Drivers/STM32G4xx_HAL_Driver/Src/stm32g4xx_hal_rcc.c **** /**
  77:Drivers/STM32G4xx_HAL_Driver/Src/stm32g4xx_hal_rcc.c ****   * @}
  78:Drivers/STM32G4xx_HAL_Driver/Src/stm32g4xx_hal_rcc.c ****   */
  79:Drivers/STM32G4xx_HAL_Driver/Src/stm32g4xx_hal_rcc.c **** 
  80:Drivers/STM32G4xx_HAL_Driver/Src/stm32g4xx_hal_rcc.c **** /* Private macro -------------------------------------------------------------*/
  81:Drivers/STM32G4xx_HAL_Driver/Src/stm32g4xx_hal_rcc.c **** /** @defgroup RCC_Private_Macros RCC Private Macros
  82:Drivers/STM32G4xx_HAL_Driver/Src/stm32g4xx_hal_rcc.c ****   * @{
  83:Drivers/STM32G4xx_HAL_Driver/Src/stm32g4xx_hal_rcc.c ****   */
  84:Drivers/STM32G4xx_HAL_Driver/Src/stm32g4xx_hal_rcc.c **** #define RCC_GET_MCO_GPIO_PIN(__RCC_MCOx__)   ((__RCC_MCOx__) & GPIO_PIN_MASK)
  85:Drivers/STM32G4xx_HAL_Driver/Src/stm32g4xx_hal_rcc.c **** 
  86:Drivers/STM32G4xx_HAL_Driver/Src/stm32g4xx_hal_rcc.c **** #define RCC_GET_MCO_GPIO_AF(__RCC_MCOx__)    (((__RCC_MCOx__) & RCC_MCO_GPIOAF_MASK) >> RCC_MCO_GPI
  87:Drivers/STM32G4xx_HAL_Driver/Src/stm32g4xx_hal_rcc.c **** 
  88:Drivers/STM32G4xx_HAL_Driver/Src/stm32g4xx_hal_rcc.c **** #define RCC_GET_MCO_GPIO_INDEX(__RCC_MCOx__) (((__RCC_MCOx__) & RCC_MCO_GPIOPORT_MASK) >> RCC_MCO_G
ARM GAS   			page 3


  89:Drivers/STM32G4xx_HAL_Driver/Src/stm32g4xx_hal_rcc.c **** 
  90:Drivers/STM32G4xx_HAL_Driver/Src/stm32g4xx_hal_rcc.c **** #define RCC_GET_MCO_GPIO_PORT(__RCC_MCOx__)  (AHB2PERIPH_BASE + ((0x00000400UL) * RCC_GET_MCO_GPIO_
  91:Drivers/STM32G4xx_HAL_Driver/Src/stm32g4xx_hal_rcc.c **** 
  92:Drivers/STM32G4xx_HAL_Driver/Src/stm32g4xx_hal_rcc.c **** #define RCC_PLL_OSCSOURCE_CONFIG(__HAL_RCC_PLLSOURCE__) \
  93:Drivers/STM32G4xx_HAL_Driver/Src/stm32g4xx_hal_rcc.c ****             (MODIFY_REG(RCC->PLLCFGR, RCC_PLLCFGR_PLLSRC, (__HAL_RCC_PLLSOURCE__)))
  94:Drivers/STM32G4xx_HAL_Driver/Src/stm32g4xx_hal_rcc.c **** /**
  95:Drivers/STM32G4xx_HAL_Driver/Src/stm32g4xx_hal_rcc.c ****   * @}
  96:Drivers/STM32G4xx_HAL_Driver/Src/stm32g4xx_hal_rcc.c ****   */
  97:Drivers/STM32G4xx_HAL_Driver/Src/stm32g4xx_hal_rcc.c **** 
  98:Drivers/STM32G4xx_HAL_Driver/Src/stm32g4xx_hal_rcc.c **** /* Private variables ---------------------------------------------------------*/
  99:Drivers/STM32G4xx_HAL_Driver/Src/stm32g4xx_hal_rcc.c **** 
 100:Drivers/STM32G4xx_HAL_Driver/Src/stm32g4xx_hal_rcc.c **** /* Private function prototypes -----------------------------------------------*/
 101:Drivers/STM32G4xx_HAL_Driver/Src/stm32g4xx_hal_rcc.c **** /** @defgroup RCC_Private_Functions RCC Private Functions
 102:Drivers/STM32G4xx_HAL_Driver/Src/stm32g4xx_hal_rcc.c ****   * @{
 103:Drivers/STM32G4xx_HAL_Driver/Src/stm32g4xx_hal_rcc.c ****   */
 104:Drivers/STM32G4xx_HAL_Driver/Src/stm32g4xx_hal_rcc.c **** static uint32_t          RCC_GetSysClockFreqFromPLLSource(void);
 105:Drivers/STM32G4xx_HAL_Driver/Src/stm32g4xx_hal_rcc.c **** /**
 106:Drivers/STM32G4xx_HAL_Driver/Src/stm32g4xx_hal_rcc.c ****   * @}
 107:Drivers/STM32G4xx_HAL_Driver/Src/stm32g4xx_hal_rcc.c ****   */
 108:Drivers/STM32G4xx_HAL_Driver/Src/stm32g4xx_hal_rcc.c **** 
 109:Drivers/STM32G4xx_HAL_Driver/Src/stm32g4xx_hal_rcc.c **** /* Exported functions --------------------------------------------------------*/
 110:Drivers/STM32G4xx_HAL_Driver/Src/stm32g4xx_hal_rcc.c **** 
 111:Drivers/STM32G4xx_HAL_Driver/Src/stm32g4xx_hal_rcc.c **** /** @defgroup RCC_Exported_Functions RCC Exported Functions
 112:Drivers/STM32G4xx_HAL_Driver/Src/stm32g4xx_hal_rcc.c ****   * @{
 113:Drivers/STM32G4xx_HAL_Driver/Src/stm32g4xx_hal_rcc.c ****   */
 114:Drivers/STM32G4xx_HAL_Driver/Src/stm32g4xx_hal_rcc.c **** 
 115:Drivers/STM32G4xx_HAL_Driver/Src/stm32g4xx_hal_rcc.c **** /** @defgroup RCC_Exported_Functions_Group1 Initialization and de-initialization functions
 116:Drivers/STM32G4xx_HAL_Driver/Src/stm32g4xx_hal_rcc.c ****   *  @brief    Initialization and Configuration functions
 117:Drivers/STM32G4xx_HAL_Driver/Src/stm32g4xx_hal_rcc.c ****   *
 118:Drivers/STM32G4xx_HAL_Driver/Src/stm32g4xx_hal_rcc.c ****   @verbatim
 119:Drivers/STM32G4xx_HAL_Driver/Src/stm32g4xx_hal_rcc.c ****  ===============================================================================
 120:Drivers/STM32G4xx_HAL_Driver/Src/stm32g4xx_hal_rcc.c ****            ##### Initialization and de-initialization functions #####
 121:Drivers/STM32G4xx_HAL_Driver/Src/stm32g4xx_hal_rcc.c ****  ===============================================================================
 122:Drivers/STM32G4xx_HAL_Driver/Src/stm32g4xx_hal_rcc.c ****     [..]
 123:Drivers/STM32G4xx_HAL_Driver/Src/stm32g4xx_hal_rcc.c ****       This section provides functions allowing to configure the internal and external oscillators
 124:Drivers/STM32G4xx_HAL_Driver/Src/stm32g4xx_hal_rcc.c ****       (HSE, HSI, LSE, LSI, PLL, CSS and MCO) and the System buses clocks (SYSCLK, AHB, APB1
 125:Drivers/STM32G4xx_HAL_Driver/Src/stm32g4xx_hal_rcc.c ****        and APB2).
 126:Drivers/STM32G4xx_HAL_Driver/Src/stm32g4xx_hal_rcc.c **** 
 127:Drivers/STM32G4xx_HAL_Driver/Src/stm32g4xx_hal_rcc.c ****     [..] Internal/external clock and PLL configuration
 128:Drivers/STM32G4xx_HAL_Driver/Src/stm32g4xx_hal_rcc.c ****          (+) HSI (high-speed internal): 16 MHz factory-trimmed RC used directly or through
 129:Drivers/STM32G4xx_HAL_Driver/Src/stm32g4xx_hal_rcc.c ****              the PLL as System clock source.
 130:Drivers/STM32G4xx_HAL_Driver/Src/stm32g4xx_hal_rcc.c **** 
 131:Drivers/STM32G4xx_HAL_Driver/Src/stm32g4xx_hal_rcc.c ****          (+) LSI (low-speed internal): 32 KHz low consumption RC used as IWDG and/or RTC
 132:Drivers/STM32G4xx_HAL_Driver/Src/stm32g4xx_hal_rcc.c ****              clock source.
 133:Drivers/STM32G4xx_HAL_Driver/Src/stm32g4xx_hal_rcc.c **** 
 134:Drivers/STM32G4xx_HAL_Driver/Src/stm32g4xx_hal_rcc.c ****          (+) HSE (high-speed external): 4 to 48 MHz crystal oscillator used directly or
 135:Drivers/STM32G4xx_HAL_Driver/Src/stm32g4xx_hal_rcc.c ****              through the PLL as System clock source. Can be used also optionally as RTC clock sourc
 136:Drivers/STM32G4xx_HAL_Driver/Src/stm32g4xx_hal_rcc.c **** 
 137:Drivers/STM32G4xx_HAL_Driver/Src/stm32g4xx_hal_rcc.c ****          (+) LSE (low-speed external): 32.768 KHz oscillator used optionally as RTC clock source.
 138:Drivers/STM32G4xx_HAL_Driver/Src/stm32g4xx_hal_rcc.c **** 
 139:Drivers/STM32G4xx_HAL_Driver/Src/stm32g4xx_hal_rcc.c ****          (+) PLL (clocked by HSI, HSE) providing up to three independent output clocks:
 140:Drivers/STM32G4xx_HAL_Driver/Src/stm32g4xx_hal_rcc.c ****            (++) The first output is used to generate the high speed system clock (up to 170 MHz).
 141:Drivers/STM32G4xx_HAL_Driver/Src/stm32g4xx_hal_rcc.c ****            (++) The second output is used to generate the clock for the USB (48 MHz),
 142:Drivers/STM32G4xx_HAL_Driver/Src/stm32g4xx_hal_rcc.c ****                 the QSPI (<= 48 MHz), the FDCAN, the SAI and the I2S.
 143:Drivers/STM32G4xx_HAL_Driver/Src/stm32g4xx_hal_rcc.c ****            (++) The third output is used to generate a clock for ADC
 144:Drivers/STM32G4xx_HAL_Driver/Src/stm32g4xx_hal_rcc.c **** 
 145:Drivers/STM32G4xx_HAL_Driver/Src/stm32g4xx_hal_rcc.c ****          (+) CSS (Clock security system): once enabled, if a HSE clock failure occurs
ARM GAS   			page 4


 146:Drivers/STM32G4xx_HAL_Driver/Src/stm32g4xx_hal_rcc.c ****             (HSE used directly or through PLL as System clock source), the System clock
 147:Drivers/STM32G4xx_HAL_Driver/Src/stm32g4xx_hal_rcc.c ****              is automatically switched to HSI and an interrupt is generated if enabled.
 148:Drivers/STM32G4xx_HAL_Driver/Src/stm32g4xx_hal_rcc.c ****              The interrupt is linked to the Cortex-M4 NMI (Non-Maskable Interrupt)
 149:Drivers/STM32G4xx_HAL_Driver/Src/stm32g4xx_hal_rcc.c ****              exception vector.
 150:Drivers/STM32G4xx_HAL_Driver/Src/stm32g4xx_hal_rcc.c **** 
 151:Drivers/STM32G4xx_HAL_Driver/Src/stm32g4xx_hal_rcc.c ****          (+) MCO (microcontroller clock output): used to output LSI, HSI, LSE, HSE,
 152:Drivers/STM32G4xx_HAL_Driver/Src/stm32g4xx_hal_rcc.c ****              main PLL clock, system clock or RC48 clock (through a configurable prescaler) on PA8 p
 153:Drivers/STM32G4xx_HAL_Driver/Src/stm32g4xx_hal_rcc.c **** 
 154:Drivers/STM32G4xx_HAL_Driver/Src/stm32g4xx_hal_rcc.c ****     [..] System, AHB and APB buses clocks configuration
 155:Drivers/STM32G4xx_HAL_Driver/Src/stm32g4xx_hal_rcc.c ****          (+) Several clock sources can be used to drive the System clock (SYSCLK): HSI,
 156:Drivers/STM32G4xx_HAL_Driver/Src/stm32g4xx_hal_rcc.c ****              HSE and main PLL.
 157:Drivers/STM32G4xx_HAL_Driver/Src/stm32g4xx_hal_rcc.c ****              The AHB clock (HCLK) is derived from System clock through configurable
 158:Drivers/STM32G4xx_HAL_Driver/Src/stm32g4xx_hal_rcc.c ****              prescaler and used to clock the CPU, memory and peripherals mapped
 159:Drivers/STM32G4xx_HAL_Driver/Src/stm32g4xx_hal_rcc.c ****              on AHB bus (DMA, GPIO...). APB1 (PCLK1) and APB2 (PCLK2) clocks are derived
 160:Drivers/STM32G4xx_HAL_Driver/Src/stm32g4xx_hal_rcc.c ****              from AHB clock through configurable prescalers and used to clock
 161:Drivers/STM32G4xx_HAL_Driver/Src/stm32g4xx_hal_rcc.c ****              the peripherals mapped on these buses. You can use
 162:Drivers/STM32G4xx_HAL_Driver/Src/stm32g4xx_hal_rcc.c ****              "HAL_RCC_GetSysClockFreq()" function to retrieve the frequencies of these clocks.
 163:Drivers/STM32G4xx_HAL_Driver/Src/stm32g4xx_hal_rcc.c **** 
 164:Drivers/STM32G4xx_HAL_Driver/Src/stm32g4xx_hal_rcc.c ****          -@- All the peripheral clocks are derived from the System clock (SYSCLK) except:
 165:Drivers/STM32G4xx_HAL_Driver/Src/stm32g4xx_hal_rcc.c **** 
 166:Drivers/STM32G4xx_HAL_Driver/Src/stm32g4xx_hal_rcc.c ****            (+@) RTC: the RTC clock can be derived either from the LSI, LSE or HSE clock
 167:Drivers/STM32G4xx_HAL_Driver/Src/stm32g4xx_hal_rcc.c ****                 divided by 2 to 31.
 168:Drivers/STM32G4xx_HAL_Driver/Src/stm32g4xx_hal_rcc.c ****                 You have to use __HAL_RCC_RTC_ENABLE() and HAL_RCCEx_PeriphCLKConfig() function
 169:Drivers/STM32G4xx_HAL_Driver/Src/stm32g4xx_hal_rcc.c ****                 to configure this clock.
 170:Drivers/STM32G4xx_HAL_Driver/Src/stm32g4xx_hal_rcc.c ****            (+@) USB FS and RNG: USB FS requires a frequency equal to 48 MHz
 171:Drivers/STM32G4xx_HAL_Driver/Src/stm32g4xx_hal_rcc.c ****                 to work correctly, while the RNG peripheral requires a frequency
 172:Drivers/STM32G4xx_HAL_Driver/Src/stm32g4xx_hal_rcc.c ****                 equal or lower than to 48 MHz. This clock is derived of the main PLL
 173:Drivers/STM32G4xx_HAL_Driver/Src/stm32g4xx_hal_rcc.c ****                 through PLLQ divider. You have to enable the peripheral clock and use
 174:Drivers/STM32G4xx_HAL_Driver/Src/stm32g4xx_hal_rcc.c ****                 HAL_RCCEx_PeriphCLKConfig() function to configure this clock.
 175:Drivers/STM32G4xx_HAL_Driver/Src/stm32g4xx_hal_rcc.c ****            (+@) IWDG clock which is always the LSI clock.
 176:Drivers/STM32G4xx_HAL_Driver/Src/stm32g4xx_hal_rcc.c **** 
 177:Drivers/STM32G4xx_HAL_Driver/Src/stm32g4xx_hal_rcc.c **** 
 178:Drivers/STM32G4xx_HAL_Driver/Src/stm32g4xx_hal_rcc.c ****          (+) The maximum frequency of the SYSCLK, HCLK, PCLK1 and PCLK2 is 170 MHz.
 179:Drivers/STM32G4xx_HAL_Driver/Src/stm32g4xx_hal_rcc.c ****              The clock source frequency should be adapted depending on the device voltage range
 180:Drivers/STM32G4xx_HAL_Driver/Src/stm32g4xx_hal_rcc.c ****              as listed in the Reference Manual "Clock source frequency versus voltage scaling" chap
 181:Drivers/STM32G4xx_HAL_Driver/Src/stm32g4xx_hal_rcc.c **** 
 182:Drivers/STM32G4xx_HAL_Driver/Src/stm32g4xx_hal_rcc.c ****   @endverbatim
 183:Drivers/STM32G4xx_HAL_Driver/Src/stm32g4xx_hal_rcc.c **** 
 184:Drivers/STM32G4xx_HAL_Driver/Src/stm32g4xx_hal_rcc.c ****            Table 1. HCLK clock frequency for STM32G4xx devices
 185:Drivers/STM32G4xx_HAL_Driver/Src/stm32g4xx_hal_rcc.c ****            +----------------------------------------------------------------------------+
 186:Drivers/STM32G4xx_HAL_Driver/Src/stm32g4xx_hal_rcc.c ****            | Latency         |            HCLK clock frequency (MHz)                    |
 187:Drivers/STM32G4xx_HAL_Driver/Src/stm32g4xx_hal_rcc.c ****            |                 |----------------------------------------------------------|
 188:Drivers/STM32G4xx_HAL_Driver/Src/stm32g4xx_hal_rcc.c ****            |                 |  voltage range 1  |  voltage range 1  | voltage range 2  |
 189:Drivers/STM32G4xx_HAL_Driver/Src/stm32g4xx_hal_rcc.c ****            |                 | boost mode 1.28 V | normal mode 1.2 V |     1.0 V        |
 190:Drivers/STM32G4xx_HAL_Driver/Src/stm32g4xx_hal_rcc.c ****            |-----------------|-------------------|-------------------|------------------|
 191:Drivers/STM32G4xx_HAL_Driver/Src/stm32g4xx_hal_rcc.c ****            |0WS(1 CPU cycles)|    HCLK <= 34     |    HCLK <= 30     |    HCLK <= 13    |
 192:Drivers/STM32G4xx_HAL_Driver/Src/stm32g4xx_hal_rcc.c ****            |-----------------|-------------------|-------------------|------------------|
 193:Drivers/STM32G4xx_HAL_Driver/Src/stm32g4xx_hal_rcc.c ****            |1WS(2 CPU cycles)|    HCLK <= 68     |    HCLK <= 60     |    HCLK <= 26    |
 194:Drivers/STM32G4xx_HAL_Driver/Src/stm32g4xx_hal_rcc.c ****            |-----------------|-------------------|-------------------|------------------|
 195:Drivers/STM32G4xx_HAL_Driver/Src/stm32g4xx_hal_rcc.c ****            |2WS(3 CPU cycles)|    HCLK <= 102    |    HCLK <= 90     |        -         |
 196:Drivers/STM32G4xx_HAL_Driver/Src/stm32g4xx_hal_rcc.c ****            |-----------------|-------------------|-------------------|------------------|
 197:Drivers/STM32G4xx_HAL_Driver/Src/stm32g4xx_hal_rcc.c ****            |3WS(4 CPU cycles)|    HCLK <= 136    |    HCLK <= 120    |        -         |
 198:Drivers/STM32G4xx_HAL_Driver/Src/stm32g4xx_hal_rcc.c ****            |-----------------|-------------------|-------------------|------------------|
 199:Drivers/STM32G4xx_HAL_Driver/Src/stm32g4xx_hal_rcc.c ****            |4WS(5 CPU cycles)|    HCLK <= 170    |    HCLK <= 150    |        -         |
 200:Drivers/STM32G4xx_HAL_Driver/Src/stm32g4xx_hal_rcc.c ****            +----------------------------------------------------------------------------+
 201:Drivers/STM32G4xx_HAL_Driver/Src/stm32g4xx_hal_rcc.c **** 
 202:Drivers/STM32G4xx_HAL_Driver/Src/stm32g4xx_hal_rcc.c ****   * @{
ARM GAS   			page 5


 203:Drivers/STM32G4xx_HAL_Driver/Src/stm32g4xx_hal_rcc.c ****   */
 204:Drivers/STM32G4xx_HAL_Driver/Src/stm32g4xx_hal_rcc.c **** 
 205:Drivers/STM32G4xx_HAL_Driver/Src/stm32g4xx_hal_rcc.c **** /**
 206:Drivers/STM32G4xx_HAL_Driver/Src/stm32g4xx_hal_rcc.c ****   * @brief  Reset the RCC clock configuration to the default reset state.
 207:Drivers/STM32G4xx_HAL_Driver/Src/stm32g4xx_hal_rcc.c ****   * @note   The default reset state of the clock configuration is given below:
 208:Drivers/STM32G4xx_HAL_Driver/Src/stm32g4xx_hal_rcc.c ****   *            - HSI ON and used as system clock source
 209:Drivers/STM32G4xx_HAL_Driver/Src/stm32g4xx_hal_rcc.c ****   *            - HSE, PLL OFF
 210:Drivers/STM32G4xx_HAL_Driver/Src/stm32g4xx_hal_rcc.c ****   *            - AHB, APB1 and APB2 prescaler set to 1.
 211:Drivers/STM32G4xx_HAL_Driver/Src/stm32g4xx_hal_rcc.c ****   *            - CSS, MCO1 OFF
 212:Drivers/STM32G4xx_HAL_Driver/Src/stm32g4xx_hal_rcc.c ****   *            - All interrupts disabled
 213:Drivers/STM32G4xx_HAL_Driver/Src/stm32g4xx_hal_rcc.c ****   *            - All interrupt and reset flags cleared
 214:Drivers/STM32G4xx_HAL_Driver/Src/stm32g4xx_hal_rcc.c ****   * @note   This function doesn't modify the configuration of the
 215:Drivers/STM32G4xx_HAL_Driver/Src/stm32g4xx_hal_rcc.c ****   *            - Peripheral clocks
 216:Drivers/STM32G4xx_HAL_Driver/Src/stm32g4xx_hal_rcc.c ****   *            - LSI, LSE and RTC clocks
 217:Drivers/STM32G4xx_HAL_Driver/Src/stm32g4xx_hal_rcc.c ****   * @retval HAL status
 218:Drivers/STM32G4xx_HAL_Driver/Src/stm32g4xx_hal_rcc.c ****   */
 219:Drivers/STM32G4xx_HAL_Driver/Src/stm32g4xx_hal_rcc.c **** HAL_StatusTypeDef HAL_RCC_DeInit(void)
 220:Drivers/STM32G4xx_HAL_Driver/Src/stm32g4xx_hal_rcc.c **** {
  28              	 .loc 1 220 1 view-0
  29              	 .cfi_startproc
  30              	 
  31              	 
 221:Drivers/STM32G4xx_HAL_Driver/Src/stm32g4xx_hal_rcc.c ****   uint32_t tickstart;
  32              	 .loc 1 221 3 view .LVU1
 222:Drivers/STM32G4xx_HAL_Driver/Src/stm32g4xx_hal_rcc.c **** 
 223:Drivers/STM32G4xx_HAL_Driver/Src/stm32g4xx_hal_rcc.c ****   /* Get Start Tick*/
 224:Drivers/STM32G4xx_HAL_Driver/Src/stm32g4xx_hal_rcc.c ****   tickstart = HAL_GetTick();
  33              	 .loc 1 224 3 view .LVU2
 220:Drivers/STM32G4xx_HAL_Driver/Src/stm32g4xx_hal_rcc.c ****   uint32_t tickstart;
  34              	 .loc 1 220 1 is_stmt 0 view .LVU3
  35 0000 70B5     	 push {r4,r5,r6,lr}
  36              	 .cfi_def_cfa_offset 16
  37              	 .cfi_offset 4,-16
  38              	 .cfi_offset 5,-12
  39              	 .cfi_offset 6,-8
  40              	 .cfi_offset 14,-4
 225:Drivers/STM32G4xx_HAL_Driver/Src/stm32g4xx_hal_rcc.c **** 
 226:Drivers/STM32G4xx_HAL_Driver/Src/stm32g4xx_hal_rcc.c ****   /* Set HSION bit to the reset value */
 227:Drivers/STM32G4xx_HAL_Driver/Src/stm32g4xx_hal_rcc.c ****   SET_BIT(RCC->CR, RCC_CR_HSION);
  41              	 .loc 1 227 3 view .LVU4
  42 0002 2B4C     	 ldr r4,.L15
 224:Drivers/STM32G4xx_HAL_Driver/Src/stm32g4xx_hal_rcc.c **** 
  43              	 .loc 1 224 15 view .LVU5
  44 0004 FFF7FEFF 	 bl HAL_GetTick
  45              	.LVL0:
  46              	 .loc 1 227 3 view .LVU6
  47 0008 2368     	 ldr r3,[r4]
  48 000a 43F48073 	 orr r3,r3,#256
 224:Drivers/STM32G4xx_HAL_Driver/Src/stm32g4xx_hal_rcc.c **** 
  49              	 .loc 1 224 15 view .LVU7
  50 000e 0546     	 mov r5,r0
  51              	.LVL1:
  52              	 .loc 1 227 3 is_stmt 1 view .LVU8
  53 0010 2360     	 str r3,[r4]
 228:Drivers/STM32G4xx_HAL_Driver/Src/stm32g4xx_hal_rcc.c **** 
 229:Drivers/STM32G4xx_HAL_Driver/Src/stm32g4xx_hal_rcc.c ****   /* Wait till HSI is ready */
 230:Drivers/STM32G4xx_HAL_Driver/Src/stm32g4xx_hal_rcc.c ****   while (READ_BIT(RCC->CR, RCC_CR_HSIRDY) == 0U)
ARM GAS   			page 6


  54              	 .loc 1 230 3 view .LVU9
  55              	 .loc 1 230 9 is_stmt 0 view .LVU10
  56 0012 04E0     	 b .L2
  57              	.LVL2:
  58              	.L4:
 231:Drivers/STM32G4xx_HAL_Driver/Src/stm32g4xx_hal_rcc.c ****   {
 232:Drivers/STM32G4xx_HAL_Driver/Src/stm32g4xx_hal_rcc.c ****     if ((HAL_GetTick() - tickstart) > HSI_TIMEOUT_VALUE)
  59              	 .loc 1 232 10 view .LVU11
  60 0014 FFF7FEFF 	 bl HAL_GetTick
  61              	.LVL3:
  62              	 .loc 1 232 24 discriminator 1 view .LVU12
  63 0018 401B     	 subs r0,r0,r5
  64              	 .loc 1 232 8 discriminator 1 view .LVU13
  65 001a 0228     	 cmp r0,#2
  66 001c 25D8     	 bhi .L6
  67              	.L2:
  68              	 .loc 1 232 5 is_stmt 1 view .LVU14
 230:Drivers/STM32G4xx_HAL_Driver/Src/stm32g4xx_hal_rcc.c ****   {
  69              	 .loc 1 230 43 view .LVU15
 230:Drivers/STM32G4xx_HAL_Driver/Src/stm32g4xx_hal_rcc.c ****   {
  70              	 .loc 1 230 10 is_stmt 0 view .LVU16
  71 001e 2368     	 ldr r3,[r4]
 230:Drivers/STM32G4xx_HAL_Driver/Src/stm32g4xx_hal_rcc.c ****   {
  72              	 .loc 1 230 43 view .LVU17
  73 0020 5B05     	 lsls r3,r3,#21
  74 0022 F7D5     	 bpl .L4
 233:Drivers/STM32G4xx_HAL_Driver/Src/stm32g4xx_hal_rcc.c ****     {
 234:Drivers/STM32G4xx_HAL_Driver/Src/stm32g4xx_hal_rcc.c ****       return HAL_TIMEOUT;
 235:Drivers/STM32G4xx_HAL_Driver/Src/stm32g4xx_hal_rcc.c ****     }
 236:Drivers/STM32G4xx_HAL_Driver/Src/stm32g4xx_hal_rcc.c ****   }
 237:Drivers/STM32G4xx_HAL_Driver/Src/stm32g4xx_hal_rcc.c **** 
 238:Drivers/STM32G4xx_HAL_Driver/Src/stm32g4xx_hal_rcc.c ****  /* Set HSITRIM[6:0] bits to the reset value */
 239:Drivers/STM32G4xx_HAL_Driver/Src/stm32g4xx_hal_rcc.c ****   SET_BIT(RCC->ICSCR, RCC_HSICALIBRATION_DEFAULT << RCC_ICSCR_HSITRIM_Pos);
  75              	 .loc 1 239 3 is_stmt 1 view .LVU18
  76 0024 6368     	 ldr r3,[r4,#4]
 240:Drivers/STM32G4xx_HAL_Driver/Src/stm32g4xx_hal_rcc.c **** 
 241:Drivers/STM32G4xx_HAL_Driver/Src/stm32g4xx_hal_rcc.c ****   /* Get Start Tick*/
 242:Drivers/STM32G4xx_HAL_Driver/Src/stm32g4xx_hal_rcc.c ****   tickstart = HAL_GetTick();
 243:Drivers/STM32G4xx_HAL_Driver/Src/stm32g4xx_hal_rcc.c **** 
 244:Drivers/STM32G4xx_HAL_Driver/Src/stm32g4xx_hal_rcc.c ****   /* Reset CFGR register (HSI is selected as system clock source) */
 245:Drivers/STM32G4xx_HAL_Driver/Src/stm32g4xx_hal_rcc.c ****   RCC->CFGR = 0x00000001u;
 246:Drivers/STM32G4xx_HAL_Driver/Src/stm32g4xx_hal_rcc.c **** 
 247:Drivers/STM32G4xx_HAL_Driver/Src/stm32g4xx_hal_rcc.c ****   /* Wait till HSI is ready */
 248:Drivers/STM32G4xx_HAL_Driver/Src/stm32g4xx_hal_rcc.c ****   while (READ_BIT(RCC->CFGR, RCC_CFGR_SWS) != RCC_CFGR_SWS_HSI)
  77              	 .loc 1 248 10 is_stmt 0 view .LVU19
  78 0026 224E     	 ldr r6,.L15
 239:Drivers/STM32G4xx_HAL_Driver/Src/stm32g4xx_hal_rcc.c **** 
  79              	 .loc 1 239 3 view .LVU20
  80 0028 43F08043 	 orr r3,r3,#1073741824
  81 002c 6360     	 str r3,[r4,#4]
 242:Drivers/STM32G4xx_HAL_Driver/Src/stm32g4xx_hal_rcc.c **** 
  82              	 .loc 1 242 3 is_stmt 1 view .LVU21
 242:Drivers/STM32G4xx_HAL_Driver/Src/stm32g4xx_hal_rcc.c **** 
  83              	 .loc 1 242 15 is_stmt 0 view .LVU22
  84 002e FFF7FEFF 	 bl HAL_GetTick
  85              	.LVL4:
 245:Drivers/STM32G4xx_HAL_Driver/Src/stm32g4xx_hal_rcc.c **** 
ARM GAS   			page 7


  86              	 .loc 1 245 13 view .LVU23
  87 0032 0123     	 movs r3,#1
  88 0034 A360     	 str r3,[r4,#8]
 242:Drivers/STM32G4xx_HAL_Driver/Src/stm32g4xx_hal_rcc.c **** 
  89              	 .loc 1 242 15 view .LVU24
  90 0036 0546     	 mov r5,r0
  91              	.LVL5:
 245:Drivers/STM32G4xx_HAL_Driver/Src/stm32g4xx_hal_rcc.c **** 
  92              	 .loc 1 245 3 is_stmt 1 view .LVU25
  93              	 .loc 1 248 3 view .LVU26
 249:Drivers/STM32G4xx_HAL_Driver/Src/stm32g4xx_hal_rcc.c ****   {
 250:Drivers/STM32G4xx_HAL_Driver/Src/stm32g4xx_hal_rcc.c ****     if ((HAL_GetTick() - tickstart) > CLOCKSWITCH_TIMEOUT_VALUE)
  94              	 .loc 1 250 8 is_stmt 0 discriminator 1 view .LVU27
  95 0038 41F28834 	 movw r4,#5000
 248:Drivers/STM32G4xx_HAL_Driver/Src/stm32g4xx_hal_rcc.c ****   {
  96              	 .loc 1 248 9 view .LVU28
  97 003c 04E0     	 b .L5
  98              	.LVL6:
  99              	.L7:
 100              	 .loc 1 250 10 view .LVU29
 101 003e FFF7FEFF 	 bl HAL_GetTick
 102              	.LVL7:
 103              	 .loc 1 250 24 discriminator 1 view .LVU30
 104 0042 401B     	 subs r0,r0,r5
 105              	 .loc 1 250 8 discriminator 1 view .LVU31
 106 0044 A042     	 cmp r0,r4
 107 0046 10D8     	 bhi .L6
 108              	.L5:
 109              	 .loc 1 250 5 is_stmt 1 view .LVU32
 248:Drivers/STM32G4xx_HAL_Driver/Src/stm32g4xx_hal_rcc.c ****   {
 110              	 .loc 1 248 44 view .LVU33
 248:Drivers/STM32G4xx_HAL_Driver/Src/stm32g4xx_hal_rcc.c ****   {
 111              	 .loc 1 248 10 is_stmt 0 view .LVU34
 112 0048 B368     	 ldr r3,[r6,#8]
 113 004a 03F00C03 	 and r3,r3,#12
 248:Drivers/STM32G4xx_HAL_Driver/Src/stm32g4xx_hal_rcc.c ****   {
 114              	 .loc 1 248 44 view .LVU35
 115 004e 042B     	 cmp r3,#4
 116 0050 F5D1     	 bne .L7
 251:Drivers/STM32G4xx_HAL_Driver/Src/stm32g4xx_hal_rcc.c ****     {
 252:Drivers/STM32G4xx_HAL_Driver/Src/stm32g4xx_hal_rcc.c ****       return HAL_TIMEOUT;
 253:Drivers/STM32G4xx_HAL_Driver/Src/stm32g4xx_hal_rcc.c ****     }
 254:Drivers/STM32G4xx_HAL_Driver/Src/stm32g4xx_hal_rcc.c ****   }
 255:Drivers/STM32G4xx_HAL_Driver/Src/stm32g4xx_hal_rcc.c **** 
 256:Drivers/STM32G4xx_HAL_Driver/Src/stm32g4xx_hal_rcc.c ****   /* Update the SystemCoreClock global variable */
 257:Drivers/STM32G4xx_HAL_Driver/Src/stm32g4xx_hal_rcc.c ****   SystemCoreClock = HSI_VALUE;
 117              	 .loc 1 257 3 is_stmt 1 view .LVU36
 258:Drivers/STM32G4xx_HAL_Driver/Src/stm32g4xx_hal_rcc.c **** 
 259:Drivers/STM32G4xx_HAL_Driver/Src/stm32g4xx_hal_rcc.c ****   /* Adapt Systick interrupt period */
 260:Drivers/STM32G4xx_HAL_Driver/Src/stm32g4xx_hal_rcc.c ****   if (HAL_InitTick(uwTickPrio) != HAL_OK)
 118              	 .loc 1 260 7 is_stmt 0 view .LVU37
 119 0052 1849     	 ldr r1,.L15+4
 257:Drivers/STM32G4xx_HAL_Driver/Src/stm32g4xx_hal_rcc.c **** 
 120              	 .loc 1 257 19 view .LVU38
 121 0054 184B     	 ldr r3,.L15+8
 122 0056 194A     	 ldr r2,.L15+12
 123              	 .loc 1 260 7 view .LVU39
ARM GAS   			page 8


 124 0058 0868     	 ldr r0,[r1]
 257:Drivers/STM32G4xx_HAL_Driver/Src/stm32g4xx_hal_rcc.c **** 
 125              	 .loc 1 257 19 view .LVU40
 126 005a 1A60     	 str r2,[r3]
 127              	 .loc 1 260 3 is_stmt 1 view .LVU41
 128              	 .loc 1 260 7 is_stmt 0 view .LVU42
 129 005c FFF7FEFF 	 bl HAL_InitTick
 130              	.LVL8:
 131              	 .loc 1 260 6 discriminator 1 view .LVU43
 132 0060 0446     	 mov r4,r0
 133 0062 28B1     	 cbz r0,.L14
 261:Drivers/STM32G4xx_HAL_Driver/Src/stm32g4xx_hal_rcc.c ****   {
 262:Drivers/STM32G4xx_HAL_Driver/Src/stm32g4xx_hal_rcc.c ****     return HAL_ERROR;
 134              	 .loc 1 262 12 view .LVU44
 135 0064 0124     	 movs r4,#1
 263:Drivers/STM32G4xx_HAL_Driver/Src/stm32g4xx_hal_rcc.c ****   }
 264:Drivers/STM32G4xx_HAL_Driver/Src/stm32g4xx_hal_rcc.c **** 
 265:Drivers/STM32G4xx_HAL_Driver/Src/stm32g4xx_hal_rcc.c ****   /* Clear CR register in 2 steps: first to clear HSEON in case bypass was enabled */
 266:Drivers/STM32G4xx_HAL_Driver/Src/stm32g4xx_hal_rcc.c ****   RCC->CR = RCC_CR_HSION;
 267:Drivers/STM32G4xx_HAL_Driver/Src/stm32g4xx_hal_rcc.c **** 
 268:Drivers/STM32G4xx_HAL_Driver/Src/stm32g4xx_hal_rcc.c ****   /* Then again to HSEBYP in case bypass was enabled */
 269:Drivers/STM32G4xx_HAL_Driver/Src/stm32g4xx_hal_rcc.c ****   RCC->CR = RCC_CR_HSION;
 270:Drivers/STM32G4xx_HAL_Driver/Src/stm32g4xx_hal_rcc.c **** 
 271:Drivers/STM32G4xx_HAL_Driver/Src/stm32g4xx_hal_rcc.c ****   /* Get Start Tick*/
 272:Drivers/STM32G4xx_HAL_Driver/Src/stm32g4xx_hal_rcc.c ****   tickstart = HAL_GetTick();
 273:Drivers/STM32G4xx_HAL_Driver/Src/stm32g4xx_hal_rcc.c **** 
 274:Drivers/STM32G4xx_HAL_Driver/Src/stm32g4xx_hal_rcc.c ****   /* Wait till PLL is OFF */
 275:Drivers/STM32G4xx_HAL_Driver/Src/stm32g4xx_hal_rcc.c ****   while (READ_BIT(RCC->CR, RCC_CR_PLLRDY) != 0U)
 276:Drivers/STM32G4xx_HAL_Driver/Src/stm32g4xx_hal_rcc.c ****   {
 277:Drivers/STM32G4xx_HAL_Driver/Src/stm32g4xx_hal_rcc.c ****     if ((HAL_GetTick() - tickstart) > PLL_TIMEOUT_VALUE)
 278:Drivers/STM32G4xx_HAL_Driver/Src/stm32g4xx_hal_rcc.c ****     {
 279:Drivers/STM32G4xx_HAL_Driver/Src/stm32g4xx_hal_rcc.c ****       return HAL_TIMEOUT;
 280:Drivers/STM32G4xx_HAL_Driver/Src/stm32g4xx_hal_rcc.c ****     }
 281:Drivers/STM32G4xx_HAL_Driver/Src/stm32g4xx_hal_rcc.c ****   }
 282:Drivers/STM32G4xx_HAL_Driver/Src/stm32g4xx_hal_rcc.c **** 
 283:Drivers/STM32G4xx_HAL_Driver/Src/stm32g4xx_hal_rcc.c ****   /* once PLL is OFF, reset PLLCFGR register to default value */
 284:Drivers/STM32G4xx_HAL_Driver/Src/stm32g4xx_hal_rcc.c ****   RCC->PLLCFGR = RCC_PLLCFGR_PLLN_4;
 285:Drivers/STM32G4xx_HAL_Driver/Src/stm32g4xx_hal_rcc.c **** 
 286:Drivers/STM32G4xx_HAL_Driver/Src/stm32g4xx_hal_rcc.c ****   /* Disable all interrupts */
 287:Drivers/STM32G4xx_HAL_Driver/Src/stm32g4xx_hal_rcc.c ****   CLEAR_REG(RCC->CIER);
 288:Drivers/STM32G4xx_HAL_Driver/Src/stm32g4xx_hal_rcc.c **** 
 289:Drivers/STM32G4xx_HAL_Driver/Src/stm32g4xx_hal_rcc.c ****   /* Clear all interrupt flags */
 290:Drivers/STM32G4xx_HAL_Driver/Src/stm32g4xx_hal_rcc.c ****   WRITE_REG(RCC->CICR, 0xFFFFFFFFU);
 291:Drivers/STM32G4xx_HAL_Driver/Src/stm32g4xx_hal_rcc.c **** 
 292:Drivers/STM32G4xx_HAL_Driver/Src/stm32g4xx_hal_rcc.c ****   /* Clear all reset flags */
 293:Drivers/STM32G4xx_HAL_Driver/Src/stm32g4xx_hal_rcc.c ****   SET_BIT(RCC->CSR, RCC_CSR_RMVF);
 294:Drivers/STM32G4xx_HAL_Driver/Src/stm32g4xx_hal_rcc.c **** 
 295:Drivers/STM32G4xx_HAL_Driver/Src/stm32g4xx_hal_rcc.c ****   return HAL_OK;
 296:Drivers/STM32G4xx_HAL_Driver/Src/stm32g4xx_hal_rcc.c **** }
 136              	 .loc 1 296 1 view .LVU45
 137 0066 2046     	 mov r0,r4
 138 0068 70BD     	 pop {r4,r5,r6,pc}
 139              	.LVL9:
 140              	.L6:
 234:Drivers/STM32G4xx_HAL_Driver/Src/stm32g4xx_hal_rcc.c ****     }
 141              	 .loc 1 234 14 view .LVU46
 142 006a 0324     	 movs r4,#3
ARM GAS   			page 9


 143              	.L3:
 144              	 .loc 1 296 1 view .LVU47
 145 006c 2046     	 mov r0,r4
 146 006e 70BD     	 pop {r4,r5,r6,pc}
 147              	.LVL10:
 148              	.L14:
 266:Drivers/STM32G4xx_HAL_Driver/Src/stm32g4xx_hal_rcc.c **** 
 149              	 .loc 1 266 3 is_stmt 1 view .LVU48
 266:Drivers/STM32G4xx_HAL_Driver/Src/stm32g4xx_hal_rcc.c **** 
 150              	 .loc 1 266 11 is_stmt 0 view .LVU49
 151 0070 4FF48073 	 mov r3,#256
 152 0074 3360     	 str r3,[r6]
 269:Drivers/STM32G4xx_HAL_Driver/Src/stm32g4xx_hal_rcc.c **** 
 153              	 .loc 1 269 3 is_stmt 1 view .LVU50
 269:Drivers/STM32G4xx_HAL_Driver/Src/stm32g4xx_hal_rcc.c **** 
 154              	 .loc 1 269 11 is_stmt 0 view .LVU51
 155 0076 3360     	 str r3,[r6]
 272:Drivers/STM32G4xx_HAL_Driver/Src/stm32g4xx_hal_rcc.c **** 
 156              	 .loc 1 272 3 is_stmt 1 view .LVU52
 272:Drivers/STM32G4xx_HAL_Driver/Src/stm32g4xx_hal_rcc.c **** 
 157              	 .loc 1 272 15 is_stmt 0 view .LVU53
 158 0078 FFF7FEFF 	 bl HAL_GetTick
 159              	.LVL11:
 275:Drivers/STM32G4xx_HAL_Driver/Src/stm32g4xx_hal_rcc.c ****   {
 160              	 .loc 1 275 10 view .LVU54
 161 007c 0C4D     	 ldr r5,.L15
 162              	.LVL12:
 272:Drivers/STM32G4xx_HAL_Driver/Src/stm32g4xx_hal_rcc.c **** 
 163              	 .loc 1 272 15 view .LVU55
 164 007e 0646     	 mov r6,r0
 165              	.LVL13:
 275:Drivers/STM32G4xx_HAL_Driver/Src/stm32g4xx_hal_rcc.c ****   {
 166              	 .loc 1 275 3 is_stmt 1 view .LVU56
 275:Drivers/STM32G4xx_HAL_Driver/Src/stm32g4xx_hal_rcc.c ****   {
 167              	 .loc 1 275 9 is_stmt 0 view .LVU57
 168 0080 04E0     	 b .L8
 169              	.LVL14:
 170              	.L9:
 277:Drivers/STM32G4xx_HAL_Driver/Src/stm32g4xx_hal_rcc.c ****     {
 171              	 .loc 1 277 10 view .LVU58
 172 0082 FFF7FEFF 	 bl HAL_GetTick
 173              	.LVL15:
 277:Drivers/STM32G4xx_HAL_Driver/Src/stm32g4xx_hal_rcc.c ****     {
 174              	 .loc 1 277 24 discriminator 1 view .LVU59
 175 0086 831B     	 subs r3,r0,r6
 277:Drivers/STM32G4xx_HAL_Driver/Src/stm32g4xx_hal_rcc.c ****     {
 176              	 .loc 1 277 8 discriminator 1 view .LVU60
 177 0088 022B     	 cmp r3,#2
 178 008a EED8     	 bhi .L6
 179              	.L8:
 277:Drivers/STM32G4xx_HAL_Driver/Src/stm32g4xx_hal_rcc.c ****     {
 180              	 .loc 1 277 5 is_stmt 1 view .LVU61
 275:Drivers/STM32G4xx_HAL_Driver/Src/stm32g4xx_hal_rcc.c ****   {
 181              	 .loc 1 275 43 view .LVU62
 275:Drivers/STM32G4xx_HAL_Driver/Src/stm32g4xx_hal_rcc.c ****   {
 182              	 .loc 1 275 10 is_stmt 0 view .LVU63
 183 008c 2B68     	 ldr r3,[r5]
ARM GAS   			page 10


 275:Drivers/STM32G4xx_HAL_Driver/Src/stm32g4xx_hal_rcc.c ****   {
 184              	 .loc 1 275 43 view .LVU64
 185 008e 13F00073 	 ands r3,r3,#33554432
 186 0092 F6D1     	 bne .L9
 284:Drivers/STM32G4xx_HAL_Driver/Src/stm32g4xx_hal_rcc.c **** 
 187              	 .loc 1 284 3 is_stmt 1 view .LVU65
 284:Drivers/STM32G4xx_HAL_Driver/Src/stm32g4xx_hal_rcc.c **** 
 188              	 .loc 1 284 16 is_stmt 0 view .LVU66
 189 0094 4FF48051 	 mov r1,#4096
 290:Drivers/STM32G4xx_HAL_Driver/Src/stm32g4xx_hal_rcc.c **** 
 190              	 .loc 1 290 3 view .LVU67
 191 0098 4FF0FF32 	 mov r2,#-1
 284:Drivers/STM32G4xx_HAL_Driver/Src/stm32g4xx_hal_rcc.c **** 
 192              	 .loc 1 284 16 view .LVU68
 193 009c E960     	 str r1,[r5,#12]
 287:Drivers/STM32G4xx_HAL_Driver/Src/stm32g4xx_hal_rcc.c **** 
 194              	 .loc 1 287 3 is_stmt 1 view .LVU69
 195 009e AB61     	 str r3,[r5,#24]
 290:Drivers/STM32G4xx_HAL_Driver/Src/stm32g4xx_hal_rcc.c **** 
 196              	 .loc 1 290 3 view .LVU70
 197 00a0 2A62     	 str r2,[r5,#32]
 293:Drivers/STM32G4xx_HAL_Driver/Src/stm32g4xx_hal_rcc.c **** 
 198              	 .loc 1 293 3 view .LVU71
 199 00a2 D5F89430 	 ldr r3,[r5,#148]
 200 00a6 43F40003 	 orr r3,r3,#8388608
 201 00aa C5F89430 	 str r3,[r5,#148]
 295:Drivers/STM32G4xx_HAL_Driver/Src/stm32g4xx_hal_rcc.c **** }
 202              	 .loc 1 295 3 view .LVU72
 295:Drivers/STM32G4xx_HAL_Driver/Src/stm32g4xx_hal_rcc.c **** }
 203              	 .loc 1 295 10 is_stmt 0 view .LVU73
 204 00ae DDE7     	 b .L3
 205              	.L16:
 206              	 .align 2
 207              	.L15:
 208 00b0 00100240 	 .word 1073876992
 209 00b4 00000000 	 .word uwTickPrio
 210 00b8 00000000 	 .word SystemCoreClock
 211 00bc 0024F400 	 .word 16000000
 212              	 .cfi_endproc
 213              	.LFE361:
 215              	 .section .text.HAL_RCC_OscConfig,"ax",%progbits
 216              	 .align 1
 217              	 .p2align 2,,3
 218              	 .global HAL_RCC_OscConfig
 219              	 .syntax unified
 220              	 .thumb
 221              	 .thumb_func
 223              	HAL_RCC_OscConfig:
 224              	.LVL16:
 225              	.LFB362:
 297:Drivers/STM32G4xx_HAL_Driver/Src/stm32g4xx_hal_rcc.c **** 
 298:Drivers/STM32G4xx_HAL_Driver/Src/stm32g4xx_hal_rcc.c **** /**
 299:Drivers/STM32G4xx_HAL_Driver/Src/stm32g4xx_hal_rcc.c ****   * @brief  Initialize the RCC Oscillators according to the specified parameters in the
 300:Drivers/STM32G4xx_HAL_Driver/Src/stm32g4xx_hal_rcc.c ****   *         RCC_OscInitTypeDef.
 301:Drivers/STM32G4xx_HAL_Driver/Src/stm32g4xx_hal_rcc.c ****   * @param  RCC_OscInitStruct  pointer to an RCC_OscInitTypeDef structure that
 302:Drivers/STM32G4xx_HAL_Driver/Src/stm32g4xx_hal_rcc.c ****   *         contains the configuration information for the RCC Oscillators.
 303:Drivers/STM32G4xx_HAL_Driver/Src/stm32g4xx_hal_rcc.c ****   * @note   The PLL is not disabled when used as system clock.
ARM GAS   			page 11


 304:Drivers/STM32G4xx_HAL_Driver/Src/stm32g4xx_hal_rcc.c ****   * @note   Transitions LSE Bypass to LSE On and LSE On to LSE Bypass are not
 305:Drivers/STM32G4xx_HAL_Driver/Src/stm32g4xx_hal_rcc.c ****   *         supported by this macro. User should request a transition to LSE Off
 306:Drivers/STM32G4xx_HAL_Driver/Src/stm32g4xx_hal_rcc.c ****   *         first and then LSE On or LSE Bypass.
 307:Drivers/STM32G4xx_HAL_Driver/Src/stm32g4xx_hal_rcc.c ****   * @note   Transition HSE Bypass to HSE On and HSE On to HSE Bypass are not
 308:Drivers/STM32G4xx_HAL_Driver/Src/stm32g4xx_hal_rcc.c ****   *         supported by this macro. User should request a transition to HSE Off
 309:Drivers/STM32G4xx_HAL_Driver/Src/stm32g4xx_hal_rcc.c ****   *         first and then HSE On or HSE Bypass.
 310:Drivers/STM32G4xx_HAL_Driver/Src/stm32g4xx_hal_rcc.c ****   * @retval HAL status
 311:Drivers/STM32G4xx_HAL_Driver/Src/stm32g4xx_hal_rcc.c ****   */
 312:Drivers/STM32G4xx_HAL_Driver/Src/stm32g4xx_hal_rcc.c **** HAL_StatusTypeDef HAL_RCC_OscConfig(RCC_OscInitTypeDef  *RCC_OscInitStruct)
 313:Drivers/STM32G4xx_HAL_Driver/Src/stm32g4xx_hal_rcc.c **** {
 226              	 .loc 1 313 1 is_stmt 1 view-0
 227              	 .cfi_startproc
 228              	 
 229              	 
 314:Drivers/STM32G4xx_HAL_Driver/Src/stm32g4xx_hal_rcc.c ****   uint32_t tickstart;
 230              	 .loc 1 314 3 view .LVU75
 315:Drivers/STM32G4xx_HAL_Driver/Src/stm32g4xx_hal_rcc.c ****   uint32_t temp_sysclksrc;
 231              	 .loc 1 315 3 view .LVU76
 316:Drivers/STM32G4xx_HAL_Driver/Src/stm32g4xx_hal_rcc.c ****   uint32_t temp_pllckcfg;
 232              	 .loc 1 316 3 view .LVU77
 317:Drivers/STM32G4xx_HAL_Driver/Src/stm32g4xx_hal_rcc.c **** 
 318:Drivers/STM32G4xx_HAL_Driver/Src/stm32g4xx_hal_rcc.c ****   /* Check Null pointer */
 319:Drivers/STM32G4xx_HAL_Driver/Src/stm32g4xx_hal_rcc.c ****   if (RCC_OscInitStruct == NULL)
 233              	 .loc 1 319 3 view .LVU78
 234              	 .loc 1 319 6 is_stmt 0 view .LVU79
 235 0000 0028     	 cmp r0,#0
 236 0002 00F0BD81 	 beq .L131
 320:Drivers/STM32G4xx_HAL_Driver/Src/stm32g4xx_hal_rcc.c ****   {
 321:Drivers/STM32G4xx_HAL_Driver/Src/stm32g4xx_hal_rcc.c ****     return HAL_ERROR;
 322:Drivers/STM32G4xx_HAL_Driver/Src/stm32g4xx_hal_rcc.c ****   }
 323:Drivers/STM32G4xx_HAL_Driver/Src/stm32g4xx_hal_rcc.c **** 
 324:Drivers/STM32G4xx_HAL_Driver/Src/stm32g4xx_hal_rcc.c ****   /* Check the parameters */
 325:Drivers/STM32G4xx_HAL_Driver/Src/stm32g4xx_hal_rcc.c ****   assert_param(IS_RCC_OSCILLATORTYPE(RCC_OscInitStruct->OscillatorType));
 237              	 .loc 1 325 3 is_stmt 1 view .LVU80
 326:Drivers/STM32G4xx_HAL_Driver/Src/stm32g4xx_hal_rcc.c **** 
 327:Drivers/STM32G4xx_HAL_Driver/Src/stm32g4xx_hal_rcc.c ****   /*------------------------------- HSE Configuration ------------------------*/
 328:Drivers/STM32G4xx_HAL_Driver/Src/stm32g4xx_hal_rcc.c ****   if (((RCC_OscInitStruct->OscillatorType) & RCC_OSCILLATORTYPE_HSE) == RCC_OSCILLATORTYPE_HSE)
 238              	 .loc 1 328 3 view .LVU81
 313:Drivers/STM32G4xx_HAL_Driver/Src/stm32g4xx_hal_rcc.c ****   uint32_t tickstart;
 239              	 .loc 1 313 1 is_stmt 0 view .LVU82
 240 0006 2DE9F041 	 push {r4,r5,r6,r7,r8,lr}
 241              	 .cfi_def_cfa_offset 24
 242              	 .cfi_offset 4,-24
 243              	 .cfi_offset 5,-20
 244              	 .cfi_offset 6,-16
 245              	 .cfi_offset 7,-12
 246              	 .cfi_offset 8,-8
 247              	 .cfi_offset 14,-4
 248              	 .loc 1 328 26 view .LVU83
 249 000a 0368     	 ldr r3,[r0]
 250              	 .loc 1 328 6 view .LVU84
 251 000c D907     	 lsls r1,r3,#31
 313:Drivers/STM32G4xx_HAL_Driver/Src/stm32g4xx_hal_rcc.c ****   uint32_t tickstart;
 252              	 .loc 1 313 1 view .LVU85
 253 000e 82B0     	 sub sp,sp,#8
 254              	 .cfi_def_cfa_offset 32
 255 0010 0446     	 mov r4,r0
ARM GAS   			page 12


 256              	 .loc 1 328 6 view .LVU86
 257 0012 12D5     	 bpl .L20
 329:Drivers/STM32G4xx_HAL_Driver/Src/stm32g4xx_hal_rcc.c ****   {
 330:Drivers/STM32G4xx_HAL_Driver/Src/stm32g4xx_hal_rcc.c ****     /* Check the parameters */
 331:Drivers/STM32G4xx_HAL_Driver/Src/stm32g4xx_hal_rcc.c ****     assert_param(IS_RCC_HSE(RCC_OscInitStruct->HSEState));
 258              	 .loc 1 331 5 is_stmt 1 view .LVU87
 332:Drivers/STM32G4xx_HAL_Driver/Src/stm32g4xx_hal_rcc.c **** 
 333:Drivers/STM32G4xx_HAL_Driver/Src/stm32g4xx_hal_rcc.c ****     temp_sysclksrc = __HAL_RCC_GET_SYSCLK_SOURCE();
 259              	 .loc 1 333 5 view .LVU88
 260              	 .loc 1 333 22 is_stmt 0 view .LVU89
 261 0014 A649     	 ldr r1,.L140
 262 0016 8A68     	 ldr r2,[r1,#8]
 334:Drivers/STM32G4xx_HAL_Driver/Src/stm32g4xx_hal_rcc.c ****     temp_pllckcfg = __HAL_RCC_GET_PLL_OSCSOURCE();
 263              	 .loc 1 334 21 view .LVU90
 264 0018 C968     	 ldr r1,[r1,#12]
 333:Drivers/STM32G4xx_HAL_Driver/Src/stm32g4xx_hal_rcc.c ****     temp_pllckcfg = __HAL_RCC_GET_PLL_OSCSOURCE();
 265              	 .loc 1 333 20 view .LVU91
 266 001a 02F00C02 	 and r2,r2,#12
 267              	.LVL17:
 268              	 .loc 1 334 5 is_stmt 1 view .LVU92
 335:Drivers/STM32G4xx_HAL_Driver/Src/stm32g4xx_hal_rcc.c **** 
 336:Drivers/STM32G4xx_HAL_Driver/Src/stm32g4xx_hal_rcc.c ****     /* When the HSE is used as system clock or clock source for PLL in these cases it is not allowe
 337:Drivers/STM32G4xx_HAL_Driver/Src/stm32g4xx_hal_rcc.c ****     if (((temp_sysclksrc == RCC_CFGR_SWS_PLL) && (temp_pllckcfg == RCC_PLLSOURCE_HSE)) || (temp_sys
 269              	 .loc 1 337 5 view .LVU93
 270              	 .loc 1 337 8 is_stmt 0 view .LVU94
 271 001e 0C2A     	 cmp r2,#12
 272 0020 00F0D080 	 beq .L132
 273              	 .loc 1 337 88 discriminator 3 view .LVU95
 274 0024 082A     	 cmp r2,#8
 275 0026 40F0D280 	 bne .L23
 276              	.LVL18:
 277              	.L22:
 338:Drivers/STM32G4xx_HAL_Driver/Src/stm32g4xx_hal_rcc.c ****     {
 339:Drivers/STM32G4xx_HAL_Driver/Src/stm32g4xx_hal_rcc.c ****       if ((READ_BIT(RCC->CR, RCC_CR_HSERDY) != 0U) && (RCC_OscInitStruct->HSEState == RCC_HSE_OFF))
 278              	 .loc 1 339 7 is_stmt 1 view .LVU96
 279              	 .loc 1 339 12 is_stmt 0 view .LVU97
 280 002a A14A     	 ldr r2,.L140
 281              	.LVL19:
 282              	 .loc 1 339 12 view .LVU98
 283 002c 1268     	 ldr r2,[r2]
 284              	 .loc 1 339 10 view .LVU99
 285 002e 9203     	 lsls r2,r2,#14
 286 0030 03D5     	 bpl .L20
 287              	 .loc 1 339 52 discriminator 1 view .LVU100
 288 0032 6268     	 ldr r2,[r4,#4]
 289 0034 002A     	 cmp r2,#0
 290 0036 00F03781 	 beq .L86
 291              	.LVL20:
 292              	.L20:
 340:Drivers/STM32G4xx_HAL_Driver/Src/stm32g4xx_hal_rcc.c ****       {
 341:Drivers/STM32G4xx_HAL_Driver/Src/stm32g4xx_hal_rcc.c ****         return HAL_ERROR;
 342:Drivers/STM32G4xx_HAL_Driver/Src/stm32g4xx_hal_rcc.c ****       }
 343:Drivers/STM32G4xx_HAL_Driver/Src/stm32g4xx_hal_rcc.c ****     }
 344:Drivers/STM32G4xx_HAL_Driver/Src/stm32g4xx_hal_rcc.c ****     else
 345:Drivers/STM32G4xx_HAL_Driver/Src/stm32g4xx_hal_rcc.c ****     {
 346:Drivers/STM32G4xx_HAL_Driver/Src/stm32g4xx_hal_rcc.c ****       /* Set the new HSE configuration ---------------------------------------*/
 347:Drivers/STM32G4xx_HAL_Driver/Src/stm32g4xx_hal_rcc.c ****       __HAL_RCC_HSE_CONFIG(RCC_OscInitStruct->HSEState);
ARM GAS   			page 13


 348:Drivers/STM32G4xx_HAL_Driver/Src/stm32g4xx_hal_rcc.c **** 
 349:Drivers/STM32G4xx_HAL_Driver/Src/stm32g4xx_hal_rcc.c ****       /* Check the HSE State */
 350:Drivers/STM32G4xx_HAL_Driver/Src/stm32g4xx_hal_rcc.c ****       if (RCC_OscInitStruct->HSEState != RCC_HSE_OFF)
 351:Drivers/STM32G4xx_HAL_Driver/Src/stm32g4xx_hal_rcc.c ****       {
 352:Drivers/STM32G4xx_HAL_Driver/Src/stm32g4xx_hal_rcc.c ****         /* Get Start Tick*/
 353:Drivers/STM32G4xx_HAL_Driver/Src/stm32g4xx_hal_rcc.c ****         tickstart = HAL_GetTick();
 354:Drivers/STM32G4xx_HAL_Driver/Src/stm32g4xx_hal_rcc.c **** 
 355:Drivers/STM32G4xx_HAL_Driver/Src/stm32g4xx_hal_rcc.c ****         /* Wait till HSE is ready */
 356:Drivers/STM32G4xx_HAL_Driver/Src/stm32g4xx_hal_rcc.c ****         while (READ_BIT(RCC->CR, RCC_CR_HSERDY) == 0U)
 357:Drivers/STM32G4xx_HAL_Driver/Src/stm32g4xx_hal_rcc.c ****         {
 358:Drivers/STM32G4xx_HAL_Driver/Src/stm32g4xx_hal_rcc.c ****           if ((HAL_GetTick() - tickstart) > HSE_TIMEOUT_VALUE)
 359:Drivers/STM32G4xx_HAL_Driver/Src/stm32g4xx_hal_rcc.c ****           {
 360:Drivers/STM32G4xx_HAL_Driver/Src/stm32g4xx_hal_rcc.c ****             return HAL_TIMEOUT;
 361:Drivers/STM32G4xx_HAL_Driver/Src/stm32g4xx_hal_rcc.c ****           }
 362:Drivers/STM32G4xx_HAL_Driver/Src/stm32g4xx_hal_rcc.c ****         }
 363:Drivers/STM32G4xx_HAL_Driver/Src/stm32g4xx_hal_rcc.c ****       }
 364:Drivers/STM32G4xx_HAL_Driver/Src/stm32g4xx_hal_rcc.c ****       else
 365:Drivers/STM32G4xx_HAL_Driver/Src/stm32g4xx_hal_rcc.c ****       {
 366:Drivers/STM32G4xx_HAL_Driver/Src/stm32g4xx_hal_rcc.c ****         /* Get Start Tick*/
 367:Drivers/STM32G4xx_HAL_Driver/Src/stm32g4xx_hal_rcc.c ****         tickstart = HAL_GetTick();
 368:Drivers/STM32G4xx_HAL_Driver/Src/stm32g4xx_hal_rcc.c **** 
 369:Drivers/STM32G4xx_HAL_Driver/Src/stm32g4xx_hal_rcc.c ****         /* Wait till HSE is disabled */
 370:Drivers/STM32G4xx_HAL_Driver/Src/stm32g4xx_hal_rcc.c ****         while (READ_BIT(RCC->CR, RCC_CR_HSERDY) != 0U)
 371:Drivers/STM32G4xx_HAL_Driver/Src/stm32g4xx_hal_rcc.c ****         {
 372:Drivers/STM32G4xx_HAL_Driver/Src/stm32g4xx_hal_rcc.c ****           if ((HAL_GetTick() - tickstart) > HSE_TIMEOUT_VALUE)
 373:Drivers/STM32G4xx_HAL_Driver/Src/stm32g4xx_hal_rcc.c ****           {
 374:Drivers/STM32G4xx_HAL_Driver/Src/stm32g4xx_hal_rcc.c ****             return HAL_TIMEOUT;
 375:Drivers/STM32G4xx_HAL_Driver/Src/stm32g4xx_hal_rcc.c ****           }
 376:Drivers/STM32G4xx_HAL_Driver/Src/stm32g4xx_hal_rcc.c ****         }
 377:Drivers/STM32G4xx_HAL_Driver/Src/stm32g4xx_hal_rcc.c ****       }
 378:Drivers/STM32G4xx_HAL_Driver/Src/stm32g4xx_hal_rcc.c ****     }
 379:Drivers/STM32G4xx_HAL_Driver/Src/stm32g4xx_hal_rcc.c ****   }
 380:Drivers/STM32G4xx_HAL_Driver/Src/stm32g4xx_hal_rcc.c ****   /*----------------------------- HSI Configuration --------------------------*/
 381:Drivers/STM32G4xx_HAL_Driver/Src/stm32g4xx_hal_rcc.c ****   if (((RCC_OscInitStruct->OscillatorType) & RCC_OSCILLATORTYPE_HSI) == RCC_OSCILLATORTYPE_HSI)
 293              	 .loc 1 381 3 is_stmt 1 view .LVU101
 294              	 .loc 1 381 6 is_stmt 0 view .LVU102
 295 003a 9A07     	 lsls r2,r3,#30
 296 003c 22D5     	 bpl .L34
 297              	.LVL21:
 298              	.L139:
 382:Drivers/STM32G4xx_HAL_Driver/Src/stm32g4xx_hal_rcc.c ****   {
 383:Drivers/STM32G4xx_HAL_Driver/Src/stm32g4xx_hal_rcc.c ****     /* Check the parameters */
 384:Drivers/STM32G4xx_HAL_Driver/Src/stm32g4xx_hal_rcc.c ****     assert_param(IS_RCC_HSI(RCC_OscInitStruct->HSIState));
 299              	 .loc 1 384 5 is_stmt 1 view .LVU103
 385:Drivers/STM32G4xx_HAL_Driver/Src/stm32g4xx_hal_rcc.c ****     assert_param(IS_RCC_HSI_CALIBRATION_VALUE(RCC_OscInitStruct->HSICalibrationValue));
 300              	 .loc 1 385 5 view .LVU104
 386:Drivers/STM32G4xx_HAL_Driver/Src/stm32g4xx_hal_rcc.c **** 
 387:Drivers/STM32G4xx_HAL_Driver/Src/stm32g4xx_hal_rcc.c ****     /* Check if HSI is used as system clock or as PLL source when PLL is selected as system clock *
 388:Drivers/STM32G4xx_HAL_Driver/Src/stm32g4xx_hal_rcc.c ****     temp_sysclksrc = __HAL_RCC_GET_SYSCLK_SOURCE();
 301              	 .loc 1 388 5 view .LVU105
 302              	 .loc 1 388 22 is_stmt 0 view .LVU106
 303 003e 9C4A     	 ldr r2,.L140
 304 0040 9368     	 ldr r3,[r2,#8]
 389:Drivers/STM32G4xx_HAL_Driver/Src/stm32g4xx_hal_rcc.c ****     temp_pllckcfg = __HAL_RCC_GET_PLL_OSCSOURCE();
 305              	 .loc 1 389 21 view .LVU107
 306 0042 D268     	 ldr r2,[r2,#12]
 388:Drivers/STM32G4xx_HAL_Driver/Src/stm32g4xx_hal_rcc.c ****     temp_pllckcfg = __HAL_RCC_GET_PLL_OSCSOURCE();
ARM GAS   			page 14


 307              	 .loc 1 388 20 view .LVU108
 308 0044 03F00C03 	 and r3,r3,#12
 309              	.LVL22:
 310              	 .loc 1 389 5 is_stmt 1 view .LVU109
 390:Drivers/STM32G4xx_HAL_Driver/Src/stm32g4xx_hal_rcc.c ****     if (((temp_sysclksrc == RCC_CFGR_SWS_PLL) && (temp_pllckcfg == RCC_PLLSOURCE_HSI)) || (temp_sys
 311              	 .loc 1 390 5 view .LVU110
 312              	 .loc 1 390 8 is_stmt 0 view .LVU111
 313 0048 0C2B     	 cmp r3,#12
 314 004a 00F0F880 	 beq .L133
 315              	 .loc 1 390 88 discriminator 3 view .LVU112
 316 004e 042B     	 cmp r3,#4
 317 0050 40F0FA80 	 bne .L37
 318              	.LVL23:
 319              	.L36:
 391:Drivers/STM32G4xx_HAL_Driver/Src/stm32g4xx_hal_rcc.c ****     {
 392:Drivers/STM32G4xx_HAL_Driver/Src/stm32g4xx_hal_rcc.c ****       /* When HSI is used as system clock it will not be disabled */
 393:Drivers/STM32G4xx_HAL_Driver/Src/stm32g4xx_hal_rcc.c ****       if ((READ_BIT(RCC->CR, RCC_CR_HSIRDY) != 0U) && (RCC_OscInitStruct->HSIState == RCC_HSI_OFF))
 320              	 .loc 1 393 7 is_stmt 1 view .LVU113
 321              	 .loc 1 393 12 is_stmt 0 view .LVU114
 322 0054 964B     	 ldr r3,.L140
 323              	.LVL24:
 324              	 .loc 1 393 12 view .LVU115
 325 0056 1B68     	 ldr r3,[r3]
 326              	 .loc 1 393 10 view .LVU116
 327 0058 5B05     	 lsls r3,r3,#21
 328 005a 03D5     	 bpl .L38
 329              	 .loc 1 393 52 discriminator 1 view .LVU117
 330 005c E368     	 ldr r3,[r4,#12]
 331 005e 002B     	 cmp r3,#0
 332 0060 00F02281 	 beq .L86
 333              	.L38:
 394:Drivers/STM32G4xx_HAL_Driver/Src/stm32g4xx_hal_rcc.c ****       {
 395:Drivers/STM32G4xx_HAL_Driver/Src/stm32g4xx_hal_rcc.c ****         return HAL_ERROR;
 396:Drivers/STM32G4xx_HAL_Driver/Src/stm32g4xx_hal_rcc.c ****       }
 397:Drivers/STM32G4xx_HAL_Driver/Src/stm32g4xx_hal_rcc.c ****       /* Otherwise, just the calibration is allowed */
 398:Drivers/STM32G4xx_HAL_Driver/Src/stm32g4xx_hal_rcc.c ****       else
 399:Drivers/STM32G4xx_HAL_Driver/Src/stm32g4xx_hal_rcc.c ****       {
 400:Drivers/STM32G4xx_HAL_Driver/Src/stm32g4xx_hal_rcc.c ****         /* Adjusts the Internal High Speed oscillator (HSI) calibration value.*/
 401:Drivers/STM32G4xx_HAL_Driver/Src/stm32g4xx_hal_rcc.c ****         __HAL_RCC_HSI_CALIBRATIONVALUE_ADJUST(RCC_OscInitStruct->HSICalibrationValue);
 334              	 .loc 1 401 9 is_stmt 1 view .LVU118
 335 0064 924A     	 ldr r2,.L140
 336 0066 2069     	 ldr r0,[r4,#16]
 337 0068 5368     	 ldr r3,[r2,#4]
 402:Drivers/STM32G4xx_HAL_Driver/Src/stm32g4xx_hal_rcc.c **** 
 403:Drivers/STM32G4xx_HAL_Driver/Src/stm32g4xx_hal_rcc.c ****         /* Adapt Systick interrupt period */
 404:Drivers/STM32G4xx_HAL_Driver/Src/stm32g4xx_hal_rcc.c ****         if (HAL_InitTick(uwTickPrio) != HAL_OK)
 338              	 .loc 1 404 13 is_stmt 0 view .LVU119
 339 006a 9249     	 ldr r1,.L140+4
 401:Drivers/STM32G4xx_HAL_Driver/Src/stm32g4xx_hal_rcc.c **** 
 340              	 .loc 1 401 9 view .LVU120
 341 006c 23F0FE43 	 bic r3,r3,#2130706432
 342 0070 43EA0063 	 orr r3,r3,r0,lsl#24
 343 0074 5360     	 str r3,[r2,#4]
 344              	 .loc 1 404 9 is_stmt 1 view .LVU121
 345              	 .loc 1 404 13 is_stmt 0 view .LVU122
 346 0076 0868     	 ldr r0,[r1]
 347 0078 FFF7FEFF 	 bl HAL_InitTick
ARM GAS   			page 15


 348              	.LVL25:
 349              	 .loc 1 404 12 discriminator 1 view .LVU123
 350 007c 0028     	 cmp r0,#0
 351 007e 40F01381 	 bne .L86
 352              	.L128:
 405:Drivers/STM32G4xx_HAL_Driver/Src/stm32g4xx_hal_rcc.c ****         {
 406:Drivers/STM32G4xx_HAL_Driver/Src/stm32g4xx_hal_rcc.c ****           return HAL_ERROR;
 407:Drivers/STM32G4xx_HAL_Driver/Src/stm32g4xx_hal_rcc.c ****         }
 408:Drivers/STM32G4xx_HAL_Driver/Src/stm32g4xx_hal_rcc.c ****       }
 409:Drivers/STM32G4xx_HAL_Driver/Src/stm32g4xx_hal_rcc.c ****     }
 410:Drivers/STM32G4xx_HAL_Driver/Src/stm32g4xx_hal_rcc.c ****     else
 411:Drivers/STM32G4xx_HAL_Driver/Src/stm32g4xx_hal_rcc.c ****     {
 412:Drivers/STM32G4xx_HAL_Driver/Src/stm32g4xx_hal_rcc.c ****       /* Check the HSI State */
 413:Drivers/STM32G4xx_HAL_Driver/Src/stm32g4xx_hal_rcc.c ****       if (RCC_OscInitStruct->HSIState != RCC_HSI_OFF)
 414:Drivers/STM32G4xx_HAL_Driver/Src/stm32g4xx_hal_rcc.c ****       {
 415:Drivers/STM32G4xx_HAL_Driver/Src/stm32g4xx_hal_rcc.c ****         /* Enable the Internal High Speed oscillator (HSI). */
 416:Drivers/STM32G4xx_HAL_Driver/Src/stm32g4xx_hal_rcc.c ****         __HAL_RCC_HSI_ENABLE();
 417:Drivers/STM32G4xx_HAL_Driver/Src/stm32g4xx_hal_rcc.c **** 
 418:Drivers/STM32G4xx_HAL_Driver/Src/stm32g4xx_hal_rcc.c ****         /* Get Start Tick*/
 419:Drivers/STM32G4xx_HAL_Driver/Src/stm32g4xx_hal_rcc.c ****         tickstart = HAL_GetTick();
 420:Drivers/STM32G4xx_HAL_Driver/Src/stm32g4xx_hal_rcc.c **** 
 421:Drivers/STM32G4xx_HAL_Driver/Src/stm32g4xx_hal_rcc.c ****         /* Wait till HSI is ready */
 422:Drivers/STM32G4xx_HAL_Driver/Src/stm32g4xx_hal_rcc.c ****         while (READ_BIT(RCC->CR, RCC_CR_HSIRDY) == 0U)
 423:Drivers/STM32G4xx_HAL_Driver/Src/stm32g4xx_hal_rcc.c ****         {
 424:Drivers/STM32G4xx_HAL_Driver/Src/stm32g4xx_hal_rcc.c ****           if ((HAL_GetTick() - tickstart) > HSI_TIMEOUT_VALUE)
 425:Drivers/STM32G4xx_HAL_Driver/Src/stm32g4xx_hal_rcc.c ****           {
 426:Drivers/STM32G4xx_HAL_Driver/Src/stm32g4xx_hal_rcc.c ****             return HAL_TIMEOUT;
 427:Drivers/STM32G4xx_HAL_Driver/Src/stm32g4xx_hal_rcc.c ****           }
 428:Drivers/STM32G4xx_HAL_Driver/Src/stm32g4xx_hal_rcc.c ****         }
 429:Drivers/STM32G4xx_HAL_Driver/Src/stm32g4xx_hal_rcc.c **** 
 430:Drivers/STM32G4xx_HAL_Driver/Src/stm32g4xx_hal_rcc.c ****         /* Adjusts the Internal High Speed oscillator (HSI) calibration value.*/
 431:Drivers/STM32G4xx_HAL_Driver/Src/stm32g4xx_hal_rcc.c ****         __HAL_RCC_HSI_CALIBRATIONVALUE_ADJUST(RCC_OscInitStruct->HSICalibrationValue);
 432:Drivers/STM32G4xx_HAL_Driver/Src/stm32g4xx_hal_rcc.c ****       }
 433:Drivers/STM32G4xx_HAL_Driver/Src/stm32g4xx_hal_rcc.c ****       else
 434:Drivers/STM32G4xx_HAL_Driver/Src/stm32g4xx_hal_rcc.c ****       {
 435:Drivers/STM32G4xx_HAL_Driver/Src/stm32g4xx_hal_rcc.c ****         /* Disable the Internal High Speed oscillator (HSI). */
 436:Drivers/STM32G4xx_HAL_Driver/Src/stm32g4xx_hal_rcc.c ****         __HAL_RCC_HSI_DISABLE();
 437:Drivers/STM32G4xx_HAL_Driver/Src/stm32g4xx_hal_rcc.c **** 
 438:Drivers/STM32G4xx_HAL_Driver/Src/stm32g4xx_hal_rcc.c ****         /* Get Start Tick*/
 439:Drivers/STM32G4xx_HAL_Driver/Src/stm32g4xx_hal_rcc.c ****         tickstart = HAL_GetTick();
 440:Drivers/STM32G4xx_HAL_Driver/Src/stm32g4xx_hal_rcc.c **** 
 441:Drivers/STM32G4xx_HAL_Driver/Src/stm32g4xx_hal_rcc.c ****         /* Wait till HSI is disabled */
 442:Drivers/STM32G4xx_HAL_Driver/Src/stm32g4xx_hal_rcc.c ****         while (READ_BIT(RCC->CR, RCC_CR_HSIRDY) != 0U)
 443:Drivers/STM32G4xx_HAL_Driver/Src/stm32g4xx_hal_rcc.c ****         {
 444:Drivers/STM32G4xx_HAL_Driver/Src/stm32g4xx_hal_rcc.c ****           if ((HAL_GetTick() - tickstart) > HSI_TIMEOUT_VALUE)
 445:Drivers/STM32G4xx_HAL_Driver/Src/stm32g4xx_hal_rcc.c ****           {
 446:Drivers/STM32G4xx_HAL_Driver/Src/stm32g4xx_hal_rcc.c ****             return HAL_TIMEOUT;
 447:Drivers/STM32G4xx_HAL_Driver/Src/stm32g4xx_hal_rcc.c ****           }
 448:Drivers/STM32G4xx_HAL_Driver/Src/stm32g4xx_hal_rcc.c ****         }
 449:Drivers/STM32G4xx_HAL_Driver/Src/stm32g4xx_hal_rcc.c ****       }
 450:Drivers/STM32G4xx_HAL_Driver/Src/stm32g4xx_hal_rcc.c ****     }
 451:Drivers/STM32G4xx_HAL_Driver/Src/stm32g4xx_hal_rcc.c ****   }
 452:Drivers/STM32G4xx_HAL_Driver/Src/stm32g4xx_hal_rcc.c ****   /*------------------------------ LSI Configuration -------------------------*/
 453:Drivers/STM32G4xx_HAL_Driver/Src/stm32g4xx_hal_rcc.c ****   if (((RCC_OscInitStruct->OscillatorType) & RCC_OSCILLATORTYPE_LSI) == RCC_OSCILLATORTYPE_LSI)
 353              	 .loc 1 453 26 view .LVU124
 354 0082 2368     	 ldr r3,[r4]
 355              	.LVL26:
ARM GAS   			page 16


 356              	.L34:
 357              	 .loc 1 453 3 is_stmt 1 view .LVU125
 358              	 .loc 1 453 6 is_stmt 0 view .LVU126
 359 0084 1A07     	 lsls r2,r3,#28
 360 0086 19D5     	 bpl .L44
 454:Drivers/STM32G4xx_HAL_Driver/Src/stm32g4xx_hal_rcc.c ****   {
 455:Drivers/STM32G4xx_HAL_Driver/Src/stm32g4xx_hal_rcc.c ****     /* Check the parameters */
 456:Drivers/STM32G4xx_HAL_Driver/Src/stm32g4xx_hal_rcc.c ****     assert_param(IS_RCC_LSI(RCC_OscInitStruct->LSIState));
 361              	 .loc 1 456 5 is_stmt 1 view .LVU127
 457:Drivers/STM32G4xx_HAL_Driver/Src/stm32g4xx_hal_rcc.c **** 
 458:Drivers/STM32G4xx_HAL_Driver/Src/stm32g4xx_hal_rcc.c ****     /* Check the LSI State */
 459:Drivers/STM32G4xx_HAL_Driver/Src/stm32g4xx_hal_rcc.c ****     if(RCC_OscInitStruct->LSIState != RCC_LSI_OFF)
 362              	 .loc 1 459 5 view .LVU128
 363              	 .loc 1 459 7 is_stmt 0 view .LVU129
 364 0088 6369     	 ldr r3,[r4,#20]
 460:Drivers/STM32G4xx_HAL_Driver/Src/stm32g4xx_hal_rcc.c ****     {
 461:Drivers/STM32G4xx_HAL_Driver/Src/stm32g4xx_hal_rcc.c ****       /* Enable the Internal Low Speed oscillator (LSI). */
 462:Drivers/STM32G4xx_HAL_Driver/Src/stm32g4xx_hal_rcc.c ****       __HAL_RCC_LSI_ENABLE();
 365              	 .loc 1 462 7 view .LVU130
 366 008a 894D     	 ldr r5,.L140
 459:Drivers/STM32G4xx_HAL_Driver/Src/stm32g4xx_hal_rcc.c ****     {
 367              	 .loc 1 459 7 view .LVU131
 368 008c 002B     	 cmp r3,#0
 369 008e 00F0C280 	 beq .L45
 370              	 .loc 1 462 7 is_stmt 1 view .LVU132
 371 0092 D5F89430 	 ldr r3,[r5,#148]
 372 0096 43F00103 	 orr r3,r3,#1
 373 009a C5F89430 	 str r3,[r5,#148]
 463:Drivers/STM32G4xx_HAL_Driver/Src/stm32g4xx_hal_rcc.c **** 
 464:Drivers/STM32G4xx_HAL_Driver/Src/stm32g4xx_hal_rcc.c ****       /* Get Start Tick*/
 465:Drivers/STM32G4xx_HAL_Driver/Src/stm32g4xx_hal_rcc.c ****       tickstart = HAL_GetTick();
 374              	 .loc 1 465 7 view .LVU133
 375              	 .loc 1 465 19 is_stmt 0 view .LVU134
 376 009e FFF7FEFF 	 bl HAL_GetTick
 377              	.LVL27:
 378 00a2 0646     	 mov r6,r0
 379              	.LVL28:
 466:Drivers/STM32G4xx_HAL_Driver/Src/stm32g4xx_hal_rcc.c **** 
 467:Drivers/STM32G4xx_HAL_Driver/Src/stm32g4xx_hal_rcc.c ****       /* Wait till LSI is ready */
 468:Drivers/STM32G4xx_HAL_Driver/Src/stm32g4xx_hal_rcc.c ****       while (READ_BIT(RCC->CSR, RCC_CSR_LSIRDY) == 0U)
 380              	 .loc 1 468 7 is_stmt 1 view .LVU135
 381              	 .loc 1 468 13 is_stmt 0 view .LVU136
 382 00a4 05E0     	 b .L46
 383              	.LVL29:
 384              	.L47:
 469:Drivers/STM32G4xx_HAL_Driver/Src/stm32g4xx_hal_rcc.c ****       {
 470:Drivers/STM32G4xx_HAL_Driver/Src/stm32g4xx_hal_rcc.c ****         if ((HAL_GetTick() - tickstart) > LSI_TIMEOUT_VALUE)
 385              	 .loc 1 470 14 view .LVU137
 386 00a6 FFF7FEFF 	 bl HAL_GetTick
 387              	.LVL30:
 388              	 .loc 1 470 28 discriminator 1 view .LVU138
 389 00aa 801B     	 subs r0,r0,r6
 390              	 .loc 1 470 12 discriminator 1 view .LVU139
 391 00ac 0228     	 cmp r0,#2
 392 00ae 00F21781 	 bhi .L32
 393              	.L46:
 394              	 .loc 1 470 9 is_stmt 1 view .LVU140
ARM GAS   			page 17


 468:Drivers/STM32G4xx_HAL_Driver/Src/stm32g4xx_hal_rcc.c ****       {
 395              	 .loc 1 468 49 view .LVU141
 468:Drivers/STM32G4xx_HAL_Driver/Src/stm32g4xx_hal_rcc.c ****       {
 396              	 .loc 1 468 14 is_stmt 0 view .LVU142
 397 00b2 D5F89430 	 ldr r3,[r5,#148]
 468:Drivers/STM32G4xx_HAL_Driver/Src/stm32g4xx_hal_rcc.c ****       {
 398              	 .loc 1 468 49 view .LVU143
 399 00b6 9B07     	 lsls r3,r3,#30
 400 00b8 F5D5     	 bpl .L47
 401              	.L129:
 471:Drivers/STM32G4xx_HAL_Driver/Src/stm32g4xx_hal_rcc.c ****         {
 472:Drivers/STM32G4xx_HAL_Driver/Src/stm32g4xx_hal_rcc.c ****           return HAL_TIMEOUT;
 473:Drivers/STM32G4xx_HAL_Driver/Src/stm32g4xx_hal_rcc.c ****         }
 474:Drivers/STM32G4xx_HAL_Driver/Src/stm32g4xx_hal_rcc.c ****       }
 475:Drivers/STM32G4xx_HAL_Driver/Src/stm32g4xx_hal_rcc.c ****     }
 476:Drivers/STM32G4xx_HAL_Driver/Src/stm32g4xx_hal_rcc.c ****     else
 477:Drivers/STM32G4xx_HAL_Driver/Src/stm32g4xx_hal_rcc.c ****     {
 478:Drivers/STM32G4xx_HAL_Driver/Src/stm32g4xx_hal_rcc.c ****       /* Disable the Internal Low Speed oscillator (LSI). */
 479:Drivers/STM32G4xx_HAL_Driver/Src/stm32g4xx_hal_rcc.c ****       __HAL_RCC_LSI_DISABLE();
 480:Drivers/STM32G4xx_HAL_Driver/Src/stm32g4xx_hal_rcc.c **** 
 481:Drivers/STM32G4xx_HAL_Driver/Src/stm32g4xx_hal_rcc.c ****       /* Get Start Tick*/
 482:Drivers/STM32G4xx_HAL_Driver/Src/stm32g4xx_hal_rcc.c ****       tickstart = HAL_GetTick();
 483:Drivers/STM32G4xx_HAL_Driver/Src/stm32g4xx_hal_rcc.c **** 
 484:Drivers/STM32G4xx_HAL_Driver/Src/stm32g4xx_hal_rcc.c ****       /* Wait till LSI is disabled */
 485:Drivers/STM32G4xx_HAL_Driver/Src/stm32g4xx_hal_rcc.c ****       while(READ_BIT(RCC->CSR, RCC_CSR_LSIRDY) != 0U)
 486:Drivers/STM32G4xx_HAL_Driver/Src/stm32g4xx_hal_rcc.c ****       {
 487:Drivers/STM32G4xx_HAL_Driver/Src/stm32g4xx_hal_rcc.c ****         if((HAL_GetTick() - tickstart) > LSI_TIMEOUT_VALUE)
 488:Drivers/STM32G4xx_HAL_Driver/Src/stm32g4xx_hal_rcc.c ****         {
 489:Drivers/STM32G4xx_HAL_Driver/Src/stm32g4xx_hal_rcc.c ****           return HAL_TIMEOUT;
 490:Drivers/STM32G4xx_HAL_Driver/Src/stm32g4xx_hal_rcc.c ****         }
 491:Drivers/STM32G4xx_HAL_Driver/Src/stm32g4xx_hal_rcc.c ****       }
 492:Drivers/STM32G4xx_HAL_Driver/Src/stm32g4xx_hal_rcc.c ****     }
 493:Drivers/STM32G4xx_HAL_Driver/Src/stm32g4xx_hal_rcc.c ****   }
 494:Drivers/STM32G4xx_HAL_Driver/Src/stm32g4xx_hal_rcc.c ****   /*------------------------------ LSE Configuration -------------------------*/
 495:Drivers/STM32G4xx_HAL_Driver/Src/stm32g4xx_hal_rcc.c ****   if (((RCC_OscInitStruct->OscillatorType) & RCC_OSCILLATORTYPE_LSE) == RCC_OSCILLATORTYPE_LSE)
 402              	 .loc 1 495 26 view .LVU144
 403 00ba 2368     	 ldr r3,[r4]
 404              	.LVL31:
 405              	.L44:
 406              	 .loc 1 495 3 is_stmt 1 view .LVU145
 407              	 .loc 1 495 6 is_stmt 0 view .LVU146
 408 00bc 5D07     	 lsls r5,r3,#29
 409 00be 41D5     	 bpl .L50
 410              	.LBB6:
 496:Drivers/STM32G4xx_HAL_Driver/Src/stm32g4xx_hal_rcc.c ****   {
 497:Drivers/STM32G4xx_HAL_Driver/Src/stm32g4xx_hal_rcc.c ****     FlagStatus       pwrclkchanged = RESET;
 411              	 .loc 1 497 5 is_stmt 1 view .LVU147
 412              	.LVL32:
 498:Drivers/STM32G4xx_HAL_Driver/Src/stm32g4xx_hal_rcc.c **** 
 499:Drivers/STM32G4xx_HAL_Driver/Src/stm32g4xx_hal_rcc.c ****     /* Check the parameters */
 500:Drivers/STM32G4xx_HAL_Driver/Src/stm32g4xx_hal_rcc.c ****     assert_param(IS_RCC_LSE(RCC_OscInitStruct->LSEState));
 413              	 .loc 1 500 5 view .LVU148
 501:Drivers/STM32G4xx_HAL_Driver/Src/stm32g4xx_hal_rcc.c **** 
 502:Drivers/STM32G4xx_HAL_Driver/Src/stm32g4xx_hal_rcc.c ****     /* Update LSE configuration in Backup Domain control register    */
 503:Drivers/STM32G4xx_HAL_Driver/Src/stm32g4xx_hal_rcc.c ****     /* Requires to enable write access to Backup Domain if necessary */
 504:Drivers/STM32G4xx_HAL_Driver/Src/stm32g4xx_hal_rcc.c ****     if (__HAL_RCC_PWR_IS_CLK_DISABLED() != 0U)
 414              	 .loc 1 504 5 view .LVU149
ARM GAS   			page 18


 415              	 .loc 1 504 9 is_stmt 0 view .LVU150
 416 00c0 7B4B     	 ldr r3,.L140
 417 00c2 9A6D     	 ldr r2,[r3,#88]
 418              	 .loc 1 504 41 view .LVU151
 419 00c4 D000     	 lsls r0,r2,#3
 420 00c6 00F10F81 	 bmi .L87
 505:Drivers/STM32G4xx_HAL_Driver/Src/stm32g4xx_hal_rcc.c ****     {
 506:Drivers/STM32G4xx_HAL_Driver/Src/stm32g4xx_hal_rcc.c ****       __HAL_RCC_PWR_CLK_ENABLE();
 421              	 .loc 1 506 7 is_stmt 1 view .LVU152
 422              	.LBB7:
 423              	 .loc 1 506 7 view .LVU153
 424              	 .loc 1 506 7 view .LVU154
 425 00ca 9A6D     	 ldr r2,[r3,#88]
 426 00cc 42F08052 	 orr r2,r2,#268435456
 427 00d0 9A65     	 str r2,[r3,#88]
 428              	 .loc 1 506 7 view .LVU155
 429 00d2 9B6D     	 ldr r3,[r3,#88]
 430 00d4 03F08053 	 and r3,r3,#268435456
 431 00d8 0193     	 str r3,[sp,#4]
 432              	 .loc 1 506 7 view .LVU156
 433 00da 019B     	 ldr r3,[sp,#4]
 434              	.LBE7:
 435              	 .loc 1 506 7 view .LVU157
 507:Drivers/STM32G4xx_HAL_Driver/Src/stm32g4xx_hal_rcc.c ****       pwrclkchanged = SET;
 436              	 .loc 1 507 7 view .LVU158
 437              	.LVL33:
 438              	 .loc 1 507 21 is_stmt 0 view .LVU159
 439 00dc 0125     	 movs r5,#1
 440              	.LVL34:
 441              	.L51:
 508:Drivers/STM32G4xx_HAL_Driver/Src/stm32g4xx_hal_rcc.c ****     }
 509:Drivers/STM32G4xx_HAL_Driver/Src/stm32g4xx_hal_rcc.c **** 
 510:Drivers/STM32G4xx_HAL_Driver/Src/stm32g4xx_hal_rcc.c ****     if (HAL_IS_BIT_CLR(PWR->CR1, PWR_CR1_DBP))
 442              	 .loc 1 510 5 is_stmt 1 view .LVU160
 443              	 .loc 1 510 9 is_stmt 0 view .LVU161
 444 00de 764E     	 ldr r6,.L140+8
 445 00e0 3368     	 ldr r3,[r6]
 446              	 .loc 1 510 8 view .LVU162
 447 00e2 D905     	 lsls r1,r3,#23
 448 00e4 40F12E81 	 bpl .L52
 449              	.L57:
 511:Drivers/STM32G4xx_HAL_Driver/Src/stm32g4xx_hal_rcc.c ****     {
 512:Drivers/STM32G4xx_HAL_Driver/Src/stm32g4xx_hal_rcc.c ****       /* Enable write access to Backup domain */
 513:Drivers/STM32G4xx_HAL_Driver/Src/stm32g4xx_hal_rcc.c ****       SET_BIT(PWR->CR1, PWR_CR1_DBP);
 514:Drivers/STM32G4xx_HAL_Driver/Src/stm32g4xx_hal_rcc.c **** 
 515:Drivers/STM32G4xx_HAL_Driver/Src/stm32g4xx_hal_rcc.c ****       /* Wait for Backup domain Write protection disable */
 516:Drivers/STM32G4xx_HAL_Driver/Src/stm32g4xx_hal_rcc.c ****       tickstart = HAL_GetTick();
 517:Drivers/STM32G4xx_HAL_Driver/Src/stm32g4xx_hal_rcc.c **** 
 518:Drivers/STM32G4xx_HAL_Driver/Src/stm32g4xx_hal_rcc.c ****       while (HAL_IS_BIT_CLR(PWR->CR1, PWR_CR1_DBP))
 519:Drivers/STM32G4xx_HAL_Driver/Src/stm32g4xx_hal_rcc.c ****       {
 520:Drivers/STM32G4xx_HAL_Driver/Src/stm32g4xx_hal_rcc.c ****         if ((HAL_GetTick() - tickstart) > RCC_DBP_TIMEOUT_VALUE)
 521:Drivers/STM32G4xx_HAL_Driver/Src/stm32g4xx_hal_rcc.c ****         {
 522:Drivers/STM32G4xx_HAL_Driver/Src/stm32g4xx_hal_rcc.c ****           return HAL_TIMEOUT;
 523:Drivers/STM32G4xx_HAL_Driver/Src/stm32g4xx_hal_rcc.c ****         }
 524:Drivers/STM32G4xx_HAL_Driver/Src/stm32g4xx_hal_rcc.c ****       }
 525:Drivers/STM32G4xx_HAL_Driver/Src/stm32g4xx_hal_rcc.c ****     }
 526:Drivers/STM32G4xx_HAL_Driver/Src/stm32g4xx_hal_rcc.c **** 
ARM GAS   			page 19


 527:Drivers/STM32G4xx_HAL_Driver/Src/stm32g4xx_hal_rcc.c ****     /* Set the new LSE configuration -----------------------------------------*/
 528:Drivers/STM32G4xx_HAL_Driver/Src/stm32g4xx_hal_rcc.c ****     __HAL_RCC_LSE_CONFIG(RCC_OscInitStruct->LSEState);
 450              	 .loc 1 528 5 is_stmt 1 view .LVU163
 451              	 .loc 1 528 5 view .LVU164
 452 00e8 A368     	 ldr r3,[r4,#8]
 453 00ea 012B     	 cmp r3,#1
 454 00ec 00F0FE80 	 beq .L134
 455              	 .loc 1 528 5 discriminator 2 view .LVU165
 456 00f0 052B     	 cmp r3,#5
 457 00f2 00F08481 	 beq .L135
 458              	 .loc 1 528 5 discriminator 5 view .LVU166
 459 00f6 6E4E     	 ldr r6,.L140
 460 00f8 D6F89020 	 ldr r2,[r6,#144]
 461 00fc 22F00102 	 bic r2,r2,#1
 462 0100 C6F89020 	 str r2,[r6,#144]
 463              	 .loc 1 528 5 discriminator 5 view .LVU167
 464 0104 D6F89020 	 ldr r2,[r6,#144]
 465 0108 22F00402 	 bic r2,r2,#4
 466 010c C6F89020 	 str r2,[r6,#144]
 467              	 .loc 1 528 5 discriminator 7 view .LVU168
 529:Drivers/STM32G4xx_HAL_Driver/Src/stm32g4xx_hal_rcc.c **** 
 530:Drivers/STM32G4xx_HAL_Driver/Src/stm32g4xx_hal_rcc.c ****     /* Check the LSE State */
 531:Drivers/STM32G4xx_HAL_Driver/Src/stm32g4xx_hal_rcc.c ****     if (RCC_OscInitStruct->LSEState != RCC_LSE_OFF)
 468              	 .loc 1 531 5 view .LVU169
 469              	 .loc 1 531 8 is_stmt 0 view .LVU170
 470 0110 002B     	 cmp r3,#0
 471 0112 40F0F280 	 bne .L58
 532:Drivers/STM32G4xx_HAL_Driver/Src/stm32g4xx_hal_rcc.c ****     {
 533:Drivers/STM32G4xx_HAL_Driver/Src/stm32g4xx_hal_rcc.c ****       /* Get Start Tick*/
 534:Drivers/STM32G4xx_HAL_Driver/Src/stm32g4xx_hal_rcc.c ****       tickstart = HAL_GetTick();
 535:Drivers/STM32G4xx_HAL_Driver/Src/stm32g4xx_hal_rcc.c **** 
 536:Drivers/STM32G4xx_HAL_Driver/Src/stm32g4xx_hal_rcc.c ****       /* Wait till LSE is ready */
 537:Drivers/STM32G4xx_HAL_Driver/Src/stm32g4xx_hal_rcc.c ****       while (READ_BIT(RCC->BDCR, RCC_BDCR_LSERDY) == 0U)
 538:Drivers/STM32G4xx_HAL_Driver/Src/stm32g4xx_hal_rcc.c ****       {
 539:Drivers/STM32G4xx_HAL_Driver/Src/stm32g4xx_hal_rcc.c ****         if((HAL_GetTick() - tickstart) > RCC_LSE_TIMEOUT_VALUE)
 540:Drivers/STM32G4xx_HAL_Driver/Src/stm32g4xx_hal_rcc.c ****         {
 541:Drivers/STM32G4xx_HAL_Driver/Src/stm32g4xx_hal_rcc.c ****           return HAL_TIMEOUT;
 542:Drivers/STM32G4xx_HAL_Driver/Src/stm32g4xx_hal_rcc.c ****         }
 543:Drivers/STM32G4xx_HAL_Driver/Src/stm32g4xx_hal_rcc.c ****       }
 544:Drivers/STM32G4xx_HAL_Driver/Src/stm32g4xx_hal_rcc.c ****     }
 545:Drivers/STM32G4xx_HAL_Driver/Src/stm32g4xx_hal_rcc.c ****     else
 546:Drivers/STM32G4xx_HAL_Driver/Src/stm32g4xx_hal_rcc.c ****     {
 547:Drivers/STM32G4xx_HAL_Driver/Src/stm32g4xx_hal_rcc.c ****       /* Get Start Tick*/
 548:Drivers/STM32G4xx_HAL_Driver/Src/stm32g4xx_hal_rcc.c ****       tickstart = HAL_GetTick();
 472              	 .loc 1 548 7 is_stmt 1 view .LVU171
 473              	 .loc 1 548 19 is_stmt 0 view .LVU172
 474 0116 FFF7FEFF 	 bl HAL_GetTick
 475              	.LVL35:
 549:Drivers/STM32G4xx_HAL_Driver/Src/stm32g4xx_hal_rcc.c **** 
 550:Drivers/STM32G4xx_HAL_Driver/Src/stm32g4xx_hal_rcc.c ****       /* Wait till LSE is disabled */
 551:Drivers/STM32G4xx_HAL_Driver/Src/stm32g4xx_hal_rcc.c ****       while (READ_BIT(RCC->BDCR, RCC_BDCR_LSERDY) != 0U)
 552:Drivers/STM32G4xx_HAL_Driver/Src/stm32g4xx_hal_rcc.c ****       {
 553:Drivers/STM32G4xx_HAL_Driver/Src/stm32g4xx_hal_rcc.c ****         if((HAL_GetTick() - tickstart) > RCC_LSE_TIMEOUT_VALUE)
 476              	 .loc 1 553 11 discriminator 1 view .LVU173
 477 011a 41F28838 	 movw r8,#5000
 548:Drivers/STM32G4xx_HAL_Driver/Src/stm32g4xx_hal_rcc.c **** 
 478              	 .loc 1 548 19 view .LVU174
ARM GAS   			page 20


 479 011e 0746     	 mov r7,r0
 480              	.LVL36:
 551:Drivers/STM32G4xx_HAL_Driver/Src/stm32g4xx_hal_rcc.c ****       {
 481              	 .loc 1 551 7 is_stmt 1 view .LVU175
 551:Drivers/STM32G4xx_HAL_Driver/Src/stm32g4xx_hal_rcc.c ****       {
 482              	 .loc 1 551 13 is_stmt 0 view .LVU176
 483 0120 05E0     	 b .L65
 484              	.LVL37:
 485              	.L66:
 486              	 .loc 1 553 13 view .LVU177
 487 0122 FFF7FEFF 	 bl HAL_GetTick
 488              	.LVL38:
 489              	 .loc 1 553 27 discriminator 1 view .LVU178
 490 0126 C01B     	 subs r0,r0,r7
 491              	 .loc 1 553 11 discriminator 1 view .LVU179
 492 0128 4045     	 cmp r0,r8
 493 012a 00F2D980 	 bhi .L32
 494              	.L65:
 495              	 .loc 1 553 9 is_stmt 1 view .LVU180
 551:Drivers/STM32G4xx_HAL_Driver/Src/stm32g4xx_hal_rcc.c ****       {
 496              	 .loc 1 551 51 view .LVU181
 551:Drivers/STM32G4xx_HAL_Driver/Src/stm32g4xx_hal_rcc.c ****       {
 497              	 .loc 1 551 14 is_stmt 0 view .LVU182
 498 012e D6F89030 	 ldr r3,[r6,#144]
 551:Drivers/STM32G4xx_HAL_Driver/Src/stm32g4xx_hal_rcc.c ****       {
 499              	 .loc 1 551 51 view .LVU183
 500 0132 9907     	 lsls r1,r3,#30
 501 0134 F5D4     	 bmi .L66
 502              	.LVL39:
 503              	.L67:
 554:Drivers/STM32G4xx_HAL_Driver/Src/stm32g4xx_hal_rcc.c ****         {
 555:Drivers/STM32G4xx_HAL_Driver/Src/stm32g4xx_hal_rcc.c ****           return HAL_TIMEOUT;
 556:Drivers/STM32G4xx_HAL_Driver/Src/stm32g4xx_hal_rcc.c ****         }
 557:Drivers/STM32G4xx_HAL_Driver/Src/stm32g4xx_hal_rcc.c ****       }
 558:Drivers/STM32G4xx_HAL_Driver/Src/stm32g4xx_hal_rcc.c ****     }
 559:Drivers/STM32G4xx_HAL_Driver/Src/stm32g4xx_hal_rcc.c **** 
 560:Drivers/STM32G4xx_HAL_Driver/Src/stm32g4xx_hal_rcc.c ****     /* Restore clock configuration if changed */
 561:Drivers/STM32G4xx_HAL_Driver/Src/stm32g4xx_hal_rcc.c ****     if (pwrclkchanged == SET)
 504              	 .loc 1 561 5 is_stmt 1 view .LVU184
 505              	 .loc 1 561 8 is_stmt 0 view .LVU185
 506 0136 25B1     	 cbz r5,.L130
 562:Drivers/STM32G4xx_HAL_Driver/Src/stm32g4xx_hal_rcc.c ****     {
 563:Drivers/STM32G4xx_HAL_Driver/Src/stm32g4xx_hal_rcc.c ****       __HAL_RCC_PWR_CLK_DISABLE();
 507              	 .loc 1 563 7 is_stmt 1 view .LVU186
 508 0138 5D4A     	 ldr r2,.L140
 509 013a 936D     	 ldr r3,[r2,#88]
 510 013c 23F08053 	 bic r3,r3,#268435456
 511 0140 9365     	 str r3,[r2,#88]
 512              	.L130:
 513              	.LBE6:
 564:Drivers/STM32G4xx_HAL_Driver/Src/stm32g4xx_hal_rcc.c ****     }
 565:Drivers/STM32G4xx_HAL_Driver/Src/stm32g4xx_hal_rcc.c ****   }
 566:Drivers/STM32G4xx_HAL_Driver/Src/stm32g4xx_hal_rcc.c **** 
 567:Drivers/STM32G4xx_HAL_Driver/Src/stm32g4xx_hal_rcc.c ****   /*------------------------------ HSI48 Configuration -----------------------*/
 568:Drivers/STM32G4xx_HAL_Driver/Src/stm32g4xx_hal_rcc.c ****   if(((RCC_OscInitStruct->OscillatorType) & RCC_OSCILLATORTYPE_HSI48) == RCC_OSCILLATORTYPE_HSI48)
 514              	 .loc 1 568 25 is_stmt 0 view .LVU187
 515 0142 2368     	 ldr r3,[r4]
ARM GAS   			page 21


 516              	.LVL40:
 517              	.L50:
 518              	 .loc 1 568 3 is_stmt 1 view .LVU188
 519              	 .loc 1 568 5 is_stmt 0 view .LVU189
 520 0144 9A06     	 lsls r2,r3,#26
 521 0146 18D5     	 bpl .L74
 569:Drivers/STM32G4xx_HAL_Driver/Src/stm32g4xx_hal_rcc.c ****   {
 570:Drivers/STM32G4xx_HAL_Driver/Src/stm32g4xx_hal_rcc.c ****     /* Check the parameters */
 571:Drivers/STM32G4xx_HAL_Driver/Src/stm32g4xx_hal_rcc.c ****     assert_param(IS_RCC_HSI48(RCC_OscInitStruct->HSI48State));
 522              	 .loc 1 571 5 is_stmt 1 view .LVU190
 572:Drivers/STM32G4xx_HAL_Driver/Src/stm32g4xx_hal_rcc.c **** 
 573:Drivers/STM32G4xx_HAL_Driver/Src/stm32g4xx_hal_rcc.c ****     /* Check the HSI48 State */
 574:Drivers/STM32G4xx_HAL_Driver/Src/stm32g4xx_hal_rcc.c ****     if(RCC_OscInitStruct->HSI48State != RCC_HSI48_OFF)
 523              	 .loc 1 574 5 view .LVU191
 524              	 .loc 1 574 7 is_stmt 0 view .LVU192
 525 0148 A369     	 ldr r3,[r4,#24]
 575:Drivers/STM32G4xx_HAL_Driver/Src/stm32g4xx_hal_rcc.c ****     {
 576:Drivers/STM32G4xx_HAL_Driver/Src/stm32g4xx_hal_rcc.c ****       /* Enable the Internal Low Speed oscillator (HSI48). */
 577:Drivers/STM32G4xx_HAL_Driver/Src/stm32g4xx_hal_rcc.c ****       __HAL_RCC_HSI48_ENABLE();
 526              	 .loc 1 577 7 view .LVU193
 527 014a 594D     	 ldr r5,.L140
 574:Drivers/STM32G4xx_HAL_Driver/Src/stm32g4xx_hal_rcc.c ****     {
 528              	 .loc 1 574 7 view .LVU194
 529 014c 002B     	 cmp r3,#0
 530 014e 00F0E580 	 beq .L71
 531              	 .loc 1 577 7 is_stmt 1 view .LVU195
 532 0152 D5F89830 	 ldr r3,[r5,#152]
 533 0156 43F00103 	 orr r3,r3,#1
 534 015a C5F89830 	 str r3,[r5,#152]
 578:Drivers/STM32G4xx_HAL_Driver/Src/stm32g4xx_hal_rcc.c **** 
 579:Drivers/STM32G4xx_HAL_Driver/Src/stm32g4xx_hal_rcc.c ****       /* Get Start Tick*/
 580:Drivers/STM32G4xx_HAL_Driver/Src/stm32g4xx_hal_rcc.c ****       tickstart = HAL_GetTick();
 535              	 .loc 1 580 7 view .LVU196
 536              	 .loc 1 580 19 is_stmt 0 view .LVU197
 537 015e FFF7FEFF 	 bl HAL_GetTick
 538              	.LVL41:
 539 0162 0646     	 mov r6,r0
 540              	.LVL42:
 581:Drivers/STM32G4xx_HAL_Driver/Src/stm32g4xx_hal_rcc.c **** 
 582:Drivers/STM32G4xx_HAL_Driver/Src/stm32g4xx_hal_rcc.c ****       /* Wait till HSI48 is ready */
 583:Drivers/STM32G4xx_HAL_Driver/Src/stm32g4xx_hal_rcc.c ****       while(READ_BIT(RCC->CRRCR, RCC_CRRCR_HSI48RDY) == 0U)
 541              	 .loc 1 583 7 is_stmt 1 view .LVU198
 542              	 .loc 1 583 12 is_stmt 0 view .LVU199
 543 0164 05E0     	 b .L72
 544              	.LVL43:
 545              	.L73:
 584:Drivers/STM32G4xx_HAL_Driver/Src/stm32g4xx_hal_rcc.c ****       {
 585:Drivers/STM32G4xx_HAL_Driver/Src/stm32g4xx_hal_rcc.c ****         if((HAL_GetTick() - tickstart) > HSI48_TIMEOUT_VALUE)
 546              	 .loc 1 585 13 view .LVU200
 547 0166 FFF7FEFF 	 bl HAL_GetTick
 548              	.LVL44:
 549              	 .loc 1 585 27 discriminator 1 view .LVU201
 550 016a 801B     	 subs r0,r0,r6
 551              	 .loc 1 585 11 discriminator 1 view .LVU202
 552 016c 0228     	 cmp r0,#2
 553 016e 00F2B780 	 bhi .L32
 554              	.L72:
ARM GAS   			page 22


 555              	 .loc 1 585 9 is_stmt 1 view .LVU203
 583:Drivers/STM32G4xx_HAL_Driver/Src/stm32g4xx_hal_rcc.c ****       {
 556              	 .loc 1 583 54 view .LVU204
 583:Drivers/STM32G4xx_HAL_Driver/Src/stm32g4xx_hal_rcc.c ****       {
 557              	 .loc 1 583 13 is_stmt 0 view .LVU205
 558 0172 D5F89830 	 ldr r3,[r5,#152]
 583:Drivers/STM32G4xx_HAL_Driver/Src/stm32g4xx_hal_rcc.c ****       {
 559              	 .loc 1 583 54 view .LVU206
 560 0176 9B07     	 lsls r3,r3,#30
 561 0178 F5D5     	 bpl .L73
 562              	.LVL45:
 563              	.L74:
 586:Drivers/STM32G4xx_HAL_Driver/Src/stm32g4xx_hal_rcc.c ****         {
 587:Drivers/STM32G4xx_HAL_Driver/Src/stm32g4xx_hal_rcc.c ****           return HAL_TIMEOUT;
 588:Drivers/STM32G4xx_HAL_Driver/Src/stm32g4xx_hal_rcc.c ****         }
 589:Drivers/STM32G4xx_HAL_Driver/Src/stm32g4xx_hal_rcc.c ****       }
 590:Drivers/STM32G4xx_HAL_Driver/Src/stm32g4xx_hal_rcc.c ****     }
 591:Drivers/STM32G4xx_HAL_Driver/Src/stm32g4xx_hal_rcc.c ****     else
 592:Drivers/STM32G4xx_HAL_Driver/Src/stm32g4xx_hal_rcc.c ****     {
 593:Drivers/STM32G4xx_HAL_Driver/Src/stm32g4xx_hal_rcc.c ****       /* Disable the Internal Low Speed oscillator (HSI48). */
 594:Drivers/STM32G4xx_HAL_Driver/Src/stm32g4xx_hal_rcc.c ****       __HAL_RCC_HSI48_DISABLE();
 595:Drivers/STM32G4xx_HAL_Driver/Src/stm32g4xx_hal_rcc.c **** 
 596:Drivers/STM32G4xx_HAL_Driver/Src/stm32g4xx_hal_rcc.c ****       /* Get Start Tick*/
 597:Drivers/STM32G4xx_HAL_Driver/Src/stm32g4xx_hal_rcc.c ****       tickstart = HAL_GetTick();
 598:Drivers/STM32G4xx_HAL_Driver/Src/stm32g4xx_hal_rcc.c **** 
 599:Drivers/STM32G4xx_HAL_Driver/Src/stm32g4xx_hal_rcc.c ****       /* Wait till HSI48 is disabled */
 600:Drivers/STM32G4xx_HAL_Driver/Src/stm32g4xx_hal_rcc.c ****       while(READ_BIT(RCC->CRRCR, RCC_CRRCR_HSI48RDY) != 0U)
 601:Drivers/STM32G4xx_HAL_Driver/Src/stm32g4xx_hal_rcc.c ****       {
 602:Drivers/STM32G4xx_HAL_Driver/Src/stm32g4xx_hal_rcc.c ****         if((HAL_GetTick() - tickstart) > HSI48_TIMEOUT_VALUE)
 603:Drivers/STM32G4xx_HAL_Driver/Src/stm32g4xx_hal_rcc.c ****         {
 604:Drivers/STM32G4xx_HAL_Driver/Src/stm32g4xx_hal_rcc.c ****           return HAL_TIMEOUT;
 605:Drivers/STM32G4xx_HAL_Driver/Src/stm32g4xx_hal_rcc.c ****         }
 606:Drivers/STM32G4xx_HAL_Driver/Src/stm32g4xx_hal_rcc.c ****       }
 607:Drivers/STM32G4xx_HAL_Driver/Src/stm32g4xx_hal_rcc.c ****     }
 608:Drivers/STM32G4xx_HAL_Driver/Src/stm32g4xx_hal_rcc.c ****   }
 609:Drivers/STM32G4xx_HAL_Driver/Src/stm32g4xx_hal_rcc.c **** 
 610:Drivers/STM32G4xx_HAL_Driver/Src/stm32g4xx_hal_rcc.c ****   /*-------------------------------- PLL Configuration -----------------------*/
 611:Drivers/STM32G4xx_HAL_Driver/Src/stm32g4xx_hal_rcc.c ****   /* Check the parameters */
 612:Drivers/STM32G4xx_HAL_Driver/Src/stm32g4xx_hal_rcc.c ****   assert_param(IS_RCC_PLL(RCC_OscInitStruct->PLL.PLLState));
 564              	 .loc 1 612 3 is_stmt 1 view .LVU207
 613:Drivers/STM32G4xx_HAL_Driver/Src/stm32g4xx_hal_rcc.c **** 
 614:Drivers/STM32G4xx_HAL_Driver/Src/stm32g4xx_hal_rcc.c ****   if (RCC_OscInitStruct->PLL.PLLState != RCC_PLL_NONE)
 565              	 .loc 1 614 3 view .LVU208
 566              	 .loc 1 614 29 is_stmt 0 view .LVU209
 567 017a E369     	 ldr r3,[r4,#28]
 568              	 .loc 1 614 6 view .LVU210
 569 017c F3B1     	 cbz r3,.L85
 615:Drivers/STM32G4xx_HAL_Driver/Src/stm32g4xx_hal_rcc.c ****   {
 616:Drivers/STM32G4xx_HAL_Driver/Src/stm32g4xx_hal_rcc.c ****     /* Check if the PLL is used as system clock or not */
 617:Drivers/STM32G4xx_HAL_Driver/Src/stm32g4xx_hal_rcc.c ****     if (__HAL_RCC_GET_SYSCLK_SOURCE() != RCC_CFGR_SWS_PLL)
 570              	 .loc 1 617 5 is_stmt 1 view .LVU211
 571              	 .loc 1 617 9 is_stmt 0 view .LVU212
 572 017e 4C4D     	 ldr r5,.L140
 573 0180 AA68     	 ldr r2,[r5,#8]
 574 0182 02F00C02 	 and r2,r2,#12
 575              	 .loc 1 617 8 view .LVU213
 576 0186 0C2A     	 cmp r2,#12
ARM GAS   			page 23


 577 0188 00F04781 	 beq .L77
 618:Drivers/STM32G4xx_HAL_Driver/Src/stm32g4xx_hal_rcc.c ****     {
 619:Drivers/STM32G4xx_HAL_Driver/Src/stm32g4xx_hal_rcc.c ****       if (RCC_OscInitStruct->PLL.PLLState == RCC_PLL_ON)
 578              	 .loc 1 619 7 is_stmt 1 view .LVU214
 579              	 .loc 1 619 10 is_stmt 0 view .LVU215
 580 018c 022B     	 cmp r3,#2
 620:Drivers/STM32G4xx_HAL_Driver/Src/stm32g4xx_hal_rcc.c ****       {
 621:Drivers/STM32G4xx_HAL_Driver/Src/stm32g4xx_hal_rcc.c ****         /* Check the parameters */
 622:Drivers/STM32G4xx_HAL_Driver/Src/stm32g4xx_hal_rcc.c ****         assert_param(IS_RCC_PLLSOURCE(RCC_OscInitStruct->PLL.PLLSource));
 623:Drivers/STM32G4xx_HAL_Driver/Src/stm32g4xx_hal_rcc.c ****         assert_param(IS_RCC_PLLM_VALUE(RCC_OscInitStruct->PLL.PLLM));
 624:Drivers/STM32G4xx_HAL_Driver/Src/stm32g4xx_hal_rcc.c ****         assert_param(IS_RCC_PLLN_VALUE(RCC_OscInitStruct->PLL.PLLN));
 625:Drivers/STM32G4xx_HAL_Driver/Src/stm32g4xx_hal_rcc.c ****         assert_param(IS_RCC_PLLP_VALUE(RCC_OscInitStruct->PLL.PLLP));
 626:Drivers/STM32G4xx_HAL_Driver/Src/stm32g4xx_hal_rcc.c ****         assert_param(IS_RCC_PLLQ_VALUE(RCC_OscInitStruct->PLL.PLLQ));
 627:Drivers/STM32G4xx_HAL_Driver/Src/stm32g4xx_hal_rcc.c ****         assert_param(IS_RCC_PLLR_VALUE(RCC_OscInitStruct->PLL.PLLR));
 628:Drivers/STM32G4xx_HAL_Driver/Src/stm32g4xx_hal_rcc.c **** 
 629:Drivers/STM32G4xx_HAL_Driver/Src/stm32g4xx_hal_rcc.c ****         /* Disable the main PLL. */
 630:Drivers/STM32G4xx_HAL_Driver/Src/stm32g4xx_hal_rcc.c ****         __HAL_RCC_PLL_DISABLE();
 581              	 .loc 1 630 9 view .LVU216
 582 018e 2B68     	 ldr r3,[r5]
 583 0190 23F08073 	 bic r3,r3,#16777216
 584 0194 2B60     	 str r3,[r5]
 619:Drivers/STM32G4xx_HAL_Driver/Src/stm32g4xx_hal_rcc.c ****       {
 585              	 .loc 1 619 10 view .LVU217
 586 0196 00F0F580 	 beq .L136
 631:Drivers/STM32G4xx_HAL_Driver/Src/stm32g4xx_hal_rcc.c **** 
 632:Drivers/STM32G4xx_HAL_Driver/Src/stm32g4xx_hal_rcc.c ****         /* Get Start Tick*/
 633:Drivers/STM32G4xx_HAL_Driver/Src/stm32g4xx_hal_rcc.c ****         tickstart = HAL_GetTick();
 634:Drivers/STM32G4xx_HAL_Driver/Src/stm32g4xx_hal_rcc.c **** 
 635:Drivers/STM32G4xx_HAL_Driver/Src/stm32g4xx_hal_rcc.c ****         /* Wait till PLL is disabled */
 636:Drivers/STM32G4xx_HAL_Driver/Src/stm32g4xx_hal_rcc.c ****         while (READ_BIT(RCC->CR, RCC_CR_PLLRDY) != 0U)
 637:Drivers/STM32G4xx_HAL_Driver/Src/stm32g4xx_hal_rcc.c ****         {
 638:Drivers/STM32G4xx_HAL_Driver/Src/stm32g4xx_hal_rcc.c ****           if ((HAL_GetTick() - tickstart) > PLL_TIMEOUT_VALUE)
 639:Drivers/STM32G4xx_HAL_Driver/Src/stm32g4xx_hal_rcc.c ****           {
 640:Drivers/STM32G4xx_HAL_Driver/Src/stm32g4xx_hal_rcc.c ****             return HAL_TIMEOUT;
 641:Drivers/STM32G4xx_HAL_Driver/Src/stm32g4xx_hal_rcc.c ****           }
 642:Drivers/STM32G4xx_HAL_Driver/Src/stm32g4xx_hal_rcc.c ****         }
 643:Drivers/STM32G4xx_HAL_Driver/Src/stm32g4xx_hal_rcc.c **** 
 644:Drivers/STM32G4xx_HAL_Driver/Src/stm32g4xx_hal_rcc.c ****         /* Configure the main PLL clock source, multiplication and division factors. */
 645:Drivers/STM32G4xx_HAL_Driver/Src/stm32g4xx_hal_rcc.c ****         __HAL_RCC_PLL_CONFIG(RCC_OscInitStruct->PLL.PLLSource,
 646:Drivers/STM32G4xx_HAL_Driver/Src/stm32g4xx_hal_rcc.c ****                              RCC_OscInitStruct->PLL.PLLM,
 647:Drivers/STM32G4xx_HAL_Driver/Src/stm32g4xx_hal_rcc.c ****                              RCC_OscInitStruct->PLL.PLLN,
 648:Drivers/STM32G4xx_HAL_Driver/Src/stm32g4xx_hal_rcc.c ****                              RCC_OscInitStruct->PLL.PLLP,
 649:Drivers/STM32G4xx_HAL_Driver/Src/stm32g4xx_hal_rcc.c ****                              RCC_OscInitStruct->PLL.PLLQ,
 650:Drivers/STM32G4xx_HAL_Driver/Src/stm32g4xx_hal_rcc.c ****                              RCC_OscInitStruct->PLL.PLLR);
 651:Drivers/STM32G4xx_HAL_Driver/Src/stm32g4xx_hal_rcc.c **** 
 652:Drivers/STM32G4xx_HAL_Driver/Src/stm32g4xx_hal_rcc.c ****         /* Enable the main PLL. */
 653:Drivers/STM32G4xx_HAL_Driver/Src/stm32g4xx_hal_rcc.c ****         __HAL_RCC_PLL_ENABLE();
 654:Drivers/STM32G4xx_HAL_Driver/Src/stm32g4xx_hal_rcc.c **** 
 655:Drivers/STM32G4xx_HAL_Driver/Src/stm32g4xx_hal_rcc.c ****         /* Enable PLL System Clock output. */
 656:Drivers/STM32G4xx_HAL_Driver/Src/stm32g4xx_hal_rcc.c ****          __HAL_RCC_PLLCLKOUT_ENABLE(RCC_PLL_SYSCLK);
 657:Drivers/STM32G4xx_HAL_Driver/Src/stm32g4xx_hal_rcc.c **** 
 658:Drivers/STM32G4xx_HAL_Driver/Src/stm32g4xx_hal_rcc.c ****         /* Get Start Tick*/
 659:Drivers/STM32G4xx_HAL_Driver/Src/stm32g4xx_hal_rcc.c ****         tickstart = HAL_GetTick();
 660:Drivers/STM32G4xx_HAL_Driver/Src/stm32g4xx_hal_rcc.c **** 
 661:Drivers/STM32G4xx_HAL_Driver/Src/stm32g4xx_hal_rcc.c ****         /* Wait till PLL is ready */
 662:Drivers/STM32G4xx_HAL_Driver/Src/stm32g4xx_hal_rcc.c ****         while (READ_BIT(RCC->CR, RCC_CR_PLLRDY) == 0U)
 663:Drivers/STM32G4xx_HAL_Driver/Src/stm32g4xx_hal_rcc.c ****         {
ARM GAS   			page 24


 664:Drivers/STM32G4xx_HAL_Driver/Src/stm32g4xx_hal_rcc.c ****           if ((HAL_GetTick() - tickstart) > PLL_TIMEOUT_VALUE)
 665:Drivers/STM32G4xx_HAL_Driver/Src/stm32g4xx_hal_rcc.c ****           {
 666:Drivers/STM32G4xx_HAL_Driver/Src/stm32g4xx_hal_rcc.c ****             return HAL_TIMEOUT;
 667:Drivers/STM32G4xx_HAL_Driver/Src/stm32g4xx_hal_rcc.c ****           }
 668:Drivers/STM32G4xx_HAL_Driver/Src/stm32g4xx_hal_rcc.c ****         }
 669:Drivers/STM32G4xx_HAL_Driver/Src/stm32g4xx_hal_rcc.c ****       }
 670:Drivers/STM32G4xx_HAL_Driver/Src/stm32g4xx_hal_rcc.c ****       else
 671:Drivers/STM32G4xx_HAL_Driver/Src/stm32g4xx_hal_rcc.c ****       {
 672:Drivers/STM32G4xx_HAL_Driver/Src/stm32g4xx_hal_rcc.c ****         /* Disable the main PLL. */
 673:Drivers/STM32G4xx_HAL_Driver/Src/stm32g4xx_hal_rcc.c ****         __HAL_RCC_PLL_DISABLE();
 587              	 .loc 1 673 9 is_stmt 1 view .LVU218
 674:Drivers/STM32G4xx_HAL_Driver/Src/stm32g4xx_hal_rcc.c **** 
 675:Drivers/STM32G4xx_HAL_Driver/Src/stm32g4xx_hal_rcc.c ****         /* Get Start Tick*/
 676:Drivers/STM32G4xx_HAL_Driver/Src/stm32g4xx_hal_rcc.c ****         tickstart = HAL_GetTick();
 588              	 .loc 1 676 9 view .LVU219
 589              	 .loc 1 676 21 is_stmt 0 view .LVU220
 590 019a FFF7FEFF 	 bl HAL_GetTick
 591              	.LVL46:
 592 019e 0446     	 mov r4,r0
 593              	.LVL47:
 677:Drivers/STM32G4xx_HAL_Driver/Src/stm32g4xx_hal_rcc.c **** 
 678:Drivers/STM32G4xx_HAL_Driver/Src/stm32g4xx_hal_rcc.c ****         /* Wait till PLL is disabled */
 679:Drivers/STM32G4xx_HAL_Driver/Src/stm32g4xx_hal_rcc.c ****         while (READ_BIT(RCC->CR, RCC_CR_PLLRDY) != 0U)
 594              	 .loc 1 679 9 is_stmt 1 view .LVU221
 595              	 .loc 1 679 15 is_stmt 0 view .LVU222
 596 01a0 05E0     	 b .L83
 597              	.LVL48:
 598              	.L84:
 680:Drivers/STM32G4xx_HAL_Driver/Src/stm32g4xx_hal_rcc.c ****         {
 681:Drivers/STM32G4xx_HAL_Driver/Src/stm32g4xx_hal_rcc.c ****           if ((HAL_GetTick() - tickstart) > PLL_TIMEOUT_VALUE)
 599              	 .loc 1 681 16 view .LVU223
 600 01a2 FFF7FEFF 	 bl HAL_GetTick
 601              	.LVL49:
 602              	 .loc 1 681 30 discriminator 1 view .LVU224
 603 01a6 001B     	 subs r0,r0,r4
 604              	 .loc 1 681 14 discriminator 1 view .LVU225
 605 01a8 0228     	 cmp r0,#2
 606 01aa 00F29980 	 bhi .L32
 607              	.L83:
 608              	 .loc 1 681 11 is_stmt 1 view .LVU226
 679:Drivers/STM32G4xx_HAL_Driver/Src/stm32g4xx_hal_rcc.c ****         {
 609              	 .loc 1 679 49 view .LVU227
 679:Drivers/STM32G4xx_HAL_Driver/Src/stm32g4xx_hal_rcc.c ****         {
 610              	 .loc 1 679 16 is_stmt 0 view .LVU228
 611 01ae 2B68     	 ldr r3,[r5]
 679:Drivers/STM32G4xx_HAL_Driver/Src/stm32g4xx_hal_rcc.c ****         {
 612              	 .loc 1 679 49 view .LVU229
 613 01b0 9B01     	 lsls r3,r3,#6
 614 01b2 F6D4     	 bmi .L84
 682:Drivers/STM32G4xx_HAL_Driver/Src/stm32g4xx_hal_rcc.c ****           {
 683:Drivers/STM32G4xx_HAL_Driver/Src/stm32g4xx_hal_rcc.c ****             return HAL_TIMEOUT;
 684:Drivers/STM32G4xx_HAL_Driver/Src/stm32g4xx_hal_rcc.c ****           }
 685:Drivers/STM32G4xx_HAL_Driver/Src/stm32g4xx_hal_rcc.c ****         }
 686:Drivers/STM32G4xx_HAL_Driver/Src/stm32g4xx_hal_rcc.c **** 
 687:Drivers/STM32G4xx_HAL_Driver/Src/stm32g4xx_hal_rcc.c ****         /* Unselect PLL clock source and disable outputs to save power */
 688:Drivers/STM32G4xx_HAL_Driver/Src/stm32g4xx_hal_rcc.c ****         RCC->PLLCFGR &= ~(RCC_PLLCFGR_PLLSRC | RCC_PLL_SYSCLK | RCC_PLL_48M1CLK | RCC_PLL_ADCCLK);
 615              	 .loc 1 688 9 is_stmt 1 view .LVU230
ARM GAS   			page 25


 616              	 .loc 1 688 12 is_stmt 0 view .LVU231
 617 01b4 EA68     	 ldr r2,[r5,#12]
 618              	 .loc 1 688 22 view .LVU232
 619 01b6 414B     	 ldr r3,.L140+12
 620 01b8 1340     	 ands r3,r3,r2
 621 01ba EB60     	 str r3,[r5,#12]
 622              	.LVL50:
 623              	.L85:
 689:Drivers/STM32G4xx_HAL_Driver/Src/stm32g4xx_hal_rcc.c ****       }
 690:Drivers/STM32G4xx_HAL_Driver/Src/stm32g4xx_hal_rcc.c ****     }
 691:Drivers/STM32G4xx_HAL_Driver/Src/stm32g4xx_hal_rcc.c ****     else
 692:Drivers/STM32G4xx_HAL_Driver/Src/stm32g4xx_hal_rcc.c ****     {
 693:Drivers/STM32G4xx_HAL_Driver/Src/stm32g4xx_hal_rcc.c ****       /* Check if there is a request to disable the PLL used as System clock source */
 694:Drivers/STM32G4xx_HAL_Driver/Src/stm32g4xx_hal_rcc.c ****       if((RCC_OscInitStruct->PLL.PLLState) == RCC_PLL_OFF)
 695:Drivers/STM32G4xx_HAL_Driver/Src/stm32g4xx_hal_rcc.c ****       {
 696:Drivers/STM32G4xx_HAL_Driver/Src/stm32g4xx_hal_rcc.c ****         return HAL_ERROR;
 697:Drivers/STM32G4xx_HAL_Driver/Src/stm32g4xx_hal_rcc.c ****       }
 698:Drivers/STM32G4xx_HAL_Driver/Src/stm32g4xx_hal_rcc.c ****       else
 699:Drivers/STM32G4xx_HAL_Driver/Src/stm32g4xx_hal_rcc.c ****       {
 700:Drivers/STM32G4xx_HAL_Driver/Src/stm32g4xx_hal_rcc.c ****       /* Do not return HAL_ERROR if request repeats the current configuration */
 701:Drivers/STM32G4xx_HAL_Driver/Src/stm32g4xx_hal_rcc.c ****       temp_pllckcfg = RCC->PLLCFGR;
 702:Drivers/STM32G4xx_HAL_Driver/Src/stm32g4xx_hal_rcc.c ****       if((READ_BIT(temp_pllckcfg, RCC_PLLCFGR_PLLSRC) != RCC_OscInitStruct->PLL.PLLSource) ||
 703:Drivers/STM32G4xx_HAL_Driver/Src/stm32g4xx_hal_rcc.c ****          (READ_BIT(temp_pllckcfg, RCC_PLLCFGR_PLLM) != (((RCC_OscInitStruct->PLL.PLLM) - 1U) << RCC
 704:Drivers/STM32G4xx_HAL_Driver/Src/stm32g4xx_hal_rcc.c ****          (READ_BIT(temp_pllckcfg, RCC_PLLCFGR_PLLN) != ((RCC_OscInitStruct->PLL.PLLN) << RCC_PLLCFG
 705:Drivers/STM32G4xx_HAL_Driver/Src/stm32g4xx_hal_rcc.c ****          (READ_BIT(temp_pllckcfg, RCC_PLLCFGR_PLLPDIV) != ((RCC_OscInitStruct->PLL.PLLP) << RCC_PLL
 706:Drivers/STM32G4xx_HAL_Driver/Src/stm32g4xx_hal_rcc.c ****          (READ_BIT(temp_pllckcfg, RCC_PLLCFGR_PLLQ) != ((((RCC_OscInitStruct->PLL.PLLQ) >> 1U) - 1U
 707:Drivers/STM32G4xx_HAL_Driver/Src/stm32g4xx_hal_rcc.c ****          (READ_BIT(temp_pllckcfg, RCC_PLLCFGR_PLLR) != ((((RCC_OscInitStruct->PLL.PLLR) >> 1U) - 1U
 708:Drivers/STM32G4xx_HAL_Driver/Src/stm32g4xx_hal_rcc.c ****       {
 709:Drivers/STM32G4xx_HAL_Driver/Src/stm32g4xx_hal_rcc.c ****         return HAL_ERROR;
 710:Drivers/STM32G4xx_HAL_Driver/Src/stm32g4xx_hal_rcc.c ****       }
 711:Drivers/STM32G4xx_HAL_Driver/Src/stm32g4xx_hal_rcc.c ****     }
 712:Drivers/STM32G4xx_HAL_Driver/Src/stm32g4xx_hal_rcc.c ****   }
 713:Drivers/STM32G4xx_HAL_Driver/Src/stm32g4xx_hal_rcc.c ****   }
 714:Drivers/STM32G4xx_HAL_Driver/Src/stm32g4xx_hal_rcc.c **** 
 715:Drivers/STM32G4xx_HAL_Driver/Src/stm32g4xx_hal_rcc.c ****   return HAL_OK;
 624              	 .loc 1 715 10 view .LVU233
 625 01bc 0020     	 movs r0,#0
 626              	.L19:
 716:Drivers/STM32G4xx_HAL_Driver/Src/stm32g4xx_hal_rcc.c **** }
 627              	 .loc 1 716 1 view .LVU234
 628 01be 02B0     	 add sp,sp,#8
 629              	 .cfi_remember_state
 630              	 .cfi_def_cfa_offset 24
 631              	 
 632 01c0 BDE8F081 	 pop {r4,r5,r6,r7,r8,pc}
 633              	.LVL51:
 634              	.L132:
 635              	 .cfi_restore_state
 334:Drivers/STM32G4xx_HAL_Driver/Src/stm32g4xx_hal_rcc.c **** 
 636              	 .loc 1 334 19 view .LVU235
 637 01c4 01F00301 	 and r1,r1,#3
 638              	.LVL52:
 337:Drivers/STM32G4xx_HAL_Driver/Src/stm32g4xx_hal_rcc.c ****     {
 639              	 .loc 1 337 47 discriminator 1 view .LVU236
 640 01c8 0329     	 cmp r1,#3
 641 01ca 3FF42EAF 	 beq .L22
 642              	.L23:
ARM GAS   			page 26


 347:Drivers/STM32G4xx_HAL_Driver/Src/stm32g4xx_hal_rcc.c **** 
 643              	 .loc 1 347 7 is_stmt 1 view .LVU237
 347:Drivers/STM32G4xx_HAL_Driver/Src/stm32g4xx_hal_rcc.c **** 
 644              	 .loc 1 347 7 view .LVU238
 645 01ce 6368     	 ldr r3,[r4,#4]
 646 01d0 B3F5803F 	 cmp r3,#65536
 647 01d4 55D0     	 beq .L137
 347:Drivers/STM32G4xx_HAL_Driver/Src/stm32g4xx_hal_rcc.c **** 
 648              	 .loc 1 347 7 discriminator 2 view .LVU239
 649 01d6 B3F5A02F 	 cmp r3,#327680
 650 01da 00F0C480 	 beq .L138
 347:Drivers/STM32G4xx_HAL_Driver/Src/stm32g4xx_hal_rcc.c **** 
 651              	 .loc 1 347 7 discriminator 5 view .LVU240
 652 01de 344D     	 ldr r5,.L140
 653 01e0 2A68     	 ldr r2,[r5]
 654              	.LVL53:
 347:Drivers/STM32G4xx_HAL_Driver/Src/stm32g4xx_hal_rcc.c **** 
 655              	 .loc 1 347 7 is_stmt 0 discriminator 5 view .LVU241
 656 01e2 22F48032 	 bic r2,r2,#65536
 657 01e6 2A60     	 str r2,[r5]
 347:Drivers/STM32G4xx_HAL_Driver/Src/stm32g4xx_hal_rcc.c **** 
 658              	 .loc 1 347 7 is_stmt 1 discriminator 5 view .LVU242
 659 01e8 2A68     	 ldr r2,[r5]
 660 01ea 22F48022 	 bic r2,r2,#262144
 661 01ee 2A60     	 str r2,[r5]
 347:Drivers/STM32G4xx_HAL_Driver/Src/stm32g4xx_hal_rcc.c **** 
 662              	 .loc 1 347 7 discriminator 7 view .LVU243
 350:Drivers/STM32G4xx_HAL_Driver/Src/stm32g4xx_hal_rcc.c ****       {
 663              	 .loc 1 350 7 view .LVU244
 350:Drivers/STM32G4xx_HAL_Driver/Src/stm32g4xx_hal_rcc.c ****       {
 664              	 .loc 1 350 10 is_stmt 0 view .LVU245
 665 01f0 002B     	 cmp r3,#0
 666 01f2 4BD1     	 bne .L26
 367:Drivers/STM32G4xx_HAL_Driver/Src/stm32g4xx_hal_rcc.c **** 
 667              	 .loc 1 367 9 is_stmt 1 view .LVU246
 367:Drivers/STM32G4xx_HAL_Driver/Src/stm32g4xx_hal_rcc.c **** 
 668              	 .loc 1 367 21 is_stmt 0 view .LVU247
 669 01f4 FFF7FEFF 	 bl HAL_GetTick
 670              	.LVL54:
 367:Drivers/STM32G4xx_HAL_Driver/Src/stm32g4xx_hal_rcc.c **** 
 671              	 .loc 1 367 21 view .LVU248
 672 01f8 0646     	 mov r6,r0
 673              	.LVL55:
 370:Drivers/STM32G4xx_HAL_Driver/Src/stm32g4xx_hal_rcc.c ****         {
 674              	 .loc 1 370 9 is_stmt 1 view .LVU249
 370:Drivers/STM32G4xx_HAL_Driver/Src/stm32g4xx_hal_rcc.c ****         {
 675              	 .loc 1 370 15 is_stmt 0 view .LVU250
 676 01fa 04E0     	 b .L31
 677              	.LVL56:
 678              	.L33:
 372:Drivers/STM32G4xx_HAL_Driver/Src/stm32g4xx_hal_rcc.c ****           {
 679              	 .loc 1 372 16 view .LVU251
 680 01fc FFF7FEFF 	 bl HAL_GetTick
 681              	.LVL57:
 372:Drivers/STM32G4xx_HAL_Driver/Src/stm32g4xx_hal_rcc.c ****           {
 682              	 .loc 1 372 30 discriminator 1 view .LVU252
 683 0200 801B     	 subs r0,r0,r6
ARM GAS   			page 27


 372:Drivers/STM32G4xx_HAL_Driver/Src/stm32g4xx_hal_rcc.c ****           {
 684              	 .loc 1 372 14 discriminator 1 view .LVU253
 685 0202 6428     	 cmp r0,#100
 686 0204 6CD8     	 bhi .L32
 687              	.L31:
 372:Drivers/STM32G4xx_HAL_Driver/Src/stm32g4xx_hal_rcc.c ****           {
 688              	 .loc 1 372 11 is_stmt 1 view .LVU254
 370:Drivers/STM32G4xx_HAL_Driver/Src/stm32g4xx_hal_rcc.c ****         {
 689              	 .loc 1 370 49 view .LVU255
 370:Drivers/STM32G4xx_HAL_Driver/Src/stm32g4xx_hal_rcc.c ****         {
 690              	 .loc 1 370 16 is_stmt 0 view .LVU256
 691 0206 2B68     	 ldr r3,[r5]
 370:Drivers/STM32G4xx_HAL_Driver/Src/stm32g4xx_hal_rcc.c ****         {
 692              	 .loc 1 370 49 view .LVU257
 693 0208 9903     	 lsls r1,r3,#14
 694 020a F7D4     	 bmi .L33
 695              	.LVL58:
 696              	.L127:
 381:Drivers/STM32G4xx_HAL_Driver/Src/stm32g4xx_hal_rcc.c ****   {
 697              	 .loc 1 381 26 view .LVU258
 698 020c 2368     	 ldr r3,[r4]
 381:Drivers/STM32G4xx_HAL_Driver/Src/stm32g4xx_hal_rcc.c ****   {
 699              	 .loc 1 381 3 is_stmt 1 view .LVU259
 381:Drivers/STM32G4xx_HAL_Driver/Src/stm32g4xx_hal_rcc.c ****   {
 700              	 .loc 1 381 6 is_stmt 0 view .LVU260
 701 020e 9A07     	 lsls r2,r3,#30
 702 0210 7FF538AF 	 bpl .L34
 703 0214 13E7     	 b .L139
 704              	.LVL59:
 705              	.L45:
 479:Drivers/STM32G4xx_HAL_Driver/Src/stm32g4xx_hal_rcc.c **** 
 706              	 .loc 1 479 7 is_stmt 1 view .LVU261
 707 0216 D5F89430 	 ldr r3,[r5,#148]
 708 021a 23F00103 	 bic r3,r3,#1
 709 021e C5F89430 	 str r3,[r5,#148]
 482:Drivers/STM32G4xx_HAL_Driver/Src/stm32g4xx_hal_rcc.c **** 
 710              	 .loc 1 482 7 view .LVU262
 482:Drivers/STM32G4xx_HAL_Driver/Src/stm32g4xx_hal_rcc.c **** 
 711              	 .loc 1 482 19 is_stmt 0 view .LVU263
 712 0222 FFF7FEFF 	 bl HAL_GetTick
 713              	.LVL60:
 714 0226 0646     	 mov r6,r0
 715              	.LVL61:
 485:Drivers/STM32G4xx_HAL_Driver/Src/stm32g4xx_hal_rcc.c ****       {
 716              	 .loc 1 485 7 is_stmt 1 view .LVU264
 485:Drivers/STM32G4xx_HAL_Driver/Src/stm32g4xx_hal_rcc.c ****       {
 717              	 .loc 1 485 12 is_stmt 0 view .LVU265
 718 0228 04E0     	 b .L48
 719              	.LVL62:
 720              	.L49:
 487:Drivers/STM32G4xx_HAL_Driver/Src/stm32g4xx_hal_rcc.c ****         {
 721              	 .loc 1 487 13 view .LVU266
 722 022a FFF7FEFF 	 bl HAL_GetTick
 723              	.LVL63:
 487:Drivers/STM32G4xx_HAL_Driver/Src/stm32g4xx_hal_rcc.c ****         {
 724              	 .loc 1 487 27 discriminator 1 view .LVU267
 725 022e 801B     	 subs r0,r0,r6
ARM GAS   			page 28


 487:Drivers/STM32G4xx_HAL_Driver/Src/stm32g4xx_hal_rcc.c ****         {
 726              	 .loc 1 487 11 discriminator 1 view .LVU268
 727 0230 0228     	 cmp r0,#2
 728 0232 55D8     	 bhi .L32
 729              	.L48:
 487:Drivers/STM32G4xx_HAL_Driver/Src/stm32g4xx_hal_rcc.c ****         {
 730              	 .loc 1 487 9 is_stmt 1 view .LVU269
 485:Drivers/STM32G4xx_HAL_Driver/Src/stm32g4xx_hal_rcc.c ****       {
 731              	 .loc 1 485 48 view .LVU270
 485:Drivers/STM32G4xx_HAL_Driver/Src/stm32g4xx_hal_rcc.c ****       {
 732              	 .loc 1 485 13 is_stmt 0 view .LVU271
 733 0234 D5F89430 	 ldr r3,[r5,#148]
 485:Drivers/STM32G4xx_HAL_Driver/Src/stm32g4xx_hal_rcc.c ****       {
 734              	 .loc 1 485 48 view .LVU272
 735 0238 9F07     	 lsls r7,r3,#30
 736 023a F6D4     	 bmi .L49
 737 023c 3DE7     	 b .L129
 738              	.LVL64:
 739              	.L133:
 389:Drivers/STM32G4xx_HAL_Driver/Src/stm32g4xx_hal_rcc.c ****     if (((temp_sysclksrc == RCC_CFGR_SWS_PLL) && (temp_pllckcfg == RCC_PLLSOURCE_HSI)) || (temp_sys
 740              	 .loc 1 389 19 view .LVU273
 741 023e 02F00302 	 and r2,r2,#3
 742              	.LVL65:
 390:Drivers/STM32G4xx_HAL_Driver/Src/stm32g4xx_hal_rcc.c ****     {
 743              	 .loc 1 390 47 discriminator 1 view .LVU274
 744 0242 022A     	 cmp r2,#2
 745 0244 3FF406AF 	 beq .L36
 746              	.L37:
 413:Drivers/STM32G4xx_HAL_Driver/Src/stm32g4xx_hal_rcc.c ****       {
 747              	 .loc 1 413 7 is_stmt 1 view .LVU275
 413:Drivers/STM32G4xx_HAL_Driver/Src/stm32g4xx_hal_rcc.c ****       {
 748              	 .loc 1 413 10 is_stmt 0 view .LVU276
 749 0248 E368     	 ldr r3,[r4,#12]
 750              	.LVL66:
 416:Drivers/STM32G4xx_HAL_Driver/Src/stm32g4xx_hal_rcc.c **** 
 751              	 .loc 1 416 9 view .LVU277
 752 024a 194D     	 ldr r5,.L140
 413:Drivers/STM32G4xx_HAL_Driver/Src/stm32g4xx_hal_rcc.c ****       {
 753              	 .loc 1 413 10 view .LVU278
 754 024c 002B     	 cmp r3,#0
 755 024e 37D0     	 beq .L39
 416:Drivers/STM32G4xx_HAL_Driver/Src/stm32g4xx_hal_rcc.c **** 
 756              	 .loc 1 416 9 is_stmt 1 view .LVU279
 757 0250 2B68     	 ldr r3,[r5]
 758 0252 43F48073 	 orr r3,r3,#256
 759 0256 2B60     	 str r3,[r5]
 419:Drivers/STM32G4xx_HAL_Driver/Src/stm32g4xx_hal_rcc.c **** 
 760              	 .loc 1 419 9 view .LVU280
 419:Drivers/STM32G4xx_HAL_Driver/Src/stm32g4xx_hal_rcc.c **** 
 761              	 .loc 1 419 21 is_stmt 0 view .LVU281
 762 0258 FFF7FEFF 	 bl HAL_GetTick
 763              	.LVL67:
 764 025c 0646     	 mov r6,r0
 765              	.LVL68:
 422:Drivers/STM32G4xx_HAL_Driver/Src/stm32g4xx_hal_rcc.c ****         {
 766              	 .loc 1 422 9 is_stmt 1 view .LVU282
 422:Drivers/STM32G4xx_HAL_Driver/Src/stm32g4xx_hal_rcc.c ****         {
ARM GAS   			page 29


 767              	 .loc 1 422 15 is_stmt 0 view .LVU283
 768 025e 04E0     	 b .L40
 769              	.LVL69:
 770              	.L41:
 424:Drivers/STM32G4xx_HAL_Driver/Src/stm32g4xx_hal_rcc.c ****           {
 771              	 .loc 1 424 16 view .LVU284
 772 0260 FFF7FEFF 	 bl HAL_GetTick
 773              	.LVL70:
 424:Drivers/STM32G4xx_HAL_Driver/Src/stm32g4xx_hal_rcc.c ****           {
 774              	 .loc 1 424 30 discriminator 1 view .LVU285
 775 0264 801B     	 subs r0,r0,r6
 424:Drivers/STM32G4xx_HAL_Driver/Src/stm32g4xx_hal_rcc.c ****           {
 776              	 .loc 1 424 14 discriminator 1 view .LVU286
 777 0266 0228     	 cmp r0,#2
 778 0268 3AD8     	 bhi .L32
 779              	.L40:
 424:Drivers/STM32G4xx_HAL_Driver/Src/stm32g4xx_hal_rcc.c ****           {
 780              	 .loc 1 424 11 is_stmt 1 view .LVU287
 422:Drivers/STM32G4xx_HAL_Driver/Src/stm32g4xx_hal_rcc.c ****         {
 781              	 .loc 1 422 49 view .LVU288
 422:Drivers/STM32G4xx_HAL_Driver/Src/stm32g4xx_hal_rcc.c ****         {
 782              	 .loc 1 422 16 is_stmt 0 view .LVU289
 783 026a 2B68     	 ldr r3,[r5]
 422:Drivers/STM32G4xx_HAL_Driver/Src/stm32g4xx_hal_rcc.c ****         {
 784              	 .loc 1 422 49 view .LVU290
 785 026c 5F05     	 lsls r7,r3,#21
 786 026e F7D5     	 bpl .L41
 431:Drivers/STM32G4xx_HAL_Driver/Src/stm32g4xx_hal_rcc.c ****       }
 787              	 .loc 1 431 9 is_stmt 1 view .LVU291
 788 0270 6B68     	 ldr r3,[r5,#4]
 789 0272 2269     	 ldr r2,[r4,#16]
 790 0274 23F0FE43 	 bic r3,r3,#2130706432
 791 0278 43EA0263 	 orr r3,r3,r2,lsl#24
 792 027c 6B60     	 str r3,[r5,#4]
 453:Drivers/STM32G4xx_HAL_Driver/Src/stm32g4xx_hal_rcc.c ****   {
 793              	 .loc 1 453 26 is_stmt 0 view .LVU292
 794 027e 2368     	 ldr r3,[r4]
 795 0280 00E7     	 b .L34
 796              	.LVL71:
 797              	.L137:
 347:Drivers/STM32G4xx_HAL_Driver/Src/stm32g4xx_hal_rcc.c **** 
 798              	 .loc 1 347 7 is_stmt 1 discriminator 1 view .LVU293
 799 0282 0B4A     	 ldr r2,.L140
 800              	.LVL72:
 347:Drivers/STM32G4xx_HAL_Driver/Src/stm32g4xx_hal_rcc.c **** 
 801              	 .loc 1 347 7 is_stmt 0 discriminator 1 view .LVU294
 802 0284 1368     	 ldr r3,[r2]
 803 0286 43F48033 	 orr r3,r3,#65536
 804 028a 1360     	 str r3,[r2]
 347:Drivers/STM32G4xx_HAL_Driver/Src/stm32g4xx_hal_rcc.c **** 
 805              	 .loc 1 347 7 is_stmt 1 discriminator 7 view .LVU295
 350:Drivers/STM32G4xx_HAL_Driver/Src/stm32g4xx_hal_rcc.c ****       {
 806              	 .loc 1 350 7 view .LVU296
 807              	.L26:
 353:Drivers/STM32G4xx_HAL_Driver/Src/stm32g4xx_hal_rcc.c **** 
 808              	 .loc 1 353 9 view .LVU297
 353:Drivers/STM32G4xx_HAL_Driver/Src/stm32g4xx_hal_rcc.c **** 
ARM GAS   			page 30


 809              	 .loc 1 353 21 is_stmt 0 view .LVU298
 810 028c FFF7FEFF 	 bl HAL_GetTick
 811              	.LVL73:
 356:Drivers/STM32G4xx_HAL_Driver/Src/stm32g4xx_hal_rcc.c ****         {
 812              	 .loc 1 356 16 view .LVU299
 813 0290 074E     	 ldr r6,.L140
 353:Drivers/STM32G4xx_HAL_Driver/Src/stm32g4xx_hal_rcc.c **** 
 814              	 .loc 1 353 21 view .LVU300
 815 0292 0546     	 mov r5,r0
 816              	.LVL74:
 356:Drivers/STM32G4xx_HAL_Driver/Src/stm32g4xx_hal_rcc.c ****         {
 817              	 .loc 1 356 9 is_stmt 1 view .LVU301
 356:Drivers/STM32G4xx_HAL_Driver/Src/stm32g4xx_hal_rcc.c ****         {
 818              	 .loc 1 356 15 is_stmt 0 view .LVU302
 819 0294 04E0     	 b .L29
 820              	.LVL75:
 821              	.L30:
 358:Drivers/STM32G4xx_HAL_Driver/Src/stm32g4xx_hal_rcc.c ****           {
 822              	 .loc 1 358 16 view .LVU303
 823 0296 FFF7FEFF 	 bl HAL_GetTick
 824              	.LVL76:
 358:Drivers/STM32G4xx_HAL_Driver/Src/stm32g4xx_hal_rcc.c ****           {
 825              	 .loc 1 358 30 discriminator 1 view .LVU304
 826 029a 401B     	 subs r0,r0,r5
 358:Drivers/STM32G4xx_HAL_Driver/Src/stm32g4xx_hal_rcc.c ****           {
 827              	 .loc 1 358 14 discriminator 1 view .LVU305
 828 029c 6428     	 cmp r0,#100
 829 029e 1FD8     	 bhi .L32
 830              	.L29:
 358:Drivers/STM32G4xx_HAL_Driver/Src/stm32g4xx_hal_rcc.c ****           {
 831              	 .loc 1 358 11 is_stmt 1 view .LVU306
 356:Drivers/STM32G4xx_HAL_Driver/Src/stm32g4xx_hal_rcc.c ****         {
 832              	 .loc 1 356 49 view .LVU307
 356:Drivers/STM32G4xx_HAL_Driver/Src/stm32g4xx_hal_rcc.c ****         {
 833              	 .loc 1 356 16 is_stmt 0 view .LVU308
 834 02a0 3368     	 ldr r3,[r6]
 356:Drivers/STM32G4xx_HAL_Driver/Src/stm32g4xx_hal_rcc.c ****         {
 835              	 .loc 1 356 49 view .LVU309
 836 02a2 9F03     	 lsls r7,r3,#14
 837 02a4 F7D5     	 bpl .L30
 838 02a6 B1E7     	 b .L127
 839              	.LVL77:
 840              	.L86:
 321:Drivers/STM32G4xx_HAL_Driver/Src/stm32g4xx_hal_rcc.c ****   }
 841              	 .loc 1 321 12 view .LVU310
 842 02a8 0120     	 movs r0,#1
 843              	 .loc 1 716 1 view .LVU311
 844 02aa 02B0     	 add sp,sp,#8
 845              	 .cfi_remember_state
 846              	 .cfi_def_cfa_offset 24
 847              	 
 848 02ac BDE8F081 	 pop {r4,r5,r6,r7,r8,pc}
 849              	.LVL78:
 850              	.L141:
 851              	 .loc 1 716 1 view .LVU312
 852              	 .align 2
 853              	.L140:
ARM GAS   			page 31


 854 02b0 00100240 	 .word 1073876992
 855 02b4 00000000 	 .word uwTickPrio
 856 02b8 00700040 	 .word 1073770496
 857 02bc FCFFEEFE 	 .word -17891332
 858              	.LVL79:
 859              	.L39:
 860              	 .cfi_restore_state
 436:Drivers/STM32G4xx_HAL_Driver/Src/stm32g4xx_hal_rcc.c **** 
 861              	 .loc 1 436 9 is_stmt 1 view .LVU313
 862 02c0 2B68     	 ldr r3,[r5]
 863 02c2 23F48073 	 bic r3,r3,#256
 864 02c6 2B60     	 str r3,[r5]
 439:Drivers/STM32G4xx_HAL_Driver/Src/stm32g4xx_hal_rcc.c **** 
 865              	 .loc 1 439 9 view .LVU314
 439:Drivers/STM32G4xx_HAL_Driver/Src/stm32g4xx_hal_rcc.c **** 
 866              	 .loc 1 439 21 is_stmt 0 view .LVU315
 867 02c8 FFF7FEFF 	 bl HAL_GetTick
 868              	.LVL80:
 869 02cc 0646     	 mov r6,r0
 870              	.LVL81:
 442:Drivers/STM32G4xx_HAL_Driver/Src/stm32g4xx_hal_rcc.c ****         {
 871              	 .loc 1 442 9 is_stmt 1 view .LVU316
 872              	.L42:
 444:Drivers/STM32G4xx_HAL_Driver/Src/stm32g4xx_hal_rcc.c ****           {
 873              	 .loc 1 444 11 view .LVU317
 442:Drivers/STM32G4xx_HAL_Driver/Src/stm32g4xx_hal_rcc.c ****         {
 874              	 .loc 1 442 49 view .LVU318
 442:Drivers/STM32G4xx_HAL_Driver/Src/stm32g4xx_hal_rcc.c ****         {
 875              	 .loc 1 442 16 is_stmt 0 view .LVU319
 876 02ce 2B68     	 ldr r3,[r5]
 442:Drivers/STM32G4xx_HAL_Driver/Src/stm32g4xx_hal_rcc.c ****         {
 877              	 .loc 1 442 49 view .LVU320
 878 02d0 5905     	 lsls r1,r3,#21
 879 02d2 7FF5D6AE 	 bpl .L128
 444:Drivers/STM32G4xx_HAL_Driver/Src/stm32g4xx_hal_rcc.c ****           {
 880              	 .loc 1 444 16 view .LVU321
 881 02d6 FFF7FEFF 	 bl HAL_GetTick
 882              	.LVL82:
 444:Drivers/STM32G4xx_HAL_Driver/Src/stm32g4xx_hal_rcc.c ****           {
 883              	 .loc 1 444 30 discriminator 1 view .LVU322
 884 02da 801B     	 subs r0,r0,r6
 444:Drivers/STM32G4xx_HAL_Driver/Src/stm32g4xx_hal_rcc.c ****           {
 885              	 .loc 1 444 14 discriminator 1 view .LVU323
 886 02dc 0228     	 cmp r0,#2
 887 02de F6D9     	 bls .L42
 888              	.LVL83:
 889              	.L32:
 360:Drivers/STM32G4xx_HAL_Driver/Src/stm32g4xx_hal_rcc.c ****           }
 890              	 .loc 1 360 20 view .LVU324
 891 02e0 0320     	 movs r0,#3
 892              	 .loc 1 716 1 view .LVU325
 893 02e2 02B0     	 add sp,sp,#8
 894              	 .cfi_remember_state
 895              	 .cfi_def_cfa_offset 24
 896              	 
 897 02e4 BDE8F081 	 pop {r4,r5,r6,r7,r8,pc}
 898              	.LVL84:
ARM GAS   			page 32


 899              	.L87:
 900              	 .cfi_restore_state
 901              	.LBB8:
 497:Drivers/STM32G4xx_HAL_Driver/Src/stm32g4xx_hal_rcc.c **** 
 902              	 .loc 1 497 22 view .LVU326
 903 02e8 0025     	 movs r5,#0
 904 02ea F8E6     	 b .L51
 905              	.LVL85:
 906              	.L134:
 528:Drivers/STM32G4xx_HAL_Driver/Src/stm32g4xx_hal_rcc.c **** 
 907              	 .loc 1 528 5 is_stmt 1 discriminator 1 view .LVU327
 908 02ec 654A     	 ldr r2,.L142
 909 02ee D2F89030 	 ldr r3,[r2,#144]
 910 02f2 43F00103 	 orr r3,r3,#1
 911 02f6 C2F89030 	 str r3,[r2,#144]
 528:Drivers/STM32G4xx_HAL_Driver/Src/stm32g4xx_hal_rcc.c **** 
 912              	 .loc 1 528 5 discriminator 7 view .LVU328
 531:Drivers/STM32G4xx_HAL_Driver/Src/stm32g4xx_hal_rcc.c ****     {
 913              	 .loc 1 531 5 view .LVU329
 914              	.L58:
 534:Drivers/STM32G4xx_HAL_Driver/Src/stm32g4xx_hal_rcc.c **** 
 915              	 .loc 1 534 7 view .LVU330
 534:Drivers/STM32G4xx_HAL_Driver/Src/stm32g4xx_hal_rcc.c **** 
 916              	 .loc 1 534 19 is_stmt 0 view .LVU331
 917 02fa FFF7FEFF 	 bl HAL_GetTick
 918              	.LVL86:
 537:Drivers/STM32G4xx_HAL_Driver/Src/stm32g4xx_hal_rcc.c ****       {
 919              	 .loc 1 537 14 view .LVU332
 920 02fe 614F     	 ldr r7,.L142
 534:Drivers/STM32G4xx_HAL_Driver/Src/stm32g4xx_hal_rcc.c **** 
 921              	 .loc 1 534 19 view .LVU333
 922 0300 0646     	 mov r6,r0
 923              	.LVL87:
 537:Drivers/STM32G4xx_HAL_Driver/Src/stm32g4xx_hal_rcc.c ****       {
 924              	 .loc 1 537 7 is_stmt 1 view .LVU334
 539:Drivers/STM32G4xx_HAL_Driver/Src/stm32g4xx_hal_rcc.c ****         {
 925              	 .loc 1 539 11 is_stmt 0 discriminator 1 view .LVU335
 926 0302 41F28838 	 movw r8,#5000
 537:Drivers/STM32G4xx_HAL_Driver/Src/stm32g4xx_hal_rcc.c ****       {
 927              	 .loc 1 537 13 view .LVU336
 928 0306 04E0     	 b .L61
 929              	.LVL88:
 930              	.L62:
 539:Drivers/STM32G4xx_HAL_Driver/Src/stm32g4xx_hal_rcc.c ****         {
 931              	 .loc 1 539 13 view .LVU337
 932 0308 FFF7FEFF 	 bl HAL_GetTick
 933              	.LVL89:
 539:Drivers/STM32G4xx_HAL_Driver/Src/stm32g4xx_hal_rcc.c ****         {
 934              	 .loc 1 539 27 discriminator 1 view .LVU338
 935 030c 801B     	 subs r0,r0,r6
 539:Drivers/STM32G4xx_HAL_Driver/Src/stm32g4xx_hal_rcc.c ****         {
 936              	 .loc 1 539 11 discriminator 1 view .LVU339
 937 030e 4045     	 cmp r0,r8
 938 0310 E6D8     	 bhi .L32
 939              	.L61:
 539:Drivers/STM32G4xx_HAL_Driver/Src/stm32g4xx_hal_rcc.c ****         {
 940              	 .loc 1 539 9 is_stmt 1 view .LVU340
ARM GAS   			page 33


 537:Drivers/STM32G4xx_HAL_Driver/Src/stm32g4xx_hal_rcc.c ****       {
 941              	 .loc 1 537 51 view .LVU341
 537:Drivers/STM32G4xx_HAL_Driver/Src/stm32g4xx_hal_rcc.c ****       {
 942              	 .loc 1 537 14 is_stmt 0 view .LVU342
 943 0312 D7F89030 	 ldr r3,[r7,#144]
 537:Drivers/STM32G4xx_HAL_Driver/Src/stm32g4xx_hal_rcc.c ****       {
 944              	 .loc 1 537 51 view .LVU343
 945 0316 9B07     	 lsls r3,r3,#30
 946 0318 F6D5     	 bpl .L62
 947 031a 0CE7     	 b .L67
 948              	.LVL90:
 949              	.L71:
 537:Drivers/STM32G4xx_HAL_Driver/Src/stm32g4xx_hal_rcc.c ****       {
 950              	 .loc 1 537 51 view .LVU344
 951              	.LBE8:
 594:Drivers/STM32G4xx_HAL_Driver/Src/stm32g4xx_hal_rcc.c **** 
 952              	 .loc 1 594 7 is_stmt 1 view .LVU345
 953 031c D5F89830 	 ldr r3,[r5,#152]
 954 0320 23F00103 	 bic r3,r3,#1
 955 0324 C5F89830 	 str r3,[r5,#152]
 597:Drivers/STM32G4xx_HAL_Driver/Src/stm32g4xx_hal_rcc.c **** 
 956              	 .loc 1 597 7 view .LVU346
 597:Drivers/STM32G4xx_HAL_Driver/Src/stm32g4xx_hal_rcc.c **** 
 957              	 .loc 1 597 19 is_stmt 0 view .LVU347
 958 0328 FFF7FEFF 	 bl HAL_GetTick
 959              	.LVL91:
 960 032c 0646     	 mov r6,r0
 961              	.LVL92:
 600:Drivers/STM32G4xx_HAL_Driver/Src/stm32g4xx_hal_rcc.c ****       {
 962              	 .loc 1 600 7 is_stmt 1 view .LVU348
 600:Drivers/STM32G4xx_HAL_Driver/Src/stm32g4xx_hal_rcc.c ****       {
 963              	 .loc 1 600 12 is_stmt 0 view .LVU349
 964 032e 04E0     	 b .L75
 965              	.LVL93:
 966              	.L76:
 602:Drivers/STM32G4xx_HAL_Driver/Src/stm32g4xx_hal_rcc.c ****         {
 967              	 .loc 1 602 13 view .LVU350
 968 0330 FFF7FEFF 	 bl HAL_GetTick
 969              	.LVL94:
 602:Drivers/STM32G4xx_HAL_Driver/Src/stm32g4xx_hal_rcc.c ****         {
 970              	 .loc 1 602 27 discriminator 1 view .LVU351
 971 0334 801B     	 subs r0,r0,r6
 602:Drivers/STM32G4xx_HAL_Driver/Src/stm32g4xx_hal_rcc.c ****         {
 972              	 .loc 1 602 11 discriminator 1 view .LVU352
 973 0336 0228     	 cmp r0,#2
 974 0338 D2D8     	 bhi .L32
 975              	.L75:
 602:Drivers/STM32G4xx_HAL_Driver/Src/stm32g4xx_hal_rcc.c ****         {
 976              	 .loc 1 602 9 is_stmt 1 view .LVU353
 600:Drivers/STM32G4xx_HAL_Driver/Src/stm32g4xx_hal_rcc.c ****       {
 977              	 .loc 1 600 54 view .LVU354
 600:Drivers/STM32G4xx_HAL_Driver/Src/stm32g4xx_hal_rcc.c ****       {
 978              	 .loc 1 600 13 is_stmt 0 view .LVU355
 979 033a D5F89830 	 ldr r3,[r5,#152]
 600:Drivers/STM32G4xx_HAL_Driver/Src/stm32g4xx_hal_rcc.c ****       {
 980              	 .loc 1 600 54 view .LVU356
 981 033e 9F07     	 lsls r7,r3,#30
ARM GAS   			page 34


 982 0340 F6D4     	 bmi .L76
 983 0342 1AE7     	 b .L74
 984              	.LVL95:
 985              	.L52:
 986              	.LBB9:
 513:Drivers/STM32G4xx_HAL_Driver/Src/stm32g4xx_hal_rcc.c **** 
 987              	 .loc 1 513 7 is_stmt 1 view .LVU357
 988 0344 3368     	 ldr r3,[r6]
 989 0346 43F48073 	 orr r3,r3,#256
 990 034a 3360     	 str r3,[r6]
 516:Drivers/STM32G4xx_HAL_Driver/Src/stm32g4xx_hal_rcc.c **** 
 991              	 .loc 1 516 7 view .LVU358
 516:Drivers/STM32G4xx_HAL_Driver/Src/stm32g4xx_hal_rcc.c **** 
 992              	 .loc 1 516 19 is_stmt 0 view .LVU359
 993 034c FFF7FEFF 	 bl HAL_GetTick
 994              	.LVL96:
 995 0350 0746     	 mov r7,r0
 996              	.LVL97:
 518:Drivers/STM32G4xx_HAL_Driver/Src/stm32g4xx_hal_rcc.c ****       {
 997              	 .loc 1 518 7 is_stmt 1 view .LVU360
 998              	.L55:
 520:Drivers/STM32G4xx_HAL_Driver/Src/stm32g4xx_hal_rcc.c ****         {
 999              	 .loc 1 520 9 view .LVU361
 518:Drivers/STM32G4xx_HAL_Driver/Src/stm32g4xx_hal_rcc.c ****       {
 1000              	 .loc 1 518 14 view .LVU362
 1001 0352 3368     	 ldr r3,[r6]
 1002 0354 DA05     	 lsls r2,r3,#23
 1003 0356 3FF5C7AE 	 bmi .L57
 520:Drivers/STM32G4xx_HAL_Driver/Src/stm32g4xx_hal_rcc.c ****         {
 1004              	 .loc 1 520 14 is_stmt 0 view .LVU363
 1005 035a FFF7FEFF 	 bl HAL_GetTick
 1006              	.LVL98:
 520:Drivers/STM32G4xx_HAL_Driver/Src/stm32g4xx_hal_rcc.c ****         {
 1007              	 .loc 1 520 28 discriminator 1 view .LVU364
 1008 035e C01B     	 subs r0,r0,r7
 520:Drivers/STM32G4xx_HAL_Driver/Src/stm32g4xx_hal_rcc.c ****         {
 1009              	 .loc 1 520 12 discriminator 1 view .LVU365
 1010 0360 0228     	 cmp r0,#2
 1011 0362 F6D9     	 bls .L55
 1012 0364 BCE7     	 b .L32
 1013              	.LVL99:
 1014              	.L138:
 520:Drivers/STM32G4xx_HAL_Driver/Src/stm32g4xx_hal_rcc.c ****         {
 1015              	 .loc 1 520 12 discriminator 1 view .LVU366
 1016              	.LBE9:
 347:Drivers/STM32G4xx_HAL_Driver/Src/stm32g4xx_hal_rcc.c **** 
 1017              	 .loc 1 347 7 is_stmt 1 discriminator 4 view .LVU367
 1018 0366 03F18043 	 add r3,r3,#1073741824
 1019 036a A3F53C33 	 sub r3,r3,#192512
 1020 036e 1A68     	 ldr r2,[r3]
 1021              	.LVL100:
 347:Drivers/STM32G4xx_HAL_Driver/Src/stm32g4xx_hal_rcc.c **** 
 1022              	 .loc 1 347 7 is_stmt 0 discriminator 4 view .LVU368
 1023 0370 42F48022 	 orr r2,r2,#262144
 1024 0374 1A60     	 str r2,[r3]
 347:Drivers/STM32G4xx_HAL_Driver/Src/stm32g4xx_hal_rcc.c **** 
 1025              	 .loc 1 347 7 is_stmt 1 discriminator 4 view .LVU369
ARM GAS   			page 35


 1026 0376 1A68     	 ldr r2,[r3]
 1027 0378 42F48032 	 orr r2,r2,#65536
 1028 037c 1A60     	 str r2,[r3]
 347:Drivers/STM32G4xx_HAL_Driver/Src/stm32g4xx_hal_rcc.c **** 
 1029              	 .loc 1 347 7 discriminator 7 view .LVU370
 350:Drivers/STM32G4xx_HAL_Driver/Src/stm32g4xx_hal_rcc.c ****       {
 1030              	 .loc 1 350 7 view .LVU371
 1031 037e 85E7     	 b .L26
 1032              	.LVL101:
 1033              	.L131:
 1034              	 .cfi_def_cfa_offset 0
 1035              	 .cfi_restore 4
 1036              	 .cfi_restore 5
 1037              	 .cfi_restore 6
 1038              	 .cfi_restore 7
 1039              	 .cfi_restore 8
 1040              	 .cfi_restore 14
 321:Drivers/STM32G4xx_HAL_Driver/Src/stm32g4xx_hal_rcc.c ****   }
 1041              	 .loc 1 321 12 is_stmt 0 view .LVU372
 1042 0380 0120     	 movs r0,#1
 1043              	.LVL102:
 1044              	 .loc 1 716 1 view .LVU373
 1045 0382 7047     	 bx lr
 1046              	.LVL103:
 1047              	.L136:
 1048              	 .cfi_def_cfa_offset 32
 1049              	 .cfi_offset 4,-24
 1050              	 .cfi_offset 5,-20
 1051              	 .cfi_offset 6,-16
 1052              	 .cfi_offset 7,-12
 1053              	 .cfi_offset 8,-8
 1054              	 .cfi_offset 14,-4
 622:Drivers/STM32G4xx_HAL_Driver/Src/stm32g4xx_hal_rcc.c ****         assert_param(IS_RCC_PLLM_VALUE(RCC_OscInitStruct->PLL.PLLM));
 1055              	 .loc 1 622 9 is_stmt 1 view .LVU374
 623:Drivers/STM32G4xx_HAL_Driver/Src/stm32g4xx_hal_rcc.c ****         assert_param(IS_RCC_PLLN_VALUE(RCC_OscInitStruct->PLL.PLLN));
 1056              	 .loc 1 623 9 view .LVU375
 624:Drivers/STM32G4xx_HAL_Driver/Src/stm32g4xx_hal_rcc.c ****         assert_param(IS_RCC_PLLP_VALUE(RCC_OscInitStruct->PLL.PLLP));
 1057              	 .loc 1 624 9 view .LVU376
 625:Drivers/STM32G4xx_HAL_Driver/Src/stm32g4xx_hal_rcc.c ****         assert_param(IS_RCC_PLLQ_VALUE(RCC_OscInitStruct->PLL.PLLQ));
 1058              	 .loc 1 625 9 view .LVU377
 626:Drivers/STM32G4xx_HAL_Driver/Src/stm32g4xx_hal_rcc.c ****         assert_param(IS_RCC_PLLR_VALUE(RCC_OscInitStruct->PLL.PLLR));
 1059              	 .loc 1 626 9 view .LVU378
 627:Drivers/STM32G4xx_HAL_Driver/Src/stm32g4xx_hal_rcc.c **** 
 1060              	 .loc 1 627 9 view .LVU379
 630:Drivers/STM32G4xx_HAL_Driver/Src/stm32g4xx_hal_rcc.c **** 
 1061              	 .loc 1 630 9 view .LVU380
 633:Drivers/STM32G4xx_HAL_Driver/Src/stm32g4xx_hal_rcc.c **** 
 1062              	 .loc 1 633 9 view .LVU381
 633:Drivers/STM32G4xx_HAL_Driver/Src/stm32g4xx_hal_rcc.c **** 
 1063              	 .loc 1 633 21 is_stmt 0 view .LVU382
 1064 0384 FFF7FEFF 	 bl HAL_GetTick
 1065              	.LVL104:
 1066 0388 0646     	 mov r6,r0
 1067              	.LVL105:
 636:Drivers/STM32G4xx_HAL_Driver/Src/stm32g4xx_hal_rcc.c ****         {
 1068              	 .loc 1 636 9 is_stmt 1 view .LVU383
 636:Drivers/STM32G4xx_HAL_Driver/Src/stm32g4xx_hal_rcc.c ****         {
ARM GAS   			page 36


 1069              	 .loc 1 636 15 is_stmt 0 view .LVU384
 1070 038a 04E0     	 b .L79
 1071              	.LVL106:
 1072              	.L80:
 638:Drivers/STM32G4xx_HAL_Driver/Src/stm32g4xx_hal_rcc.c ****           {
 1073              	 .loc 1 638 16 view .LVU385
 1074 038c FFF7FEFF 	 bl HAL_GetTick
 1075              	.LVL107:
 638:Drivers/STM32G4xx_HAL_Driver/Src/stm32g4xx_hal_rcc.c ****           {
 1076              	 .loc 1 638 30 discriminator 1 view .LVU386
 1077 0390 801B     	 subs r0,r0,r6
 638:Drivers/STM32G4xx_HAL_Driver/Src/stm32g4xx_hal_rcc.c ****           {
 1078              	 .loc 1 638 14 discriminator 1 view .LVU387
 1079 0392 0228     	 cmp r0,#2
 1080 0394 A4D8     	 bhi .L32
 1081              	.L79:
 638:Drivers/STM32G4xx_HAL_Driver/Src/stm32g4xx_hal_rcc.c ****           {
 1082              	 .loc 1 638 11 is_stmt 1 view .LVU388
 636:Drivers/STM32G4xx_HAL_Driver/Src/stm32g4xx_hal_rcc.c ****         {
 1083              	 .loc 1 636 49 view .LVU389
 636:Drivers/STM32G4xx_HAL_Driver/Src/stm32g4xx_hal_rcc.c ****         {
 1084              	 .loc 1 636 16 is_stmt 0 view .LVU390
 1085 0396 2B68     	 ldr r3,[r5]
 636:Drivers/STM32G4xx_HAL_Driver/Src/stm32g4xx_hal_rcc.c ****         {
 1086              	 .loc 1 636 49 view .LVU391
 1087 0398 9901     	 lsls r1,r3,#6
 1088 039a F7D4     	 bmi .L80
 645:Drivers/STM32G4xx_HAL_Driver/Src/stm32g4xx_hal_rcc.c ****                              RCC_OscInitStruct->PLL.PLLM,
 1089              	 .loc 1 645 9 is_stmt 1 view .LVU392
 1090 039c E968     	 ldr r1,[r5,#12]
 1091 039e 3A4B     	 ldr r3,.L142+4
 1092 03a0 226A     	 ldr r2,[r4,#32]
 1093 03a2 606A     	 ldr r0,[r4,#36]
 1094 03a4 0B40     	 ands r3,r3,r1
 1095 03a6 1343     	 orrs r3,r3,r2
 1096 03a8 D4E90A12 	 ldrd r1,r2,[r4,#40]
 1097 03ac 43EA0123 	 orr r3,r3,r1,lsl#8
 1098 03b0 43EAC263 	 orr r3,r3,r2,lsl#27
 1099 03b4 D4E90C12 	 ldrd r1,r2,[r4,#48]
 1100 03b8 0138     	 subs r0,r0,#1
 1101 03ba 4908     	 lsrs r1,r1,#1
 1102 03bc 43EA0013 	 orr r3,r3,r0,lsl#4
 1103 03c0 0139     	 subs r1,r1,#1
 1104 03c2 5208     	 lsrs r2,r2,#1
 1105 03c4 43EA4153 	 orr r3,r3,r1,lsl#21
 1106 03c8 013A     	 subs r2,r2,#1
 1107 03ca 43EA4263 	 orr r3,r3,r2,lsl#25
 1108 03ce EB60     	 str r3,[r5,#12]
 653:Drivers/STM32G4xx_HAL_Driver/Src/stm32g4xx_hal_rcc.c **** 
 1109              	 .loc 1 653 9 view .LVU393
 1110 03d0 2B68     	 ldr r3,[r5]
 1111 03d2 43F08073 	 orr r3,r3,#16777216
 1112 03d6 2B60     	 str r3,[r5]
 656:Drivers/STM32G4xx_HAL_Driver/Src/stm32g4xx_hal_rcc.c **** 
 1113              	 .loc 1 656 10 view .LVU394
 1114 03d8 EB68     	 ldr r3,[r5,#12]
 1115 03da 43F08073 	 orr r3,r3,#16777216
ARM GAS   			page 37


 1116 03de EB60     	 str r3,[r5,#12]
 659:Drivers/STM32G4xx_HAL_Driver/Src/stm32g4xx_hal_rcc.c **** 
 1117              	 .loc 1 659 9 view .LVU395
 659:Drivers/STM32G4xx_HAL_Driver/Src/stm32g4xx_hal_rcc.c **** 
 1118              	 .loc 1 659 21 is_stmt 0 view .LVU396
 1119 03e0 FFF7FEFF 	 bl HAL_GetTick
 1120              	.LVL108:
 662:Drivers/STM32G4xx_HAL_Driver/Src/stm32g4xx_hal_rcc.c ****         {
 1121              	 .loc 1 662 16 view .LVU397
 1122 03e4 274D     	 ldr r5,.L142
 659:Drivers/STM32G4xx_HAL_Driver/Src/stm32g4xx_hal_rcc.c **** 
 1123              	 .loc 1 659 21 view .LVU398
 1124 03e6 0446     	 mov r4,r0
 1125              	.LVL109:
 662:Drivers/STM32G4xx_HAL_Driver/Src/stm32g4xx_hal_rcc.c ****         {
 1126              	 .loc 1 662 9 is_stmt 1 view .LVU399
 662:Drivers/STM32G4xx_HAL_Driver/Src/stm32g4xx_hal_rcc.c ****         {
 1127              	 .loc 1 662 15 is_stmt 0 view .LVU400
 1128 03e8 05E0     	 b .L81
 1129              	.LVL110:
 1130              	.L82:
 664:Drivers/STM32G4xx_HAL_Driver/Src/stm32g4xx_hal_rcc.c ****           {
 1131              	 .loc 1 664 16 view .LVU401
 1132 03ea FFF7FEFF 	 bl HAL_GetTick
 1133              	.LVL111:
 664:Drivers/STM32G4xx_HAL_Driver/Src/stm32g4xx_hal_rcc.c ****           {
 1134              	 .loc 1 664 30 discriminator 1 view .LVU402
 1135 03ee 001B     	 subs r0,r0,r4
 664:Drivers/STM32G4xx_HAL_Driver/Src/stm32g4xx_hal_rcc.c ****           {
 1136              	 .loc 1 664 14 discriminator 1 view .LVU403
 1137 03f0 0228     	 cmp r0,#2
 1138 03f2 3FF675AF 	 bhi .L32
 1139              	.L81:
 664:Drivers/STM32G4xx_HAL_Driver/Src/stm32g4xx_hal_rcc.c ****           {
 1140              	 .loc 1 664 11 is_stmt 1 view .LVU404
 662:Drivers/STM32G4xx_HAL_Driver/Src/stm32g4xx_hal_rcc.c ****         {
 1141              	 .loc 1 662 49 view .LVU405
 662:Drivers/STM32G4xx_HAL_Driver/Src/stm32g4xx_hal_rcc.c ****         {
 1142              	 .loc 1 662 16 is_stmt 0 view .LVU406
 1143 03f6 2B68     	 ldr r3,[r5]
 662:Drivers/STM32G4xx_HAL_Driver/Src/stm32g4xx_hal_rcc.c ****         {
 1144              	 .loc 1 662 49 view .LVU407
 1145 03f8 9A01     	 lsls r2,r3,#6
 1146 03fa F6D5     	 bpl .L82
 1147 03fc DEE6     	 b .L85
 1148              	.LVL112:
 1149              	.L135:
 1150              	.LBB10:
 528:Drivers/STM32G4xx_HAL_Driver/Src/stm32g4xx_hal_rcc.c **** 
 1151              	 .loc 1 528 5 is_stmt 1 discriminator 4 view .LVU408
 1152 03fe 214B     	 ldr r3,.L142
 1153 0400 D3F89020 	 ldr r2,[r3,#144]
 1154 0404 42F00402 	 orr r2,r2,#4
 1155 0408 C3F89020 	 str r2,[r3,#144]
 528:Drivers/STM32G4xx_HAL_Driver/Src/stm32g4xx_hal_rcc.c **** 
 1156              	 .loc 1 528 5 discriminator 4 view .LVU409
 1157 040c D3F89020 	 ldr r2,[r3,#144]
ARM GAS   			page 38


 1158 0410 42F00102 	 orr r2,r2,#1
 1159 0414 C3F89020 	 str r2,[r3,#144]
 528:Drivers/STM32G4xx_HAL_Driver/Src/stm32g4xx_hal_rcc.c **** 
 1160              	 .loc 1 528 5 discriminator 7 view .LVU410
 531:Drivers/STM32G4xx_HAL_Driver/Src/stm32g4xx_hal_rcc.c ****     {
 1161              	 .loc 1 531 5 view .LVU411
 1162 0418 6FE7     	 b .L58
 1163              	.LVL113:
 1164              	.L77:
 531:Drivers/STM32G4xx_HAL_Driver/Src/stm32g4xx_hal_rcc.c ****     {
 1165              	 .loc 1 531 5 is_stmt 0 view .LVU412
 1166              	.LBE10:
 694:Drivers/STM32G4xx_HAL_Driver/Src/stm32g4xx_hal_rcc.c ****       {
 1167              	 .loc 1 694 7 is_stmt 1 view .LVU413
 694:Drivers/STM32G4xx_HAL_Driver/Src/stm32g4xx_hal_rcc.c ****       {
 1168              	 .loc 1 694 9 is_stmt 0 view .LVU414
 1169 041a 012B     	 cmp r3,#1
 1170 041c 3FF444AF 	 beq .L86
 701:Drivers/STM32G4xx_HAL_Driver/Src/stm32g4xx_hal_rcc.c ****       if((READ_BIT(temp_pllckcfg, RCC_PLLCFGR_PLLSRC) != RCC_OscInitStruct->PLL.PLLSource) ||
 1171              	 .loc 1 701 7 is_stmt 1 view .LVU415
 701:Drivers/STM32G4xx_HAL_Driver/Src/stm32g4xx_hal_rcc.c ****       if((READ_BIT(temp_pllckcfg, RCC_PLLCFGR_PLLSRC) != RCC_OscInitStruct->PLL.PLLSource) ||
 1172              	 .loc 1 701 21 is_stmt 0 view .LVU416
 1173 0420 EB68     	 ldr r3,[r5,#12]
 1174              	.LVL114:
 702:Drivers/STM32G4xx_HAL_Driver/Src/stm32g4xx_hal_rcc.c ****          (READ_BIT(temp_pllckcfg, RCC_PLLCFGR_PLLM) != (((RCC_OscInitStruct->PLL.PLLM) - 1U) << RCC
 1175              	 .loc 1 702 7 is_stmt 1 view .LVU417
 702:Drivers/STM32G4xx_HAL_Driver/Src/stm32g4xx_hal_rcc.c ****          (READ_BIT(temp_pllckcfg, RCC_PLLCFGR_PLLM) != (((RCC_OscInitStruct->PLL.PLLM) - 1U) << RCC
 1176              	 .loc 1 702 9 is_stmt 0 view .LVU418
 1177 0422 226A     	 ldr r2,[r4,#32]
 702:Drivers/STM32G4xx_HAL_Driver/Src/stm32g4xx_hal_rcc.c ****          (READ_BIT(temp_pllckcfg, RCC_PLLCFGR_PLLM) != (((RCC_OscInitStruct->PLL.PLLM) - 1U) << RCC
 1178              	 .loc 1 702 11 view .LVU419
 1179 0424 03F00301 	 and r1,r3,#3
 702:Drivers/STM32G4xx_HAL_Driver/Src/stm32g4xx_hal_rcc.c ****          (READ_BIT(temp_pllckcfg, RCC_PLLCFGR_PLLM) != (((RCC_OscInitStruct->PLL.PLLM) - 1U) << RCC
 1180              	 .loc 1 702 9 view .LVU420
 1181 0428 9142     	 cmp r1,r2
 1182 042a 7FF43DAF 	 bne .L86
 703:Drivers/STM32G4xx_HAL_Driver/Src/stm32g4xx_hal_rcc.c ****          (READ_BIT(temp_pllckcfg, RCC_PLLCFGR_PLLN) != ((RCC_OscInitStruct->PLL.PLLN) << RCC_PLLCFG
 1183              	 .loc 1 703 88 view .LVU421
 1184 042e 616A     	 ldr r1,[r4,#36]
 703:Drivers/STM32G4xx_HAL_Driver/Src/stm32g4xx_hal_rcc.c ****          (READ_BIT(temp_pllckcfg, RCC_PLLCFGR_PLLN) != ((RCC_OscInitStruct->PLL.PLLN) << RCC_PLLCFG
 1185              	 .loc 1 703 11 view .LVU422
 1186 0430 03F0F002 	 and r2,r3,#240
 703:Drivers/STM32G4xx_HAL_Driver/Src/stm32g4xx_hal_rcc.c ****          (READ_BIT(temp_pllckcfg, RCC_PLLCFGR_PLLN) != ((RCC_OscInitStruct->PLL.PLLN) << RCC_PLLCFG
 1187              	 .loc 1 703 88 view .LVU423
 1188 0434 0139     	 subs r1,r1,#1
 702:Drivers/STM32G4xx_HAL_Driver/Src/stm32g4xx_hal_rcc.c ****          (READ_BIT(temp_pllckcfg, RCC_PLLCFGR_PLLM) != (((RCC_OscInitStruct->PLL.PLLM) - 1U) << RCC
 1189              	 .loc 1 702 92 discriminator 1 view .LVU424
 1190 0436 B2EB011F 	 cmp r2,r1,lsl#4
 1191 043a 7FF435AF 	 bne .L86
 704:Drivers/STM32G4xx_HAL_Driver/Src/stm32g4xx_hal_rcc.c ****          (READ_BIT(temp_pllckcfg, RCC_PLLCFGR_PLLPDIV) != ((RCC_OscInitStruct->PLL.PLLP) << RCC_PLL
 1192              	 .loc 1 704 87 view .LVU425
 1193 043e A16A     	 ldr r1,[r4,#40]
 704:Drivers/STM32G4xx_HAL_Driver/Src/stm32g4xx_hal_rcc.c ****          (READ_BIT(temp_pllckcfg, RCC_PLLCFGR_PLLPDIV) != ((RCC_OscInitStruct->PLL.PLLP) << RCC_PLL
 1194              	 .loc 1 704 11 view .LVU426
 1195 0440 03F4FE42 	 and r2,r3,#32512
 703:Drivers/STM32G4xx_HAL_Driver/Src/stm32g4xx_hal_rcc.c ****          (READ_BIT(temp_pllckcfg, RCC_PLLCFGR_PLLN) != ((RCC_OscInitStruct->PLL.PLLN) << RCC_PLLCFG
 1196              	 .loc 1 703 120 view .LVU427
ARM GAS   			page 39


 1197 0444 B2EB012F 	 cmp r2,r1,lsl#8
 1198 0448 7FF42EAF 	 bne .L86
 705:Drivers/STM32G4xx_HAL_Driver/Src/stm32g4xx_hal_rcc.c ****          (READ_BIT(temp_pllckcfg, RCC_PLLCFGR_PLLQ) != ((((RCC_OscInitStruct->PLL.PLLQ) >> 1U) - 1U
 1199              	 .loc 1 705 90 view .LVU428
 1200 044c E16A     	 ldr r1,[r4,#44]
 705:Drivers/STM32G4xx_HAL_Driver/Src/stm32g4xx_hal_rcc.c ****          (READ_BIT(temp_pllckcfg, RCC_PLLCFGR_PLLQ) != ((((RCC_OscInitStruct->PLL.PLLQ) >> 1U) - 1U
 1201              	 .loc 1 705 11 view .LVU429
 1202 044e 03F07842 	 and r2,r3,#-134217728
 704:Drivers/STM32G4xx_HAL_Driver/Src/stm32g4xx_hal_rcc.c ****          (READ_BIT(temp_pllckcfg, RCC_PLLCFGR_PLLPDIV) != ((RCC_OscInitStruct->PLL.PLLP) << RCC_PLL
 1203              	 .loc 1 704 113 view .LVU430
 1204 0452 B2EBC16F 	 cmp r2,r1,lsl#27
 1205 0456 7FF427AF 	 bne .L86
 706:Drivers/STM32G4xx_HAL_Driver/Src/stm32g4xx_hal_rcc.c ****          (READ_BIT(temp_pllckcfg, RCC_PLLCFGR_PLLR) != ((((RCC_OscInitStruct->PLL.PLLR) >> 1U) - 1U
 1206              	 .loc 1 706 89 view .LVU431
 1207 045a 226B     	 ldr r2,[r4,#48]
 1208 045c 5208     	 lsrs r2,r2,#1
 706:Drivers/STM32G4xx_HAL_Driver/Src/stm32g4xx_hal_rcc.c ****          (READ_BIT(temp_pllckcfg, RCC_PLLCFGR_PLLR) != ((((RCC_OscInitStruct->PLL.PLLR) >> 1U) - 1U
 1209              	 .loc 1 706 11 view .LVU432
 1210 045e 03F4C001 	 and r1,r3,#6291456
 706:Drivers/STM32G4xx_HAL_Driver/Src/stm32g4xx_hal_rcc.c ****          (READ_BIT(temp_pllckcfg, RCC_PLLCFGR_PLLR) != ((((RCC_OscInitStruct->PLL.PLLR) >> 1U) - 1U
 1211              	 .loc 1 706 96 view .LVU433
 1212 0462 013A     	 subs r2,r2,#1
 705:Drivers/STM32G4xx_HAL_Driver/Src/stm32g4xx_hal_rcc.c ****          (READ_BIT(temp_pllckcfg, RCC_PLLCFGR_PLLQ) != ((((RCC_OscInitStruct->PLL.PLLQ) >> 1U) - 1U
 1213              	 .loc 1 705 119 view .LVU434
 1214 0464 B1EB425F 	 cmp r1,r2,lsl#21
 1215 0468 7FF41EAF 	 bne .L86
 707:Drivers/STM32G4xx_HAL_Driver/Src/stm32g4xx_hal_rcc.c ****       {
 1216              	 .loc 1 707 89 view .LVU435
 1217 046c 626B     	 ldr r2,[r4,#52]
 1218 046e 5208     	 lsrs r2,r2,#1
 707:Drivers/STM32G4xx_HAL_Driver/Src/stm32g4xx_hal_rcc.c ****       {
 1219              	 .loc 1 707 11 view .LVU436
 1220 0470 03F0C063 	 and r3,r3,#100663296
 1221              	.LVL115:
 707:Drivers/STM32G4xx_HAL_Driver/Src/stm32g4xx_hal_rcc.c ****       {
 1222              	 .loc 1 707 96 view .LVU437
 1223 0474 013A     	 subs r2,r2,#1
 706:Drivers/STM32G4xx_HAL_Driver/Src/stm32g4xx_hal_rcc.c ****          (READ_BIT(temp_pllckcfg, RCC_PLLCFGR_PLLR) != ((((RCC_OscInitStruct->PLL.PLLR) >> 1U) - 1U
 1224              	 .loc 1 706 128 view .LVU438
 1225 0476 B3EB426F 	 cmp r3,r2,lsl#25
 1226 047a 14BF     	 ite ne
 1227 047c 0120     	 movne r0,#1
 1228 047e 0020     	 moveq r0,#0
 1229 0480 9DE6     	 b .L19
 1230              	.L143:
 1231 0482 00BF     	 .align 2
 1232              	.L142:
 1233 0484 00100240 	 .word 1073876992
 1234 0488 0C809F01 	 .word 27230220
 1235              	 .cfi_endproc
 1236              	.LFE362:
 1238              	 .section .text.HAL_RCC_MCOConfig,"ax",%progbits
 1239              	 .align 1
 1240              	 .p2align 2,,3
 1241              	 .global HAL_RCC_MCOConfig
 1242              	 .syntax unified
 1243              	 .thumb
ARM GAS   			page 40


 1244              	 .thumb_func
 1246              	HAL_RCC_MCOConfig:
 1247              	.LVL116:
 1248              	.LFB364:
 717:Drivers/STM32G4xx_HAL_Driver/Src/stm32g4xx_hal_rcc.c **** 
 718:Drivers/STM32G4xx_HAL_Driver/Src/stm32g4xx_hal_rcc.c **** /**
 719:Drivers/STM32G4xx_HAL_Driver/Src/stm32g4xx_hal_rcc.c ****   * @brief  Initialize the CPU, AHB and APB buses clocks according to the specified
 720:Drivers/STM32G4xx_HAL_Driver/Src/stm32g4xx_hal_rcc.c ****   *         parameters in the RCC_ClkInitStruct.
 721:Drivers/STM32G4xx_HAL_Driver/Src/stm32g4xx_hal_rcc.c ****   * @param  RCC_ClkInitStruct  pointer to an RCC_OscInitTypeDef structure that
 722:Drivers/STM32G4xx_HAL_Driver/Src/stm32g4xx_hal_rcc.c ****   *         contains the configuration information for the RCC peripheral.
 723:Drivers/STM32G4xx_HAL_Driver/Src/stm32g4xx_hal_rcc.c ****   * @param  FLatency  FLASH Latency
 724:Drivers/STM32G4xx_HAL_Driver/Src/stm32g4xx_hal_rcc.c ****   *          This parameter can be one of the following values:
 725:Drivers/STM32G4xx_HAL_Driver/Src/stm32g4xx_hal_rcc.c ****   *            @arg FLASH_LATENCY_0   FLASH 0 Latency cycle
 726:Drivers/STM32G4xx_HAL_Driver/Src/stm32g4xx_hal_rcc.c ****   *            @arg FLASH_LATENCY_1   FLASH 1 Latency cycle
 727:Drivers/STM32G4xx_HAL_Driver/Src/stm32g4xx_hal_rcc.c ****   *            @arg FLASH_LATENCY_2   FLASH 2 Latency cycles
 728:Drivers/STM32G4xx_HAL_Driver/Src/stm32g4xx_hal_rcc.c ****   *            @arg FLASH_LATENCY_3   FLASH 3 Latency cycles
 729:Drivers/STM32G4xx_HAL_Driver/Src/stm32g4xx_hal_rcc.c ****   *            @arg FLASH_LATENCY_4   FLASH 4 Latency cycles
 730:Drivers/STM32G4xx_HAL_Driver/Src/stm32g4xx_hal_rcc.c ****   *            @arg FLASH_LATENCY_5   FLASH 5 Latency cycles
 731:Drivers/STM32G4xx_HAL_Driver/Src/stm32g4xx_hal_rcc.c ****   *            @arg FLASH_LATENCY_6   FLASH 6 Latency cycles
 732:Drivers/STM32G4xx_HAL_Driver/Src/stm32g4xx_hal_rcc.c ****   *            @arg FLASH_LATENCY_7   FLASH 7 Latency cycles
 733:Drivers/STM32G4xx_HAL_Driver/Src/stm32g4xx_hal_rcc.c ****   *            @arg FLASH_LATENCY_8   FLASH 8 Latency cycles
 734:Drivers/STM32G4xx_HAL_Driver/Src/stm32g4xx_hal_rcc.c ****   *            @arg FLASH_LATENCY_9   FLASH 9 Latency cycles
 735:Drivers/STM32G4xx_HAL_Driver/Src/stm32g4xx_hal_rcc.c ****   *            @arg FLASH_LATENCY_10  FLASH 10 Latency cycles
 736:Drivers/STM32G4xx_HAL_Driver/Src/stm32g4xx_hal_rcc.c ****   *            @arg FLASH_LATENCY_11  FLASH 11 Latency cycles
 737:Drivers/STM32G4xx_HAL_Driver/Src/stm32g4xx_hal_rcc.c ****   *            @arg FLASH_LATENCY_12  FLASH 12 Latency cycles
 738:Drivers/STM32G4xx_HAL_Driver/Src/stm32g4xx_hal_rcc.c ****   *            @arg FLASH_LATENCY_13  FLASH 13 Latency cycles
 739:Drivers/STM32G4xx_HAL_Driver/Src/stm32g4xx_hal_rcc.c ****   *            @arg FLASH_LATENCY_14  FLASH 14 Latency cycles
 740:Drivers/STM32G4xx_HAL_Driver/Src/stm32g4xx_hal_rcc.c ****   *            @arg FLASH_LATENCY_15  FLASH 15 Latency cycles
 741:Drivers/STM32G4xx_HAL_Driver/Src/stm32g4xx_hal_rcc.c ****   *
 742:Drivers/STM32G4xx_HAL_Driver/Src/stm32g4xx_hal_rcc.c ****   * @note   The SystemCoreClock CMSIS variable is used to store System Clock Frequency
 743:Drivers/STM32G4xx_HAL_Driver/Src/stm32g4xx_hal_rcc.c ****   *         and updated by HAL_RCC_GetHCLKFreq() function called within this function
 744:Drivers/STM32G4xx_HAL_Driver/Src/stm32g4xx_hal_rcc.c ****   *
 745:Drivers/STM32G4xx_HAL_Driver/Src/stm32g4xx_hal_rcc.c ****   * @note   The HSI is used by default as system clock source after
 746:Drivers/STM32G4xx_HAL_Driver/Src/stm32g4xx_hal_rcc.c ****   *         startup from Reset, wake-up from STANDBY mode. After restart from Reset,
 747:Drivers/STM32G4xx_HAL_Driver/Src/stm32g4xx_hal_rcc.c ****   *         the HSI frequency is set to its default value 16 MHz.
 748:Drivers/STM32G4xx_HAL_Driver/Src/stm32g4xx_hal_rcc.c ****   *
 749:Drivers/STM32G4xx_HAL_Driver/Src/stm32g4xx_hal_rcc.c ****   * @note   The HSI can be selected as system clock source after
 750:Drivers/STM32G4xx_HAL_Driver/Src/stm32g4xx_hal_rcc.c ****   *         from STOP modes or in case of failure of the HSE used directly or indirectly
 751:Drivers/STM32G4xx_HAL_Driver/Src/stm32g4xx_hal_rcc.c ****   *         as system clock (if the Clock Security System CSS is enabled).
 752:Drivers/STM32G4xx_HAL_Driver/Src/stm32g4xx_hal_rcc.c ****   *
 753:Drivers/STM32G4xx_HAL_Driver/Src/stm32g4xx_hal_rcc.c ****   * @note   A switch from one clock source to another occurs only if the target
 754:Drivers/STM32G4xx_HAL_Driver/Src/stm32g4xx_hal_rcc.c ****   *         clock source is ready (clock stable after startup delay or PLL locked).
 755:Drivers/STM32G4xx_HAL_Driver/Src/stm32g4xx_hal_rcc.c ****   *         If a clock source which is not yet ready is selected, the switch will
 756:Drivers/STM32G4xx_HAL_Driver/Src/stm32g4xx_hal_rcc.c ****   *         occur when the clock source is ready.
 757:Drivers/STM32G4xx_HAL_Driver/Src/stm32g4xx_hal_rcc.c ****   *
 758:Drivers/STM32G4xx_HAL_Driver/Src/stm32g4xx_hal_rcc.c ****   * @note   You can use HAL_RCC_GetClockConfig() function to know which clock is
 759:Drivers/STM32G4xx_HAL_Driver/Src/stm32g4xx_hal_rcc.c ****   *         currently used as system clock source.
 760:Drivers/STM32G4xx_HAL_Driver/Src/stm32g4xx_hal_rcc.c ****   *
 761:Drivers/STM32G4xx_HAL_Driver/Src/stm32g4xx_hal_rcc.c ****   * @note   Depending on the device voltage range, the software has to set correctly
 762:Drivers/STM32G4xx_HAL_Driver/Src/stm32g4xx_hal_rcc.c ****   *         HPRE[3:0] bits to ensure that HCLK not exceed the maximum allowed frequency
 763:Drivers/STM32G4xx_HAL_Driver/Src/stm32g4xx_hal_rcc.c ****   *         (for more details refer to section above "Initialization/de-initialization functions")
 764:Drivers/STM32G4xx_HAL_Driver/Src/stm32g4xx_hal_rcc.c ****   * @retval None
 765:Drivers/STM32G4xx_HAL_Driver/Src/stm32g4xx_hal_rcc.c ****   */
 766:Drivers/STM32G4xx_HAL_Driver/Src/stm32g4xx_hal_rcc.c **** HAL_StatusTypeDef HAL_RCC_ClockConfig(RCC_ClkInitTypeDef  *RCC_ClkInitStruct, uint32_t FLatency)
 767:Drivers/STM32G4xx_HAL_Driver/Src/stm32g4xx_hal_rcc.c **** {
 768:Drivers/STM32G4xx_HAL_Driver/Src/stm32g4xx_hal_rcc.c ****   uint32_t tickstart;
 769:Drivers/STM32G4xx_HAL_Driver/Src/stm32g4xx_hal_rcc.c ****   uint32_t pllfreq;
ARM GAS   			page 41


 770:Drivers/STM32G4xx_HAL_Driver/Src/stm32g4xx_hal_rcc.c ****   uint32_t hpre = RCC_SYSCLK_DIV1;
 771:Drivers/STM32G4xx_HAL_Driver/Src/stm32g4xx_hal_rcc.c **** 
 772:Drivers/STM32G4xx_HAL_Driver/Src/stm32g4xx_hal_rcc.c ****   /* Check Null pointer */
 773:Drivers/STM32G4xx_HAL_Driver/Src/stm32g4xx_hal_rcc.c ****   if (RCC_ClkInitStruct == NULL)
 774:Drivers/STM32G4xx_HAL_Driver/Src/stm32g4xx_hal_rcc.c ****   {
 775:Drivers/STM32G4xx_HAL_Driver/Src/stm32g4xx_hal_rcc.c ****     return HAL_ERROR;
 776:Drivers/STM32G4xx_HAL_Driver/Src/stm32g4xx_hal_rcc.c ****   }
 777:Drivers/STM32G4xx_HAL_Driver/Src/stm32g4xx_hal_rcc.c **** 
 778:Drivers/STM32G4xx_HAL_Driver/Src/stm32g4xx_hal_rcc.c ****   /* Check the parameters */
 779:Drivers/STM32G4xx_HAL_Driver/Src/stm32g4xx_hal_rcc.c ****   assert_param(IS_RCC_CLOCKTYPE(RCC_ClkInitStruct->ClockType));
 780:Drivers/STM32G4xx_HAL_Driver/Src/stm32g4xx_hal_rcc.c ****   assert_param(IS_FLASH_LATENCY(FLatency));
 781:Drivers/STM32G4xx_HAL_Driver/Src/stm32g4xx_hal_rcc.c **** 
 782:Drivers/STM32G4xx_HAL_Driver/Src/stm32g4xx_hal_rcc.c ****   /* To correctly read data from FLASH memory, the number of wait states (LATENCY)
 783:Drivers/STM32G4xx_HAL_Driver/Src/stm32g4xx_hal_rcc.c ****     must be correctly programmed according to the frequency of the CPU clock
 784:Drivers/STM32G4xx_HAL_Driver/Src/stm32g4xx_hal_rcc.c ****     (HCLK) and the supply voltage of the device. */
 785:Drivers/STM32G4xx_HAL_Driver/Src/stm32g4xx_hal_rcc.c **** 
 786:Drivers/STM32G4xx_HAL_Driver/Src/stm32g4xx_hal_rcc.c ****   /* Increasing the number of wait states because of higher CPU frequency */
 787:Drivers/STM32G4xx_HAL_Driver/Src/stm32g4xx_hal_rcc.c ****   if (FLatency > __HAL_FLASH_GET_LATENCY())
 788:Drivers/STM32G4xx_HAL_Driver/Src/stm32g4xx_hal_rcc.c ****   {
 789:Drivers/STM32G4xx_HAL_Driver/Src/stm32g4xx_hal_rcc.c ****     /* Program the new number of wait states to the LATENCY bits in the FLASH_ACR register */
 790:Drivers/STM32G4xx_HAL_Driver/Src/stm32g4xx_hal_rcc.c ****     __HAL_FLASH_SET_LATENCY(FLatency);
 791:Drivers/STM32G4xx_HAL_Driver/Src/stm32g4xx_hal_rcc.c **** 
 792:Drivers/STM32G4xx_HAL_Driver/Src/stm32g4xx_hal_rcc.c ****     /* Check that the new number of wait states is taken into account to access the Flash
 793:Drivers/STM32G4xx_HAL_Driver/Src/stm32g4xx_hal_rcc.c ****     memory by reading the FLASH_ACR register */
 794:Drivers/STM32G4xx_HAL_Driver/Src/stm32g4xx_hal_rcc.c ****     if (__HAL_FLASH_GET_LATENCY() != FLatency)
 795:Drivers/STM32G4xx_HAL_Driver/Src/stm32g4xx_hal_rcc.c ****     {
 796:Drivers/STM32G4xx_HAL_Driver/Src/stm32g4xx_hal_rcc.c ****       return HAL_ERROR;
 797:Drivers/STM32G4xx_HAL_Driver/Src/stm32g4xx_hal_rcc.c ****     }
 798:Drivers/STM32G4xx_HAL_Driver/Src/stm32g4xx_hal_rcc.c ****   }
 799:Drivers/STM32G4xx_HAL_Driver/Src/stm32g4xx_hal_rcc.c **** 
 800:Drivers/STM32G4xx_HAL_Driver/Src/stm32g4xx_hal_rcc.c ****   /*------------------------- SYSCLK Configuration ---------------------------*/
 801:Drivers/STM32G4xx_HAL_Driver/Src/stm32g4xx_hal_rcc.c ****   if(((RCC_ClkInitStruct->ClockType) & RCC_CLOCKTYPE_SYSCLK) == RCC_CLOCKTYPE_SYSCLK)
 802:Drivers/STM32G4xx_HAL_Driver/Src/stm32g4xx_hal_rcc.c ****   {
 803:Drivers/STM32G4xx_HAL_Driver/Src/stm32g4xx_hal_rcc.c ****     assert_param(IS_RCC_SYSCLKSOURCE(RCC_ClkInitStruct->SYSCLKSource));
 804:Drivers/STM32G4xx_HAL_Driver/Src/stm32g4xx_hal_rcc.c **** 
 805:Drivers/STM32G4xx_HAL_Driver/Src/stm32g4xx_hal_rcc.c ****     /* PLL is selected as System Clock Source */
 806:Drivers/STM32G4xx_HAL_Driver/Src/stm32g4xx_hal_rcc.c ****     if (RCC_ClkInitStruct->SYSCLKSource == RCC_SYSCLKSOURCE_PLLCLK)
 807:Drivers/STM32G4xx_HAL_Driver/Src/stm32g4xx_hal_rcc.c ****     {
 808:Drivers/STM32G4xx_HAL_Driver/Src/stm32g4xx_hal_rcc.c ****       /* Check the PLL ready flag */
 809:Drivers/STM32G4xx_HAL_Driver/Src/stm32g4xx_hal_rcc.c ****       if (READ_BIT(RCC->CR, RCC_CR_PLLRDY) == 0U)
 810:Drivers/STM32G4xx_HAL_Driver/Src/stm32g4xx_hal_rcc.c ****       {
 811:Drivers/STM32G4xx_HAL_Driver/Src/stm32g4xx_hal_rcc.c ****         return HAL_ERROR;
 812:Drivers/STM32G4xx_HAL_Driver/Src/stm32g4xx_hal_rcc.c ****       }
 813:Drivers/STM32G4xx_HAL_Driver/Src/stm32g4xx_hal_rcc.c ****       /* Undershoot management when selection PLL as SYSCLK source and frequency above 80Mhz */
 814:Drivers/STM32G4xx_HAL_Driver/Src/stm32g4xx_hal_rcc.c ****       /* Compute target PLL output frequency */
 815:Drivers/STM32G4xx_HAL_Driver/Src/stm32g4xx_hal_rcc.c ****       pllfreq = RCC_GetSysClockFreqFromPLLSource();
 816:Drivers/STM32G4xx_HAL_Driver/Src/stm32g4xx_hal_rcc.c **** 
 817:Drivers/STM32G4xx_HAL_Driver/Src/stm32g4xx_hal_rcc.c ****       /* Intermediate step with HCLK prescaler 2 necessary before to go over 80Mhz */
 818:Drivers/STM32G4xx_HAL_Driver/Src/stm32g4xx_hal_rcc.c ****       if(pllfreq > 80000000U)
 819:Drivers/STM32G4xx_HAL_Driver/Src/stm32g4xx_hal_rcc.c ****       {
 820:Drivers/STM32G4xx_HAL_Driver/Src/stm32g4xx_hal_rcc.c ****         if (((READ_BIT(RCC->CFGR, RCC_CFGR_HPRE) == RCC_SYSCLK_DIV1)) ||
 821:Drivers/STM32G4xx_HAL_Driver/Src/stm32g4xx_hal_rcc.c ****             (((((RCC_ClkInitStruct->ClockType) & RCC_CLOCKTYPE_HCLK) == RCC_CLOCKTYPE_HCLK) &&
 822:Drivers/STM32G4xx_HAL_Driver/Src/stm32g4xx_hal_rcc.c ****               (RCC_ClkInitStruct->AHBCLKDivider == RCC_SYSCLK_DIV1))))
 823:Drivers/STM32G4xx_HAL_Driver/Src/stm32g4xx_hal_rcc.c ****         {
 824:Drivers/STM32G4xx_HAL_Driver/Src/stm32g4xx_hal_rcc.c ****           MODIFY_REG(RCC->CFGR, RCC_CFGR_HPRE, RCC_SYSCLK_DIV2);
 825:Drivers/STM32G4xx_HAL_Driver/Src/stm32g4xx_hal_rcc.c ****           hpre = RCC_SYSCLK_DIV2;
 826:Drivers/STM32G4xx_HAL_Driver/Src/stm32g4xx_hal_rcc.c ****         }
ARM GAS   			page 42


 827:Drivers/STM32G4xx_HAL_Driver/Src/stm32g4xx_hal_rcc.c ****       }
 828:Drivers/STM32G4xx_HAL_Driver/Src/stm32g4xx_hal_rcc.c ****     }
 829:Drivers/STM32G4xx_HAL_Driver/Src/stm32g4xx_hal_rcc.c ****     else
 830:Drivers/STM32G4xx_HAL_Driver/Src/stm32g4xx_hal_rcc.c ****     {
 831:Drivers/STM32G4xx_HAL_Driver/Src/stm32g4xx_hal_rcc.c ****       /* HSE is selected as System Clock Source */
 832:Drivers/STM32G4xx_HAL_Driver/Src/stm32g4xx_hal_rcc.c ****       if (RCC_ClkInitStruct->SYSCLKSource == RCC_SYSCLKSOURCE_HSE)
 833:Drivers/STM32G4xx_HAL_Driver/Src/stm32g4xx_hal_rcc.c ****       {
 834:Drivers/STM32G4xx_HAL_Driver/Src/stm32g4xx_hal_rcc.c ****         /* Check the HSE ready flag */
 835:Drivers/STM32G4xx_HAL_Driver/Src/stm32g4xx_hal_rcc.c ****         if(READ_BIT(RCC->CR, RCC_CR_HSERDY) == 0U)
 836:Drivers/STM32G4xx_HAL_Driver/Src/stm32g4xx_hal_rcc.c ****         {
 837:Drivers/STM32G4xx_HAL_Driver/Src/stm32g4xx_hal_rcc.c ****           return HAL_ERROR;
 838:Drivers/STM32G4xx_HAL_Driver/Src/stm32g4xx_hal_rcc.c ****         }
 839:Drivers/STM32G4xx_HAL_Driver/Src/stm32g4xx_hal_rcc.c ****       }
 840:Drivers/STM32G4xx_HAL_Driver/Src/stm32g4xx_hal_rcc.c ****       /* HSI is selected as System Clock Source */
 841:Drivers/STM32G4xx_HAL_Driver/Src/stm32g4xx_hal_rcc.c ****       else
 842:Drivers/STM32G4xx_HAL_Driver/Src/stm32g4xx_hal_rcc.c ****       {
 843:Drivers/STM32G4xx_HAL_Driver/Src/stm32g4xx_hal_rcc.c ****         /* Check the HSI ready flag */
 844:Drivers/STM32G4xx_HAL_Driver/Src/stm32g4xx_hal_rcc.c ****         if(READ_BIT(RCC->CR, RCC_CR_HSIRDY) == 0U)
 845:Drivers/STM32G4xx_HAL_Driver/Src/stm32g4xx_hal_rcc.c ****         {
 846:Drivers/STM32G4xx_HAL_Driver/Src/stm32g4xx_hal_rcc.c ****           return HAL_ERROR;
 847:Drivers/STM32G4xx_HAL_Driver/Src/stm32g4xx_hal_rcc.c ****         }
 848:Drivers/STM32G4xx_HAL_Driver/Src/stm32g4xx_hal_rcc.c ****       }
 849:Drivers/STM32G4xx_HAL_Driver/Src/stm32g4xx_hal_rcc.c ****       /* Overshoot management when going down from PLL as SYSCLK source and frequency above 80Mhz *
 850:Drivers/STM32G4xx_HAL_Driver/Src/stm32g4xx_hal_rcc.c ****       pllfreq = HAL_RCC_GetSysClockFreq();
 851:Drivers/STM32G4xx_HAL_Driver/Src/stm32g4xx_hal_rcc.c **** 
 852:Drivers/STM32G4xx_HAL_Driver/Src/stm32g4xx_hal_rcc.c ****       /* Intermediate step with HCLK prescaler 2 necessary before to go under 80Mhz */
 853:Drivers/STM32G4xx_HAL_Driver/Src/stm32g4xx_hal_rcc.c ****       if(pllfreq > 80000000U)
 854:Drivers/STM32G4xx_HAL_Driver/Src/stm32g4xx_hal_rcc.c ****       {
 855:Drivers/STM32G4xx_HAL_Driver/Src/stm32g4xx_hal_rcc.c ****         MODIFY_REG(RCC->CFGR, RCC_CFGR_HPRE, RCC_SYSCLK_DIV2);
 856:Drivers/STM32G4xx_HAL_Driver/Src/stm32g4xx_hal_rcc.c ****         hpre = RCC_SYSCLK_DIV2;
 857:Drivers/STM32G4xx_HAL_Driver/Src/stm32g4xx_hal_rcc.c ****       }
 858:Drivers/STM32G4xx_HAL_Driver/Src/stm32g4xx_hal_rcc.c **** 
 859:Drivers/STM32G4xx_HAL_Driver/Src/stm32g4xx_hal_rcc.c ****     }
 860:Drivers/STM32G4xx_HAL_Driver/Src/stm32g4xx_hal_rcc.c **** 
 861:Drivers/STM32G4xx_HAL_Driver/Src/stm32g4xx_hal_rcc.c ****     MODIFY_REG(RCC->CFGR, RCC_CFGR_SW, RCC_ClkInitStruct->SYSCLKSource);
 862:Drivers/STM32G4xx_HAL_Driver/Src/stm32g4xx_hal_rcc.c **** 
 863:Drivers/STM32G4xx_HAL_Driver/Src/stm32g4xx_hal_rcc.c ****     /* Get Start Tick*/
 864:Drivers/STM32G4xx_HAL_Driver/Src/stm32g4xx_hal_rcc.c ****     tickstart = HAL_GetTick();
 865:Drivers/STM32G4xx_HAL_Driver/Src/stm32g4xx_hal_rcc.c **** 
 866:Drivers/STM32G4xx_HAL_Driver/Src/stm32g4xx_hal_rcc.c ****     while (__HAL_RCC_GET_SYSCLK_SOURCE() != (RCC_ClkInitStruct->SYSCLKSource << RCC_CFGR_SWS_Pos))
 867:Drivers/STM32G4xx_HAL_Driver/Src/stm32g4xx_hal_rcc.c ****     {
 868:Drivers/STM32G4xx_HAL_Driver/Src/stm32g4xx_hal_rcc.c ****       if ((HAL_GetTick() - tickstart) > CLOCKSWITCH_TIMEOUT_VALUE)
 869:Drivers/STM32G4xx_HAL_Driver/Src/stm32g4xx_hal_rcc.c ****       {
 870:Drivers/STM32G4xx_HAL_Driver/Src/stm32g4xx_hal_rcc.c ****         return HAL_TIMEOUT;
 871:Drivers/STM32G4xx_HAL_Driver/Src/stm32g4xx_hal_rcc.c ****       }
 872:Drivers/STM32G4xx_HAL_Driver/Src/stm32g4xx_hal_rcc.c ****     }
 873:Drivers/STM32G4xx_HAL_Driver/Src/stm32g4xx_hal_rcc.c ****   }
 874:Drivers/STM32G4xx_HAL_Driver/Src/stm32g4xx_hal_rcc.c **** 
 875:Drivers/STM32G4xx_HAL_Driver/Src/stm32g4xx_hal_rcc.c ****   /*-------------------------- HCLK Configuration --------------------------*/
 876:Drivers/STM32G4xx_HAL_Driver/Src/stm32g4xx_hal_rcc.c ****   if (((RCC_ClkInitStruct->ClockType) & RCC_CLOCKTYPE_HCLK) == RCC_CLOCKTYPE_HCLK)
 877:Drivers/STM32G4xx_HAL_Driver/Src/stm32g4xx_hal_rcc.c ****   {
 878:Drivers/STM32G4xx_HAL_Driver/Src/stm32g4xx_hal_rcc.c ****     /* Set the highest APB divider in order to ensure that we do not go through
 879:Drivers/STM32G4xx_HAL_Driver/Src/stm32g4xx_hal_rcc.c ****        a non-spec phase whatever we decrease or increase HCLK. */
 880:Drivers/STM32G4xx_HAL_Driver/Src/stm32g4xx_hal_rcc.c ****     if (((RCC_ClkInitStruct->ClockType) & RCC_CLOCKTYPE_PCLK1) == RCC_CLOCKTYPE_PCLK1)
 881:Drivers/STM32G4xx_HAL_Driver/Src/stm32g4xx_hal_rcc.c ****     {
 882:Drivers/STM32G4xx_HAL_Driver/Src/stm32g4xx_hal_rcc.c ****       MODIFY_REG(RCC->CFGR, RCC_CFGR_PPRE1, RCC_HCLK_DIV16);
 883:Drivers/STM32G4xx_HAL_Driver/Src/stm32g4xx_hal_rcc.c ****     }
ARM GAS   			page 43


 884:Drivers/STM32G4xx_HAL_Driver/Src/stm32g4xx_hal_rcc.c ****     if (((RCC_ClkInitStruct->ClockType) & RCC_CLOCKTYPE_PCLK2) == RCC_CLOCKTYPE_PCLK2)
 885:Drivers/STM32G4xx_HAL_Driver/Src/stm32g4xx_hal_rcc.c ****     {
 886:Drivers/STM32G4xx_HAL_Driver/Src/stm32g4xx_hal_rcc.c ****       MODIFY_REG(RCC->CFGR, RCC_CFGR_PPRE2, RCC_HCLK_DIV16);
 887:Drivers/STM32G4xx_HAL_Driver/Src/stm32g4xx_hal_rcc.c ****     }
 888:Drivers/STM32G4xx_HAL_Driver/Src/stm32g4xx_hal_rcc.c **** 
 889:Drivers/STM32G4xx_HAL_Driver/Src/stm32g4xx_hal_rcc.c ****     /* Set the new HCLK clock divider */
 890:Drivers/STM32G4xx_HAL_Driver/Src/stm32g4xx_hal_rcc.c ****     assert_param(IS_RCC_HCLK(RCC_ClkInitStruct->AHBCLKDivider));
 891:Drivers/STM32G4xx_HAL_Driver/Src/stm32g4xx_hal_rcc.c ****     MODIFY_REG(RCC->CFGR, RCC_CFGR_HPRE, RCC_ClkInitStruct->AHBCLKDivider);
 892:Drivers/STM32G4xx_HAL_Driver/Src/stm32g4xx_hal_rcc.c ****   }
 893:Drivers/STM32G4xx_HAL_Driver/Src/stm32g4xx_hal_rcc.c ****   else
 894:Drivers/STM32G4xx_HAL_Driver/Src/stm32g4xx_hal_rcc.c ****   {
 895:Drivers/STM32G4xx_HAL_Driver/Src/stm32g4xx_hal_rcc.c ****     /* Is intermediate HCLK prescaler 2 applied internally, complete with HCLK prescaler 1 */
 896:Drivers/STM32G4xx_HAL_Driver/Src/stm32g4xx_hal_rcc.c ****     if(hpre == RCC_SYSCLK_DIV2)
 897:Drivers/STM32G4xx_HAL_Driver/Src/stm32g4xx_hal_rcc.c ****     {
 898:Drivers/STM32G4xx_HAL_Driver/Src/stm32g4xx_hal_rcc.c ****       MODIFY_REG(RCC->CFGR, RCC_CFGR_HPRE, RCC_SYSCLK_DIV1);
 899:Drivers/STM32G4xx_HAL_Driver/Src/stm32g4xx_hal_rcc.c ****     }
 900:Drivers/STM32G4xx_HAL_Driver/Src/stm32g4xx_hal_rcc.c ****   }
 901:Drivers/STM32G4xx_HAL_Driver/Src/stm32g4xx_hal_rcc.c **** 
 902:Drivers/STM32G4xx_HAL_Driver/Src/stm32g4xx_hal_rcc.c ****   /* Decreasing the number of wait states because of lower CPU frequency */
 903:Drivers/STM32G4xx_HAL_Driver/Src/stm32g4xx_hal_rcc.c ****   if (FLatency < __HAL_FLASH_GET_LATENCY())
 904:Drivers/STM32G4xx_HAL_Driver/Src/stm32g4xx_hal_rcc.c ****   {
 905:Drivers/STM32G4xx_HAL_Driver/Src/stm32g4xx_hal_rcc.c ****     /* Program the new number of wait states to the LATENCY bits in the FLASH_ACR register */
 906:Drivers/STM32G4xx_HAL_Driver/Src/stm32g4xx_hal_rcc.c ****     __HAL_FLASH_SET_LATENCY(FLatency);
 907:Drivers/STM32G4xx_HAL_Driver/Src/stm32g4xx_hal_rcc.c **** 
 908:Drivers/STM32G4xx_HAL_Driver/Src/stm32g4xx_hal_rcc.c ****     /* Check that the new number of wait states is taken into account to access the Flash
 909:Drivers/STM32G4xx_HAL_Driver/Src/stm32g4xx_hal_rcc.c ****     memory by polling the FLASH_ACR register */
 910:Drivers/STM32G4xx_HAL_Driver/Src/stm32g4xx_hal_rcc.c ****     tickstart = HAL_GetTick();
 911:Drivers/STM32G4xx_HAL_Driver/Src/stm32g4xx_hal_rcc.c **** 
 912:Drivers/STM32G4xx_HAL_Driver/Src/stm32g4xx_hal_rcc.c ****     while (__HAL_FLASH_GET_LATENCY() != FLatency)
 913:Drivers/STM32G4xx_HAL_Driver/Src/stm32g4xx_hal_rcc.c ****     {
 914:Drivers/STM32G4xx_HAL_Driver/Src/stm32g4xx_hal_rcc.c ****       if ((HAL_GetTick() - tickstart) > CLOCKSWITCH_TIMEOUT_VALUE)
 915:Drivers/STM32G4xx_HAL_Driver/Src/stm32g4xx_hal_rcc.c ****       {
 916:Drivers/STM32G4xx_HAL_Driver/Src/stm32g4xx_hal_rcc.c ****         return HAL_TIMEOUT;
 917:Drivers/STM32G4xx_HAL_Driver/Src/stm32g4xx_hal_rcc.c ****       }
 918:Drivers/STM32G4xx_HAL_Driver/Src/stm32g4xx_hal_rcc.c ****     }
 919:Drivers/STM32G4xx_HAL_Driver/Src/stm32g4xx_hal_rcc.c ****   }
 920:Drivers/STM32G4xx_HAL_Driver/Src/stm32g4xx_hal_rcc.c **** 
 921:Drivers/STM32G4xx_HAL_Driver/Src/stm32g4xx_hal_rcc.c ****   /*-------------------------- PCLK1 Configuration ---------------------------*/
 922:Drivers/STM32G4xx_HAL_Driver/Src/stm32g4xx_hal_rcc.c ****   if (((RCC_ClkInitStruct->ClockType) & RCC_CLOCKTYPE_PCLK1) == RCC_CLOCKTYPE_PCLK1)
 923:Drivers/STM32G4xx_HAL_Driver/Src/stm32g4xx_hal_rcc.c ****   {
 924:Drivers/STM32G4xx_HAL_Driver/Src/stm32g4xx_hal_rcc.c ****     assert_param(IS_RCC_PCLK(RCC_ClkInitStruct->APB1CLKDivider));
 925:Drivers/STM32G4xx_HAL_Driver/Src/stm32g4xx_hal_rcc.c ****     MODIFY_REG(RCC->CFGR, RCC_CFGR_PPRE1, RCC_ClkInitStruct->APB1CLKDivider);
 926:Drivers/STM32G4xx_HAL_Driver/Src/stm32g4xx_hal_rcc.c ****   }
 927:Drivers/STM32G4xx_HAL_Driver/Src/stm32g4xx_hal_rcc.c **** 
 928:Drivers/STM32G4xx_HAL_Driver/Src/stm32g4xx_hal_rcc.c ****   /*-------------------------- PCLK2 Configuration ---------------------------*/
 929:Drivers/STM32G4xx_HAL_Driver/Src/stm32g4xx_hal_rcc.c ****   if(((RCC_ClkInitStruct->ClockType) & RCC_CLOCKTYPE_PCLK2) == RCC_CLOCKTYPE_PCLK2)
 930:Drivers/STM32G4xx_HAL_Driver/Src/stm32g4xx_hal_rcc.c ****   {
 931:Drivers/STM32G4xx_HAL_Driver/Src/stm32g4xx_hal_rcc.c ****     assert_param(IS_RCC_PCLK(RCC_ClkInitStruct->APB2CLKDivider));
 932:Drivers/STM32G4xx_HAL_Driver/Src/stm32g4xx_hal_rcc.c ****     MODIFY_REG(RCC->CFGR, RCC_CFGR_PPRE2, ((RCC_ClkInitStruct->APB2CLKDivider) << 3U));
 933:Drivers/STM32G4xx_HAL_Driver/Src/stm32g4xx_hal_rcc.c ****   }
 934:Drivers/STM32G4xx_HAL_Driver/Src/stm32g4xx_hal_rcc.c **** 
 935:Drivers/STM32G4xx_HAL_Driver/Src/stm32g4xx_hal_rcc.c ****   /* Update the SystemCoreClock global variable */
 936:Drivers/STM32G4xx_HAL_Driver/Src/stm32g4xx_hal_rcc.c ****   SystemCoreClock = HAL_RCC_GetSysClockFreq() >> (AHBPrescTable[READ_BIT(RCC->CFGR, RCC_CFGR_HPRE) 
 937:Drivers/STM32G4xx_HAL_Driver/Src/stm32g4xx_hal_rcc.c **** 
 938:Drivers/STM32G4xx_HAL_Driver/Src/stm32g4xx_hal_rcc.c ****   /* Configure the source of time base considering new system clocks settings*/
 939:Drivers/STM32G4xx_HAL_Driver/Src/stm32g4xx_hal_rcc.c ****   return HAL_InitTick(uwTickPrio);
 940:Drivers/STM32G4xx_HAL_Driver/Src/stm32g4xx_hal_rcc.c **** }
ARM GAS   			page 44


 941:Drivers/STM32G4xx_HAL_Driver/Src/stm32g4xx_hal_rcc.c **** 
 942:Drivers/STM32G4xx_HAL_Driver/Src/stm32g4xx_hal_rcc.c **** /**
 943:Drivers/STM32G4xx_HAL_Driver/Src/stm32g4xx_hal_rcc.c ****   * @}
 944:Drivers/STM32G4xx_HAL_Driver/Src/stm32g4xx_hal_rcc.c ****   */
 945:Drivers/STM32G4xx_HAL_Driver/Src/stm32g4xx_hal_rcc.c **** 
 946:Drivers/STM32G4xx_HAL_Driver/Src/stm32g4xx_hal_rcc.c **** /** @defgroup RCC_Exported_Functions_Group2 Peripheral Control functions
 947:Drivers/STM32G4xx_HAL_Driver/Src/stm32g4xx_hal_rcc.c ****  *  @brief   RCC clocks control functions
 948:Drivers/STM32G4xx_HAL_Driver/Src/stm32g4xx_hal_rcc.c ****  *
 949:Drivers/STM32G4xx_HAL_Driver/Src/stm32g4xx_hal_rcc.c **** @verbatim
 950:Drivers/STM32G4xx_HAL_Driver/Src/stm32g4xx_hal_rcc.c ****  ===============================================================================
 951:Drivers/STM32G4xx_HAL_Driver/Src/stm32g4xx_hal_rcc.c ****                       ##### Peripheral Control functions #####
 952:Drivers/STM32G4xx_HAL_Driver/Src/stm32g4xx_hal_rcc.c ****  ===============================================================================
 953:Drivers/STM32G4xx_HAL_Driver/Src/stm32g4xx_hal_rcc.c ****     [..]
 954:Drivers/STM32G4xx_HAL_Driver/Src/stm32g4xx_hal_rcc.c ****     This subsection provides a set of functions allowing to:
 955:Drivers/STM32G4xx_HAL_Driver/Src/stm32g4xx_hal_rcc.c **** 
 956:Drivers/STM32G4xx_HAL_Driver/Src/stm32g4xx_hal_rcc.c ****     (+) Output clock to MCO pin.
 957:Drivers/STM32G4xx_HAL_Driver/Src/stm32g4xx_hal_rcc.c ****     (+) Retrieve current clock frequencies.
 958:Drivers/STM32G4xx_HAL_Driver/Src/stm32g4xx_hal_rcc.c ****     (+) Enable the Clock Security System.
 959:Drivers/STM32G4xx_HAL_Driver/Src/stm32g4xx_hal_rcc.c **** 
 960:Drivers/STM32G4xx_HAL_Driver/Src/stm32g4xx_hal_rcc.c **** @endverbatim
 961:Drivers/STM32G4xx_HAL_Driver/Src/stm32g4xx_hal_rcc.c ****   * @{
 962:Drivers/STM32G4xx_HAL_Driver/Src/stm32g4xx_hal_rcc.c ****   */
 963:Drivers/STM32G4xx_HAL_Driver/Src/stm32g4xx_hal_rcc.c **** 
 964:Drivers/STM32G4xx_HAL_Driver/Src/stm32g4xx_hal_rcc.c **** /**
 965:Drivers/STM32G4xx_HAL_Driver/Src/stm32g4xx_hal_rcc.c ****   * @brief  Select the clock source to output on MCO pin(PA8/PG10).
 966:Drivers/STM32G4xx_HAL_Driver/Src/stm32g4xx_hal_rcc.c ****   * @note   PA8/PG10 should be configured in alternate function mode.
 967:Drivers/STM32G4xx_HAL_Driver/Src/stm32g4xx_hal_rcc.c ****   * @note   The default configuration of the GPIOG pin 10 (PG10) is set to reset mode (NRST pin)
 968:Drivers/STM32G4xx_HAL_Driver/Src/stm32g4xx_hal_rcc.c ****   *         and user shall set the NRST_MODE Bit in the FLASH OPTR register to be able to use it 
 969:Drivers/STM32G4xx_HAL_Driver/Src/stm32g4xx_hal_rcc.c ****   *         as an MCO pin.
 970:Drivers/STM32G4xx_HAL_Driver/Src/stm32g4xx_hal_rcc.c ****   *         The @ref HAL_FLASHEx_OBProgram() API can be used to configure the NRST_MODE Bit value.
 971:Drivers/STM32G4xx_HAL_Driver/Src/stm32g4xx_hal_rcc.c ****   * @param  RCC_MCOx  specifies the output direction for the clock source.
 972:Drivers/STM32G4xx_HAL_Driver/Src/stm32g4xx_hal_rcc.c ****   *          For STM32G4xx family this parameter can have only one value:
 973:Drivers/STM32G4xx_HAL_Driver/Src/stm32g4xx_hal_rcc.c ****   *            @arg @ref RCC_MCO_PA8  Clock source to output on MCO1 pin(PA8).
 974:Drivers/STM32G4xx_HAL_Driver/Src/stm32g4xx_hal_rcc.c ****   *            @arg @ref RCC_MCO_PG10  Clock source to output on MCO1 pin(PG10).
 975:Drivers/STM32G4xx_HAL_Driver/Src/stm32g4xx_hal_rcc.c ****   * @param  RCC_MCOSource  specifies the clock source to output.
 976:Drivers/STM32G4xx_HAL_Driver/Src/stm32g4xx_hal_rcc.c ****   *          This parameter can be one of the following values:
 977:Drivers/STM32G4xx_HAL_Driver/Src/stm32g4xx_hal_rcc.c ****   *            @arg @ref RCC_MCO1SOURCE_NOCLOCK  MCO output disabled, no clock on MCO
 978:Drivers/STM32G4xx_HAL_Driver/Src/stm32g4xx_hal_rcc.c ****   *            @arg @ref RCC_MCO1SOURCE_SYSCLK  system  clock selected as MCO source
 979:Drivers/STM32G4xx_HAL_Driver/Src/stm32g4xx_hal_rcc.c ****   *            @arg @ref RCC_MCO1SOURCE_HSI  HSI clock selected as MCO source
 980:Drivers/STM32G4xx_HAL_Driver/Src/stm32g4xx_hal_rcc.c ****   *            @arg @ref RCC_MCO1SOURCE_HSE  HSE clock selected as MCO source
 981:Drivers/STM32G4xx_HAL_Driver/Src/stm32g4xx_hal_rcc.c ****   *            @arg @ref RCC_MCO1SOURCE_PLLCLK  main PLL clock selected as MCO source
 982:Drivers/STM32G4xx_HAL_Driver/Src/stm32g4xx_hal_rcc.c ****   *            @arg @ref RCC_MCO1SOURCE_LSI  LSI clock selected as MCO source
 983:Drivers/STM32G4xx_HAL_Driver/Src/stm32g4xx_hal_rcc.c ****   *            @arg @ref RCC_MCO1SOURCE_LSE  LSE clock selected as MCO source
 984:Drivers/STM32G4xx_HAL_Driver/Src/stm32g4xx_hal_rcc.c ****   *            @arg @ref RCC_MCO1SOURCE_HSI48  HSI48 clock selected as MCO source for devices with 
 985:Drivers/STM32G4xx_HAL_Driver/Src/stm32g4xx_hal_rcc.c ****   * @param  RCC_MCODiv  specifies the MCO prescaler.
 986:Drivers/STM32G4xx_HAL_Driver/Src/stm32g4xx_hal_rcc.c ****   *          This parameter can be one of the following values:
 987:Drivers/STM32G4xx_HAL_Driver/Src/stm32g4xx_hal_rcc.c ****   *            @arg @ref RCC_MCODIV_1  no division applied to MCO clock
 988:Drivers/STM32G4xx_HAL_Driver/Src/stm32g4xx_hal_rcc.c ****   *            @arg @ref RCC_MCODIV_2  division by 2 applied to MCO clock
 989:Drivers/STM32G4xx_HAL_Driver/Src/stm32g4xx_hal_rcc.c ****   *            @arg @ref RCC_MCODIV_4  division by 4 applied to MCO clock
 990:Drivers/STM32G4xx_HAL_Driver/Src/stm32g4xx_hal_rcc.c ****   *            @arg @ref RCC_MCODIV_8  division by 8 applied to MCO clock
 991:Drivers/STM32G4xx_HAL_Driver/Src/stm32g4xx_hal_rcc.c ****   *            @arg @ref RCC_MCODIV_16  division by 16 applied to MCO clock
 992:Drivers/STM32G4xx_HAL_Driver/Src/stm32g4xx_hal_rcc.c ****   * @retval None
 993:Drivers/STM32G4xx_HAL_Driver/Src/stm32g4xx_hal_rcc.c ****   */
 994:Drivers/STM32G4xx_HAL_Driver/Src/stm32g4xx_hal_rcc.c **** void HAL_RCC_MCOConfig(uint32_t RCC_MCOx, uint32_t RCC_MCOSource, uint32_t RCC_MCODiv)
 995:Drivers/STM32G4xx_HAL_Driver/Src/stm32g4xx_hal_rcc.c **** {
 1249              	 .loc 1 995 1 is_stmt 1 view-0
 1250              	 .cfi_startproc
ARM GAS   			page 45


 1251              	 
 1252              	 
 996:Drivers/STM32G4xx_HAL_Driver/Src/stm32g4xx_hal_rcc.c ****   GPIO_InitTypeDef gpio_initstruct;
 1253              	 .loc 1 996 3 view .LVU440
 997:Drivers/STM32G4xx_HAL_Driver/Src/stm32g4xx_hal_rcc.c ****   uint32_t mcoindex;
 1254              	 .loc 1 997 3 view .LVU441
 998:Drivers/STM32G4xx_HAL_Driver/Src/stm32g4xx_hal_rcc.c ****   uint32_t mco_gpio_index;
 1255              	 .loc 1 998 3 view .LVU442
 999:Drivers/STM32G4xx_HAL_Driver/Src/stm32g4xx_hal_rcc.c ****   GPIO_TypeDef * mco_gpio_port;
 1256              	 .loc 1 999 3 view .LVU443
1000:Drivers/STM32G4xx_HAL_Driver/Src/stm32g4xx_hal_rcc.c **** 
1001:Drivers/STM32G4xx_HAL_Driver/Src/stm32g4xx_hal_rcc.c ****   /* Check the parameters */
1002:Drivers/STM32G4xx_HAL_Driver/Src/stm32g4xx_hal_rcc.c ****   assert_param(IS_RCC_MCO(RCC_MCOx));
 1257              	 .loc 1 1002 3 view .LVU444
1003:Drivers/STM32G4xx_HAL_Driver/Src/stm32g4xx_hal_rcc.c **** 
1004:Drivers/STM32G4xx_HAL_Driver/Src/stm32g4xx_hal_rcc.c ****   /* Common GPIO init parameters */
1005:Drivers/STM32G4xx_HAL_Driver/Src/stm32g4xx_hal_rcc.c ****   gpio_initstruct.Mode      = GPIO_MODE_AF_PP;
 1258              	 .loc 1 1005 3 view .LVU445
1006:Drivers/STM32G4xx_HAL_Driver/Src/stm32g4xx_hal_rcc.c ****   gpio_initstruct.Speed     = GPIO_SPEED_FREQ_VERY_HIGH;
 1259              	 .loc 1 1006 3 view .LVU446
 995:Drivers/STM32G4xx_HAL_Driver/Src/stm32g4xx_hal_rcc.c ****   GPIO_InitTypeDef gpio_initstruct;
 1260              	 .loc 1 995 1 is_stmt 0 view .LVU447
 1261 0000 F0B5     	 push {r4,r5,r6,r7,lr}
 1262              	 .cfi_def_cfa_offset 20
 1263              	 .cfi_offset 4,-20
 1264              	 .cfi_offset 5,-16
 1265              	 .cfi_offset 6,-12
 1266              	 .cfi_offset 7,-8
 1267              	 .cfi_offset 14,-4
 1268 0002 87B0     	 sub sp,sp,#28
 1269              	 .cfi_def_cfa_offset 48
 1270              	 .loc 1 1006 29 view .LVU448
 1271 0004 0323     	 movs r3,#3
 1272 0006 0393     	 str r3,[sp,#12]
1007:Drivers/STM32G4xx_HAL_Driver/Src/stm32g4xx_hal_rcc.c ****   gpio_initstruct.Pull      = GPIO_NOPULL;
 1273              	 .loc 1 1007 3 is_stmt 1 view .LVU449
1005:Drivers/STM32G4xx_HAL_Driver/Src/stm32g4xx_hal_rcc.c ****   gpio_initstruct.Speed     = GPIO_SPEED_FREQ_VERY_HIGH;
 1274              	 .loc 1 1005 29 is_stmt 0 view .LVU450
 1275 0008 0225     	 movs r5,#2
 1276 000a 0023     	 movs r3,#0
 1277 000c CDE90153 	 strd r5,r3,[sp,#4]
1008:Drivers/STM32G4xx_HAL_Driver/Src/stm32g4xx_hal_rcc.c **** 
1009:Drivers/STM32G4xx_HAL_Driver/Src/stm32g4xx_hal_rcc.c ****   /* Get MCOx selection */
1010:Drivers/STM32G4xx_HAL_Driver/Src/stm32g4xx_hal_rcc.c ****   mcoindex = RCC_MCOx & RCC_MCO_INDEX_MASK;
 1278              	 .loc 1 1010 3 is_stmt 1 view .LVU451
 1279              	.LVL117:
1011:Drivers/STM32G4xx_HAL_Driver/Src/stm32g4xx_hal_rcc.c **** 
1012:Drivers/STM32G4xx_HAL_Driver/Src/stm32g4xx_hal_rcc.c ****   /* Get MCOx GPIO Port */
1013:Drivers/STM32G4xx_HAL_Driver/Src/stm32g4xx_hal_rcc.c ****   mco_gpio_port = (GPIO_TypeDef *) RCC_GET_MCO_GPIO_PORT(RCC_MCOx);
 1280              	 .loc 1 1013 3 view .LVU452
1014:Drivers/STM32G4xx_HAL_Driver/Src/stm32g4xx_hal_rcc.c **** 
1015:Drivers/STM32G4xx_HAL_Driver/Src/stm32g4xx_hal_rcc.c ****   /* MCOx Clock Enable */
1016:Drivers/STM32G4xx_HAL_Driver/Src/stm32g4xx_hal_rcc.c ****   mco_gpio_index = RCC_GET_MCO_GPIO_INDEX(RCC_MCOx);
1017:Drivers/STM32G4xx_HAL_Driver/Src/stm32g4xx_hal_rcc.c ****   SET_BIT(RCC->AHB2ENR, (1UL << mco_gpio_index ));
 1281              	 .loc 1 1017 3 is_stmt 0 view .LVU453
 1282 0010 0F4F     	 ldr r7,.L147
 995:Drivers/STM32G4xx_HAL_Driver/Src/stm32g4xx_hal_rcc.c ****   GPIO_InitTypeDef gpio_initstruct;
ARM GAS   			page 46


 1283              	 .loc 1 995 1 view .LVU454
 1284 0012 0446     	 mov r4,r0
 1285 0014 1646     	 mov r6,r2
1013:Drivers/STM32G4xx_HAL_Driver/Src/stm32g4xx_hal_rcc.c **** 
 1286              	 .loc 1 1013 36 view .LVU455
 1287 0016 C0F30340 	 ubfx r0,r0,#16,#4
 1288              	.LVL118:
1016:Drivers/STM32G4xx_HAL_Driver/Src/stm32g4xx_hal_rcc.c ****   SET_BIT(RCC->AHB2ENR, (1UL << mco_gpio_index ));
 1289              	 .loc 1 1016 3 is_stmt 1 view .LVU456
 1290              	 .loc 1 1017 3 view .LVU457
 1291 001a FA6C     	 ldr r2,[r7,#76]
 1292              	.LVL119:
 1293              	 .loc 1 1017 3 is_stmt 0 view .LVU458
 1294 001c 0123     	 movs r3,#1
 1295 001e 8340     	 lsls r3,r3,r0
 1296 0020 1343     	 orrs r3,r3,r2
 1297 0022 FB64     	 str r3,[r7,#76]
1018:Drivers/STM32G4xx_HAL_Driver/Src/stm32g4xx_hal_rcc.c **** 
1019:Drivers/STM32G4xx_HAL_Driver/Src/stm32g4xx_hal_rcc.c ****   /* Configure the MCOx pin in alternate function mode */
1020:Drivers/STM32G4xx_HAL_Driver/Src/stm32g4xx_hal_rcc.c ****   gpio_initstruct.Pin = RCC_GET_MCO_GPIO_PIN(RCC_MCOx);
 1298              	 .loc 1 1020 3 is_stmt 1 view .LVU459
1013:Drivers/STM32G4xx_HAL_Driver/Src/stm32g4xx_hal_rcc.c **** 
 1299              	 .loc 1 1013 36 is_stmt 0 view .LVU460
 1300 0024 00F59010 	 add r0,r0,#1179648
 1301              	.LVL120:
 1302              	 .loc 1 1020 25 view .LVU461
 1303 0028 A3B2     	 uxth r3,r4
 1304              	 .loc 1 1020 23 view .LVU462
 1305 002a 0093     	 str r3,[sp]
1021:Drivers/STM32G4xx_HAL_Driver/Src/stm32g4xx_hal_rcc.c ****   gpio_initstruct.Alternate = RCC_GET_MCO_GPIO_AF(RCC_MCOx);
 1306              	 .loc 1 1021 3 is_stmt 1 view .LVU463
 995:Drivers/STM32G4xx_HAL_Driver/Src/stm32g4xx_hal_rcc.c ****   GPIO_InitTypeDef gpio_initstruct;
 1307              	 .loc 1 995 1 is_stmt 0 view .LVU464
 1308 002c 0D46     	 mov r5,r1
 1309              	 .loc 1 1021 31 view .LVU465
 1310 002e C4F30753 	 ubfx r3,r4,#20,#8
1022:Drivers/STM32G4xx_HAL_Driver/Src/stm32g4xx_hal_rcc.c ****   HAL_GPIO_Init(mco_gpio_port, &gpio_initstruct);
 1311              	 .loc 1 1022 3 view .LVU466
 1312 0032 8002     	 lsls r0,r0,#10
 1313              	.LVL121:
 1314              	 .loc 1 1022 3 view .LVU467
 1315 0034 6946     	 mov r1,sp
 1316              	.LVL122:
1021:Drivers/STM32G4xx_HAL_Driver/Src/stm32g4xx_hal_rcc.c ****   gpio_initstruct.Alternate = RCC_GET_MCO_GPIO_AF(RCC_MCOx);
 1317              	 .loc 1 1021 29 view .LVU468
 1318 0036 0493     	 str r3,[sp,#16]
 1319              	 .loc 1 1022 3 is_stmt 1 view .LVU469
 1320 0038 FFF7FEFF 	 bl HAL_GPIO_Init
 1321              	.LVL123:
1023:Drivers/STM32G4xx_HAL_Driver/Src/stm32g4xx_hal_rcc.c **** 
1024:Drivers/STM32G4xx_HAL_Driver/Src/stm32g4xx_hal_rcc.c ****    if (mcoindex == RCC_MCO1_INDEX)
 1322              	 .loc 1 1024 4 view .LVU470
 1323              	 .loc 1 1024 7 is_stmt 0 view .LVU471
 1324 003c E300     	 lsls r3,r4,#3
 1325 003e 05D4     	 bmi .L144
1025:Drivers/STM32G4xx_HAL_Driver/Src/stm32g4xx_hal_rcc.c ****   {
1026:Drivers/STM32G4xx_HAL_Driver/Src/stm32g4xx_hal_rcc.c ****     assert_param(IS_RCC_MCODIV(RCC_MCODiv));
ARM GAS   			page 47


 1326              	 .loc 1 1026 5 is_stmt 1 view .LVU472
1027:Drivers/STM32G4xx_HAL_Driver/Src/stm32g4xx_hal_rcc.c ****     assert_param(IS_RCC_MCO1SOURCE(RCC_MCOSource));
 1327              	 .loc 1 1027 5 view .LVU473
1028:Drivers/STM32G4xx_HAL_Driver/Src/stm32g4xx_hal_rcc.c ****     /* Mask MCOSEL[] and MCOPRE[] bits then set MCO clock source and prescaler */
1029:Drivers/STM32G4xx_HAL_Driver/Src/stm32g4xx_hal_rcc.c ****     MODIFY_REG(RCC->CFGR, (RCC_CFGR_MCOSEL | RCC_CFGR_MCOPRE), (RCC_MCOSource | RCC_MCODiv));
 1328              	 .loc 1 1029 5 view .LVU474
 1329 0040 BB68     	 ldr r3,[r7,#8]
 1330 0042 23F0FE43 	 bic r3,r3,#2130706432
 1331 0046 3343     	 orrs r3,r3,r6
 1332 0048 2B43     	 orrs r3,r3,r5
 1333 004a BB60     	 str r3,[r7,#8]
 1334              	.L144:
1030:Drivers/STM32G4xx_HAL_Driver/Src/stm32g4xx_hal_rcc.c ****   }
1031:Drivers/STM32G4xx_HAL_Driver/Src/stm32g4xx_hal_rcc.c **** }
 1335              	 .loc 1 1031 1 is_stmt 0 view .LVU475
 1336 004c 07B0     	 add sp,sp,#28
 1337              	 .cfi_def_cfa_offset 20
 1338              	 
 1339 004e F0BD     	 pop {r4,r5,r6,r7,pc}
 1340              	.LVL124:
 1341              	.L148:
 1342              	 .loc 1 1031 1 view .LVU476
 1343              	 .align 2
 1344              	.L147:
 1345 0050 00100240 	 .word 1073876992
 1346              	 .cfi_endproc
 1347              	.LFE364:
 1349              	 .section .text.HAL_RCC_GetSysClockFreq,"ax",%progbits
 1350              	 .align 1
 1351              	 .p2align 2,,3
 1352              	 .global HAL_RCC_GetSysClockFreq
 1353              	 .syntax unified
 1354              	 .thumb
 1355              	 .thumb_func
 1357              	HAL_RCC_GetSysClockFreq:
 1358              	.LFB365:
1032:Drivers/STM32G4xx_HAL_Driver/Src/stm32g4xx_hal_rcc.c **** 
1033:Drivers/STM32G4xx_HAL_Driver/Src/stm32g4xx_hal_rcc.c **** /**
1034:Drivers/STM32G4xx_HAL_Driver/Src/stm32g4xx_hal_rcc.c ****   * @brief  Return the SYSCLK frequency.
1035:Drivers/STM32G4xx_HAL_Driver/Src/stm32g4xx_hal_rcc.c ****   *
1036:Drivers/STM32G4xx_HAL_Driver/Src/stm32g4xx_hal_rcc.c ****   * @note   The system frequency computed by this function is not the real
1037:Drivers/STM32G4xx_HAL_Driver/Src/stm32g4xx_hal_rcc.c ****   *         frequency in the chip. It is calculated based on the predefined
1038:Drivers/STM32G4xx_HAL_Driver/Src/stm32g4xx_hal_rcc.c ****   *         constant and the selected clock source:
1039:Drivers/STM32G4xx_HAL_Driver/Src/stm32g4xx_hal_rcc.c ****   * @note     If SYSCLK source is HSI, function returns values based on HSI_VALUE(*)
1040:Drivers/STM32G4xx_HAL_Driver/Src/stm32g4xx_hal_rcc.c ****   * @note     If SYSCLK source is HSE, function returns values based on HSE_VALUE(**)
1041:Drivers/STM32G4xx_HAL_Driver/Src/stm32g4xx_hal_rcc.c ****   * @note     If SYSCLK source is PLL, function returns values based on HSE_VALUE(**),
1042:Drivers/STM32G4xx_HAL_Driver/Src/stm32g4xx_hal_rcc.c ****   *           HSI_VALUE(*) Value multiplied/divided by the PLL factors.
1043:Drivers/STM32G4xx_HAL_Driver/Src/stm32g4xx_hal_rcc.c ****   * @note     (*) HSI_VALUE is a constant defined in stm32g4xx_hal_conf.h file (default value
1044:Drivers/STM32G4xx_HAL_Driver/Src/stm32g4xx_hal_rcc.c ****   *               16 MHz) but the real value may vary depending on the variations
1045:Drivers/STM32G4xx_HAL_Driver/Src/stm32g4xx_hal_rcc.c ****   *               in voltage and temperature.
1046:Drivers/STM32G4xx_HAL_Driver/Src/stm32g4xx_hal_rcc.c ****   * @note     (**) HSE_VALUE is a constant defined in stm32g4xx_hal_conf.h file (default value
1047:Drivers/STM32G4xx_HAL_Driver/Src/stm32g4xx_hal_rcc.c ****   *                8 MHz), user has to ensure that HSE_VALUE is same as the real
1048:Drivers/STM32G4xx_HAL_Driver/Src/stm32g4xx_hal_rcc.c ****   *                frequency of the crystal used. Otherwise, this function may
1049:Drivers/STM32G4xx_HAL_Driver/Src/stm32g4xx_hal_rcc.c ****   *                have wrong result.
1050:Drivers/STM32G4xx_HAL_Driver/Src/stm32g4xx_hal_rcc.c ****   *
1051:Drivers/STM32G4xx_HAL_Driver/Src/stm32g4xx_hal_rcc.c ****   * @note   The result of this function could be not correct when using fractional
1052:Drivers/STM32G4xx_HAL_Driver/Src/stm32g4xx_hal_rcc.c ****   *         value for HSE crystal.
ARM GAS   			page 48


1053:Drivers/STM32G4xx_HAL_Driver/Src/stm32g4xx_hal_rcc.c ****   *
1054:Drivers/STM32G4xx_HAL_Driver/Src/stm32g4xx_hal_rcc.c ****   * @note   This function can be used by the user application to compute the
1055:Drivers/STM32G4xx_HAL_Driver/Src/stm32g4xx_hal_rcc.c ****   *         baudrate for the communication peripherals or configure other parameters.
1056:Drivers/STM32G4xx_HAL_Driver/Src/stm32g4xx_hal_rcc.c ****   *
1057:Drivers/STM32G4xx_HAL_Driver/Src/stm32g4xx_hal_rcc.c ****   * @note   Each time SYSCLK changes, this function must be called to update the
1058:Drivers/STM32G4xx_HAL_Driver/Src/stm32g4xx_hal_rcc.c ****   *         right SYSCLK value. Otherwise, any configuration based on this function will be incorre
1059:Drivers/STM32G4xx_HAL_Driver/Src/stm32g4xx_hal_rcc.c ****   *
1060:Drivers/STM32G4xx_HAL_Driver/Src/stm32g4xx_hal_rcc.c ****   *
1061:Drivers/STM32G4xx_HAL_Driver/Src/stm32g4xx_hal_rcc.c ****   * @retval SYSCLK frequency
1062:Drivers/STM32G4xx_HAL_Driver/Src/stm32g4xx_hal_rcc.c ****   */
1063:Drivers/STM32G4xx_HAL_Driver/Src/stm32g4xx_hal_rcc.c **** uint32_t HAL_RCC_GetSysClockFreq(void)
1064:Drivers/STM32G4xx_HAL_Driver/Src/stm32g4xx_hal_rcc.c **** {
 1359              	 .loc 1 1064 1 is_stmt 1 view-0
 1360              	 .cfi_startproc
 1361              	 
 1362              	 
 1363              	 
1065:Drivers/STM32G4xx_HAL_Driver/Src/stm32g4xx_hal_rcc.c ****   uint32_t pllvco, pllsource, pllr, pllm;
 1364              	 .loc 1 1065 3 view .LVU478
1066:Drivers/STM32G4xx_HAL_Driver/Src/stm32g4xx_hal_rcc.c ****   uint32_t sysclockfreq;
 1365              	 .loc 1 1066 3 view .LVU479
1067:Drivers/STM32G4xx_HAL_Driver/Src/stm32g4xx_hal_rcc.c **** 
1068:Drivers/STM32G4xx_HAL_Driver/Src/stm32g4xx_hal_rcc.c ****   if (__HAL_RCC_GET_SYSCLK_SOURCE() == RCC_CFGR_SWS_HSI)
 1366              	 .loc 1 1068 3 view .LVU480
 1367              	 .loc 1 1068 7 is_stmt 0 view .LVU481
 1368 0000 184B     	 ldr r3,.L157
 1369 0002 9A68     	 ldr r2,[r3,#8]
 1370 0004 02F00C02 	 and r2,r2,#12
 1371              	 .loc 1 1068 6 view .LVU482
 1372 0008 042A     	 cmp r2,#4
 1373 000a 26D0     	 beq .L153
1069:Drivers/STM32G4xx_HAL_Driver/Src/stm32g4xx_hal_rcc.c ****   {
1070:Drivers/STM32G4xx_HAL_Driver/Src/stm32g4xx_hal_rcc.c ****     /* HSI used as system clock source */
1071:Drivers/STM32G4xx_HAL_Driver/Src/stm32g4xx_hal_rcc.c ****     sysclockfreq = HSI_VALUE;
1072:Drivers/STM32G4xx_HAL_Driver/Src/stm32g4xx_hal_rcc.c ****   }
1073:Drivers/STM32G4xx_HAL_Driver/Src/stm32g4xx_hal_rcc.c ****   else if (__HAL_RCC_GET_SYSCLK_SOURCE() == RCC_CFGR_SWS_HSE)
 1374              	 .loc 1 1073 8 is_stmt 1 view .LVU483
 1375              	 .loc 1 1073 12 is_stmt 0 view .LVU484
 1376 000c 9A68     	 ldr r2,[r3,#8]
 1377 000e 02F00C02 	 and r2,r2,#12
 1378              	 .loc 1 1073 11 view .LVU485
 1379 0012 082A     	 cmp r2,#8
 1380 0014 23D0     	 beq .L154
1074:Drivers/STM32G4xx_HAL_Driver/Src/stm32g4xx_hal_rcc.c ****   {
1075:Drivers/STM32G4xx_HAL_Driver/Src/stm32g4xx_hal_rcc.c ****     /* HSE used as system clock source */
1076:Drivers/STM32G4xx_HAL_Driver/Src/stm32g4xx_hal_rcc.c ****     sysclockfreq = HSE_VALUE;
1077:Drivers/STM32G4xx_HAL_Driver/Src/stm32g4xx_hal_rcc.c ****   }
1078:Drivers/STM32G4xx_HAL_Driver/Src/stm32g4xx_hal_rcc.c ****   else if (__HAL_RCC_GET_SYSCLK_SOURCE() == RCC_CFGR_SWS_PLL)
 1381              	 .loc 1 1078 8 is_stmt 1 view .LVU486
 1382              	 .loc 1 1078 12 is_stmt 0 view .LVU487
 1383 0016 9A68     	 ldr r2,[r3,#8]
 1384 0018 02F00C02 	 and r2,r2,#12
 1385              	 .loc 1 1078 11 view .LVU488
 1386 001c 0C2A     	 cmp r2,#12
 1387 001e 01D0     	 beq .L156
1079:Drivers/STM32G4xx_HAL_Driver/Src/stm32g4xx_hal_rcc.c ****   {
1080:Drivers/STM32G4xx_HAL_Driver/Src/stm32g4xx_hal_rcc.c ****     /* PLL used as system clock  source */
ARM GAS   			page 49


1081:Drivers/STM32G4xx_HAL_Driver/Src/stm32g4xx_hal_rcc.c **** 
1082:Drivers/STM32G4xx_HAL_Driver/Src/stm32g4xx_hal_rcc.c ****     /* PLL_VCO = ((HSE_VALUE or HSI_VALUE)/ PLLM) * PLLN
1083:Drivers/STM32G4xx_HAL_Driver/Src/stm32g4xx_hal_rcc.c ****     SYSCLK = PLL_VCO / PLLR
1084:Drivers/STM32G4xx_HAL_Driver/Src/stm32g4xx_hal_rcc.c ****     */
1085:Drivers/STM32G4xx_HAL_Driver/Src/stm32g4xx_hal_rcc.c ****     pllsource = READ_BIT(RCC->PLLCFGR, RCC_PLLCFGR_PLLSRC);
1086:Drivers/STM32G4xx_HAL_Driver/Src/stm32g4xx_hal_rcc.c ****     pllm = (READ_BIT(RCC->PLLCFGR, RCC_PLLCFGR_PLLM) >> RCC_PLLCFGR_PLLM_Pos) + 1U ;
1087:Drivers/STM32G4xx_HAL_Driver/Src/stm32g4xx_hal_rcc.c **** 
1088:Drivers/STM32G4xx_HAL_Driver/Src/stm32g4xx_hal_rcc.c ****     switch (pllsource)
1089:Drivers/STM32G4xx_HAL_Driver/Src/stm32g4xx_hal_rcc.c ****     {
1090:Drivers/STM32G4xx_HAL_Driver/Src/stm32g4xx_hal_rcc.c ****     case RCC_PLLSOURCE_HSE:  /* HSE used as PLL clock source */
1091:Drivers/STM32G4xx_HAL_Driver/Src/stm32g4xx_hal_rcc.c ****       pllvco = (HSE_VALUE / pllm) * (READ_BIT(RCC->PLLCFGR, RCC_PLLCFGR_PLLN) >> RCC_PLLCFGR_PLLN_P
1092:Drivers/STM32G4xx_HAL_Driver/Src/stm32g4xx_hal_rcc.c ****       break;
1093:Drivers/STM32G4xx_HAL_Driver/Src/stm32g4xx_hal_rcc.c **** 
1094:Drivers/STM32G4xx_HAL_Driver/Src/stm32g4xx_hal_rcc.c ****     case RCC_PLLSOURCE_HSI:  /* HSI used as PLL clock source */
1095:Drivers/STM32G4xx_HAL_Driver/Src/stm32g4xx_hal_rcc.c ****     default:
1096:Drivers/STM32G4xx_HAL_Driver/Src/stm32g4xx_hal_rcc.c ****       pllvco = (HSI_VALUE / pllm) * (READ_BIT(RCC->PLLCFGR, RCC_PLLCFGR_PLLN) >> RCC_PLLCFGR_PLLN_P
1097:Drivers/STM32G4xx_HAL_Driver/Src/stm32g4xx_hal_rcc.c ****       break;
1098:Drivers/STM32G4xx_HAL_Driver/Src/stm32g4xx_hal_rcc.c ****     }
1099:Drivers/STM32G4xx_HAL_Driver/Src/stm32g4xx_hal_rcc.c ****     pllr = ((READ_BIT(RCC->PLLCFGR, RCC_PLLCFGR_PLLR) >> RCC_PLLCFGR_PLLR_Pos) + 1U ) * 2U;
1100:Drivers/STM32G4xx_HAL_Driver/Src/stm32g4xx_hal_rcc.c ****     sysclockfreq = pllvco/pllr;
1101:Drivers/STM32G4xx_HAL_Driver/Src/stm32g4xx_hal_rcc.c ****   }
1102:Drivers/STM32G4xx_HAL_Driver/Src/stm32g4xx_hal_rcc.c ****   else
1103:Drivers/STM32G4xx_HAL_Driver/Src/stm32g4xx_hal_rcc.c ****   {
1104:Drivers/STM32G4xx_HAL_Driver/Src/stm32g4xx_hal_rcc.c ****     sysclockfreq = 0U;
 1388              	 .loc 1 1104 18 view .LVU489
 1389 0020 0020     	 movs r0,#0
 1390              	.LVL125:
1105:Drivers/STM32G4xx_HAL_Driver/Src/stm32g4xx_hal_rcc.c ****   }
1106:Drivers/STM32G4xx_HAL_Driver/Src/stm32g4xx_hal_rcc.c **** 
1107:Drivers/STM32G4xx_HAL_Driver/Src/stm32g4xx_hal_rcc.c ****   return sysclockfreq;
 1391              	 .loc 1 1107 3 is_stmt 1 view .LVU490
1108:Drivers/STM32G4xx_HAL_Driver/Src/stm32g4xx_hal_rcc.c **** }
 1392              	 .loc 1 1108 1 is_stmt 0 view .LVU491
 1393 0022 7047     	 bx lr
 1394              	.LVL126:
 1395              	.L156:
 1396              	.LBB13:
 1397              	.LBI13:
1063:Drivers/STM32G4xx_HAL_Driver/Src/stm32g4xx_hal_rcc.c **** {
 1398              	 .loc 1 1063 10 is_stmt 1 view .LVU492
 1399              	.LBB14:
1085:Drivers/STM32G4xx_HAL_Driver/Src/stm32g4xx_hal_rcc.c ****     pllm = (READ_BIT(RCC->PLLCFGR, RCC_PLLCFGR_PLLM) >> RCC_PLLCFGR_PLLM_Pos) + 1U ;
 1400              	 .loc 1 1085 5 view .LVU493
1085:Drivers/STM32G4xx_HAL_Driver/Src/stm32g4xx_hal_rcc.c ****     pllm = (READ_BIT(RCC->PLLCFGR, RCC_PLLCFGR_PLLM) >> RCC_PLLCFGR_PLLM_Pos) + 1U ;
 1401              	 .loc 1 1085 17 is_stmt 0 view .LVU494
 1402 0024 D968     	 ldr r1,[r3,#12]
 1403              	.LVL127:
1086:Drivers/STM32G4xx_HAL_Driver/Src/stm32g4xx_hal_rcc.c **** 
 1404              	 .loc 1 1086 5 is_stmt 1 view .LVU495
1086:Drivers/STM32G4xx_HAL_Driver/Src/stm32g4xx_hal_rcc.c **** 
 1405              	 .loc 1 1086 13 is_stmt 0 view .LVU496
 1406 0026 DA68     	 ldr r2,[r3,#12]
1096:Drivers/STM32G4xx_HAL_Driver/Src/stm32g4xx_hal_rcc.c ****       break;
 1407              	 .loc 1 1096 38 view .LVU497
 1408 0028 D868     	 ldr r0,[r3,#12]
1085:Drivers/STM32G4xx_HAL_Driver/Src/stm32g4xx_hal_rcc.c ****     pllm = (READ_BIT(RCC->PLLCFGR, RCC_PLLCFGR_PLLM) >> RCC_PLLCFGR_PLLM_Pos) + 1U ;
 1409              	 .loc 1 1085 15 view .LVU498
ARM GAS   			page 50


 1410 002a 01F00301 	 and r1,r1,#3
 1411              	.LVL128:
1088:Drivers/STM32G4xx_HAL_Driver/Src/stm32g4xx_hal_rcc.c ****     {
 1412              	 .loc 1 1088 5 view .LVU499
 1413 002e 0329     	 cmp r1,#3
1086:Drivers/STM32G4xx_HAL_Driver/Src/stm32g4xx_hal_rcc.c **** 
 1414              	 .loc 1 1086 54 view .LVU500
 1415 0030 C2F30312 	 ubfx r2,r2,#4,#4
1096:Drivers/STM32G4xx_HAL_Driver/Src/stm32g4xx_hal_rcc.c ****       break;
 1416              	 .loc 1 1096 79 view .LVU501
 1417 0034 C0F30620 	 ubfx r0,r0,#8,#7
1091:Drivers/STM32G4xx_HAL_Driver/Src/stm32g4xx_hal_rcc.c ****       break;
 1418              	 .loc 1 1091 27 view .LVU502
 1419 0038 0CBF     	 ite eq
 1420 003a 0B4B     	 ldreq r3,.L157+4
1096:Drivers/STM32G4xx_HAL_Driver/Src/stm32g4xx_hal_rcc.c ****       break;
 1421              	 .loc 1 1096 27 view .LVU503
 1422 003c 0B4B     	 ldrne r3,.L157+8
1086:Drivers/STM32G4xx_HAL_Driver/Src/stm32g4xx_hal_rcc.c **** 
 1423              	 .loc 1 1086 10 view .LVU504
 1424 003e 0132     	 adds r2,r2,#1
 1425              	.LVL129:
1088:Drivers/STM32G4xx_HAL_Driver/Src/stm32g4xx_hal_rcc.c ****     {
 1426              	 .loc 1 1088 5 is_stmt 1 view .LVU505
1091:Drivers/STM32G4xx_HAL_Driver/Src/stm32g4xx_hal_rcc.c ****       break;
 1427              	 .loc 1 1091 7 view .LVU506
1096:Drivers/STM32G4xx_HAL_Driver/Src/stm32g4xx_hal_rcc.c ****       break;
 1428              	 .loc 1 1096 7 view .LVU507
1096:Drivers/STM32G4xx_HAL_Driver/Src/stm32g4xx_hal_rcc.c ****       break;
 1429              	 .loc 1 1096 27 is_stmt 0 view .LVU508
 1430 0040 B3FBF2F3 	 udiv r3,r3,r2
1096:Drivers/STM32G4xx_HAL_Driver/Src/stm32g4xx_hal_rcc.c ****       break;
 1431              	 .loc 1 1096 14 view .LVU509
 1432 0044 03FB00F0 	 mul r0,r3,r0
 1433              	.LVL130:
1097:Drivers/STM32G4xx_HAL_Driver/Src/stm32g4xx_hal_rcc.c ****     }
 1434              	 .loc 1 1097 7 is_stmt 1 view .LVU510
1099:Drivers/STM32G4xx_HAL_Driver/Src/stm32g4xx_hal_rcc.c ****     sysclockfreq = pllvco/pllr;
 1435              	 .loc 1 1099 5 view .LVU511
1099:Drivers/STM32G4xx_HAL_Driver/Src/stm32g4xx_hal_rcc.c ****     sysclockfreq = pllvco/pllr;
 1436              	 .loc 1 1099 14 is_stmt 0 view .LVU512
 1437 0048 064B     	 ldr r3,.L157
 1438 004a DB68     	 ldr r3,[r3,#12]
 1439              	.LVL131:
1100:Drivers/STM32G4xx_HAL_Driver/Src/stm32g4xx_hal_rcc.c ****   }
 1440              	 .loc 1 1100 5 is_stmt 1 view .LVU513
1099:Drivers/STM32G4xx_HAL_Driver/Src/stm32g4xx_hal_rcc.c ****     sysclockfreq = pllvco/pllr;
 1441              	 .loc 1 1099 55 is_stmt 0 view .LVU514
 1442 004c C3F34163 	 ubfx r3,r3,#25,#2
 1443              	.LVL132:
1099:Drivers/STM32G4xx_HAL_Driver/Src/stm32g4xx_hal_rcc.c ****     sysclockfreq = pllvco/pllr;
 1444              	 .loc 1 1099 80 view .LVU515
 1445 0050 0133     	 adds r3,r3,#1
1099:Drivers/STM32G4xx_HAL_Driver/Src/stm32g4xx_hal_rcc.c ****     sysclockfreq = pllvco/pllr;
 1446              	 .loc 1 1099 10 view .LVU516
 1447 0052 5B00     	 lsls r3,r3,#1
1100:Drivers/STM32G4xx_HAL_Driver/Src/stm32g4xx_hal_rcc.c ****   }
ARM GAS   			page 51


 1448              	 .loc 1 1100 18 view .LVU517
 1449 0054 B0FBF3F0 	 udiv r0,r0,r3
 1450              	.LVL133:
1107:Drivers/STM32G4xx_HAL_Driver/Src/stm32g4xx_hal_rcc.c **** }
 1451              	 .loc 1 1107 3 is_stmt 1 view .LVU518
1107:Drivers/STM32G4xx_HAL_Driver/Src/stm32g4xx_hal_rcc.c **** }
 1452              	 .loc 1 1107 3 is_stmt 0 view .LVU519
 1453 0058 7047     	 bx lr
 1454              	.L153:
 1455              	.LBE14:
 1456              	.LBE13:
1071:Drivers/STM32G4xx_HAL_Driver/Src/stm32g4xx_hal_rcc.c ****   }
 1457              	 .loc 1 1071 18 view .LVU520
 1458 005a 0448     	 ldr r0,.L157+8
 1459 005c 7047     	 bx lr
 1460              	.L154:
1076:Drivers/STM32G4xx_HAL_Driver/Src/stm32g4xx_hal_rcc.c ****   }
 1461              	 .loc 1 1076 18 view .LVU521
 1462 005e 0248     	 ldr r0,.L157+4
 1463 0060 7047     	 bx lr
 1464              	.L158:
 1465 0062 00BF     	 .align 2
 1466              	.L157:
 1467 0064 00100240 	 .word 1073876992
 1468 0068 40787D01 	 .word 25000000
 1469 006c 0024F400 	 .word 16000000
 1470              	 .cfi_endproc
 1471              	.LFE365:
 1473              	 .section .text.HAL_RCC_ClockConfig,"ax",%progbits
 1474              	 .align 1
 1475              	 .p2align 2,,3
 1476              	 .global HAL_RCC_ClockConfig
 1477              	 .syntax unified
 1478              	 .thumb
 1479              	 .thumb_func
 1481              	HAL_RCC_ClockConfig:
 1482              	.LVL134:
 1483              	.LFB363:
 767:Drivers/STM32G4xx_HAL_Driver/Src/stm32g4xx_hal_rcc.c ****   uint32_t tickstart;
 1484              	 .loc 1 767 1 is_stmt 1 view-0
 1485              	 .cfi_startproc
 1486              	 
 1487              	 
 768:Drivers/STM32G4xx_HAL_Driver/Src/stm32g4xx_hal_rcc.c ****   uint32_t pllfreq;
 1488              	 .loc 1 768 3 view .LVU523
 769:Drivers/STM32G4xx_HAL_Driver/Src/stm32g4xx_hal_rcc.c ****   uint32_t hpre = RCC_SYSCLK_DIV1;
 1489              	 .loc 1 769 3 view .LVU524
 770:Drivers/STM32G4xx_HAL_Driver/Src/stm32g4xx_hal_rcc.c **** 
 1490              	 .loc 1 770 3 view .LVU525
 773:Drivers/STM32G4xx_HAL_Driver/Src/stm32g4xx_hal_rcc.c ****   {
 1491              	 .loc 1 773 3 view .LVU526
 773:Drivers/STM32G4xx_HAL_Driver/Src/stm32g4xx_hal_rcc.c ****   {
 1492              	 .loc 1 773 6 is_stmt 0 view .LVU527
 1493 0000 0028     	 cmp r0,#0
 1494 0002 00F0EE80 	 beq .L222
 787:Drivers/STM32G4xx_HAL_Driver/Src/stm32g4xx_hal_rcc.c ****   {
 1495              	 .loc 1 787 18 view .LVU528
ARM GAS   			page 52


 1496 0006 784A     	 ldr r2,.L226
 767:Drivers/STM32G4xx_HAL_Driver/Src/stm32g4xx_hal_rcc.c ****   uint32_t tickstart;
 1497              	 .loc 1 767 1 view .LVU529
 1498 0008 2DE9F843 	 push {r3,r4,r5,r6,r7,r8,r9,lr}
 1499              	 .cfi_def_cfa_offset 32
 1500              	 .cfi_offset 3,-32
 1501              	 .cfi_offset 4,-28
 1502              	 .cfi_offset 5,-24
 1503              	 .cfi_offset 6,-20
 1504              	 .cfi_offset 7,-16
 1505              	 .cfi_offset 8,-12
 1506              	 .cfi_offset 9,-8
 1507              	 .cfi_offset 14,-4
 787:Drivers/STM32G4xx_HAL_Driver/Src/stm32g4xx_hal_rcc.c ****   {
 1508              	 .loc 1 787 18 view .LVU530
 1509 000c 1368     	 ldr r3,[r2]
 1510 000e 03F00F03 	 and r3,r3,#15
 787:Drivers/STM32G4xx_HAL_Driver/Src/stm32g4xx_hal_rcc.c ****   {
 1511              	 .loc 1 787 6 view .LVU531
 1512 0012 8B42     	 cmp r3,r1
 1513 0014 0D46     	 mov r5,r1
 1514 0016 0446     	 mov r4,r0
 779:Drivers/STM32G4xx_HAL_Driver/Src/stm32g4xx_hal_rcc.c ****   assert_param(IS_FLASH_LATENCY(FLatency));
 1515              	 .loc 1 779 3 is_stmt 1 view .LVU532
 780:Drivers/STM32G4xx_HAL_Driver/Src/stm32g4xx_hal_rcc.c **** 
 1516              	 .loc 1 780 3 view .LVU533
 787:Drivers/STM32G4xx_HAL_Driver/Src/stm32g4xx_hal_rcc.c ****   {
 1517              	 .loc 1 787 3 view .LVU534
 787:Drivers/STM32G4xx_HAL_Driver/Src/stm32g4xx_hal_rcc.c ****   {
 1518              	 .loc 1 787 6 is_stmt 0 view .LVU535
 1519 0018 0CD2     	 bcs .L166
 790:Drivers/STM32G4xx_HAL_Driver/Src/stm32g4xx_hal_rcc.c **** 
 1520              	 .loc 1 790 5 is_stmt 1 view .LVU536
 1521 001a 1368     	 ldr r3,[r2]
 1522 001c 23F00F03 	 bic r3,r3,#15
 1523 0020 0B43     	 orrs r3,r3,r1
 1524 0022 1360     	 str r3,[r2]
 794:Drivers/STM32G4xx_HAL_Driver/Src/stm32g4xx_hal_rcc.c ****     {
 1525              	 .loc 1 794 5 view .LVU537
 794:Drivers/STM32G4xx_HAL_Driver/Src/stm32g4xx_hal_rcc.c ****     {
 1526              	 .loc 1 794 9 is_stmt 0 view .LVU538
 1527 0024 1368     	 ldr r3,[r2]
 1528 0026 03F00F03 	 and r3,r3,#15
 794:Drivers/STM32G4xx_HAL_Driver/Src/stm32g4xx_hal_rcc.c ****     {
 1529              	 .loc 1 794 8 view .LVU539
 1530 002a 8B42     	 cmp r3,r1
 1531 002c 02D0     	 beq .L166
 1532              	.LVL135:
 1533              	.L165:
 775:Drivers/STM32G4xx_HAL_Driver/Src/stm32g4xx_hal_rcc.c ****   }
 1534              	 .loc 1 775 12 view .LVU540
 1535 002e 0120     	 movs r0,#1
 940:Drivers/STM32G4xx_HAL_Driver/Src/stm32g4xx_hal_rcc.c **** 
 1536              	 .loc 1 940 1 view .LVU541
 1537 0030 BDE8F883 	 pop {r3,r4,r5,r6,r7,r8,r9,pc}
 1538              	.LVL136:
 1539              	.L166:
ARM GAS   			page 53


 801:Drivers/STM32G4xx_HAL_Driver/Src/stm32g4xx_hal_rcc.c ****   {
 1540              	 .loc 1 801 3 is_stmt 1 view .LVU542
 801:Drivers/STM32G4xx_HAL_Driver/Src/stm32g4xx_hal_rcc.c ****   {
 1541              	 .loc 1 801 25 is_stmt 0 view .LVU543
 1542 0034 2368     	 ldr r3,[r4]
 801:Drivers/STM32G4xx_HAL_Driver/Src/stm32g4xx_hal_rcc.c ****   {
 1543              	 .loc 1 801 5 view .LVU544
 1544 0036 DF07     	 lsls r7,r3,#31
 1545 0038 69D5     	 bpl .L223
 803:Drivers/STM32G4xx_HAL_Driver/Src/stm32g4xx_hal_rcc.c **** 
 1546              	 .loc 1 803 5 is_stmt 1 view .LVU545
 806:Drivers/STM32G4xx_HAL_Driver/Src/stm32g4xx_hal_rcc.c ****     {
 1547              	 .loc 1 806 5 view .LVU546
 806:Drivers/STM32G4xx_HAL_Driver/Src/stm32g4xx_hal_rcc.c ****     {
 1548              	 .loc 1 806 26 is_stmt 0 view .LVU547
 1549 003a 6768     	 ldr r7,[r4,#4]
 806:Drivers/STM32G4xx_HAL_Driver/Src/stm32g4xx_hal_rcc.c ****     {
 1550              	 .loc 1 806 8 view .LVU548
 1551 003c 032F     	 cmp r7,#3
 1552 003e 00F0A080 	 beq .L224
 832:Drivers/STM32G4xx_HAL_Driver/Src/stm32g4xx_hal_rcc.c ****       {
 1553              	 .loc 1 832 7 is_stmt 1 view .LVU549
 835:Drivers/STM32G4xx_HAL_Driver/Src/stm32g4xx_hal_rcc.c ****         {
 1554              	 .loc 1 835 12 is_stmt 0 view .LVU550
 1555 0042 6A4B     	 ldr r3,.L226+4
 832:Drivers/STM32G4xx_HAL_Driver/Src/stm32g4xx_hal_rcc.c ****       {
 1556              	 .loc 1 832 10 view .LVU551
 1557 0044 022F     	 cmp r7,#2
 835:Drivers/STM32G4xx_HAL_Driver/Src/stm32g4xx_hal_rcc.c ****         {
 1558              	 .loc 1 835 12 view .LVU552
 1559 0046 1B68     	 ldr r3,[r3]
 832:Drivers/STM32G4xx_HAL_Driver/Src/stm32g4xx_hal_rcc.c ****       {
 1560              	 .loc 1 832 10 view .LVU553
 1561 0048 00F09780 	 beq .L225
 844:Drivers/STM32G4xx_HAL_Driver/Src/stm32g4xx_hal_rcc.c ****         {
 1562              	 .loc 1 844 9 is_stmt 1 view .LVU554
 844:Drivers/STM32G4xx_HAL_Driver/Src/stm32g4xx_hal_rcc.c ****         {
 1563              	 .loc 1 844 11 is_stmt 0 view .LVU555
 1564 004c 5B05     	 lsls r3,r3,#21
 1565 004e EED5     	 bpl .L165
 1566              	.L177:
 850:Drivers/STM32G4xx_HAL_Driver/Src/stm32g4xx_hal_rcc.c **** 
 1567              	 .loc 1 850 7 is_stmt 1 view .LVU556
 850:Drivers/STM32G4xx_HAL_Driver/Src/stm32g4xx_hal_rcc.c **** 
 1568              	 .loc 1 850 17 is_stmt 0 view .LVU557
 1569 0050 FFF7FEFF 	 bl HAL_RCC_GetSysClockFreq
 1570              	.LVL137:
 853:Drivers/STM32G4xx_HAL_Driver/Src/stm32g4xx_hal_rcc.c ****       {
 1571              	 .loc 1 853 7 is_stmt 1 view .LVU558
 853:Drivers/STM32G4xx_HAL_Driver/Src/stm32g4xx_hal_rcc.c ****       {
 1572              	 .loc 1 853 9 is_stmt 0 view .LVU559
 1573 0054 664B     	 ldr r3,.L226+8
 1574 0056 9842     	 cmp r0,r3
 1575 0058 40F2C080 	 bls .L175
 1576              	.LVL138:
 1577              	.L174:
 824:Drivers/STM32G4xx_HAL_Driver/Src/stm32g4xx_hal_rcc.c ****           hpre = RCC_SYSCLK_DIV2;
ARM GAS   			page 54


 1578              	 .loc 1 824 11 is_stmt 1 view .LVU560
 1579 005c 634A     	 ldr r2,.L226+4
 1580 005e 9368     	 ldr r3,[r2,#8]
 1581 0060 23F0F003 	 bic r3,r3,#240
 1582 0064 43F08003 	 orr r3,r3,#128
 1583 0068 9360     	 str r3,[r2,#8]
 825:Drivers/STM32G4xx_HAL_Driver/Src/stm32g4xx_hal_rcc.c ****         }
 1584              	 .loc 1 825 11 view .LVU561
 1585              	.LVL139:
 856:Drivers/STM32G4xx_HAL_Driver/Src/stm32g4xx_hal_rcc.c ****       }
 1586              	 .loc 1 856 14 is_stmt 0 view .LVU562
 1587 006a 4FF08009 	 mov r9,#128
 1588              	.LVL140:
 1589              	.L173:
 861:Drivers/STM32G4xx_HAL_Driver/Src/stm32g4xx_hal_rcc.c **** 
 1590              	 .loc 1 861 5 is_stmt 1 view .LVU563
 1591 006e 5F4E     	 ldr r6,.L226+4
 1592 0070 B368     	 ldr r3,[r6,#8]
 1593 0072 23F00303 	 bic r3,r3,#3
 1594 0076 3B43     	 orrs r3,r3,r7
 1595 0078 B360     	 str r3,[r6,#8]
 864:Drivers/STM32G4xx_HAL_Driver/Src/stm32g4xx_hal_rcc.c **** 
 1596              	 .loc 1 864 5 view .LVU564
 864:Drivers/STM32G4xx_HAL_Driver/Src/stm32g4xx_hal_rcc.c **** 
 1597              	 .loc 1 864 17 is_stmt 0 view .LVU565
 1598 007a FFF7FEFF 	 bl HAL_GetTick
 1599              	.LVL141:
 868:Drivers/STM32G4xx_HAL_Driver/Src/stm32g4xx_hal_rcc.c ****       {
 1600              	 .loc 1 868 10 discriminator 1 view .LVU566
 1601 007e 41F28838 	 movw r8,#5000
 864:Drivers/STM32G4xx_HAL_Driver/Src/stm32g4xx_hal_rcc.c **** 
 1602              	 .loc 1 864 17 view .LVU567
 1603 0082 0746     	 mov r7,r0
 1604              	.LVL142:
 866:Drivers/STM32G4xx_HAL_Driver/Src/stm32g4xx_hal_rcc.c ****     {
 1605              	 .loc 1 866 5 is_stmt 1 view .LVU568
 866:Drivers/STM32G4xx_HAL_Driver/Src/stm32g4xx_hal_rcc.c ****     {
 1606              	 .loc 1 866 11 is_stmt 0 view .LVU569
 1607 0084 04E0     	 b .L179
 1608              	.LVL143:
 1609              	.L180:
 868:Drivers/STM32G4xx_HAL_Driver/Src/stm32g4xx_hal_rcc.c ****       {
 1610              	 .loc 1 868 12 view .LVU570
 1611 0086 FFF7FEFF 	 bl HAL_GetTick
 1612              	.LVL144:
 868:Drivers/STM32G4xx_HAL_Driver/Src/stm32g4xx_hal_rcc.c ****       {
 1613              	 .loc 1 868 26 discriminator 1 view .LVU571
 1614 008a C01B     	 subs r0,r0,r7
 868:Drivers/STM32G4xx_HAL_Driver/Src/stm32g4xx_hal_rcc.c ****       {
 1615              	 .loc 1 868 10 discriminator 1 view .LVU572
 1616 008c 4045     	 cmp r0,r8
 1617 008e 71D8     	 bhi .L189
 1618              	.L179:
 868:Drivers/STM32G4xx_HAL_Driver/Src/stm32g4xx_hal_rcc.c ****       {
 1619              	 .loc 1 868 7 is_stmt 1 view .LVU573
 866:Drivers/STM32G4xx_HAL_Driver/Src/stm32g4xx_hal_rcc.c ****     {
 1620              	 .loc 1 866 42 view .LVU574
ARM GAS   			page 55


 866:Drivers/STM32G4xx_HAL_Driver/Src/stm32g4xx_hal_rcc.c ****     {
 1621              	 .loc 1 866 12 is_stmt 0 view .LVU575
 1622 0090 B368     	 ldr r3,[r6,#8]
 866:Drivers/STM32G4xx_HAL_Driver/Src/stm32g4xx_hal_rcc.c ****     {
 1623              	 .loc 1 866 78 view .LVU576
 1624 0092 6268     	 ldr r2,[r4,#4]
 866:Drivers/STM32G4xx_HAL_Driver/Src/stm32g4xx_hal_rcc.c ****     {
 1625              	 .loc 1 866 12 view .LVU577
 1626 0094 03F00C03 	 and r3,r3,#12
 866:Drivers/STM32G4xx_HAL_Driver/Src/stm32g4xx_hal_rcc.c ****     {
 1627              	 .loc 1 866 42 view .LVU578
 1628 0098 B3EB820F 	 cmp r3,r2,lsl#2
 1629 009c F3D1     	 bne .L180
 876:Drivers/STM32G4xx_HAL_Driver/Src/stm32g4xx_hal_rcc.c ****   {
 1630              	 .loc 1 876 3 is_stmt 1 view .LVU579
 876:Drivers/STM32G4xx_HAL_Driver/Src/stm32g4xx_hal_rcc.c ****   {
 1631              	 .loc 1 876 26 is_stmt 0 view .LVU580
 1632 009e 2368     	 ldr r3,[r4]
 876:Drivers/STM32G4xx_HAL_Driver/Src/stm32g4xx_hal_rcc.c ****   {
 1633              	 .loc 1 876 6 view .LVU581
 1634 00a0 9F07     	 lsls r7,r3,#30
 1635              	.LVL145:
 876:Drivers/STM32G4xx_HAL_Driver/Src/stm32g4xx_hal_rcc.c ****   {
 1636              	 .loc 1 876 6 view .LVU582
 1637 00a2 36D4     	 bmi .L167
 896:Drivers/STM32G4xx_HAL_Driver/Src/stm32g4xx_hal_rcc.c ****     {
 1638              	 .loc 1 896 5 is_stmt 1 view .LVU583
 896:Drivers/STM32G4xx_HAL_Driver/Src/stm32g4xx_hal_rcc.c ****     {
 1639              	 .loc 1 896 7 is_stmt 0 view .LVU584
 1640 00a4 B9F1000F 	 cmp r9,#0
 1641 00a8 03D0     	 beq .L168
 898:Drivers/STM32G4xx_HAL_Driver/Src/stm32g4xx_hal_rcc.c ****     }
 1642              	 .loc 1 898 7 is_stmt 1 view .LVU585
 1643 00aa B368     	 ldr r3,[r6,#8]
 1644 00ac 23F0F003 	 bic r3,r3,#240
 1645 00b0 B360     	 str r3,[r6,#8]
 1646              	.LVL146:
 1647              	.L168:
 903:Drivers/STM32G4xx_HAL_Driver/Src/stm32g4xx_hal_rcc.c ****   {
 1648              	 .loc 1 903 3 view .LVU586
 903:Drivers/STM32G4xx_HAL_Driver/Src/stm32g4xx_hal_rcc.c ****   {
 1649              	 .loc 1 903 18 is_stmt 0 view .LVU587
 1650 00b2 4D4E     	 ldr r6,.L226
 1651 00b4 3368     	 ldr r3,[r6]
 1652 00b6 03F00F03 	 and r3,r3,#15
 903:Drivers/STM32G4xx_HAL_Driver/Src/stm32g4xx_hal_rcc.c ****   {
 1653              	 .loc 1 903 6 view .LVU588
 1654 00ba AB42     	 cmp r3,r5
 1655 00bc 46D8     	 bhi .L185
 1656              	.L191:
 922:Drivers/STM32G4xx_HAL_Driver/Src/stm32g4xx_hal_rcc.c ****   {
 1657              	 .loc 1 922 3 is_stmt 1 view .LVU589
 922:Drivers/STM32G4xx_HAL_Driver/Src/stm32g4xx_hal_rcc.c ****   {
 1658              	 .loc 1 922 26 is_stmt 0 view .LVU590
 1659 00be 2368     	 ldr r3,[r4]
 922:Drivers/STM32G4xx_HAL_Driver/Src/stm32g4xx_hal_rcc.c ****   {
 1660              	 .loc 1 922 6 view .LVU591
ARM GAS   			page 56


 1661 00c0 5A07     	 lsls r2,r3,#29
 1662 00c2 06D5     	 bpl .L187
 924:Drivers/STM32G4xx_HAL_Driver/Src/stm32g4xx_hal_rcc.c ****     MODIFY_REG(RCC->CFGR, RCC_CFGR_PPRE1, RCC_ClkInitStruct->APB1CLKDivider);
 1663              	 .loc 1 924 5 is_stmt 1 view .LVU592
 925:Drivers/STM32G4xx_HAL_Driver/Src/stm32g4xx_hal_rcc.c ****   }
 1664              	 .loc 1 925 5 view .LVU593
 1665 00c4 4949     	 ldr r1,.L226+4
 1666 00c6 E068     	 ldr r0,[r4,#12]
 1667 00c8 8A68     	 ldr r2,[r1,#8]
 1668 00ca 22F4E062 	 bic r2,r2,#1792
 1669 00ce 0243     	 orrs r2,r2,r0
 1670 00d0 8A60     	 str r2,[r1,#8]
 1671              	.L187:
 929:Drivers/STM32G4xx_HAL_Driver/Src/stm32g4xx_hal_rcc.c ****   {
 1672              	 .loc 1 929 3 view .LVU594
 929:Drivers/STM32G4xx_HAL_Driver/Src/stm32g4xx_hal_rcc.c ****   {
 1673              	 .loc 1 929 5 is_stmt 0 view .LVU595
 1674 00d2 1B07     	 lsls r3,r3,#28
 1675 00d4 07D5     	 bpl .L192
 931:Drivers/STM32G4xx_HAL_Driver/Src/stm32g4xx_hal_rcc.c ****     MODIFY_REG(RCC->CFGR, RCC_CFGR_PPRE2, ((RCC_ClkInitStruct->APB2CLKDivider) << 3U));
 1676              	 .loc 1 931 5 is_stmt 1 view .LVU596
 932:Drivers/STM32G4xx_HAL_Driver/Src/stm32g4xx_hal_rcc.c ****   }
 1677              	 .loc 1 932 5 view .LVU597
 1678 00d6 454A     	 ldr r2,.L226+4
 1679 00d8 2169     	 ldr r1,[r4,#16]
 1680 00da 9368     	 ldr r3,[r2,#8]
 1681 00dc 23F46053 	 bic r3,r3,#14336
 1682 00e0 43EAC103 	 orr r3,r3,r1,lsl#3
 1683 00e4 9360     	 str r3,[r2,#8]
 1684              	.L192:
 936:Drivers/STM32G4xx_HAL_Driver/Src/stm32g4xx_hal_rcc.c **** 
 1685              	 .loc 1 936 3 view .LVU598
 936:Drivers/STM32G4xx_HAL_Driver/Src/stm32g4xx_hal_rcc.c **** 
 1686              	 .loc 1 936 21 is_stmt 0 view .LVU599
 1687 00e6 FFF7FEFF 	 bl HAL_RCC_GetSysClockFreq
 1688              	.LVL147:
 936:Drivers/STM32G4xx_HAL_Driver/Src/stm32g4xx_hal_rcc.c **** 
 1689              	 .loc 1 936 65 discriminator 1 view .LVU600
 1690 00ea 404A     	 ldr r2,.L226+4
 936:Drivers/STM32G4xx_HAL_Driver/Src/stm32g4xx_hal_rcc.c **** 
 1691              	 .loc 1 936 64 discriminator 1 view .LVU601
 1692 00ec 414C     	 ldr r4,.L226+12
 1693              	.LVL148:
 936:Drivers/STM32G4xx_HAL_Driver/Src/stm32g4xx_hal_rcc.c **** 
 1694              	 .loc 1 936 65 discriminator 1 view .LVU602
 1695 00ee 9268     	 ldr r2,[r2,#8]
 936:Drivers/STM32G4xx_HAL_Driver/Src/stm32g4xx_hal_rcc.c **** 
 1696              	 .loc 1 936 19 discriminator 1 view .LVU603
 1697 00f0 4149     	 ldr r1,.L226+16
 936:Drivers/STM32G4xx_HAL_Driver/Src/stm32g4xx_hal_rcc.c **** 
 1698              	 .loc 1 936 100 discriminator 1 view .LVU604
 1699 00f2 C2F30312 	 ubfx r2,r2,#4,#4
 936:Drivers/STM32G4xx_HAL_Driver/Src/stm32g4xx_hal_rcc.c **** 
 1700              	 .loc 1 936 21 view .LVU605
 1701 00f6 0346     	 mov r3,r0
 936:Drivers/STM32G4xx_HAL_Driver/Src/stm32g4xx_hal_rcc.c **** 
 1702              	 .loc 1 936 122 discriminator 1 view .LVU606
ARM GAS   			page 57


 1703 00f8 A25C     	 ldrb r2,[r4,r2]
 939:Drivers/STM32G4xx_HAL_Driver/Src/stm32g4xx_hal_rcc.c **** }
 1704              	 .loc 1 939 10 view .LVU607
 1705 00fa 4048     	 ldr r0,.L226+20
 936:Drivers/STM32G4xx_HAL_Driver/Src/stm32g4xx_hal_rcc.c **** 
 1706              	 .loc 1 936 122 discriminator 1 view .LVU608
 1707 00fc 02F01F02 	 and r2,r2,#31
 936:Drivers/STM32G4xx_HAL_Driver/Src/stm32g4xx_hal_rcc.c **** 
 1708              	 .loc 1 936 47 discriminator 1 view .LVU609
 1709 0100 D340     	 lsrs r3,r3,r2
 936:Drivers/STM32G4xx_HAL_Driver/Src/stm32g4xx_hal_rcc.c **** 
 1710              	 .loc 1 936 19 discriminator 1 view .LVU610
 1711 0102 0B60     	 str r3,[r1]
 939:Drivers/STM32G4xx_HAL_Driver/Src/stm32g4xx_hal_rcc.c **** }
 1712              	 .loc 1 939 3 is_stmt 1 view .LVU611
 939:Drivers/STM32G4xx_HAL_Driver/Src/stm32g4xx_hal_rcc.c **** }
 1713              	 .loc 1 939 10 is_stmt 0 view .LVU612
 1714 0104 0068     	 ldr r0,[r0]
 940:Drivers/STM32G4xx_HAL_Driver/Src/stm32g4xx_hal_rcc.c **** 
 1715              	 .loc 1 940 1 view .LVU613
 1716 0106 BDE8F843 	 pop {r3,r4,r5,r6,r7,r8,r9,lr}
 1717              	 .cfi_remember_state
 1718              	 .cfi_restore 14
 1719              	 .cfi_restore 9
 1720              	 .cfi_restore 8
 1721              	 .cfi_restore 7
 1722              	 .cfi_restore 6
 1723              	 .cfi_restore 5
 1724              	 .cfi_restore 4
 1725              	 .cfi_restore 3
 1726              	 .cfi_def_cfa_offset 0
 1727              	.LVL149:
 939:Drivers/STM32G4xx_HAL_Driver/Src/stm32g4xx_hal_rcc.c **** }
 1728              	 .loc 1 939 10 view .LVU614
 1729 010a FFF7FEBF 	 b HAL_InitTick
 1730              	.LVL150:
 1731              	.L223:
 1732              	 .cfi_restore_state
 876:Drivers/STM32G4xx_HAL_Driver/Src/stm32g4xx_hal_rcc.c ****   {
 1733              	 .loc 1 876 3 is_stmt 1 view .LVU615
 876:Drivers/STM32G4xx_HAL_Driver/Src/stm32g4xx_hal_rcc.c ****   {
 1734              	 .loc 1 876 6 is_stmt 0 view .LVU616
 1735 010e 9E07     	 lsls r6,r3,#30
 1736 0110 CFD5     	 bpl .L168
 1737              	.LVL151:
 1738              	.L167:
 880:Drivers/STM32G4xx_HAL_Driver/Src/stm32g4xx_hal_rcc.c ****     {
 1739              	 .loc 1 880 5 is_stmt 1 view .LVU617
 880:Drivers/STM32G4xx_HAL_Driver/Src/stm32g4xx_hal_rcc.c ****     {
 1740              	 .loc 1 880 8 is_stmt 0 view .LVU618
 1741 0112 5807     	 lsls r0,r3,#29
 1742 0114 04D5     	 bpl .L182
 882:Drivers/STM32G4xx_HAL_Driver/Src/stm32g4xx_hal_rcc.c ****     }
 1743              	 .loc 1 882 7 is_stmt 1 view .LVU619
 1744 0116 3549     	 ldr r1,.L226+4
 1745 0118 8A68     	 ldr r2,[r1,#8]
 1746 011a 42F4E062 	 orr r2,r2,#1792
ARM GAS   			page 58


 1747 011e 8A60     	 str r2,[r1,#8]
 1748              	.L182:
 884:Drivers/STM32G4xx_HAL_Driver/Src/stm32g4xx_hal_rcc.c ****     {
 1749              	 .loc 1 884 5 view .LVU620
 884:Drivers/STM32G4xx_HAL_Driver/Src/stm32g4xx_hal_rcc.c ****     {
 1750              	 .loc 1 884 8 is_stmt 0 view .LVU621
 1751 0120 1907     	 lsls r1,r3,#28
 1752 0122 06D5     	 bpl .L183
 886:Drivers/STM32G4xx_HAL_Driver/Src/stm32g4xx_hal_rcc.c ****     }
 1753              	 .loc 1 886 7 is_stmt 1 view .LVU622
 1754 0124 314A     	 ldr r2,.L226+4
 1755 0126 9368     	 ldr r3,[r2,#8]
 1756 0128 23F47C53 	 bic r3,r3,#16128
 1757 012c 43F4E063 	 orr r3,r3,#1792
 1758 0130 9360     	 str r3,[r2,#8]
 1759              	.L183:
 890:Drivers/STM32G4xx_HAL_Driver/Src/stm32g4xx_hal_rcc.c ****     MODIFY_REG(RCC->CFGR, RCC_CFGR_HPRE, RCC_ClkInitStruct->AHBCLKDivider);
 1760              	 .loc 1 890 5 view .LVU623
 891:Drivers/STM32G4xx_HAL_Driver/Src/stm32g4xx_hal_rcc.c ****   }
 1761              	 .loc 1 891 5 view .LVU624
 1762 0132 2E4A     	 ldr r2,.L226+4
 1763 0134 A168     	 ldr r1,[r4,#8]
 1764 0136 9368     	 ldr r3,[r2,#8]
 903:Drivers/STM32G4xx_HAL_Driver/Src/stm32g4xx_hal_rcc.c ****   {
 1765              	 .loc 1 903 18 is_stmt 0 view .LVU625
 1766 0138 2B4E     	 ldr r6,.L226
 891:Drivers/STM32G4xx_HAL_Driver/Src/stm32g4xx_hal_rcc.c ****   }
 1767              	 .loc 1 891 5 view .LVU626
 1768 013a 23F0F003 	 bic r3,r3,#240
 1769 013e 0B43     	 orrs r3,r3,r1
 1770 0140 9360     	 str r3,[r2,#8]
 903:Drivers/STM32G4xx_HAL_Driver/Src/stm32g4xx_hal_rcc.c ****   {
 1771              	 .loc 1 903 3 is_stmt 1 view .LVU627
 903:Drivers/STM32G4xx_HAL_Driver/Src/stm32g4xx_hal_rcc.c ****   {
 1772              	 .loc 1 903 18 is_stmt 0 view .LVU628
 1773 0142 3368     	 ldr r3,[r6]
 1774 0144 03F00F03 	 and r3,r3,#15
 903:Drivers/STM32G4xx_HAL_Driver/Src/stm32g4xx_hal_rcc.c ****   {
 1775              	 .loc 1 903 6 view .LVU629
 1776 0148 AB42     	 cmp r3,r5
 1777 014a B8D9     	 bls .L191
 1778              	.L185:
 906:Drivers/STM32G4xx_HAL_Driver/Src/stm32g4xx_hal_rcc.c **** 
 1779              	 .loc 1 906 5 is_stmt 1 view .LVU630
 1780 014c 3368     	 ldr r3,[r6]
 1781 014e 23F00F03 	 bic r3,r3,#15
 1782 0152 2B43     	 orrs r3,r3,r5
 1783 0154 3360     	 str r3,[r6]
 910:Drivers/STM32G4xx_HAL_Driver/Src/stm32g4xx_hal_rcc.c **** 
 1784              	 .loc 1 910 5 view .LVU631
 910:Drivers/STM32G4xx_HAL_Driver/Src/stm32g4xx_hal_rcc.c **** 
 1785              	 .loc 1 910 17 is_stmt 0 view .LVU632
 1786 0156 FFF7FEFF 	 bl HAL_GetTick
 1787              	.LVL152:
 914:Drivers/STM32G4xx_HAL_Driver/Src/stm32g4xx_hal_rcc.c ****       {
 1788              	 .loc 1 914 10 discriminator 1 view .LVU633
 1789 015a 41F28838 	 movw r8,#5000
ARM GAS   			page 59


 910:Drivers/STM32G4xx_HAL_Driver/Src/stm32g4xx_hal_rcc.c **** 
 1790              	 .loc 1 910 17 view .LVU634
 1791 015e 0746     	 mov r7,r0
 1792              	.LVL153:
 912:Drivers/STM32G4xx_HAL_Driver/Src/stm32g4xx_hal_rcc.c ****     {
 1793              	 .loc 1 912 5 is_stmt 1 view .LVU635
 1794              	.L188:
 914:Drivers/STM32G4xx_HAL_Driver/Src/stm32g4xx_hal_rcc.c ****       {
 1795              	 .loc 1 914 7 view .LVU636
 912:Drivers/STM32G4xx_HAL_Driver/Src/stm32g4xx_hal_rcc.c ****     {
 1796              	 .loc 1 912 38 view .LVU637
 912:Drivers/STM32G4xx_HAL_Driver/Src/stm32g4xx_hal_rcc.c ****     {
 1797              	 .loc 1 912 12 is_stmt 0 view .LVU638
 1798 0160 3368     	 ldr r3,[r6]
 1799 0162 03F00F03 	 and r3,r3,#15
 912:Drivers/STM32G4xx_HAL_Driver/Src/stm32g4xx_hal_rcc.c ****     {
 1800              	 .loc 1 912 38 view .LVU639
 1801 0166 AB42     	 cmp r3,r5
 1802 0168 A9D0     	 beq .L191
 914:Drivers/STM32G4xx_HAL_Driver/Src/stm32g4xx_hal_rcc.c ****       {
 1803              	 .loc 1 914 12 view .LVU640
 1804 016a FFF7FEFF 	 bl HAL_GetTick
 1805              	.LVL154:
 914:Drivers/STM32G4xx_HAL_Driver/Src/stm32g4xx_hal_rcc.c ****       {
 1806              	 .loc 1 914 26 discriminator 1 view .LVU641
 1807 016e C01B     	 subs r0,r0,r7
 914:Drivers/STM32G4xx_HAL_Driver/Src/stm32g4xx_hal_rcc.c ****       {
 1808              	 .loc 1 914 10 discriminator 1 view .LVU642
 1809 0170 4045     	 cmp r0,r8
 1810 0172 F5D9     	 bls .L188
 1811              	.L189:
 870:Drivers/STM32G4xx_HAL_Driver/Src/stm32g4xx_hal_rcc.c ****       }
 1812              	 .loc 1 870 16 view .LVU643
 1813 0174 0320     	 movs r0,#3
 940:Drivers/STM32G4xx_HAL_Driver/Src/stm32g4xx_hal_rcc.c **** 
 1814              	 .loc 1 940 1 view .LVU644
 1815 0176 BDE8F883 	 pop {r3,r4,r5,r6,r7,r8,r9,pc}
 1816              	.LVL155:
 1817              	.L225:
 835:Drivers/STM32G4xx_HAL_Driver/Src/stm32g4xx_hal_rcc.c ****         {
 1818              	 .loc 1 835 9 is_stmt 1 view .LVU645
 835:Drivers/STM32G4xx_HAL_Driver/Src/stm32g4xx_hal_rcc.c ****         {
 1819              	 .loc 1 835 11 is_stmt 0 view .LVU646
 1820 017a 9A03     	 lsls r2,r3,#14
 1821 017c 3FF568AF 	 bmi .L177
 1822 0180 55E7     	 b .L165
 1823              	.L224:
 809:Drivers/STM32G4xx_HAL_Driver/Src/stm32g4xx_hal_rcc.c ****       {
 1824              	 .loc 1 809 7 is_stmt 1 view .LVU647
 809:Drivers/STM32G4xx_HAL_Driver/Src/stm32g4xx_hal_rcc.c ****       {
 1825              	 .loc 1 809 11 is_stmt 0 view .LVU648
 1826 0182 1A4A     	 ldr r2,.L226+4
 1827 0184 1168     	 ldr r1,[r2]
 1828              	.LVL156:
 809:Drivers/STM32G4xx_HAL_Driver/Src/stm32g4xx_hal_rcc.c ****       {
 1829              	 .loc 1 809 10 view .LVU649
 1830 0186 8801     	 lsls r0,r1,#6
ARM GAS   			page 60


 1831              	.LVL157:
 809:Drivers/STM32G4xx_HAL_Driver/Src/stm32g4xx_hal_rcc.c ****       {
 1832              	 .loc 1 809 10 view .LVU650
 1833 0188 7FF551AF 	 bpl .L165
 815:Drivers/STM32G4xx_HAL_Driver/Src/stm32g4xx_hal_rcc.c **** 
 1834              	 .loc 1 815 7 is_stmt 1 view .LVU651
 1835              	.LBB17:
 1836              	.LBI17:
1109:Drivers/STM32G4xx_HAL_Driver/Src/stm32g4xx_hal_rcc.c **** 
1110:Drivers/STM32G4xx_HAL_Driver/Src/stm32g4xx_hal_rcc.c **** /**
1111:Drivers/STM32G4xx_HAL_Driver/Src/stm32g4xx_hal_rcc.c ****   * @brief  Return the HCLK frequency.
1112:Drivers/STM32G4xx_HAL_Driver/Src/stm32g4xx_hal_rcc.c ****   * @note   Each time HCLK changes, this function must be called to update the
1113:Drivers/STM32G4xx_HAL_Driver/Src/stm32g4xx_hal_rcc.c ****   *         right HCLK value. Otherwise, any configuration based on this function will be incorrect
1114:Drivers/STM32G4xx_HAL_Driver/Src/stm32g4xx_hal_rcc.c ****   *
1115:Drivers/STM32G4xx_HAL_Driver/Src/stm32g4xx_hal_rcc.c ****   * @note   The SystemCoreClock CMSIS variable is used to store System Clock Frequency.
1116:Drivers/STM32G4xx_HAL_Driver/Src/stm32g4xx_hal_rcc.c ****   * @retval HCLK frequency in Hz
1117:Drivers/STM32G4xx_HAL_Driver/Src/stm32g4xx_hal_rcc.c ****   */
1118:Drivers/STM32G4xx_HAL_Driver/Src/stm32g4xx_hal_rcc.c **** uint32_t HAL_RCC_GetHCLKFreq(void)
1119:Drivers/STM32G4xx_HAL_Driver/Src/stm32g4xx_hal_rcc.c **** {
1120:Drivers/STM32G4xx_HAL_Driver/Src/stm32g4xx_hal_rcc.c ****   return SystemCoreClock;
1121:Drivers/STM32G4xx_HAL_Driver/Src/stm32g4xx_hal_rcc.c **** }
1122:Drivers/STM32G4xx_HAL_Driver/Src/stm32g4xx_hal_rcc.c **** 
1123:Drivers/STM32G4xx_HAL_Driver/Src/stm32g4xx_hal_rcc.c **** /**
1124:Drivers/STM32G4xx_HAL_Driver/Src/stm32g4xx_hal_rcc.c ****   * @brief  Return the PCLK1 frequency.
1125:Drivers/STM32G4xx_HAL_Driver/Src/stm32g4xx_hal_rcc.c ****   * @note   Each time PCLK1 changes, this function must be called to update the
1126:Drivers/STM32G4xx_HAL_Driver/Src/stm32g4xx_hal_rcc.c ****   *         right PCLK1 value. Otherwise, any configuration based on this function will be incorrec
1127:Drivers/STM32G4xx_HAL_Driver/Src/stm32g4xx_hal_rcc.c ****   * @retval PCLK1 frequency in Hz
1128:Drivers/STM32G4xx_HAL_Driver/Src/stm32g4xx_hal_rcc.c ****   */
1129:Drivers/STM32G4xx_HAL_Driver/Src/stm32g4xx_hal_rcc.c **** uint32_t HAL_RCC_GetPCLK1Freq(void)
1130:Drivers/STM32G4xx_HAL_Driver/Src/stm32g4xx_hal_rcc.c **** {
1131:Drivers/STM32G4xx_HAL_Driver/Src/stm32g4xx_hal_rcc.c ****   /* Get HCLK source and Compute PCLK1 frequency ---------------------------*/
1132:Drivers/STM32G4xx_HAL_Driver/Src/stm32g4xx_hal_rcc.c ****   return (HAL_RCC_GetHCLKFreq() >> (APBPrescTable[READ_BIT(RCC->CFGR, RCC_CFGR_PPRE1) >> RCC_CFGR_P
1133:Drivers/STM32G4xx_HAL_Driver/Src/stm32g4xx_hal_rcc.c **** }
1134:Drivers/STM32G4xx_HAL_Driver/Src/stm32g4xx_hal_rcc.c **** 
1135:Drivers/STM32G4xx_HAL_Driver/Src/stm32g4xx_hal_rcc.c **** /**
1136:Drivers/STM32G4xx_HAL_Driver/Src/stm32g4xx_hal_rcc.c ****   * @brief  Return the PCLK2 frequency.
1137:Drivers/STM32G4xx_HAL_Driver/Src/stm32g4xx_hal_rcc.c ****   * @note   Each time PCLK2 changes, this function must be called to update the
1138:Drivers/STM32G4xx_HAL_Driver/Src/stm32g4xx_hal_rcc.c ****   *         right PCLK2 value. Otherwise, any configuration based on this function will be incorrec
1139:Drivers/STM32G4xx_HAL_Driver/Src/stm32g4xx_hal_rcc.c ****   * @retval PCLK2 frequency in Hz
1140:Drivers/STM32G4xx_HAL_Driver/Src/stm32g4xx_hal_rcc.c ****   */
1141:Drivers/STM32G4xx_HAL_Driver/Src/stm32g4xx_hal_rcc.c **** uint32_t HAL_RCC_GetPCLK2Freq(void)
1142:Drivers/STM32G4xx_HAL_Driver/Src/stm32g4xx_hal_rcc.c **** {
1143:Drivers/STM32G4xx_HAL_Driver/Src/stm32g4xx_hal_rcc.c ****   /* Get HCLK source and Compute PCLK2 frequency ---------------------------*/
1144:Drivers/STM32G4xx_HAL_Driver/Src/stm32g4xx_hal_rcc.c ****   return (HAL_RCC_GetHCLKFreq()>> (APBPrescTable[READ_BIT(RCC->CFGR, RCC_CFGR_PPRE2) >> RCC_CFGR_PP
1145:Drivers/STM32G4xx_HAL_Driver/Src/stm32g4xx_hal_rcc.c **** }
1146:Drivers/STM32G4xx_HAL_Driver/Src/stm32g4xx_hal_rcc.c **** 
1147:Drivers/STM32G4xx_HAL_Driver/Src/stm32g4xx_hal_rcc.c **** /**
1148:Drivers/STM32G4xx_HAL_Driver/Src/stm32g4xx_hal_rcc.c ****   * @brief  Configure the RCC_OscInitStruct according to the internal
1149:Drivers/STM32G4xx_HAL_Driver/Src/stm32g4xx_hal_rcc.c ****   *         RCC configuration registers.
1150:Drivers/STM32G4xx_HAL_Driver/Src/stm32g4xx_hal_rcc.c ****   * @param  RCC_OscInitStruct  pointer to an RCC_OscInitTypeDef structure that
1151:Drivers/STM32G4xx_HAL_Driver/Src/stm32g4xx_hal_rcc.c ****   *         will be configured.
1152:Drivers/STM32G4xx_HAL_Driver/Src/stm32g4xx_hal_rcc.c ****   * @retval None
1153:Drivers/STM32G4xx_HAL_Driver/Src/stm32g4xx_hal_rcc.c ****   */
1154:Drivers/STM32G4xx_HAL_Driver/Src/stm32g4xx_hal_rcc.c **** void HAL_RCC_GetOscConfig(RCC_OscInitTypeDef  *RCC_OscInitStruct)
1155:Drivers/STM32G4xx_HAL_Driver/Src/stm32g4xx_hal_rcc.c **** {
1156:Drivers/STM32G4xx_HAL_Driver/Src/stm32g4xx_hal_rcc.c ****   /* Check the parameters */
1157:Drivers/STM32G4xx_HAL_Driver/Src/stm32g4xx_hal_rcc.c ****   assert_param(RCC_OscInitStruct != (void *)NULL);
ARM GAS   			page 61


1158:Drivers/STM32G4xx_HAL_Driver/Src/stm32g4xx_hal_rcc.c **** 
1159:Drivers/STM32G4xx_HAL_Driver/Src/stm32g4xx_hal_rcc.c ****   /* Set all possible values for the Oscillator type parameter ---------------*/
1160:Drivers/STM32G4xx_HAL_Driver/Src/stm32g4xx_hal_rcc.c ****   RCC_OscInitStruct->OscillatorType = RCC_OSCILLATORTYPE_HSE | RCC_OSCILLATORTYPE_HSI | \
1161:Drivers/STM32G4xx_HAL_Driver/Src/stm32g4xx_hal_rcc.c ****                                       RCC_OSCILLATORTYPE_LSE | RCC_OSCILLATORTYPE_LSI | RCC_OSCILLA
1162:Drivers/STM32G4xx_HAL_Driver/Src/stm32g4xx_hal_rcc.c **** 
1163:Drivers/STM32G4xx_HAL_Driver/Src/stm32g4xx_hal_rcc.c ****   /* Get the HSE configuration -----------------------------------------------*/
1164:Drivers/STM32G4xx_HAL_Driver/Src/stm32g4xx_hal_rcc.c ****   if(READ_BIT(RCC->CR, RCC_CR_HSEBYP) == RCC_CR_HSEBYP)
1165:Drivers/STM32G4xx_HAL_Driver/Src/stm32g4xx_hal_rcc.c ****   {
1166:Drivers/STM32G4xx_HAL_Driver/Src/stm32g4xx_hal_rcc.c ****     RCC_OscInitStruct->HSEState = RCC_HSE_BYPASS;
1167:Drivers/STM32G4xx_HAL_Driver/Src/stm32g4xx_hal_rcc.c ****   }
1168:Drivers/STM32G4xx_HAL_Driver/Src/stm32g4xx_hal_rcc.c ****   else if(READ_BIT(RCC->CR, RCC_CR_HSEON) == RCC_CR_HSEON)
1169:Drivers/STM32G4xx_HAL_Driver/Src/stm32g4xx_hal_rcc.c ****   {
1170:Drivers/STM32G4xx_HAL_Driver/Src/stm32g4xx_hal_rcc.c ****     RCC_OscInitStruct->HSEState = RCC_HSE_ON;
1171:Drivers/STM32G4xx_HAL_Driver/Src/stm32g4xx_hal_rcc.c ****   }
1172:Drivers/STM32G4xx_HAL_Driver/Src/stm32g4xx_hal_rcc.c ****   else
1173:Drivers/STM32G4xx_HAL_Driver/Src/stm32g4xx_hal_rcc.c ****   {
1174:Drivers/STM32G4xx_HAL_Driver/Src/stm32g4xx_hal_rcc.c ****     RCC_OscInitStruct->HSEState = RCC_HSE_OFF;
1175:Drivers/STM32G4xx_HAL_Driver/Src/stm32g4xx_hal_rcc.c ****   }
1176:Drivers/STM32G4xx_HAL_Driver/Src/stm32g4xx_hal_rcc.c **** 
1177:Drivers/STM32G4xx_HAL_Driver/Src/stm32g4xx_hal_rcc.c ****   /* Get the HSI configuration -----------------------------------------------*/
1178:Drivers/STM32G4xx_HAL_Driver/Src/stm32g4xx_hal_rcc.c ****   if(READ_BIT(RCC->CR, RCC_CR_HSION) == RCC_CR_HSION)
1179:Drivers/STM32G4xx_HAL_Driver/Src/stm32g4xx_hal_rcc.c ****   {
1180:Drivers/STM32G4xx_HAL_Driver/Src/stm32g4xx_hal_rcc.c ****     RCC_OscInitStruct->HSIState = RCC_HSI_ON;
1181:Drivers/STM32G4xx_HAL_Driver/Src/stm32g4xx_hal_rcc.c ****   }
1182:Drivers/STM32G4xx_HAL_Driver/Src/stm32g4xx_hal_rcc.c ****   else
1183:Drivers/STM32G4xx_HAL_Driver/Src/stm32g4xx_hal_rcc.c ****   {
1184:Drivers/STM32G4xx_HAL_Driver/Src/stm32g4xx_hal_rcc.c ****     RCC_OscInitStruct->HSIState = RCC_HSI_OFF;
1185:Drivers/STM32G4xx_HAL_Driver/Src/stm32g4xx_hal_rcc.c ****   }
1186:Drivers/STM32G4xx_HAL_Driver/Src/stm32g4xx_hal_rcc.c **** 
1187:Drivers/STM32G4xx_HAL_Driver/Src/stm32g4xx_hal_rcc.c ****   RCC_OscInitStruct->HSICalibrationValue = READ_BIT(RCC->ICSCR, RCC_ICSCR_HSITRIM) >> RCC_ICSCR_HSI
1188:Drivers/STM32G4xx_HAL_Driver/Src/stm32g4xx_hal_rcc.c **** 
1189:Drivers/STM32G4xx_HAL_Driver/Src/stm32g4xx_hal_rcc.c ****   /* Get the LSE configuration -----------------------------------------------*/
1190:Drivers/STM32G4xx_HAL_Driver/Src/stm32g4xx_hal_rcc.c ****   if(READ_BIT(RCC->BDCR, RCC_BDCR_LSEBYP) == RCC_BDCR_LSEBYP)
1191:Drivers/STM32G4xx_HAL_Driver/Src/stm32g4xx_hal_rcc.c ****   {
1192:Drivers/STM32G4xx_HAL_Driver/Src/stm32g4xx_hal_rcc.c ****     RCC_OscInitStruct->LSEState = RCC_LSE_BYPASS;
1193:Drivers/STM32G4xx_HAL_Driver/Src/stm32g4xx_hal_rcc.c ****   }
1194:Drivers/STM32G4xx_HAL_Driver/Src/stm32g4xx_hal_rcc.c ****   else if(READ_BIT(RCC->BDCR, RCC_BDCR_LSEON) == RCC_BDCR_LSEON)
1195:Drivers/STM32G4xx_HAL_Driver/Src/stm32g4xx_hal_rcc.c ****   {
1196:Drivers/STM32G4xx_HAL_Driver/Src/stm32g4xx_hal_rcc.c ****     RCC_OscInitStruct->LSEState = RCC_LSE_ON;
1197:Drivers/STM32G4xx_HAL_Driver/Src/stm32g4xx_hal_rcc.c ****   }
1198:Drivers/STM32G4xx_HAL_Driver/Src/stm32g4xx_hal_rcc.c ****   else
1199:Drivers/STM32G4xx_HAL_Driver/Src/stm32g4xx_hal_rcc.c ****   {
1200:Drivers/STM32G4xx_HAL_Driver/Src/stm32g4xx_hal_rcc.c ****     RCC_OscInitStruct->LSEState = RCC_LSE_OFF;
1201:Drivers/STM32G4xx_HAL_Driver/Src/stm32g4xx_hal_rcc.c ****   }
1202:Drivers/STM32G4xx_HAL_Driver/Src/stm32g4xx_hal_rcc.c **** 
1203:Drivers/STM32G4xx_HAL_Driver/Src/stm32g4xx_hal_rcc.c ****   /* Get the LSI configuration -----------------------------------------------*/
1204:Drivers/STM32G4xx_HAL_Driver/Src/stm32g4xx_hal_rcc.c ****   if(READ_BIT(RCC->CSR, RCC_CSR_LSION) == RCC_CSR_LSION)
1205:Drivers/STM32G4xx_HAL_Driver/Src/stm32g4xx_hal_rcc.c ****   {
1206:Drivers/STM32G4xx_HAL_Driver/Src/stm32g4xx_hal_rcc.c ****     RCC_OscInitStruct->LSIState = RCC_LSI_ON;
1207:Drivers/STM32G4xx_HAL_Driver/Src/stm32g4xx_hal_rcc.c ****   }
1208:Drivers/STM32G4xx_HAL_Driver/Src/stm32g4xx_hal_rcc.c ****   else
1209:Drivers/STM32G4xx_HAL_Driver/Src/stm32g4xx_hal_rcc.c ****   {
1210:Drivers/STM32G4xx_HAL_Driver/Src/stm32g4xx_hal_rcc.c ****     RCC_OscInitStruct->LSIState = RCC_LSI_OFF;
1211:Drivers/STM32G4xx_HAL_Driver/Src/stm32g4xx_hal_rcc.c ****   }
1212:Drivers/STM32G4xx_HAL_Driver/Src/stm32g4xx_hal_rcc.c **** 
1213:Drivers/STM32G4xx_HAL_Driver/Src/stm32g4xx_hal_rcc.c ****   /* Get the HSI48 configuration ---------------------------------------------*/
1214:Drivers/STM32G4xx_HAL_Driver/Src/stm32g4xx_hal_rcc.c ****   if(READ_BIT(RCC->CRRCR, RCC_CRRCR_HSI48ON) == RCC_CRRCR_HSI48ON)
ARM GAS   			page 62


1215:Drivers/STM32G4xx_HAL_Driver/Src/stm32g4xx_hal_rcc.c ****   {
1216:Drivers/STM32G4xx_HAL_Driver/Src/stm32g4xx_hal_rcc.c ****     RCC_OscInitStruct->HSI48State = RCC_HSI48_ON;
1217:Drivers/STM32G4xx_HAL_Driver/Src/stm32g4xx_hal_rcc.c ****   }
1218:Drivers/STM32G4xx_HAL_Driver/Src/stm32g4xx_hal_rcc.c ****   else
1219:Drivers/STM32G4xx_HAL_Driver/Src/stm32g4xx_hal_rcc.c ****   {
1220:Drivers/STM32G4xx_HAL_Driver/Src/stm32g4xx_hal_rcc.c ****     RCC_OscInitStruct->HSI48State = RCC_HSI48_OFF;
1221:Drivers/STM32G4xx_HAL_Driver/Src/stm32g4xx_hal_rcc.c ****   }
1222:Drivers/STM32G4xx_HAL_Driver/Src/stm32g4xx_hal_rcc.c **** 
1223:Drivers/STM32G4xx_HAL_Driver/Src/stm32g4xx_hal_rcc.c ****   /* Get the PLL configuration -----------------------------------------------*/
1224:Drivers/STM32G4xx_HAL_Driver/Src/stm32g4xx_hal_rcc.c ****   if(READ_BIT(RCC->CR, RCC_CR_PLLON) == RCC_CR_PLLON)
1225:Drivers/STM32G4xx_HAL_Driver/Src/stm32g4xx_hal_rcc.c ****   {
1226:Drivers/STM32G4xx_HAL_Driver/Src/stm32g4xx_hal_rcc.c ****     RCC_OscInitStruct->PLL.PLLState = RCC_PLL_ON;
1227:Drivers/STM32G4xx_HAL_Driver/Src/stm32g4xx_hal_rcc.c ****   }
1228:Drivers/STM32G4xx_HAL_Driver/Src/stm32g4xx_hal_rcc.c ****   else
1229:Drivers/STM32G4xx_HAL_Driver/Src/stm32g4xx_hal_rcc.c ****   {
1230:Drivers/STM32G4xx_HAL_Driver/Src/stm32g4xx_hal_rcc.c ****     RCC_OscInitStruct->PLL.PLLState = RCC_PLL_OFF;
1231:Drivers/STM32G4xx_HAL_Driver/Src/stm32g4xx_hal_rcc.c ****   }
1232:Drivers/STM32G4xx_HAL_Driver/Src/stm32g4xx_hal_rcc.c ****   RCC_OscInitStruct->PLL.PLLSource = READ_BIT(RCC->PLLCFGR, RCC_PLLCFGR_PLLSRC);
1233:Drivers/STM32G4xx_HAL_Driver/Src/stm32g4xx_hal_rcc.c ****   RCC_OscInitStruct->PLL.PLLM = (READ_BIT(RCC->PLLCFGR, RCC_PLLCFGR_PLLM) >> RCC_PLLCFGR_PLLM_Pos) 
1234:Drivers/STM32G4xx_HAL_Driver/Src/stm32g4xx_hal_rcc.c ****   RCC_OscInitStruct->PLL.PLLN = READ_BIT(RCC->PLLCFGR, RCC_PLLCFGR_PLLN) >> RCC_PLLCFGR_PLLN_Pos;
1235:Drivers/STM32G4xx_HAL_Driver/Src/stm32g4xx_hal_rcc.c ****   RCC_OscInitStruct->PLL.PLLQ = (((READ_BIT(RCC->PLLCFGR, RCC_PLLCFGR_PLLQ) >> RCC_PLLCFGR_PLLQ_Pos
1236:Drivers/STM32G4xx_HAL_Driver/Src/stm32g4xx_hal_rcc.c ****   RCC_OscInitStruct->PLL.PLLR = (((READ_BIT(RCC->PLLCFGR, RCC_PLLCFGR_PLLR) >> RCC_PLLCFGR_PLLR_Pos
1237:Drivers/STM32G4xx_HAL_Driver/Src/stm32g4xx_hal_rcc.c ****   RCC_OscInitStruct->PLL.PLLP = READ_BIT(RCC->PLLCFGR, RCC_PLLCFGR_PLLPDIV) >> RCC_PLLCFGR_PLLPDIV_
1238:Drivers/STM32G4xx_HAL_Driver/Src/stm32g4xx_hal_rcc.c **** }
1239:Drivers/STM32G4xx_HAL_Driver/Src/stm32g4xx_hal_rcc.c **** 
1240:Drivers/STM32G4xx_HAL_Driver/Src/stm32g4xx_hal_rcc.c **** /**
1241:Drivers/STM32G4xx_HAL_Driver/Src/stm32g4xx_hal_rcc.c ****   * @brief  Configure the RCC_ClkInitStruct according to the internal
1242:Drivers/STM32G4xx_HAL_Driver/Src/stm32g4xx_hal_rcc.c ****   *         RCC configuration registers.
1243:Drivers/STM32G4xx_HAL_Driver/Src/stm32g4xx_hal_rcc.c ****   * @param  RCC_ClkInitStruct  pointer to an RCC_ClkInitTypeDef structure that
1244:Drivers/STM32G4xx_HAL_Driver/Src/stm32g4xx_hal_rcc.c ****   *         will be configured.
1245:Drivers/STM32G4xx_HAL_Driver/Src/stm32g4xx_hal_rcc.c ****   * @param  pFLatency  Pointer on the Flash Latency.
1246:Drivers/STM32G4xx_HAL_Driver/Src/stm32g4xx_hal_rcc.c ****   * @retval None
1247:Drivers/STM32G4xx_HAL_Driver/Src/stm32g4xx_hal_rcc.c ****   */
1248:Drivers/STM32G4xx_HAL_Driver/Src/stm32g4xx_hal_rcc.c **** void HAL_RCC_GetClockConfig(RCC_ClkInitTypeDef  *RCC_ClkInitStruct, uint32_t *pFLatency)
1249:Drivers/STM32G4xx_HAL_Driver/Src/stm32g4xx_hal_rcc.c **** {
1250:Drivers/STM32G4xx_HAL_Driver/Src/stm32g4xx_hal_rcc.c ****   /* Check the parameters */
1251:Drivers/STM32G4xx_HAL_Driver/Src/stm32g4xx_hal_rcc.c ****   assert_param(RCC_ClkInitStruct != (void  *)NULL);
1252:Drivers/STM32G4xx_HAL_Driver/Src/stm32g4xx_hal_rcc.c ****   assert_param(pFLatency != (void *)NULL);
1253:Drivers/STM32G4xx_HAL_Driver/Src/stm32g4xx_hal_rcc.c **** 
1254:Drivers/STM32G4xx_HAL_Driver/Src/stm32g4xx_hal_rcc.c ****   /* Set all possible values for the Clock type parameter --------------------*/
1255:Drivers/STM32G4xx_HAL_Driver/Src/stm32g4xx_hal_rcc.c ****   RCC_ClkInitStruct->ClockType = RCC_CLOCKTYPE_SYSCLK | RCC_CLOCKTYPE_HCLK | RCC_CLOCKTYPE_PCLK1 | 
1256:Drivers/STM32G4xx_HAL_Driver/Src/stm32g4xx_hal_rcc.c **** 
1257:Drivers/STM32G4xx_HAL_Driver/Src/stm32g4xx_hal_rcc.c ****   /* Get the SYSCLK configuration --------------------------------------------*/
1258:Drivers/STM32G4xx_HAL_Driver/Src/stm32g4xx_hal_rcc.c ****   RCC_ClkInitStruct->SYSCLKSource = READ_BIT(RCC->CFGR, RCC_CFGR_SW);
1259:Drivers/STM32G4xx_HAL_Driver/Src/stm32g4xx_hal_rcc.c **** 
1260:Drivers/STM32G4xx_HAL_Driver/Src/stm32g4xx_hal_rcc.c ****   /* Get the HCLK configuration ----------------------------------------------*/
1261:Drivers/STM32G4xx_HAL_Driver/Src/stm32g4xx_hal_rcc.c ****   RCC_ClkInitStruct->AHBCLKDivider = READ_BIT(RCC->CFGR, RCC_CFGR_HPRE);
1262:Drivers/STM32G4xx_HAL_Driver/Src/stm32g4xx_hal_rcc.c **** 
1263:Drivers/STM32G4xx_HAL_Driver/Src/stm32g4xx_hal_rcc.c ****   /* Get the APB1 configuration ----------------------------------------------*/
1264:Drivers/STM32G4xx_HAL_Driver/Src/stm32g4xx_hal_rcc.c ****   RCC_ClkInitStruct->APB1CLKDivider = READ_BIT(RCC->CFGR, RCC_CFGR_PPRE1);
1265:Drivers/STM32G4xx_HAL_Driver/Src/stm32g4xx_hal_rcc.c **** 
1266:Drivers/STM32G4xx_HAL_Driver/Src/stm32g4xx_hal_rcc.c ****   /* Get the APB2 configuration ----------------------------------------------*/
1267:Drivers/STM32G4xx_HAL_Driver/Src/stm32g4xx_hal_rcc.c ****   RCC_ClkInitStruct->APB2CLKDivider = (READ_BIT(RCC->CFGR, RCC_CFGR_PPRE2) >> 3U);
1268:Drivers/STM32G4xx_HAL_Driver/Src/stm32g4xx_hal_rcc.c **** 
1269:Drivers/STM32G4xx_HAL_Driver/Src/stm32g4xx_hal_rcc.c ****   /* Get the Flash Wait State (Latency) configuration ------------------------*/
1270:Drivers/STM32G4xx_HAL_Driver/Src/stm32g4xx_hal_rcc.c ****   *pFLatency = __HAL_FLASH_GET_LATENCY();
1271:Drivers/STM32G4xx_HAL_Driver/Src/stm32g4xx_hal_rcc.c **** }
ARM GAS   			page 63


1272:Drivers/STM32G4xx_HAL_Driver/Src/stm32g4xx_hal_rcc.c **** 
1273:Drivers/STM32G4xx_HAL_Driver/Src/stm32g4xx_hal_rcc.c **** /**
1274:Drivers/STM32G4xx_HAL_Driver/Src/stm32g4xx_hal_rcc.c ****   * @brief  Enable the Clock Security System.
1275:Drivers/STM32G4xx_HAL_Driver/Src/stm32g4xx_hal_rcc.c ****   * @note   If a failure is detected on the HSE oscillator clock, this oscillator
1276:Drivers/STM32G4xx_HAL_Driver/Src/stm32g4xx_hal_rcc.c ****   *         is automatically disabled and an interrupt is generated to inform the
1277:Drivers/STM32G4xx_HAL_Driver/Src/stm32g4xx_hal_rcc.c ****   *         software about the failure (Clock Security System Interrupt, CSSI),
1278:Drivers/STM32G4xx_HAL_Driver/Src/stm32g4xx_hal_rcc.c ****   *         allowing the MCU to perform rescue operations. The CSSI is linked to
1279:Drivers/STM32G4xx_HAL_Driver/Src/stm32g4xx_hal_rcc.c ****   *         the Cortex-M4 NMI (Non-Maskable Interrupt) exception vector.
1280:Drivers/STM32G4xx_HAL_Driver/Src/stm32g4xx_hal_rcc.c ****   * @note   The Clock Security System can only be cleared by reset.
1281:Drivers/STM32G4xx_HAL_Driver/Src/stm32g4xx_hal_rcc.c ****   * @retval None
1282:Drivers/STM32G4xx_HAL_Driver/Src/stm32g4xx_hal_rcc.c ****   */
1283:Drivers/STM32G4xx_HAL_Driver/Src/stm32g4xx_hal_rcc.c **** void HAL_RCC_EnableCSS(void)
1284:Drivers/STM32G4xx_HAL_Driver/Src/stm32g4xx_hal_rcc.c **** {
1285:Drivers/STM32G4xx_HAL_Driver/Src/stm32g4xx_hal_rcc.c ****   SET_BIT(RCC->CR, RCC_CR_CSSON) ;
1286:Drivers/STM32G4xx_HAL_Driver/Src/stm32g4xx_hal_rcc.c **** }
1287:Drivers/STM32G4xx_HAL_Driver/Src/stm32g4xx_hal_rcc.c **** 
1288:Drivers/STM32G4xx_HAL_Driver/Src/stm32g4xx_hal_rcc.c **** /**
1289:Drivers/STM32G4xx_HAL_Driver/Src/stm32g4xx_hal_rcc.c ****   * @brief  Enable the LSE Clock Security System.
1290:Drivers/STM32G4xx_HAL_Driver/Src/stm32g4xx_hal_rcc.c ****   * @note   If a failure is detected on the external 32 kHz oscillator,
1291:Drivers/STM32G4xx_HAL_Driver/Src/stm32g4xx_hal_rcc.c ****   *         the LSE clock is no longer supplied to the RTC but no hardware action
1292:Drivers/STM32G4xx_HAL_Driver/Src/stm32g4xx_hal_rcc.c ****   *         is made to the registers. If enabled, an interrupt will be generated
1293:Drivers/STM32G4xx_HAL_Driver/Src/stm32g4xx_hal_rcc.c ****   *         and handle through @ref RCCEx_EXTI_LINE_LSECSS
1294:Drivers/STM32G4xx_HAL_Driver/Src/stm32g4xx_hal_rcc.c ****   * @note   The Clock Security System can only be cleared by reset or after a LSE failure detection
1295:Drivers/STM32G4xx_HAL_Driver/Src/stm32g4xx_hal_rcc.c ****   * @retval None
1296:Drivers/STM32G4xx_HAL_Driver/Src/stm32g4xx_hal_rcc.c ****   */
1297:Drivers/STM32G4xx_HAL_Driver/Src/stm32g4xx_hal_rcc.c **** void HAL_RCC_EnableLSECSS(void)
1298:Drivers/STM32G4xx_HAL_Driver/Src/stm32g4xx_hal_rcc.c **** {
1299:Drivers/STM32G4xx_HAL_Driver/Src/stm32g4xx_hal_rcc.c ****   SET_BIT(RCC->BDCR, RCC_BDCR_LSECSSON) ;
1300:Drivers/STM32G4xx_HAL_Driver/Src/stm32g4xx_hal_rcc.c **** }
1301:Drivers/STM32G4xx_HAL_Driver/Src/stm32g4xx_hal_rcc.c **** 
1302:Drivers/STM32G4xx_HAL_Driver/Src/stm32g4xx_hal_rcc.c **** /**
1303:Drivers/STM32G4xx_HAL_Driver/Src/stm32g4xx_hal_rcc.c ****   * @brief  Disable the LSE Clock Security System.
1304:Drivers/STM32G4xx_HAL_Driver/Src/stm32g4xx_hal_rcc.c ****   * @note   After LSE failure detection, the software must disable LSECSSON
1305:Drivers/STM32G4xx_HAL_Driver/Src/stm32g4xx_hal_rcc.c ****   * @note   The Clock Security System can only be cleared by reset otherwise.
1306:Drivers/STM32G4xx_HAL_Driver/Src/stm32g4xx_hal_rcc.c ****   * @retval None
1307:Drivers/STM32G4xx_HAL_Driver/Src/stm32g4xx_hal_rcc.c ****   */
1308:Drivers/STM32G4xx_HAL_Driver/Src/stm32g4xx_hal_rcc.c **** void HAL_RCC_DisableLSECSS(void)
1309:Drivers/STM32G4xx_HAL_Driver/Src/stm32g4xx_hal_rcc.c **** {
1310:Drivers/STM32G4xx_HAL_Driver/Src/stm32g4xx_hal_rcc.c ****   CLEAR_BIT(RCC->BDCR, RCC_BDCR_LSECSSON) ;
1311:Drivers/STM32G4xx_HAL_Driver/Src/stm32g4xx_hal_rcc.c **** }
1312:Drivers/STM32G4xx_HAL_Driver/Src/stm32g4xx_hal_rcc.c **** 
1313:Drivers/STM32G4xx_HAL_Driver/Src/stm32g4xx_hal_rcc.c **** /**
1314:Drivers/STM32G4xx_HAL_Driver/Src/stm32g4xx_hal_rcc.c ****   * @brief Handle the RCC Clock Security System interrupt request.
1315:Drivers/STM32G4xx_HAL_Driver/Src/stm32g4xx_hal_rcc.c ****   * @note This API should be called under the NMI_Handler().
1316:Drivers/STM32G4xx_HAL_Driver/Src/stm32g4xx_hal_rcc.c ****   * @retval None
1317:Drivers/STM32G4xx_HAL_Driver/Src/stm32g4xx_hal_rcc.c ****   */
1318:Drivers/STM32G4xx_HAL_Driver/Src/stm32g4xx_hal_rcc.c **** void HAL_RCC_NMI_IRQHandler(void)
1319:Drivers/STM32G4xx_HAL_Driver/Src/stm32g4xx_hal_rcc.c **** {
1320:Drivers/STM32G4xx_HAL_Driver/Src/stm32g4xx_hal_rcc.c ****   /* Check RCC CSSF interrupt flag  */
1321:Drivers/STM32G4xx_HAL_Driver/Src/stm32g4xx_hal_rcc.c ****   if(__HAL_RCC_GET_IT(RCC_IT_CSS))
1322:Drivers/STM32G4xx_HAL_Driver/Src/stm32g4xx_hal_rcc.c ****   {
1323:Drivers/STM32G4xx_HAL_Driver/Src/stm32g4xx_hal_rcc.c ****     /* RCC Clock Security System interrupt user callback */
1324:Drivers/STM32G4xx_HAL_Driver/Src/stm32g4xx_hal_rcc.c ****     HAL_RCC_CSSCallback();
1325:Drivers/STM32G4xx_HAL_Driver/Src/stm32g4xx_hal_rcc.c **** 
1326:Drivers/STM32G4xx_HAL_Driver/Src/stm32g4xx_hal_rcc.c ****     /* Clear RCC CSS pending bit */
1327:Drivers/STM32G4xx_HAL_Driver/Src/stm32g4xx_hal_rcc.c ****     __HAL_RCC_CLEAR_IT(RCC_IT_CSS);
1328:Drivers/STM32G4xx_HAL_Driver/Src/stm32g4xx_hal_rcc.c ****   }
ARM GAS   			page 64


1329:Drivers/STM32G4xx_HAL_Driver/Src/stm32g4xx_hal_rcc.c **** }
1330:Drivers/STM32G4xx_HAL_Driver/Src/stm32g4xx_hal_rcc.c **** 
1331:Drivers/STM32G4xx_HAL_Driver/Src/stm32g4xx_hal_rcc.c **** /**
1332:Drivers/STM32G4xx_HAL_Driver/Src/stm32g4xx_hal_rcc.c ****   * @brief  RCC Clock Security System interrupt callback.
1333:Drivers/STM32G4xx_HAL_Driver/Src/stm32g4xx_hal_rcc.c ****   * @retval none
1334:Drivers/STM32G4xx_HAL_Driver/Src/stm32g4xx_hal_rcc.c ****   */
1335:Drivers/STM32G4xx_HAL_Driver/Src/stm32g4xx_hal_rcc.c **** __weak void HAL_RCC_CSSCallback(void)
1336:Drivers/STM32G4xx_HAL_Driver/Src/stm32g4xx_hal_rcc.c **** {
1337:Drivers/STM32G4xx_HAL_Driver/Src/stm32g4xx_hal_rcc.c ****   /* NOTE : This function should not be modified, when the callback is needed,
1338:Drivers/STM32G4xx_HAL_Driver/Src/stm32g4xx_hal_rcc.c ****             the HAL_RCC_CSSCallback should be implemented in the user file
1339:Drivers/STM32G4xx_HAL_Driver/Src/stm32g4xx_hal_rcc.c ****    */
1340:Drivers/STM32G4xx_HAL_Driver/Src/stm32g4xx_hal_rcc.c **** }
1341:Drivers/STM32G4xx_HAL_Driver/Src/stm32g4xx_hal_rcc.c **** 
1342:Drivers/STM32G4xx_HAL_Driver/Src/stm32g4xx_hal_rcc.c **** /**
1343:Drivers/STM32G4xx_HAL_Driver/Src/stm32g4xx_hal_rcc.c ****   * @}
1344:Drivers/STM32G4xx_HAL_Driver/Src/stm32g4xx_hal_rcc.c ****   */
1345:Drivers/STM32G4xx_HAL_Driver/Src/stm32g4xx_hal_rcc.c **** 
1346:Drivers/STM32G4xx_HAL_Driver/Src/stm32g4xx_hal_rcc.c **** /**
1347:Drivers/STM32G4xx_HAL_Driver/Src/stm32g4xx_hal_rcc.c ****   * @}
1348:Drivers/STM32G4xx_HAL_Driver/Src/stm32g4xx_hal_rcc.c ****   */
1349:Drivers/STM32G4xx_HAL_Driver/Src/stm32g4xx_hal_rcc.c **** 
1350:Drivers/STM32G4xx_HAL_Driver/Src/stm32g4xx_hal_rcc.c **** /* Private function prototypes -----------------------------------------------*/
1351:Drivers/STM32G4xx_HAL_Driver/Src/stm32g4xx_hal_rcc.c **** /** @addtogroup RCC_Private_Functions
1352:Drivers/STM32G4xx_HAL_Driver/Src/stm32g4xx_hal_rcc.c ****   * @{
1353:Drivers/STM32G4xx_HAL_Driver/Src/stm32g4xx_hal_rcc.c ****   */
1354:Drivers/STM32G4xx_HAL_Driver/Src/stm32g4xx_hal_rcc.c **** 
1355:Drivers/STM32G4xx_HAL_Driver/Src/stm32g4xx_hal_rcc.c **** /**
1356:Drivers/STM32G4xx_HAL_Driver/Src/stm32g4xx_hal_rcc.c ****   * @brief  Compute SYSCLK frequency based on PLL SYSCLK source.
1357:Drivers/STM32G4xx_HAL_Driver/Src/stm32g4xx_hal_rcc.c ****   * @retval SYSCLK frequency
1358:Drivers/STM32G4xx_HAL_Driver/Src/stm32g4xx_hal_rcc.c ****   */
1359:Drivers/STM32G4xx_HAL_Driver/Src/stm32g4xx_hal_rcc.c **** static uint32_t RCC_GetSysClockFreqFromPLLSource(void)
 1837              	 .loc 1 1359 17 view .LVU652
 1838              	.LBB18:
1360:Drivers/STM32G4xx_HAL_Driver/Src/stm32g4xx_hal_rcc.c **** {
1361:Drivers/STM32G4xx_HAL_Driver/Src/stm32g4xx_hal_rcc.c ****   uint32_t pllvco, pllsource, pllr, pllm;
 1839              	 .loc 1 1361 3 view .LVU653
1362:Drivers/STM32G4xx_HAL_Driver/Src/stm32g4xx_hal_rcc.c ****   uint32_t sysclockfreq;
 1840              	 .loc 1 1362 3 view .LVU654
1363:Drivers/STM32G4xx_HAL_Driver/Src/stm32g4xx_hal_rcc.c **** 
1364:Drivers/STM32G4xx_HAL_Driver/Src/stm32g4xx_hal_rcc.c ****   /* PLL_VCO = (HSE_VALUE or HSI_VALUE/ PLLM) * PLLN
1365:Drivers/STM32G4xx_HAL_Driver/Src/stm32g4xx_hal_rcc.c ****      SYSCLK = PLL_VCO / PLLR
1366:Drivers/STM32G4xx_HAL_Driver/Src/stm32g4xx_hal_rcc.c ****    */
1367:Drivers/STM32G4xx_HAL_Driver/Src/stm32g4xx_hal_rcc.c ****   pllsource = READ_BIT(RCC->PLLCFGR, RCC_PLLCFGR_PLLSRC);
 1841              	 .loc 1 1367 3 view .LVU655
 1842              	 .loc 1 1367 15 is_stmt 0 view .LVU656
 1843 018c D068     	 ldr r0,[r2,#12]
 1844              	.LVL158:
1368:Drivers/STM32G4xx_HAL_Driver/Src/stm32g4xx_hal_rcc.c ****   pllm = (READ_BIT(RCC->PLLCFGR, RCC_PLLCFGR_PLLM) >> RCC_PLLCFGR_PLLM_Pos) + 1U ;
 1845              	 .loc 1 1368 3 is_stmt 1 view .LVU657
 1846              	 .loc 1 1368 11 is_stmt 0 view .LVU658
 1847 018e D168     	 ldr r1,[r2,#12]
1369:Drivers/STM32G4xx_HAL_Driver/Src/stm32g4xx_hal_rcc.c **** 
1370:Drivers/STM32G4xx_HAL_Driver/Src/stm32g4xx_hal_rcc.c ****   switch (pllsource)
1371:Drivers/STM32G4xx_HAL_Driver/Src/stm32g4xx_hal_rcc.c ****   {
1372:Drivers/STM32G4xx_HAL_Driver/Src/stm32g4xx_hal_rcc.c ****   case RCC_PLLSOURCE_HSE:  /* HSE used as PLL clock source */
1373:Drivers/STM32G4xx_HAL_Driver/Src/stm32g4xx_hal_rcc.c ****     pllvco = (HSE_VALUE / pllm) * (READ_BIT(RCC->PLLCFGR, RCC_PLLCFGR_PLLN) >> RCC_PLLCFGR_PLLN_Pos
1374:Drivers/STM32G4xx_HAL_Driver/Src/stm32g4xx_hal_rcc.c ****     break;
ARM GAS   			page 65


1375:Drivers/STM32G4xx_HAL_Driver/Src/stm32g4xx_hal_rcc.c **** 
1376:Drivers/STM32G4xx_HAL_Driver/Src/stm32g4xx_hal_rcc.c ****   case RCC_PLLSOURCE_HSI:  /* HSI used as PLL clock source */
1377:Drivers/STM32G4xx_HAL_Driver/Src/stm32g4xx_hal_rcc.c ****   default:
1378:Drivers/STM32G4xx_HAL_Driver/Src/stm32g4xx_hal_rcc.c ****     pllvco = (HSI_VALUE / pllm) * (READ_BIT(RCC->PLLCFGR, RCC_PLLCFGR_PLLN) >> RCC_PLLCFGR_PLLN_Pos
 1848              	 .loc 1 1378 36 view .LVU659
 1849 0190 D268     	 ldr r2,[r2,#12]
 1850              	.LBE18:
 1851              	.LBE17:
 818:Drivers/STM32G4xx_HAL_Driver/Src/stm32g4xx_hal_rcc.c ****       {
 1852              	 .loc 1 818 9 view .LVU660
 1853 0192 174E     	 ldr r6,.L226+8
 1854              	.LBB21:
 1855              	.LBB19:
1367:Drivers/STM32G4xx_HAL_Driver/Src/stm32g4xx_hal_rcc.c ****   pllm = (READ_BIT(RCC->PLLCFGR, RCC_PLLCFGR_PLLM) >> RCC_PLLCFGR_PLLM_Pos) + 1U ;
 1856              	 .loc 1 1367 13 view .LVU661
 1857 0194 00F00300 	 and r0,r0,#3
 1858              	.LVL159:
1370:Drivers/STM32G4xx_HAL_Driver/Src/stm32g4xx_hal_rcc.c ****   {
 1859              	 .loc 1 1370 3 view .LVU662
 1860 0198 0328     	 cmp r0,#3
1368:Drivers/STM32G4xx_HAL_Driver/Src/stm32g4xx_hal_rcc.c **** 
 1861              	 .loc 1 1368 52 view .LVU663
 1862 019a C1F30311 	 ubfx r1,r1,#4,#4
1373:Drivers/STM32G4xx_HAL_Driver/Src/stm32g4xx_hal_rcc.c ****     break;
 1863              	 .loc 1 1373 25 view .LVU664
 1864 019e 0CBF     	 ite eq
 1865 01a0 1748     	 ldreq r0,.L226+24
 1866              	.LVL160:
 1867              	 .loc 1 1378 25 view .LVU665
 1868 01a2 1848     	 ldrne r0,.L226+28
1368:Drivers/STM32G4xx_HAL_Driver/Src/stm32g4xx_hal_rcc.c **** 
 1869              	 .loc 1 1368 8 view .LVU666
 1870 01a4 0131     	 adds r1,r1,#1
 1871              	.LVL161:
1370:Drivers/STM32G4xx_HAL_Driver/Src/stm32g4xx_hal_rcc.c ****   {
 1872              	 .loc 1 1370 3 is_stmt 1 view .LVU667
1373:Drivers/STM32G4xx_HAL_Driver/Src/stm32g4xx_hal_rcc.c ****     break;
 1873              	 .loc 1 1373 5 view .LVU668
 1874              	 .loc 1 1378 5 view .LVU669
 1875              	 .loc 1 1378 25 is_stmt 0 view .LVU670
 1876 01a6 B0FBF1F1 	 udiv r1,r0,r1
 1877              	.LVL162:
1379:Drivers/STM32G4xx_HAL_Driver/Src/stm32g4xx_hal_rcc.c ****     break;
1380:Drivers/STM32G4xx_HAL_Driver/Src/stm32g4xx_hal_rcc.c ****   }
1381:Drivers/STM32G4xx_HAL_Driver/Src/stm32g4xx_hal_rcc.c **** 
1382:Drivers/STM32G4xx_HAL_Driver/Src/stm32g4xx_hal_rcc.c ****   pllr = ((READ_BIT(RCC->PLLCFGR, RCC_PLLCFGR_PLLR) >> RCC_PLLCFGR_PLLR_Pos) + 1U ) * 2U;
 1878              	 .loc 1 1382 12 view .LVU671
 1879 01aa 1048     	 ldr r0,.L226+4
1378:Drivers/STM32G4xx_HAL_Driver/Src/stm32g4xx_hal_rcc.c ****     break;
 1880              	 .loc 1 1378 77 view .LVU672
 1881 01ac C2F30622 	 ubfx r2,r2,#8,#7
1378:Drivers/STM32G4xx_HAL_Driver/Src/stm32g4xx_hal_rcc.c ****     break;
 1882              	 .loc 1 1378 12 view .LVU673
 1883 01b0 01FB02F2 	 mul r2,r1,r2
 1884              	.LVL163:
1379:Drivers/STM32G4xx_HAL_Driver/Src/stm32g4xx_hal_rcc.c ****     break;
 1885              	 .loc 1 1379 5 is_stmt 1 view .LVU674
ARM GAS   			page 66


 1886              	 .loc 1 1382 3 view .LVU675
 1887              	 .loc 1 1382 12 is_stmt 0 view .LVU676
 1888 01b4 C168     	 ldr r1,[r0,#12]
 1889              	.LVL164:
1383:Drivers/STM32G4xx_HAL_Driver/Src/stm32g4xx_hal_rcc.c ****   sysclockfreq = pllvco/pllr;
 1890              	 .loc 1 1383 3 is_stmt 1 view .LVU677
1384:Drivers/STM32G4xx_HAL_Driver/Src/stm32g4xx_hal_rcc.c **** 
1385:Drivers/STM32G4xx_HAL_Driver/Src/stm32g4xx_hal_rcc.c ****   return sysclockfreq;
 1891              	 .loc 1 1385 3 view .LVU678
 1892              	 .loc 1 1385 3 is_stmt 0 view .LVU679
 1893              	.LBE19:
 1894              	.LBE21:
 818:Drivers/STM32G4xx_HAL_Driver/Src/stm32g4xx_hal_rcc.c ****       {
 1895              	 .loc 1 818 7 is_stmt 1 view .LVU680
 1896              	.LBB22:
 1897              	.LBB20:
1382:Drivers/STM32G4xx_HAL_Driver/Src/stm32g4xx_hal_rcc.c ****   sysclockfreq = pllvco/pllr;
 1898              	 .loc 1 1382 53 is_stmt 0 view .LVU681
 1899 01b6 C1F34161 	 ubfx r1,r1,#25,#2
 1900              	.LVL165:
1382:Drivers/STM32G4xx_HAL_Driver/Src/stm32g4xx_hal_rcc.c ****   sysclockfreq = pllvco/pllr;
 1901              	 .loc 1 1382 78 view .LVU682
 1902 01ba 0131     	 adds r1,r1,#1
1382:Drivers/STM32G4xx_HAL_Driver/Src/stm32g4xx_hal_rcc.c ****   sysclockfreq = pllvco/pllr;
 1903              	 .loc 1 1382 8 view .LVU683
 1904 01bc 4900     	 lsls r1,r1,#1
1383:Drivers/STM32G4xx_HAL_Driver/Src/stm32g4xx_hal_rcc.c **** 
 1905              	 .loc 1 1383 16 view .LVU684
 1906 01be B2FBF1F2 	 udiv r2,r2,r1
1383:Drivers/STM32G4xx_HAL_Driver/Src/stm32g4xx_hal_rcc.c **** 
 1907              	 .loc 1 1383 16 view .LVU685
 1908              	.LBE20:
 1909              	.LBE22:
 818:Drivers/STM32G4xx_HAL_Driver/Src/stm32g4xx_hal_rcc.c ****       {
 1910              	 .loc 1 818 9 view .LVU686
 1911 01c2 B242     	 cmp r2,r6
 818:Drivers/STM32G4xx_HAL_Driver/Src/stm32g4xx_hal_rcc.c ****       {
 1912              	 .loc 1 818 9 view .LVU687
 1913 01c4 0AD9     	 bls .L175
 820:Drivers/STM32G4xx_HAL_Driver/Src/stm32g4xx_hal_rcc.c ****             (((((RCC_ClkInitStruct->ClockType) & RCC_CLOCKTYPE_HCLK) == RCC_CLOCKTYPE_HCLK) &&
 1914              	 .loc 1 820 9 is_stmt 1 view .LVU688
 820:Drivers/STM32G4xx_HAL_Driver/Src/stm32g4xx_hal_rcc.c ****             (((((RCC_ClkInitStruct->ClockType) & RCC_CLOCKTYPE_HCLK) == RCC_CLOCKTYPE_HCLK) &&
 1915              	 .loc 1 820 15 is_stmt 0 view .LVU689
 1916 01c6 8268     	 ldr r2,[r0,#8]
 820:Drivers/STM32G4xx_HAL_Driver/Src/stm32g4xx_hal_rcc.c ****             (((((RCC_ClkInitStruct->ClockType) & RCC_CLOCKTYPE_HCLK) == RCC_CLOCKTYPE_HCLK) &&
 1917              	 .loc 1 820 12 view .LVU690
 1918 01c8 12F0F00F 	 tst r2,#240
 1919 01cc 3FF446AF 	 beq .L174
 820:Drivers/STM32G4xx_HAL_Driver/Src/stm32g4xx_hal_rcc.c ****             (((((RCC_ClkInitStruct->ClockType) & RCC_CLOCKTYPE_HCLK) == RCC_CLOCKTYPE_HCLK) &&
 1920              	 .loc 1 820 71 discriminator 1 view .LVU691
 1921 01d0 9907     	 lsls r1,r3,#30
 1922 01d2 03D5     	 bpl .L175
 821:Drivers/STM32G4xx_HAL_Driver/Src/stm32g4xx_hal_rcc.c ****               (RCC_ClkInitStruct->AHBCLKDivider == RCC_SYSCLK_DIV1))))
 1923              	 .loc 1 821 93 view .LVU692
 1924 01d4 A368     	 ldr r3,[r4,#8]
 1925 01d6 002B     	 cmp r3,#0
 1926 01d8 3FF440AF 	 beq .L174
ARM GAS   			page 67


 1927              	.LVL166:
 1928              	.L175:
 770:Drivers/STM32G4xx_HAL_Driver/Src/stm32g4xx_hal_rcc.c **** 
 1929              	 .loc 1 770 12 view .LVU693
 1930 01dc 4FF00009 	 mov r9,#0
 1931 01e0 45E7     	 b .L173
 1932              	.LVL167:
 1933              	.L222:
 1934              	 .cfi_def_cfa_offset 0
 1935              	 .cfi_restore 3
 1936              	 .cfi_restore 4
 1937              	 .cfi_restore 5
 1938              	 .cfi_restore 6
 1939              	 .cfi_restore 7
 1940              	 .cfi_restore 8
 1941              	 .cfi_restore 9
 1942              	 .cfi_restore 14
 775:Drivers/STM32G4xx_HAL_Driver/Src/stm32g4xx_hal_rcc.c ****   }
 1943              	 .loc 1 775 12 view .LVU694
 1944 01e2 0120     	 movs r0,#1
 1945              	.LVL168:
 940:Drivers/STM32G4xx_HAL_Driver/Src/stm32g4xx_hal_rcc.c **** 
 1946              	 .loc 1 940 1 view .LVU695
 1947 01e4 7047     	 bx lr
 1948              	.L227:
 1949 01e6 00BF     	 .align 2
 1950              	.L226:
 1951 01e8 00200240 	 .word 1073881088
 1952 01ec 00100240 	 .word 1073876992
 1953 01f0 00B4C404 	 .word 80000000
 1954 01f4 00000000 	 .word AHBPrescTable
 1955 01f8 00000000 	 .word SystemCoreClock
 1956 01fc 00000000 	 .word uwTickPrio
 1957 0200 40787D01 	 .word 25000000
 1958 0204 0024F400 	 .word 16000000
 1959              	 .cfi_endproc
 1960              	.LFE363:
 1962              	 .section .text.HAL_RCC_GetHCLKFreq,"ax",%progbits
 1963              	 .align 1
 1964              	 .p2align 2,,3
 1965              	 .global HAL_RCC_GetHCLKFreq
 1966              	 .syntax unified
 1967              	 .thumb
 1968              	 .thumb_func
 1970              	HAL_RCC_GetHCLKFreq:
 1971              	.LFB366:
1119:Drivers/STM32G4xx_HAL_Driver/Src/stm32g4xx_hal_rcc.c ****   return SystemCoreClock;
 1972              	 .loc 1 1119 1 is_stmt 1 view-0
 1973              	 .cfi_startproc
 1974              	 
 1975              	 
 1976              	 
1120:Drivers/STM32G4xx_HAL_Driver/Src/stm32g4xx_hal_rcc.c **** }
 1977              	 .loc 1 1120 3 view .LVU697
1120:Drivers/STM32G4xx_HAL_Driver/Src/stm32g4xx_hal_rcc.c **** }
 1978              	 .loc 1 1120 10 is_stmt 0 view .LVU698
 1979 0000 014B     	 ldr r3,.L229
ARM GAS   			page 68


1121:Drivers/STM32G4xx_HAL_Driver/Src/stm32g4xx_hal_rcc.c **** 
 1980              	 .loc 1 1121 1 view .LVU699
 1981 0002 1868     	 ldr r0,[r3]
 1982 0004 7047     	 bx lr
 1983              	.L230:
 1984 0006 00BF     	 .align 2
 1985              	.L229:
 1986 0008 00000000 	 .word SystemCoreClock
 1987              	 .cfi_endproc
 1988              	.LFE366:
 1990              	 .section .text.HAL_RCC_GetPCLK1Freq,"ax",%progbits
 1991              	 .align 1
 1992              	 .p2align 2,,3
 1993              	 .global HAL_RCC_GetPCLK1Freq
 1994              	 .syntax unified
 1995              	 .thumb
 1996              	 .thumb_func
 1998              	HAL_RCC_GetPCLK1Freq:
 1999              	.LFB367:
1130:Drivers/STM32G4xx_HAL_Driver/Src/stm32g4xx_hal_rcc.c ****   /* Get HCLK source and Compute PCLK1 frequency ---------------------------*/
 2000              	 .loc 1 1130 1 is_stmt 1 view-0
 2001              	 .cfi_startproc
 2002              	 
 2003              	 
 2004              	 
1132:Drivers/STM32G4xx_HAL_Driver/Src/stm32g4xx_hal_rcc.c **** }
 2005              	 .loc 1 1132 3 view .LVU701
 2006              	.LBB23:
 2007              	.LBI23:
1118:Drivers/STM32G4xx_HAL_Driver/Src/stm32g4xx_hal_rcc.c **** {
 2008              	 .loc 1 1118 10 view .LVU702
 2009              	.LBB24:
1120:Drivers/STM32G4xx_HAL_Driver/Src/stm32g4xx_hal_rcc.c **** }
 2010              	 .loc 1 1120 3 view .LVU703
 2011              	.LBE24:
 2012              	.LBE23:
1132:Drivers/STM32G4xx_HAL_Driver/Src/stm32g4xx_hal_rcc.c **** }
 2013              	 .loc 1 1132 51 is_stmt 0 discriminator 1 view .LVU704
 2014 0000 054B     	 ldr r3,.L232
1132:Drivers/STM32G4xx_HAL_Driver/Src/stm32g4xx_hal_rcc.c **** }
 2015              	 .loc 1 1132 50 discriminator 1 view .LVU705
 2016 0002 064A     	 ldr r2,.L232+4
1132:Drivers/STM32G4xx_HAL_Driver/Src/stm32g4xx_hal_rcc.c **** }
 2017              	 .loc 1 1132 51 discriminator 1 view .LVU706
 2018 0004 9B68     	 ldr r3,[r3,#8]
 2019              	.LBB26:
 2020              	.LBB25:
1120:Drivers/STM32G4xx_HAL_Driver/Src/stm32g4xx_hal_rcc.c **** }
 2021              	 .loc 1 1120 10 view .LVU707
 2022 0006 0649     	 ldr r1,.L232+8
 2023              	.LBE25:
 2024              	.LBE26:
1132:Drivers/STM32G4xx_HAL_Driver/Src/stm32g4xx_hal_rcc.c **** }
 2025              	 .loc 1 1132 87 discriminator 1 view .LVU708
 2026 0008 C3F30223 	 ubfx r3,r3,#8,#3
1132:Drivers/STM32G4xx_HAL_Driver/Src/stm32g4xx_hal_rcc.c **** }
 2027              	 .loc 1 1132 33 discriminator 1 view .LVU709
ARM GAS   			page 69


 2028 000c 0868     	 ldr r0,[r1]
1132:Drivers/STM32G4xx_HAL_Driver/Src/stm32g4xx_hal_rcc.c **** }
 2029              	 .loc 1 1132 110 discriminator 1 view .LVU710
 2030 000e D35C     	 ldrb r3,[r2,r3]
 2031 0010 03F01F03 	 and r3,r3,#31
1133:Drivers/STM32G4xx_HAL_Driver/Src/stm32g4xx_hal_rcc.c **** 
 2032              	 .loc 1 1133 1 view .LVU711
 2033 0014 D840     	 lsrs r0,r0,r3
 2034 0016 7047     	 bx lr
 2035              	.L233:
 2036              	 .align 2
 2037              	.L232:
 2038 0018 00100240 	 .word 1073876992
 2039 001c 00000000 	 .word APBPrescTable
 2040 0020 00000000 	 .word SystemCoreClock
 2041              	 .cfi_endproc
 2042              	.LFE367:
 2044              	 .section .text.HAL_RCC_GetPCLK2Freq,"ax",%progbits
 2045              	 .align 1
 2046              	 .p2align 2,,3
 2047              	 .global HAL_RCC_GetPCLK2Freq
 2048              	 .syntax unified
 2049              	 .thumb
 2050              	 .thumb_func
 2052              	HAL_RCC_GetPCLK2Freq:
 2053              	.LFB368:
1142:Drivers/STM32G4xx_HAL_Driver/Src/stm32g4xx_hal_rcc.c ****   /* Get HCLK source and Compute PCLK2 frequency ---------------------------*/
 2054              	 .loc 1 1142 1 is_stmt 1 view-0
 2055              	 .cfi_startproc
 2056              	 
 2057              	 
 2058              	 
1144:Drivers/STM32G4xx_HAL_Driver/Src/stm32g4xx_hal_rcc.c **** }
 2059              	 .loc 1 1144 3 view .LVU713
 2060              	.LBB27:
 2061              	.LBI27:
1118:Drivers/STM32G4xx_HAL_Driver/Src/stm32g4xx_hal_rcc.c **** {
 2062              	 .loc 1 1118 10 view .LVU714
 2063              	.LBB28:
1120:Drivers/STM32G4xx_HAL_Driver/Src/stm32g4xx_hal_rcc.c **** }
 2064              	 .loc 1 1120 3 view .LVU715
 2065              	.LBE28:
 2066              	.LBE27:
1144:Drivers/STM32G4xx_HAL_Driver/Src/stm32g4xx_hal_rcc.c **** }
 2067              	 .loc 1 1144 50 is_stmt 0 discriminator 1 view .LVU716
 2068 0000 054B     	 ldr r3,.L235
1144:Drivers/STM32G4xx_HAL_Driver/Src/stm32g4xx_hal_rcc.c **** }
 2069              	 .loc 1 1144 49 discriminator 1 view .LVU717
 2070 0002 064A     	 ldr r2,.L235+4
1144:Drivers/STM32G4xx_HAL_Driver/Src/stm32g4xx_hal_rcc.c **** }
 2071              	 .loc 1 1144 50 discriminator 1 view .LVU718
 2072 0004 9B68     	 ldr r3,[r3,#8]
 2073              	.LBB30:
 2074              	.LBB29:
1120:Drivers/STM32G4xx_HAL_Driver/Src/stm32g4xx_hal_rcc.c **** }
 2075              	 .loc 1 1120 10 view .LVU719
 2076 0006 0649     	 ldr r1,.L235+8
ARM GAS   			page 70


 2077              	.LBE29:
 2078              	.LBE30:
1144:Drivers/STM32G4xx_HAL_Driver/Src/stm32g4xx_hal_rcc.c **** }
 2079              	 .loc 1 1144 86 discriminator 1 view .LVU720
 2080 0008 C3F3C223 	 ubfx r3,r3,#11,#3
1144:Drivers/STM32G4xx_HAL_Driver/Src/stm32g4xx_hal_rcc.c **** }
 2081              	 .loc 1 1144 32 discriminator 1 view .LVU721
 2082 000c 0868     	 ldr r0,[r1]
1144:Drivers/STM32G4xx_HAL_Driver/Src/stm32g4xx_hal_rcc.c **** }
 2083              	 .loc 1 1144 109 discriminator 1 view .LVU722
 2084 000e D35C     	 ldrb r3,[r2,r3]
 2085 0010 03F01F03 	 and r3,r3,#31
1145:Drivers/STM32G4xx_HAL_Driver/Src/stm32g4xx_hal_rcc.c **** 
 2086              	 .loc 1 1145 1 view .LVU723
 2087 0014 D840     	 lsrs r0,r0,r3
 2088 0016 7047     	 bx lr
 2089              	.L236:
 2090              	 .align 2
 2091              	.L235:
 2092 0018 00100240 	 .word 1073876992
 2093 001c 00000000 	 .word APBPrescTable
 2094 0020 00000000 	 .word SystemCoreClock
 2095              	 .cfi_endproc
 2096              	.LFE368:
 2098              	 .section .text.HAL_RCC_GetOscConfig,"ax",%progbits
 2099              	 .align 1
 2100              	 .p2align 2,,3
 2101              	 .global HAL_RCC_GetOscConfig
 2102              	 .syntax unified
 2103              	 .thumb
 2104              	 .thumb_func
 2106              	HAL_RCC_GetOscConfig:
 2107              	.LVL169:
 2108              	.LFB369:
1155:Drivers/STM32G4xx_HAL_Driver/Src/stm32g4xx_hal_rcc.c ****   /* Check the parameters */
 2109              	 .loc 1 1155 1 is_stmt 1 view-0
 2110              	 .cfi_startproc
 2111              	 
 2112              	 
 2113              	 
1157:Drivers/STM32G4xx_HAL_Driver/Src/stm32g4xx_hal_rcc.c **** 
 2114              	 .loc 1 1157 3 view .LVU725
1160:Drivers/STM32G4xx_HAL_Driver/Src/stm32g4xx_hal_rcc.c ****                                       RCC_OSCILLATORTYPE_LSE | RCC_OSCILLATORTYPE_LSI | RCC_OSCILLA
 2115              	 .loc 1 1160 3 view .LVU726
1164:Drivers/STM32G4xx_HAL_Driver/Src/stm32g4xx_hal_rcc.c ****   {
 2116              	 .loc 1 1164 6 is_stmt 0 view .LVU727
 2117 0000 274B     	 ldr r3,.L244
1160:Drivers/STM32G4xx_HAL_Driver/Src/stm32g4xx_hal_rcc.c ****                                       RCC_OSCILLATORTYPE_LSE | RCC_OSCILLATORTYPE_LSI | RCC_OSCILLA
 2118              	 .loc 1 1160 37 view .LVU728
 2119 0002 2F22     	 movs r2,#47
 2120 0004 0260     	 str r2,[r0]
1164:Drivers/STM32G4xx_HAL_Driver/Src/stm32g4xx_hal_rcc.c ****   {
 2121              	 .loc 1 1164 3 is_stmt 1 view .LVU729
1168:Drivers/STM32G4xx_HAL_Driver/Src/stm32g4xx_hal_rcc.c ****   {
 2122              	 .loc 1 1168 8 view .LVU730
1164:Drivers/STM32G4xx_HAL_Driver/Src/stm32g4xx_hal_rcc.c ****   {
 2123              	 .loc 1 1164 6 is_stmt 0 view .LVU731
ARM GAS   			page 71


 2124 0006 1A68     	 ldr r2,[r3]
1164:Drivers/STM32G4xx_HAL_Driver/Src/stm32g4xx_hal_rcc.c ****   {
 2125              	 .loc 1 1164 5 view .LVU732
 2126 0008 5103     	 lsls r1,r2,#13
1168:Drivers/STM32G4xx_HAL_Driver/Src/stm32g4xx_hal_rcc.c ****   {
 2127              	 .loc 1 1168 11 view .LVU733
 2128 000a 58BF     	 it pl
 2129 000c 1A68     	 ldrpl r2,[r3]
1178:Drivers/STM32G4xx_HAL_Driver/Src/stm32g4xx_hal_rcc.c ****   {
 2130              	 .loc 1 1178 6 view .LVU734
 2131 000e 244B     	 ldr r3,.L244
1168:Drivers/STM32G4xx_HAL_Driver/Src/stm32g4xx_hal_rcc.c ****   {
 2132              	 .loc 1 1168 10 view .LVU735
 2133 0010 54BF     	 ite pl
 2134 0012 02F48032 	 andpl r2,r2,#65536
 2135 0016 4FF4A022 	 movmi r2,#327680
1166:Drivers/STM32G4xx_HAL_Driver/Src/stm32g4xx_hal_rcc.c ****   }
 2136              	 .loc 1 1166 33 view .LVU736
 2137 001a 4260     	 str r2,[r0,#4]
1178:Drivers/STM32G4xx_HAL_Driver/Src/stm32g4xx_hal_rcc.c ****   {
 2138              	 .loc 1 1178 3 is_stmt 1 view .LVU737
1178:Drivers/STM32G4xx_HAL_Driver/Src/stm32g4xx_hal_rcc.c ****   {
 2139              	 .loc 1 1178 6 is_stmt 0 view .LVU738
 2140 001c 1A68     	 ldr r2,[r3]
1178:Drivers/STM32G4xx_HAL_Driver/Src/stm32g4xx_hal_rcc.c ****   {
 2141              	 .loc 1 1178 5 view .LVU739
 2142 001e 02F48072 	 and r2,r2,#256
 2143 0022 C260     	 str r2,[r0,#12]
1187:Drivers/STM32G4xx_HAL_Driver/Src/stm32g4xx_hal_rcc.c **** 
 2144              	 .loc 1 1187 3 is_stmt 1 view .LVU740
1187:Drivers/STM32G4xx_HAL_Driver/Src/stm32g4xx_hal_rcc.c **** 
 2145              	 .loc 1 1187 44 is_stmt 0 view .LVU741
 2146 0024 5A68     	 ldr r2,[r3,#4]
1187:Drivers/STM32G4xx_HAL_Driver/Src/stm32g4xx_hal_rcc.c **** 
 2147              	 .loc 1 1187 84 view .LVU742
 2148 0026 C2F30662 	 ubfx r2,r2,#24,#7
1187:Drivers/STM32G4xx_HAL_Driver/Src/stm32g4xx_hal_rcc.c **** 
 2149              	 .loc 1 1187 42 view .LVU743
 2150 002a 0261     	 str r2,[r0,#16]
1190:Drivers/STM32G4xx_HAL_Driver/Src/stm32g4xx_hal_rcc.c ****   {
 2151              	 .loc 1 1190 3 is_stmt 1 view .LVU744
1190:Drivers/STM32G4xx_HAL_Driver/Src/stm32g4xx_hal_rcc.c ****   {
 2152              	 .loc 1 1190 6 is_stmt 0 view .LVU745
 2153 002c D3F89020 	 ldr r2,[r3,#144]
1190:Drivers/STM32G4xx_HAL_Driver/Src/stm32g4xx_hal_rcc.c ****   {
 2154              	 .loc 1 1190 5 view .LVU746
 2155 0030 5207     	 lsls r2,r2,#29
1194:Drivers/STM32G4xx_HAL_Driver/Src/stm32g4xx_hal_rcc.c ****   {
 2156              	 .loc 1 1194 8 is_stmt 1 view .LVU747
1194:Drivers/STM32G4xx_HAL_Driver/Src/stm32g4xx_hal_rcc.c ****   {
 2157              	 .loc 1 1194 11 is_stmt 0 view .LVU748
 2158 0032 58BF     	 it pl
 2159 0034 D3F89020 	 ldrpl r2,[r3,#144]
1204:Drivers/STM32G4xx_HAL_Driver/Src/stm32g4xx_hal_rcc.c ****   {
 2160              	 .loc 1 1204 6 view .LVU749
 2161 0038 194B     	 ldr r3,.L244
1194:Drivers/STM32G4xx_HAL_Driver/Src/stm32g4xx_hal_rcc.c ****   {
ARM GAS   			page 72


 2162              	 .loc 1 1194 11 view .LVU750
 2163 003a 54BF     	 ite pl
 2164 003c 02F00102 	 andpl r2,r2,#1
 2165 0040 0522     	 movmi r2,#5
1192:Drivers/STM32G4xx_HAL_Driver/Src/stm32g4xx_hal_rcc.c ****   }
 2166              	 .loc 1 1192 33 view .LVU751
 2167 0042 8260     	 str r2,[r0,#8]
1204:Drivers/STM32G4xx_HAL_Driver/Src/stm32g4xx_hal_rcc.c ****   {
 2168              	 .loc 1 1204 3 is_stmt 1 view .LVU752
1204:Drivers/STM32G4xx_HAL_Driver/Src/stm32g4xx_hal_rcc.c ****   {
 2169              	 .loc 1 1204 6 is_stmt 0 view .LVU753
 2170 0044 D3F89420 	 ldr r2,[r3,#148]
 2171 0048 02F00102 	 and r2,r2,#1
 2172 004c 4261     	 str r2,[r0,#20]
1214:Drivers/STM32G4xx_HAL_Driver/Src/stm32g4xx_hal_rcc.c ****   {
 2173              	 .loc 1 1214 3 is_stmt 1 view .LVU754
1214:Drivers/STM32G4xx_HAL_Driver/Src/stm32g4xx_hal_rcc.c ****   {
 2174              	 .loc 1 1214 6 is_stmt 0 view .LVU755
 2175 004e D3F89820 	 ldr r2,[r3,#152]
 2176 0052 02F00102 	 and r2,r2,#1
 2177 0056 8261     	 str r2,[r0,#24]
1224:Drivers/STM32G4xx_HAL_Driver/Src/stm32g4xx_hal_rcc.c ****   {
 2178              	 .loc 1 1224 3 is_stmt 1 view .LVU756
1224:Drivers/STM32G4xx_HAL_Driver/Src/stm32g4xx_hal_rcc.c ****   {
 2179              	 .loc 1 1224 6 is_stmt 0 view .LVU757
 2180 0058 1A68     	 ldr r2,[r3]
1226:Drivers/STM32G4xx_HAL_Driver/Src/stm32g4xx_hal_rcc.c ****   }
 2181              	 .loc 1 1226 37 view .LVU758
 2182 005a 12F0807F 	 tst r2,#16777216
 2183 005e 0CBF     	 ite eq
 2184 0060 0122     	 moveq r2,#1
 2185 0062 0222     	 movne r2,#2
 2186 0064 C261     	 str r2,[r0,#28]
1232:Drivers/STM32G4xx_HAL_Driver/Src/stm32g4xx_hal_rcc.c ****   RCC_OscInitStruct->PLL.PLLM = (READ_BIT(RCC->PLLCFGR, RCC_PLLCFGR_PLLM) >> RCC_PLLCFGR_PLLM_Pos) 
 2187              	 .loc 1 1232 3 is_stmt 1 view .LVU759
1232:Drivers/STM32G4xx_HAL_Driver/Src/stm32g4xx_hal_rcc.c ****   RCC_OscInitStruct->PLL.PLLM = (READ_BIT(RCC->PLLCFGR, RCC_PLLCFGR_PLLM) >> RCC_PLLCFGR_PLLM_Pos) 
 2188              	 .loc 1 1232 38 is_stmt 0 view .LVU760
 2189 0066 DA68     	 ldr r2,[r3,#12]
 2190 0068 02F00302 	 and r2,r2,#3
1232:Drivers/STM32G4xx_HAL_Driver/Src/stm32g4xx_hal_rcc.c ****   RCC_OscInitStruct->PLL.PLLM = (READ_BIT(RCC->PLLCFGR, RCC_PLLCFGR_PLLM) >> RCC_PLLCFGR_PLLM_Pos) 
 2191              	 .loc 1 1232 36 view .LVU761
 2192 006c 0262     	 str r2,[r0,#32]
1233:Drivers/STM32G4xx_HAL_Driver/Src/stm32g4xx_hal_rcc.c ****   RCC_OscInitStruct->PLL.PLLN = READ_BIT(RCC->PLLCFGR, RCC_PLLCFGR_PLLN) >> RCC_PLLCFGR_PLLN_Pos;
 2193              	 .loc 1 1233 3 is_stmt 1 view .LVU762
1233:Drivers/STM32G4xx_HAL_Driver/Src/stm32g4xx_hal_rcc.c ****   RCC_OscInitStruct->PLL.PLLN = READ_BIT(RCC->PLLCFGR, RCC_PLLCFGR_PLLN) >> RCC_PLLCFGR_PLLN_Pos;
 2194              	 .loc 1 1233 34 is_stmt 0 view .LVU763
 2195 006e DA68     	 ldr r2,[r3,#12]
1233:Drivers/STM32G4xx_HAL_Driver/Src/stm32g4xx_hal_rcc.c ****   RCC_OscInitStruct->PLL.PLLN = READ_BIT(RCC->PLLCFGR, RCC_PLLCFGR_PLLN) >> RCC_PLLCFGR_PLLN_Pos;
 2196              	 .loc 1 1233 75 view .LVU764
 2197 0070 C2F30312 	 ubfx r2,r2,#4,#4
1233:Drivers/STM32G4xx_HAL_Driver/Src/stm32g4xx_hal_rcc.c ****   RCC_OscInitStruct->PLL.PLLN = READ_BIT(RCC->PLLCFGR, RCC_PLLCFGR_PLLN) >> RCC_PLLCFGR_PLLN_Pos;
 2198              	 .loc 1 1233 100 view .LVU765
 2199 0074 0132     	 adds r2,r2,#1
1233:Drivers/STM32G4xx_HAL_Driver/Src/stm32g4xx_hal_rcc.c ****   RCC_OscInitStruct->PLL.PLLN = READ_BIT(RCC->PLLCFGR, RCC_PLLCFGR_PLLN) >> RCC_PLLCFGR_PLLN_Pos;
 2200              	 .loc 1 1233 31 view .LVU766
 2201 0076 4262     	 str r2,[r0,#36]
1234:Drivers/STM32G4xx_HAL_Driver/Src/stm32g4xx_hal_rcc.c ****   RCC_OscInitStruct->PLL.PLLQ = (((READ_BIT(RCC->PLLCFGR, RCC_PLLCFGR_PLLQ) >> RCC_PLLCFGR_PLLQ_Pos
ARM GAS   			page 73


 2202              	 .loc 1 1234 3 is_stmt 1 view .LVU767
1234:Drivers/STM32G4xx_HAL_Driver/Src/stm32g4xx_hal_rcc.c ****   RCC_OscInitStruct->PLL.PLLQ = (((READ_BIT(RCC->PLLCFGR, RCC_PLLCFGR_PLLQ) >> RCC_PLLCFGR_PLLQ_Pos
 2203              	 .loc 1 1234 33 is_stmt 0 view .LVU768
 2204 0078 DA68     	 ldr r2,[r3,#12]
1234:Drivers/STM32G4xx_HAL_Driver/Src/stm32g4xx_hal_rcc.c ****   RCC_OscInitStruct->PLL.PLLQ = (((READ_BIT(RCC->PLLCFGR, RCC_PLLCFGR_PLLQ) >> RCC_PLLCFGR_PLLQ_Pos
 2205              	 .loc 1 1234 74 view .LVU769
 2206 007a C2F30622 	 ubfx r2,r2,#8,#7
1234:Drivers/STM32G4xx_HAL_Driver/Src/stm32g4xx_hal_rcc.c ****   RCC_OscInitStruct->PLL.PLLQ = (((READ_BIT(RCC->PLLCFGR, RCC_PLLCFGR_PLLQ) >> RCC_PLLCFGR_PLLQ_Pos
 2207              	 .loc 1 1234 31 view .LVU770
 2208 007e 8262     	 str r2,[r0,#40]
1235:Drivers/STM32G4xx_HAL_Driver/Src/stm32g4xx_hal_rcc.c ****   RCC_OscInitStruct->PLL.PLLR = (((READ_BIT(RCC->PLLCFGR, RCC_PLLCFGR_PLLR) >> RCC_PLLCFGR_PLLR_Pos
 2209              	 .loc 1 1235 3 is_stmt 1 view .LVU771
1235:Drivers/STM32G4xx_HAL_Driver/Src/stm32g4xx_hal_rcc.c ****   RCC_OscInitStruct->PLL.PLLR = (((READ_BIT(RCC->PLLCFGR, RCC_PLLCFGR_PLLR) >> RCC_PLLCFGR_PLLR_Pos
 2210              	 .loc 1 1235 36 is_stmt 0 view .LVU772
 2211 0080 DA68     	 ldr r2,[r3,#12]
1235:Drivers/STM32G4xx_HAL_Driver/Src/stm32g4xx_hal_rcc.c ****   RCC_OscInitStruct->PLL.PLLR = (((READ_BIT(RCC->PLLCFGR, RCC_PLLCFGR_PLLR) >> RCC_PLLCFGR_PLLR_Pos
 2212              	 .loc 1 1235 77 view .LVU773
 2213 0082 C2F34152 	 ubfx r2,r2,#21,#2
1235:Drivers/STM32G4xx_HAL_Driver/Src/stm32g4xx_hal_rcc.c ****   RCC_OscInitStruct->PLL.PLLR = (((READ_BIT(RCC->PLLCFGR, RCC_PLLCFGR_PLLR) >> RCC_PLLCFGR_PLLR_Pos
 2214              	 .loc 1 1235 102 view .LVU774
 2215 0086 0132     	 adds r2,r2,#1
1235:Drivers/STM32G4xx_HAL_Driver/Src/stm32g4xx_hal_rcc.c ****   RCC_OscInitStruct->PLL.PLLR = (((READ_BIT(RCC->PLLCFGR, RCC_PLLCFGR_PLLR) >> RCC_PLLCFGR_PLLR_Pos
 2216              	 .loc 1 1235 108 view .LVU775
 2217 0088 5200     	 lsls r2,r2,#1
1235:Drivers/STM32G4xx_HAL_Driver/Src/stm32g4xx_hal_rcc.c ****   RCC_OscInitStruct->PLL.PLLR = (((READ_BIT(RCC->PLLCFGR, RCC_PLLCFGR_PLLR) >> RCC_PLLCFGR_PLLR_Pos
 2218              	 .loc 1 1235 31 view .LVU776
 2219 008a 0263     	 str r2,[r0,#48]
1236:Drivers/STM32G4xx_HAL_Driver/Src/stm32g4xx_hal_rcc.c ****   RCC_OscInitStruct->PLL.PLLP = READ_BIT(RCC->PLLCFGR, RCC_PLLCFGR_PLLPDIV) >> RCC_PLLCFGR_PLLPDIV_
 2220              	 .loc 1 1236 3 is_stmt 1 view .LVU777
1236:Drivers/STM32G4xx_HAL_Driver/Src/stm32g4xx_hal_rcc.c ****   RCC_OscInitStruct->PLL.PLLP = READ_BIT(RCC->PLLCFGR, RCC_PLLCFGR_PLLPDIV) >> RCC_PLLCFGR_PLLPDIV_
 2221              	 .loc 1 1236 36 is_stmt 0 view .LVU778
 2222 008c DA68     	 ldr r2,[r3,#12]
1236:Drivers/STM32G4xx_HAL_Driver/Src/stm32g4xx_hal_rcc.c ****   RCC_OscInitStruct->PLL.PLLP = READ_BIT(RCC->PLLCFGR, RCC_PLLCFGR_PLLPDIV) >> RCC_PLLCFGR_PLLPDIV_
 2223              	 .loc 1 1236 77 view .LVU779
 2224 008e C2F34162 	 ubfx r2,r2,#25,#2
1236:Drivers/STM32G4xx_HAL_Driver/Src/stm32g4xx_hal_rcc.c ****   RCC_OscInitStruct->PLL.PLLP = READ_BIT(RCC->PLLCFGR, RCC_PLLCFGR_PLLPDIV) >> RCC_PLLCFGR_PLLPDIV_
 2225              	 .loc 1 1236 102 view .LVU780
 2226 0092 0132     	 adds r2,r2,#1
1236:Drivers/STM32G4xx_HAL_Driver/Src/stm32g4xx_hal_rcc.c ****   RCC_OscInitStruct->PLL.PLLP = READ_BIT(RCC->PLLCFGR, RCC_PLLCFGR_PLLPDIV) >> RCC_PLLCFGR_PLLPDIV_
 2227              	 .loc 1 1236 108 view .LVU781
 2228 0094 5200     	 lsls r2,r2,#1
1236:Drivers/STM32G4xx_HAL_Driver/Src/stm32g4xx_hal_rcc.c ****   RCC_OscInitStruct->PLL.PLLP = READ_BIT(RCC->PLLCFGR, RCC_PLLCFGR_PLLPDIV) >> RCC_PLLCFGR_PLLPDIV_
 2229              	 .loc 1 1236 31 view .LVU782
 2230 0096 4263     	 str r2,[r0,#52]
1237:Drivers/STM32G4xx_HAL_Driver/Src/stm32g4xx_hal_rcc.c **** }
 2231              	 .loc 1 1237 3 is_stmt 1 view .LVU783
1237:Drivers/STM32G4xx_HAL_Driver/Src/stm32g4xx_hal_rcc.c **** }
 2232              	 .loc 1 1237 33 is_stmt 0 view .LVU784
 2233 0098 DB68     	 ldr r3,[r3,#12]
1237:Drivers/STM32G4xx_HAL_Driver/Src/stm32g4xx_hal_rcc.c **** }
 2234              	 .loc 1 1237 77 view .LVU785
 2235 009a DB0E     	 lsrs r3,r3,#27
1237:Drivers/STM32G4xx_HAL_Driver/Src/stm32g4xx_hal_rcc.c **** }
 2236              	 .loc 1 1237 31 view .LVU786
 2237 009c C362     	 str r3,[r0,#44]
1238:Drivers/STM32G4xx_HAL_Driver/Src/stm32g4xx_hal_rcc.c **** 
 2238              	 .loc 1 1238 1 view .LVU787
ARM GAS   			page 74


 2239 009e 7047     	 bx lr
 2240              	.L245:
 2241              	 .align 2
 2242              	.L244:
 2243 00a0 00100240 	 .word 1073876992
 2244              	 .cfi_endproc
 2245              	.LFE369:
 2247              	 .section .text.HAL_RCC_GetClockConfig,"ax",%progbits
 2248              	 .align 1
 2249              	 .p2align 2,,3
 2250              	 .global HAL_RCC_GetClockConfig
 2251              	 .syntax unified
 2252              	 .thumb
 2253              	 .thumb_func
 2255              	HAL_RCC_GetClockConfig:
 2256              	.LVL170:
 2257              	.LFB370:
1249:Drivers/STM32G4xx_HAL_Driver/Src/stm32g4xx_hal_rcc.c ****   /* Check the parameters */
 2258              	 .loc 1 1249 1 is_stmt 1 view-0
 2259              	 .cfi_startproc
 2260              	 
 2261              	 
 2262              	 
1251:Drivers/STM32G4xx_HAL_Driver/Src/stm32g4xx_hal_rcc.c ****   assert_param(pFLatency != (void *)NULL);
 2263              	 .loc 1 1251 3 view .LVU789
1252:Drivers/STM32G4xx_HAL_Driver/Src/stm32g4xx_hal_rcc.c **** 
 2264              	 .loc 1 1252 3 view .LVU790
1255:Drivers/STM32G4xx_HAL_Driver/Src/stm32g4xx_hal_rcc.c **** 
 2265              	 .loc 1 1255 3 view .LVU791
1258:Drivers/STM32G4xx_HAL_Driver/Src/stm32g4xx_hal_rcc.c **** 
 2266              	 .loc 1 1258 37 is_stmt 0 view .LVU792
 2267 0000 0E4B     	 ldr r3,.L248
1255:Drivers/STM32G4xx_HAL_Driver/Src/stm32g4xx_hal_rcc.c **** 
 2268              	 .loc 1 1255 32 view .LVU793
 2269 0002 0F22     	 movs r2,#15
1249:Drivers/STM32G4xx_HAL_Driver/Src/stm32g4xx_hal_rcc.c ****   /* Check the parameters */
 2270              	 .loc 1 1249 1 view .LVU794
 2271 0004 10B4     	 push {r4}
 2272              	 .cfi_def_cfa_offset 4
 2273              	 .cfi_offset 4,-4
1255:Drivers/STM32G4xx_HAL_Driver/Src/stm32g4xx_hal_rcc.c **** 
 2274              	 .loc 1 1255 32 view .LVU795
 2275 0006 0260     	 str r2,[r0]
1258:Drivers/STM32G4xx_HAL_Driver/Src/stm32g4xx_hal_rcc.c **** 
 2276              	 .loc 1 1258 3 is_stmt 1 view .LVU796
1258:Drivers/STM32G4xx_HAL_Driver/Src/stm32g4xx_hal_rcc.c **** 
 2277              	 .loc 1 1258 37 is_stmt 0 view .LVU797
 2278 0008 9A68     	 ldr r2,[r3,#8]
1270:Drivers/STM32G4xx_HAL_Driver/Src/stm32g4xx_hal_rcc.c **** }
 2279              	 .loc 1 1270 16 view .LVU798
 2280 000a 0D4C     	 ldr r4,.L248+4
1258:Drivers/STM32G4xx_HAL_Driver/Src/stm32g4xx_hal_rcc.c **** 
 2281              	 .loc 1 1258 37 view .LVU799
 2282 000c 02F00302 	 and r2,r2,#3
1258:Drivers/STM32G4xx_HAL_Driver/Src/stm32g4xx_hal_rcc.c **** 
 2283              	 .loc 1 1258 35 view .LVU800
 2284 0010 4260     	 str r2,[r0,#4]
ARM GAS   			page 75


1261:Drivers/STM32G4xx_HAL_Driver/Src/stm32g4xx_hal_rcc.c **** 
 2285              	 .loc 1 1261 3 is_stmt 1 view .LVU801
1261:Drivers/STM32G4xx_HAL_Driver/Src/stm32g4xx_hal_rcc.c **** 
 2286              	 .loc 1 1261 38 is_stmt 0 view .LVU802
 2287 0012 9A68     	 ldr r2,[r3,#8]
 2288 0014 02F0F002 	 and r2,r2,#240
1261:Drivers/STM32G4xx_HAL_Driver/Src/stm32g4xx_hal_rcc.c **** 
 2289              	 .loc 1 1261 36 view .LVU803
 2290 0018 8260     	 str r2,[r0,#8]
1264:Drivers/STM32G4xx_HAL_Driver/Src/stm32g4xx_hal_rcc.c **** 
 2291              	 .loc 1 1264 3 is_stmt 1 view .LVU804
1264:Drivers/STM32G4xx_HAL_Driver/Src/stm32g4xx_hal_rcc.c **** 
 2292              	 .loc 1 1264 39 is_stmt 0 view .LVU805
 2293 001a 9A68     	 ldr r2,[r3,#8]
 2294 001c 02F4E062 	 and r2,r2,#1792
1264:Drivers/STM32G4xx_HAL_Driver/Src/stm32g4xx_hal_rcc.c **** 
 2295              	 .loc 1 1264 37 view .LVU806
 2296 0020 C260     	 str r2,[r0,#12]
1267:Drivers/STM32G4xx_HAL_Driver/Src/stm32g4xx_hal_rcc.c **** 
 2297              	 .loc 1 1267 3 is_stmt 1 view .LVU807
1267:Drivers/STM32G4xx_HAL_Driver/Src/stm32g4xx_hal_rcc.c **** 
 2298              	 .loc 1 1267 40 is_stmt 0 view .LVU808
 2299 0022 9B68     	 ldr r3,[r3,#8]
1267:Drivers/STM32G4xx_HAL_Driver/Src/stm32g4xx_hal_rcc.c **** 
 2300              	 .loc 1 1267 76 view .LVU809
 2301 0024 DB08     	 lsrs r3,r3,#3
 2302 0026 03F4E063 	 and r3,r3,#1792
1267:Drivers/STM32G4xx_HAL_Driver/Src/stm32g4xx_hal_rcc.c **** 
 2303              	 .loc 1 1267 37 view .LVU810
 2304 002a 0361     	 str r3,[r0,#16]
1270:Drivers/STM32G4xx_HAL_Driver/Src/stm32g4xx_hal_rcc.c **** }
 2305              	 .loc 1 1270 3 is_stmt 1 view .LVU811
1270:Drivers/STM32G4xx_HAL_Driver/Src/stm32g4xx_hal_rcc.c **** }
 2306              	 .loc 1 1270 16 is_stmt 0 view .LVU812
 2307 002c 2368     	 ldr r3,[r4]
1271:Drivers/STM32G4xx_HAL_Driver/Src/stm32g4xx_hal_rcc.c **** 
 2308              	 .loc 1 1271 1 view .LVU813
 2309 002e 5DF8044B 	 ldr r4,[sp],#4
 2310              	 .cfi_restore 4
 2311              	 .cfi_def_cfa_offset 0
1270:Drivers/STM32G4xx_HAL_Driver/Src/stm32g4xx_hal_rcc.c **** }
 2312              	 .loc 1 1270 16 view .LVU814
 2313 0032 03F00F03 	 and r3,r3,#15
1270:Drivers/STM32G4xx_HAL_Driver/Src/stm32g4xx_hal_rcc.c **** }
 2314              	 .loc 1 1270 14 view .LVU815
 2315 0036 0B60     	 str r3,[r1]
1271:Drivers/STM32G4xx_HAL_Driver/Src/stm32g4xx_hal_rcc.c **** 
 2316              	 .loc 1 1271 1 view .LVU816
 2317 0038 7047     	 bx lr
 2318              	.L249:
 2319 003a 00BF     	 .align 2
 2320              	.L248:
 2321 003c 00100240 	 .word 1073876992
 2322 0040 00200240 	 .word 1073881088
 2323              	 .cfi_endproc
 2324              	.LFE370:
 2326              	 .section .text.HAL_RCC_EnableCSS,"ax",%progbits
ARM GAS   			page 76


 2327              	 .align 1
 2328              	 .p2align 2,,3
 2329              	 .global HAL_RCC_EnableCSS
 2330              	 .syntax unified
 2331              	 .thumb
 2332              	 .thumb_func
 2334              	HAL_RCC_EnableCSS:
 2335              	.LFB371:
1284:Drivers/STM32G4xx_HAL_Driver/Src/stm32g4xx_hal_rcc.c ****   SET_BIT(RCC->CR, RCC_CR_CSSON) ;
 2336              	 .loc 1 1284 1 is_stmt 1 view-0
 2337              	 .cfi_startproc
 2338              	 
 2339              	 
 2340              	 
1285:Drivers/STM32G4xx_HAL_Driver/Src/stm32g4xx_hal_rcc.c **** }
 2341              	 .loc 1 1285 3 view .LVU818
 2342 0000 024A     	 ldr r2,.L251
 2343 0002 1368     	 ldr r3,[r2]
 2344 0004 43F40023 	 orr r3,r3,#524288
 2345 0008 1360     	 str r3,[r2]
1286:Drivers/STM32G4xx_HAL_Driver/Src/stm32g4xx_hal_rcc.c **** 
 2346              	 .loc 1 1286 1 is_stmt 0 view .LVU819
 2347 000a 7047     	 bx lr
 2348              	.L252:
 2349              	 .align 2
 2350              	.L251:
 2351 000c 00100240 	 .word 1073876992
 2352              	 .cfi_endproc
 2353              	.LFE371:
 2355              	 .section .text.HAL_RCC_EnableLSECSS,"ax",%progbits
 2356              	 .align 1
 2357              	 .p2align 2,,3
 2358              	 .global HAL_RCC_EnableLSECSS
 2359              	 .syntax unified
 2360              	 .thumb
 2361              	 .thumb_func
 2363              	HAL_RCC_EnableLSECSS:
 2364              	.LFB372:
1298:Drivers/STM32G4xx_HAL_Driver/Src/stm32g4xx_hal_rcc.c ****   SET_BIT(RCC->BDCR, RCC_BDCR_LSECSSON) ;
 2365              	 .loc 1 1298 1 is_stmt 1 view-0
 2366              	 .cfi_startproc
 2367              	 
 2368              	 
 2369              	 
1299:Drivers/STM32G4xx_HAL_Driver/Src/stm32g4xx_hal_rcc.c **** }
 2370              	 .loc 1 1299 3 view .LVU821
 2371 0000 034A     	 ldr r2,.L254
 2372 0002 D2F89030 	 ldr r3,[r2,#144]
 2373 0006 43F02003 	 orr r3,r3,#32
 2374 000a C2F89030 	 str r3,[r2,#144]
1300:Drivers/STM32G4xx_HAL_Driver/Src/stm32g4xx_hal_rcc.c **** 
 2375              	 .loc 1 1300 1 is_stmt 0 view .LVU822
 2376 000e 7047     	 bx lr
 2377              	.L255:
 2378              	 .align 2
 2379              	.L254:
 2380 0010 00100240 	 .word 1073876992
ARM GAS   			page 77


 2381              	 .cfi_endproc
 2382              	.LFE372:
 2384              	 .section .text.HAL_RCC_DisableLSECSS,"ax",%progbits
 2385              	 .align 1
 2386              	 .p2align 2,,3
 2387              	 .global HAL_RCC_DisableLSECSS
 2388              	 .syntax unified
 2389              	 .thumb
 2390              	 .thumb_func
 2392              	HAL_RCC_DisableLSECSS:
 2393              	.LFB373:
1309:Drivers/STM32G4xx_HAL_Driver/Src/stm32g4xx_hal_rcc.c ****   CLEAR_BIT(RCC->BDCR, RCC_BDCR_LSECSSON) ;
 2394              	 .loc 1 1309 1 is_stmt 1 view-0
 2395              	 .cfi_startproc
 2396              	 
 2397              	 
 2398              	 
1310:Drivers/STM32G4xx_HAL_Driver/Src/stm32g4xx_hal_rcc.c **** }
 2399              	 .loc 1 1310 3 view .LVU824
 2400 0000 034A     	 ldr r2,.L257
 2401 0002 D2F89030 	 ldr r3,[r2,#144]
 2402 0006 23F02003 	 bic r3,r3,#32
 2403 000a C2F89030 	 str r3,[r2,#144]
1311:Drivers/STM32G4xx_HAL_Driver/Src/stm32g4xx_hal_rcc.c **** 
 2404              	 .loc 1 1311 1 is_stmt 0 view .LVU825
 2405 000e 7047     	 bx lr
 2406              	.L258:
 2407              	 .align 2
 2408              	.L257:
 2409 0010 00100240 	 .word 1073876992
 2410              	 .cfi_endproc
 2411              	.LFE373:
 2413              	 .section .text.HAL_RCC_CSSCallback,"ax",%progbits
 2414              	 .align 1
 2415              	 .p2align 2,,3
 2416              	 .weak HAL_RCC_CSSCallback
 2417              	 .syntax unified
 2418              	 .thumb
 2419              	 .thumb_func
 2421              	HAL_RCC_CSSCallback:
 2422              	.LFB375:
1336:Drivers/STM32G4xx_HAL_Driver/Src/stm32g4xx_hal_rcc.c ****   /* NOTE : This function should not be modified, when the callback is needed,
 2423              	 .loc 1 1336 1 is_stmt 1 view-0
 2424              	 .cfi_startproc
 2425              	 
 2426              	 
 2427              	 
1340:Drivers/STM32G4xx_HAL_Driver/Src/stm32g4xx_hal_rcc.c **** 
 2428              	 .loc 1 1340 1 view .LVU827
 2429 0000 7047     	 bx lr
 2430              	 .cfi_endproc
 2431              	.LFE375:
 2433 0002 00BF     	 .section .text.HAL_RCC_NMI_IRQHandler,"ax",%progbits
 2434              	 .align 1
 2435              	 .p2align 2,,3
 2436              	 .global HAL_RCC_NMI_IRQHandler
 2437              	 .syntax unified
ARM GAS   			page 78


 2438              	 .thumb
 2439              	 .thumb_func
 2441              	HAL_RCC_NMI_IRQHandler:
 2442              	.LFB374:
1319:Drivers/STM32G4xx_HAL_Driver/Src/stm32g4xx_hal_rcc.c ****   /* Check RCC CSSF interrupt flag  */
 2443              	 .loc 1 1319 1 view-0
 2444              	 .cfi_startproc
 2445              	 
 2446              	 
1321:Drivers/STM32G4xx_HAL_Driver/Src/stm32g4xx_hal_rcc.c ****   {
 2447              	 .loc 1 1321 3 view .LVU829
1319:Drivers/STM32G4xx_HAL_Driver/Src/stm32g4xx_hal_rcc.c ****   /* Check RCC CSSF interrupt flag  */
 2448              	 .loc 1 1319 1 is_stmt 0 view .LVU830
 2449 0000 10B5     	 push {r4,lr}
 2450              	 .cfi_def_cfa_offset 8
 2451              	 .cfi_offset 4,-8
 2452              	 .cfi_offset 14,-4
1321:Drivers/STM32G4xx_HAL_Driver/Src/stm32g4xx_hal_rcc.c ****   {
 2453              	 .loc 1 1321 6 view .LVU831
 2454 0002 054C     	 ldr r4,.L267
 2455 0004 E369     	 ldr r3,[r4,#28]
1321:Drivers/STM32G4xx_HAL_Driver/Src/stm32g4xx_hal_rcc.c ****   {
 2456              	 .loc 1 1321 5 view .LVU832
 2457 0006 DB05     	 lsls r3,r3,#23
 2458 0008 00D4     	 bmi .L266
1329:Drivers/STM32G4xx_HAL_Driver/Src/stm32g4xx_hal_rcc.c **** 
 2459              	 .loc 1 1329 1 view .LVU833
 2460 000a 10BD     	 pop {r4,pc}
 2461              	.L266:
1324:Drivers/STM32G4xx_HAL_Driver/Src/stm32g4xx_hal_rcc.c **** 
 2462              	 .loc 1 1324 5 is_stmt 1 view .LVU834
 2463 000c FFF7FEFF 	 bl HAL_RCC_CSSCallback
 2464              	.LVL171:
1327:Drivers/STM32G4xx_HAL_Driver/Src/stm32g4xx_hal_rcc.c ****   }
 2465              	 .loc 1 1327 5 view .LVU835
 2466 0010 4FF48073 	 mov r3,#256
 2467 0014 2362     	 str r3,[r4,#32]
1329:Drivers/STM32G4xx_HAL_Driver/Src/stm32g4xx_hal_rcc.c **** 
 2468              	 .loc 1 1329 1 is_stmt 0 view .LVU836
 2469 0016 10BD     	 pop {r4,pc}
 2470              	.L268:
 2471              	 .align 2
 2472              	.L267:
 2473 0018 00100240 	 .word 1073876992
 2474              	 .cfi_endproc
 2475              	.LFE374:
 2477              	 .text
 2478              	.Letext0:
 2479              	 .file 2 "D:/msys2/mingw64/arm-none-eabi/include/machine/_default_types.h"
 2480              	 .file 3 "D:/msys2/mingw64/arm-none-eabi/include/sys/_stdint.h"
 2481              	 .file 4 "Drivers/CMSIS/Device/ST/STM32G4xx/Include/system_stm32g4xx.h"
 2482              	 .file 5 "Drivers/CMSIS/Device/ST/STM32G4xx/Include/stm32g474xx.h"
 2483              	 .file 6 "Drivers/CMSIS/Device/ST/STM32G4xx/Include/stm32g4xx.h"
 2484              	 .file 7 "Drivers/STM32G4xx_HAL_Driver/Inc/stm32g4xx_hal_def.h"
 2485              	 .file 8 "Drivers/STM32G4xx_HAL_Driver/Inc/stm32g4xx_hal_rcc.h"
 2486              	 .file 9 "Drivers/STM32G4xx_HAL_Driver/Inc/stm32g4xx_hal_gpio.h"
 2487              	 .file 10 "Drivers/STM32G4xx_HAL_Driver/Inc/stm32g4xx_hal.h"
ARM GAS   			page 79


ARM GAS   			page 80


DEFINED SYMBOLS
                            *ABS*:00000000 stm32g4xx_hal_rcc.c
    {standard input}:19     .text.HAL_RCC_DeInit:00000000 $t
    {standard input}:26     .text.HAL_RCC_DeInit:00000000 HAL_RCC_DeInit
    {standard input}:208    .text.HAL_RCC_DeInit:000000b0 $d
    {standard input}:216    .text.HAL_RCC_OscConfig:00000000 $t
    {standard input}:223    .text.HAL_RCC_OscConfig:00000000 HAL_RCC_OscConfig
    {standard input}:854    .text.HAL_RCC_OscConfig:000002b0 $d
    {standard input}:862    .text.HAL_RCC_OscConfig:000002c0 $t
    {standard input}:1233   .text.HAL_RCC_OscConfig:00000484 $d
    {standard input}:1239   .text.HAL_RCC_MCOConfig:00000000 $t
    {standard input}:1246   .text.HAL_RCC_MCOConfig:00000000 HAL_RCC_MCOConfig
    {standard input}:1345   .text.HAL_RCC_MCOConfig:00000050 $d
    {standard input}:1350   .text.HAL_RCC_GetSysClockFreq:00000000 $t
    {standard input}:1357   .text.HAL_RCC_GetSysClockFreq:00000000 HAL_RCC_GetSysClockFreq
    {standard input}:1467   .text.HAL_RCC_GetSysClockFreq:00000064 $d
    {standard input}:1474   .text.HAL_RCC_ClockConfig:00000000 $t
    {standard input}:1481   .text.HAL_RCC_ClockConfig:00000000 HAL_RCC_ClockConfig
    {standard input}:1951   .text.HAL_RCC_ClockConfig:000001e8 $d
    {standard input}:1963   .text.HAL_RCC_GetHCLKFreq:00000000 $t
    {standard input}:1970   .text.HAL_RCC_GetHCLKFreq:00000000 HAL_RCC_GetHCLKFreq
    {standard input}:1986   .text.HAL_RCC_GetHCLKFreq:00000008 $d
    {standard input}:1991   .text.HAL_RCC_GetPCLK1Freq:00000000 $t
    {standard input}:1998   .text.HAL_RCC_GetPCLK1Freq:00000000 HAL_RCC_GetPCLK1Freq
    {standard input}:2038   .text.HAL_RCC_GetPCLK1Freq:00000018 $d
    {standard input}:2045   .text.HAL_RCC_GetPCLK2Freq:00000000 $t
    {standard input}:2052   .text.HAL_RCC_GetPCLK2Freq:00000000 HAL_RCC_GetPCLK2Freq
    {standard input}:2092   .text.HAL_RCC_GetPCLK2Freq:00000018 $d
    {standard input}:2099   .text.HAL_RCC_GetOscConfig:00000000 $t
    {standard input}:2106   .text.HAL_RCC_GetOscConfig:00000000 HAL_RCC_GetOscConfig
    {standard input}:2243   .text.HAL_RCC_GetOscConfig:000000a0 $d
    {standard input}:2248   .text.HAL_RCC_GetClockConfig:00000000 $t
    {standard input}:2255   .text.HAL_RCC_GetClockConfig:00000000 HAL_RCC_GetClockConfig
    {standard input}:2321   .text.HAL_RCC_GetClockConfig:0000003c $d
    {standard input}:2327   .text.HAL_RCC_EnableCSS:00000000 $t
    {standard input}:2334   .text.HAL_RCC_EnableCSS:00000000 HAL_RCC_EnableCSS
    {standard input}:2351   .text.HAL_RCC_EnableCSS:0000000c $d
    {standard input}:2356   .text.HAL_RCC_EnableLSECSS:00000000 $t
    {standard input}:2363   .text.HAL_RCC_EnableLSECSS:00000000 HAL_RCC_EnableLSECSS
    {standard input}:2380   .text.HAL_RCC_EnableLSECSS:00000010 $d
    {standard input}:2385   .text.HAL_RCC_DisableLSECSS:00000000 $t
    {standard input}:2392   .text.HAL_RCC_DisableLSECSS:00000000 HAL_RCC_DisableLSECSS
    {standard input}:2409   .text.HAL_RCC_DisableLSECSS:00000010 $d
    {standard input}:2414   .text.HAL_RCC_CSSCallback:00000000 $t
    {standard input}:2421   .text.HAL_RCC_CSSCallback:00000000 HAL_RCC_CSSCallback
    {standard input}:2434   .text.HAL_RCC_NMI_IRQHandler:00000000 $t
    {standard input}:2441   .text.HAL_RCC_NMI_IRQHandler:00000000 HAL_RCC_NMI_IRQHandler
    {standard input}:2473   .text.HAL_RCC_NMI_IRQHandler:00000018 $d
                           .group:00000000 wm4.0.0a7385083264a66d46f50bd0ca9333d7
                           .group:00000000 wm4.stm32g4xx_hal_conf.h.23.29f848e16b8f40ab9160f466e02fbac5
                           .group:00000000 wm4.stm32g4xx.h.38.4ce5d67cecf3db23972af81b516b937b
                           .group:00000000 wm4.stm32g474xx.h.34.0f14ed7ce45f8c3c7c55af7520d7efa5
                           .group:00000000 wm4._newlib_version.h.4.0eb654b64686e2bd29646258853f6c22
                           .group:00000000 wm4.features.h.33.d554620bb17bd3b714c3fb5c268772bc
                           .group:00000000 wm4._default_types.h.15.247e5cd201eca3442cbf5404108c4935
                           .group:00000000 wm4._intsup.h.10.48bafbb683905c4daa4565a85aeeb264
                           .group:00000000 wm4._stdint.h.10.c24fa3af3bc1706662bb5593a907e841
ARM GAS   			page 81


                           .group:00000000 wm4.stdint.h.23.d53047a68f4a85177f80b422d52785ed
                           .group:00000000 wm4.cmsis_version.h.32.46e8eccfa2cfeaae11d008bb2823a3ed
                           .group:00000000 wm4.core_cm4.h.66.e4ff136c4a17abc46741866f64f8e729
                           .group:00000000 wm4.cmsis_gcc.h.26.78077cef1206e937f7b56043ffca496a
                           .group:00000000 wm4.core_cm4.h.174.fcddd62df80231752fa39eb9b61dadfe
                           .group:00000000 wm4.mpu_armv7.h.32.4049752bb5792d4e15357775e9506cfc
                           .group:00000000 wm4.stm32g474xx.h.714.40df4d5d8bd1a3a0e2dcb49e18b09038
                           .group:00000000 wm4.stm32g4xx.h.158.aa4340ed3b15fb0d4b1741cf5ce96563
                           .group:00000000 wm4.stm32_hal_legacy.h.22.e1e932ae083ad1562e3b1af87ae47999
                           .group:00000000 wm4.stddef.h.39.0dc9006b34572d4d9cae4c8b422c4971
                           .group:00000000 wm4.stm32g4xx_hal_def.h.57.460ac21f0caebde175d7222cb23afe15
                           .group:00000000 wm4.stm32g4xx_hal_rcc.h.135.8d28bdf720f4165758e115c83d05a7c2
                           .group:00000000 wm4.stm32g4xx_hal_rcc_ex.h.20.a381de89af88802207f549f948fabbc4
                           .group:00000000 wm4.stm32g4xx_hal_gpio.h.21.2ca30689d7a5ad939e06f5298d557243
                           .group:00000000 wm4.stm32g4xx_hal_gpio_ex.h.22.1b7da6fc7615b2341724123ae8e461d9
                           .group:00000000 wm4.stm32g4xx_hal_dma.h.21.2e23b0d56595a6b838cda841e78b2cf2
                           .group:00000000 wm4.stm32g4xx_hal_dma_ex.h.21.93a1fe56678997ad72754076070f4a0d
                           .group:00000000 wm4.stm32g4xx_hal_dma.h.803.dd88ea57b632f588d556f066658ac8d8
                           .group:00000000 wm4.stm32g4xx_hal_cortex.h.20.1ad77fb6b4fc679887cb0a980ea44a7a
                           .group:00000000 wm4.stm32g4xx_ll_adc.h.21.8052bcc80fb264686ac0eb0df096b4eb
                           .group:00000000 wm4.stm32g4xx_hal_adc.h.441.b9143c2a34e1e7389f3042e2226178dc
                           .group:00000000 wm4.stm32g4xx_hal_adc_ex.h.21.bf5e513b0c782ac53971b6599734b8c4
                           .group:00000000 wm4.stm32g4xx_ll_exti.h.21.3148a6980741767f71761eb445f346e9
                           .group:00000000 wm4.stm32g4xx_hal_comp.h.74.993852ecfac8b19c902e64e33c61511c
                           .group:00000000 wm4.stm32g4xx_hal_dac.h.21.db627068e52007634376a4c972c5d419
                           .group:00000000 wm4.stm32g4xx_hal_dac_ex.h.21.3725e9b2e9e08a08e2a598b2d2f18a92
                           .group:00000000 wm4.stm32g4xx_hal_exti.h.21.723acd8e98480aae634680651af4eb2a
                           .group:00000000 wm4.stm32g4xx_hal_fdcan.h.21.7e3b4b48cfc4adf8b669f7e4b16ec2a0
                           .group:00000000 wm4.stm32g4xx_hal_flash.h.20.d5eb04c7abbe2eb79b40a04b3414a774
                           .group:00000000 wm4.stm32g4xx_hal_flash.h.868.06dd2f9ca2f40ac164951ad647480079
                           .group:00000000 wm4.stm32g4xx_hal_hrtim.h.21.5bb9cc2116aa63503a68d53ce84fbb8c
                           .group:00000000 wm4.stm32g4xx_hal_opamp.h.21.0de86917e81e98dccfa125838db59b66
                           .group:00000000 wm4.stm32g4xx_hal_pwr.h.21.9b149e14c0ecf58cee46e8fb7f654b77
                           .group:00000000 wm4.stm32g4xx_hal_pwr_ex.h.21.32206cbbd2cbec024b8600a98cfa3df7
                           .group:00000000 wm4.stm32g4xx_hal_tim.h.21.48998681c932026239437f6645b6b47f
                           .group:00000000 wm4.stm32g4xx_hal_tim_ex.h.21.931c546f492dcdbc9ac587da38712500
                           .group:00000000 wm4.stm32g4xx_hal.h.49.77ad48c45d6a59e5132483403b560be0

UNDEFINED SYMBOLS
HAL_GetTick
HAL_InitTick
uwTickPrio
SystemCoreClock
HAL_GPIO_Init
AHBPrescTable
APBPrescTable
