ARM GAS   			page 1


   1              	 .cpu cortex-m4
   2              	 .arch armv7e-m
   3              	 .fpu fpv4-sp-d16
   4              	 .eabi_attribute 27,1
   5              	 .eabi_attribute 28,1
   6              	 .eabi_attribute 23,1
   7              	 .eabi_attribute 24,1
   8              	 .eabi_attribute 25,1
   9              	 .eabi_attribute 26,1
  10              	 .eabi_attribute 30,2
  11              	 .eabi_attribute 34,1
  12              	 .eabi_attribute 18,4
  13              	 .file "stm32g4xx_hal_opamp_ex.c"
  14              	 .text
  15              	.Ltext0:
  16              	 .cfi_sections .debug_frame
  17              	 .file 1 "Drivers/STM32G4xx_HAL_Driver/Src/stm32g4xx_hal_opamp_ex.c"
  18              	 .section .text.HAL_OPAMPEx_SelfCalibrateAll,"ax",%progbits
  19              	 .align 1
  20              	 .p2align 2,,3
  21              	 .global HAL_OPAMPEx_SelfCalibrateAll
  22              	 .syntax unified
  23              	 .thumb
  24              	 .thumb_func
  26              	HAL_OPAMPEx_SelfCalibrateAll:
  27              	.LVL0:
  28              	.LFB361:
   1:Drivers/STM32G4xx_HAL_Driver/Src/stm32g4xx_hal_opamp_ex.c **** /**
   2:Drivers/STM32G4xx_HAL_Driver/Src/stm32g4xx_hal_opamp_ex.c ****   ******************************************************************************
   3:Drivers/STM32G4xx_HAL_Driver/Src/stm32g4xx_hal_opamp_ex.c ****   * @file    stm32g4xx_hal_opamp_ex.c
   4:Drivers/STM32G4xx_HAL_Driver/Src/stm32g4xx_hal_opamp_ex.c ****   * @author  MCD Application Team
   5:Drivers/STM32G4xx_HAL_Driver/Src/stm32g4xx_hal_opamp_ex.c ****   * @brief   Extended OPAMP HAL module driver.
   6:Drivers/STM32G4xx_HAL_Driver/Src/stm32g4xx_hal_opamp_ex.c ****   *
   7:Drivers/STM32G4xx_HAL_Driver/Src/stm32g4xx_hal_opamp_ex.c ****   *          This file provides firmware functions to manage the following
   8:Drivers/STM32G4xx_HAL_Driver/Src/stm32g4xx_hal_opamp_ex.c ****   *          functionalities of the operational amplifiers peripheral:
   9:Drivers/STM32G4xx_HAL_Driver/Src/stm32g4xx_hal_opamp_ex.c ****   *           + Extended Initialization and de-initialization functions
  10:Drivers/STM32G4xx_HAL_Driver/Src/stm32g4xx_hal_opamp_ex.c ****   *           + Extended Peripheral Control functions
  11:Drivers/STM32G4xx_HAL_Driver/Src/stm32g4xx_hal_opamp_ex.c ****   *
  12:Drivers/STM32G4xx_HAL_Driver/Src/stm32g4xx_hal_opamp_ex.c ****   @verbatim
  13:Drivers/STM32G4xx_HAL_Driver/Src/stm32g4xx_hal_opamp_ex.c ****   ******************************************************************************
  14:Drivers/STM32G4xx_HAL_Driver/Src/stm32g4xx_hal_opamp_ex.c ****   * @attention
  15:Drivers/STM32G4xx_HAL_Driver/Src/stm32g4xx_hal_opamp_ex.c ****   *
  16:Drivers/STM32G4xx_HAL_Driver/Src/stm32g4xx_hal_opamp_ex.c ****   * Copyright (c) 2019 STMicroelectronics.
  17:Drivers/STM32G4xx_HAL_Driver/Src/stm32g4xx_hal_opamp_ex.c ****   * All rights reserved.
  18:Drivers/STM32G4xx_HAL_Driver/Src/stm32g4xx_hal_opamp_ex.c ****   *
  19:Drivers/STM32G4xx_HAL_Driver/Src/stm32g4xx_hal_opamp_ex.c ****   * This software is licensed under terms that can be found in the LICENSE file
  20:Drivers/STM32G4xx_HAL_Driver/Src/stm32g4xx_hal_opamp_ex.c ****   * in the root directory of this software component.
  21:Drivers/STM32G4xx_HAL_Driver/Src/stm32g4xx_hal_opamp_ex.c ****   * If no LICENSE file comes with this software, it is provided AS-IS.
  22:Drivers/STM32G4xx_HAL_Driver/Src/stm32g4xx_hal_opamp_ex.c ****   *
  23:Drivers/STM32G4xx_HAL_Driver/Src/stm32g4xx_hal_opamp_ex.c ****   ******************************************************************************
  24:Drivers/STM32G4xx_HAL_Driver/Src/stm32g4xx_hal_opamp_ex.c ****   */
  25:Drivers/STM32G4xx_HAL_Driver/Src/stm32g4xx_hal_opamp_ex.c **** 
  26:Drivers/STM32G4xx_HAL_Driver/Src/stm32g4xx_hal_opamp_ex.c **** /* Includes ------------------------------------------------------------------*/
  27:Drivers/STM32G4xx_HAL_Driver/Src/stm32g4xx_hal_opamp_ex.c **** #include "stm32g4xx_hal.h"
  28:Drivers/STM32G4xx_HAL_Driver/Src/stm32g4xx_hal_opamp_ex.c **** 
  29:Drivers/STM32G4xx_HAL_Driver/Src/stm32g4xx_hal_opamp_ex.c **** /** @addtogroup STM32G4xx_HAL_Driver
  30:Drivers/STM32G4xx_HAL_Driver/Src/stm32g4xx_hal_opamp_ex.c ****   * @{
ARM GAS   			page 2


  31:Drivers/STM32G4xx_HAL_Driver/Src/stm32g4xx_hal_opamp_ex.c ****   */
  32:Drivers/STM32G4xx_HAL_Driver/Src/stm32g4xx_hal_opamp_ex.c **** 
  33:Drivers/STM32G4xx_HAL_Driver/Src/stm32g4xx_hal_opamp_ex.c **** #if defined (OPAMP1) || defined (OPAMP2) || defined (OPAMP3) || defined (OPAMP4) || defined (OPAMP5
  34:Drivers/STM32G4xx_HAL_Driver/Src/stm32g4xx_hal_opamp_ex.c **** #ifdef HAL_OPAMP_MODULE_ENABLED
  35:Drivers/STM32G4xx_HAL_Driver/Src/stm32g4xx_hal_opamp_ex.c **** 
  36:Drivers/STM32G4xx_HAL_Driver/Src/stm32g4xx_hal_opamp_ex.c **** /** @defgroup OPAMPEx OPAMPEx
  37:Drivers/STM32G4xx_HAL_Driver/Src/stm32g4xx_hal_opamp_ex.c ****   * @brief OPAMP Extended HAL module driver
  38:Drivers/STM32G4xx_HAL_Driver/Src/stm32g4xx_hal_opamp_ex.c ****   * @{
  39:Drivers/STM32G4xx_HAL_Driver/Src/stm32g4xx_hal_opamp_ex.c ****   */
  40:Drivers/STM32G4xx_HAL_Driver/Src/stm32g4xx_hal_opamp_ex.c **** 
  41:Drivers/STM32G4xx_HAL_Driver/Src/stm32g4xx_hal_opamp_ex.c **** 
  42:Drivers/STM32G4xx_HAL_Driver/Src/stm32g4xx_hal_opamp_ex.c **** /* Private typedef -----------------------------------------------------------*/
  43:Drivers/STM32G4xx_HAL_Driver/Src/stm32g4xx_hal_opamp_ex.c **** /* Private define ------------------------------------------------------------*/
  44:Drivers/STM32G4xx_HAL_Driver/Src/stm32g4xx_hal_opamp_ex.c **** /* Private macro -------------------------------------------------------------*/
  45:Drivers/STM32G4xx_HAL_Driver/Src/stm32g4xx_hal_opamp_ex.c **** /* Private variables ---------------------------------------------------------*/
  46:Drivers/STM32G4xx_HAL_Driver/Src/stm32g4xx_hal_opamp_ex.c **** /* Private function prototypes -----------------------------------------------*/
  47:Drivers/STM32G4xx_HAL_Driver/Src/stm32g4xx_hal_opamp_ex.c **** /* Exported functions --------------------------------------------------------*/
  48:Drivers/STM32G4xx_HAL_Driver/Src/stm32g4xx_hal_opamp_ex.c **** 
  49:Drivers/STM32G4xx_HAL_Driver/Src/stm32g4xx_hal_opamp_ex.c **** /** @defgroup OPAMPEx_Exported_Functions OPAMP Extended Exported Functions
  50:Drivers/STM32G4xx_HAL_Driver/Src/stm32g4xx_hal_opamp_ex.c ****   * @{
  51:Drivers/STM32G4xx_HAL_Driver/Src/stm32g4xx_hal_opamp_ex.c ****   */
  52:Drivers/STM32G4xx_HAL_Driver/Src/stm32g4xx_hal_opamp_ex.c **** 
  53:Drivers/STM32G4xx_HAL_Driver/Src/stm32g4xx_hal_opamp_ex.c **** 
  54:Drivers/STM32G4xx_HAL_Driver/Src/stm32g4xx_hal_opamp_ex.c **** /** @defgroup OPAMPEx_Exported_Functions_Group1 Extended Input and Output operation functions
  55:Drivers/STM32G4xx_HAL_Driver/Src/stm32g4xx_hal_opamp_ex.c ****   * @brief    Extended Self calibration functions
  56:Drivers/STM32G4xx_HAL_Driver/Src/stm32g4xx_hal_opamp_ex.c ****   *
  57:Drivers/STM32G4xx_HAL_Driver/Src/stm32g4xx_hal_opamp_ex.c **** @verbatim
  58:Drivers/STM32G4xx_HAL_Driver/Src/stm32g4xx_hal_opamp_ex.c ****  ===============================================================================
  59:Drivers/STM32G4xx_HAL_Driver/Src/stm32g4xx_hal_opamp_ex.c ****               ##### Extended IO operation functions #####
  60:Drivers/STM32G4xx_HAL_Driver/Src/stm32g4xx_hal_opamp_ex.c ****  ===============================================================================
  61:Drivers/STM32G4xx_HAL_Driver/Src/stm32g4xx_hal_opamp_ex.c ****   [..]
  62:Drivers/STM32G4xx_HAL_Driver/Src/stm32g4xx_hal_opamp_ex.c ****       (+) OPAMP Self calibration.
  63:Drivers/STM32G4xx_HAL_Driver/Src/stm32g4xx_hal_opamp_ex.c **** 
  64:Drivers/STM32G4xx_HAL_Driver/Src/stm32g4xx_hal_opamp_ex.c **** @endverbatim
  65:Drivers/STM32G4xx_HAL_Driver/Src/stm32g4xx_hal_opamp_ex.c ****   * @{
  66:Drivers/STM32G4xx_HAL_Driver/Src/stm32g4xx_hal_opamp_ex.c ****   */
  67:Drivers/STM32G4xx_HAL_Driver/Src/stm32g4xx_hal_opamp_ex.c **** 
  68:Drivers/STM32G4xx_HAL_Driver/Src/stm32g4xx_hal_opamp_ex.c **** /**
  69:Drivers/STM32G4xx_HAL_Driver/Src/stm32g4xx_hal_opamp_ex.c ****   * @brief  Run the self calibration of up to 6 OPAMPs in parallel.
  70:Drivers/STM32G4xx_HAL_Driver/Src/stm32g4xx_hal_opamp_ex.c ****   * @note   Calibration is performed in the mode specified in OPAMP init
  71:Drivers/STM32G4xx_HAL_Driver/Src/stm32g4xx_hal_opamp_ex.c ****   *         structure (mode normal or high-speed).
  72:Drivers/STM32G4xx_HAL_Driver/Src/stm32g4xx_hal_opamp_ex.c ****   * @param  hopamp1 handle
  73:Drivers/STM32G4xx_HAL_Driver/Src/stm32g4xx_hal_opamp_ex.c ****   * @param  hopamp2 handle
  74:Drivers/STM32G4xx_HAL_Driver/Src/stm32g4xx_hal_opamp_ex.c ****   * @param  hopamp3 handle
  75:Drivers/STM32G4xx_HAL_Driver/Src/stm32g4xx_hal_opamp_ex.c ****   * @param  hopamp4 handle  (1)
  76:Drivers/STM32G4xx_HAL_Driver/Src/stm32g4xx_hal_opamp_ex.c ****   * @param  hopamp5 handle  (1)
  77:Drivers/STM32G4xx_HAL_Driver/Src/stm32g4xx_hal_opamp_ex.c ****   * @param  hopamp6 handle  (1)
  78:Drivers/STM32G4xx_HAL_Driver/Src/stm32g4xx_hal_opamp_ex.c ****   *         (1) Parameter not present on STM32GBK1CB/STM32G411xB/STM32G411xC/STM32G431xx/STM32G441x
  79:Drivers/STM32G4xx_HAL_Driver/Src/stm32g4xx_hal_opamp_ex.c ****   * @retval HAL status
  80:Drivers/STM32G4xx_HAL_Driver/Src/stm32g4xx_hal_opamp_ex.c ****   * @note   Updated offset trimming values (PMOS & NMOS), user trimming is enabled
  81:Drivers/STM32G4xx_HAL_Driver/Src/stm32g4xx_hal_opamp_ex.c ****   * @note   Calibration runs about 25 ms.
  82:Drivers/STM32G4xx_HAL_Driver/Src/stm32g4xx_hal_opamp_ex.c ****   */
  83:Drivers/STM32G4xx_HAL_Driver/Src/stm32g4xx_hal_opamp_ex.c **** 
  84:Drivers/STM32G4xx_HAL_Driver/Src/stm32g4xx_hal_opamp_ex.c **** #if defined(STM32G473xx) || defined(STM32G474xx) || defined(STM32G483xx) || defined(STM32G484xx)
  85:Drivers/STM32G4xx_HAL_Driver/Src/stm32g4xx_hal_opamp_ex.c **** HAL_StatusTypeDef HAL_OPAMPEx_SelfCalibrateAll(OPAMP_HandleTypeDef *hopamp1, OPAMP_HandleTypeDef *h
  86:Drivers/STM32G4xx_HAL_Driver/Src/stm32g4xx_hal_opamp_ex.c ****                                                OPAMP_HandleTypeDef *hopamp3, OPAMP_HandleTypeDef *h
  87:Drivers/STM32G4xx_HAL_Driver/Src/stm32g4xx_hal_opamp_ex.c ****                                                OPAMP_HandleTypeDef *hopamp5, OPAMP_HandleTypeDef *h
ARM GAS   			page 3


  88:Drivers/STM32G4xx_HAL_Driver/Src/stm32g4xx_hal_opamp_ex.c **** #elif defined(STM32GBK1CB) || defined(STM32G431xx) || defined(STM32G441xx) || defined(STM32G471xx)
  89:Drivers/STM32G4xx_HAL_Driver/Src/stm32g4xx_hal_opamp_ex.c **** HAL_StatusTypeDef HAL_OPAMPEx_SelfCalibrateAll(OPAMP_HandleTypeDef *hopamp1, OPAMP_HandleTypeDef *h
  90:Drivers/STM32G4xx_HAL_Driver/Src/stm32g4xx_hal_opamp_ex.c ****                                                OPAMP_HandleTypeDef *hopamp3)
  91:Drivers/STM32G4xx_HAL_Driver/Src/stm32g4xx_hal_opamp_ex.c **** #elif defined(STM32G491xx) || defined(STM32G4A1xx)
  92:Drivers/STM32G4xx_HAL_Driver/Src/stm32g4xx_hal_opamp_ex.c **** HAL_StatusTypeDef HAL_OPAMPEx_SelfCalibrateAll(OPAMP_HandleTypeDef *hopamp1, OPAMP_HandleTypeDef *h
  93:Drivers/STM32G4xx_HAL_Driver/Src/stm32g4xx_hal_opamp_ex.c ****                                                OPAMP_HandleTypeDef *hopamp3, OPAMP_HandleTypeDef *h
  94:Drivers/STM32G4xx_HAL_Driver/Src/stm32g4xx_hal_opamp_ex.c **** #elif defined(STM32G411xB) || defined(STM32G411xC)
  95:Drivers/STM32G4xx_HAL_Driver/Src/stm32g4xx_hal_opamp_ex.c **** HAL_StatusTypeDef HAL_OPAMPEx_SelfCalibrateAll(OPAMP_HandleTypeDef *hopamp1)
  96:Drivers/STM32G4xx_HAL_Driver/Src/stm32g4xx_hal_opamp_ex.c **** #endif /* STM32G473xx || STM32G474xx || STM32G483xx || STM32G484xx */
  97:Drivers/STM32G4xx_HAL_Driver/Src/stm32g4xx_hal_opamp_ex.c **** {
  29              	 .loc 1 97 1 view-0
  30              	 .cfi_startproc
  31              	 
  32              	 
  98:Drivers/STM32G4xx_HAL_Driver/Src/stm32g4xx_hal_opamp_ex.c ****   uint32_t trimmingvaluen1;
  33              	 .loc 1 98 3 view .LVU1
  99:Drivers/STM32G4xx_HAL_Driver/Src/stm32g4xx_hal_opamp_ex.c ****   uint32_t trimmingvaluep1;
  34              	 .loc 1 99 3 view .LVU2
 100:Drivers/STM32G4xx_HAL_Driver/Src/stm32g4xx_hal_opamp_ex.c **** #if defined(STM32GBK1CB) || defined(STM32G431xx) || defined(STM32G441xx) || defined(STM32G471xx) ||
 101:Drivers/STM32G4xx_HAL_Driver/Src/stm32g4xx_hal_opamp_ex.c ****     defined(STM32G473xx) || defined(STM32G474xx) || defined(STM32G483xx) || defined(STM32G484xx) ||
 102:Drivers/STM32G4xx_HAL_Driver/Src/stm32g4xx_hal_opamp_ex.c ****     defined(STM32G491xx) || defined(STM32G4A1xx)
 103:Drivers/STM32G4xx_HAL_Driver/Src/stm32g4xx_hal_opamp_ex.c ****   uint32_t trimmingvaluen2;
  35              	 .loc 1 103 3 view .LVU3
 104:Drivers/STM32G4xx_HAL_Driver/Src/stm32g4xx_hal_opamp_ex.c ****   uint32_t trimmingvaluep2;
  36              	 .loc 1 104 3 view .LVU4
 105:Drivers/STM32G4xx_HAL_Driver/Src/stm32g4xx_hal_opamp_ex.c ****   uint32_t trimmingvaluen3;
  37              	 .loc 1 105 3 view .LVU5
 106:Drivers/STM32G4xx_HAL_Driver/Src/stm32g4xx_hal_opamp_ex.c ****   uint32_t trimmingvaluep3;
  38              	 .loc 1 106 3 view .LVU6
 107:Drivers/STM32G4xx_HAL_Driver/Src/stm32g4xx_hal_opamp_ex.c **** #endif /* STM32GBK1CB || STM32G431xx || STM32G441xx || STM32G471xx || STM32G473xx || STM32G474xx ||
 108:Drivers/STM32G4xx_HAL_Driver/Src/stm32g4xx_hal_opamp_ex.c ****           STM32G483xx || STM32G484xx || STM32G491xx || STM32G4A1xx */
 109:Drivers/STM32G4xx_HAL_Driver/Src/stm32g4xx_hal_opamp_ex.c **** #if defined(STM32G473xx) || defined(STM32G474xx) || defined(STM32G483xx) || defined(STM32G484xx)
 110:Drivers/STM32G4xx_HAL_Driver/Src/stm32g4xx_hal_opamp_ex.c ****   uint32_t trimmingvaluen4;
  39              	 .loc 1 110 3 view .LVU7
 111:Drivers/STM32G4xx_HAL_Driver/Src/stm32g4xx_hal_opamp_ex.c ****   uint32_t trimmingvaluep4;
  40              	 .loc 1 111 3 view .LVU8
 112:Drivers/STM32G4xx_HAL_Driver/Src/stm32g4xx_hal_opamp_ex.c ****   uint32_t trimmingvaluen5;
  41              	 .loc 1 112 3 view .LVU9
 113:Drivers/STM32G4xx_HAL_Driver/Src/stm32g4xx_hal_opamp_ex.c ****   uint32_t trimmingvaluep5;
  42              	 .loc 1 113 3 view .LVU10
 114:Drivers/STM32G4xx_HAL_Driver/Src/stm32g4xx_hal_opamp_ex.c ****   uint32_t trimmingvaluen6;
  43              	 .loc 1 114 3 view .LVU11
 115:Drivers/STM32G4xx_HAL_Driver/Src/stm32g4xx_hal_opamp_ex.c ****   uint32_t trimmingvaluep6;
  44              	 .loc 1 115 3 view .LVU12
 116:Drivers/STM32G4xx_HAL_Driver/Src/stm32g4xx_hal_opamp_ex.c **** #elif defined(STM32G491xx) || defined(STM32G4A1xx)
 117:Drivers/STM32G4xx_HAL_Driver/Src/stm32g4xx_hal_opamp_ex.c ****   uint32_t trimmingvaluen6;
 118:Drivers/STM32G4xx_HAL_Driver/Src/stm32g4xx_hal_opamp_ex.c ****   uint32_t trimmingvaluep6;
 119:Drivers/STM32G4xx_HAL_Driver/Src/stm32g4xx_hal_opamp_ex.c **** #endif /* STM32G473xx || STM32G474xx || STM32G483xx || STM32G484xx */
 120:Drivers/STM32G4xx_HAL_Driver/Src/stm32g4xx_hal_opamp_ex.c **** 
 121:Drivers/STM32G4xx_HAL_Driver/Src/stm32g4xx_hal_opamp_ex.c ****   uint32_t delta;
  45              	 .loc 1 121 3 view .LVU13
 122:Drivers/STM32G4xx_HAL_Driver/Src/stm32g4xx_hal_opamp_ex.c **** 
 123:Drivers/STM32G4xx_HAL_Driver/Src/stm32g4xx_hal_opamp_ex.c ****   if ((hopamp1 == NULL)
  46              	 .loc 1 123 3 view .LVU14
  47              	 .loc 1 123 6 is_stmt 0 view .LVU15
  48 0000 0028     	 cmp r0,#0
  49 0002 00F07884 	 beq .L41
ARM GAS   			page 4


  97:Drivers/STM32G4xx_HAL_Driver/Src/stm32g4xx_hal_opamp_ex.c ****   uint32_t trimmingvaluen1;
  50              	 .loc 1 97 1 view .LVU16
  51 0006 2DE9F04F 	 push {r4,r5,r6,r7,r8,r9,r10,fp,lr}
  52              	 .cfi_def_cfa_offset 36
  53              	 .cfi_offset 4,-36
  54              	 .cfi_offset 5,-32
  55              	 .cfi_offset 6,-28
  56              	 .cfi_offset 7,-24
  57              	 .cfi_offset 8,-20
  58              	 .cfi_offset 9,-16
  59              	 .cfi_offset 10,-12
  60              	 .cfi_offset 11,-8
  61              	 .cfi_offset 14,-4
  62 000a 0D46     	 mov r5,r1
  63 000c 97B0     	 sub sp,sp,#92
  64              	 .cfi_def_cfa_offset 128
 124:Drivers/STM32G4xx_HAL_Driver/Src/stm32g4xx_hal_opamp_ex.c **** #if defined(STM32GBK1CB) || defined(STM32G431xx) || defined(STM32G441xx) || defined(STM32G471xx) ||
 125:Drivers/STM32G4xx_HAL_Driver/Src/stm32g4xx_hal_opamp_ex.c ****     defined(STM32G473xx) || defined(STM32G474xx) || defined(STM32G483xx) || defined(STM32G484xx) ||
 126:Drivers/STM32G4xx_HAL_Driver/Src/stm32g4xx_hal_opamp_ex.c ****     defined(STM32G491xx) || defined(STM32G4A1xx)
 127:Drivers/STM32G4xx_HAL_Driver/Src/stm32g4xx_hal_opamp_ex.c ****       || (hopamp2 == NULL) || (hopamp3 == NULL)
  65              	 .loc 1 127 7 view .LVU17
  66 000e 69B1     	 cbz r1,.L49
  67 0010 1646     	 mov r6,r2
  68              	 .loc 1 127 28 discriminator 1 view .LVU18
  69 0012 5AB1     	 cbz r2,.L49
  70 0014 1F46     	 mov r7,r3
 128:Drivers/STM32G4xx_HAL_Driver/Src/stm32g4xx_hal_opamp_ex.c **** #endif /* STM32GBK1CB || STM32G431xx || STM32G441xx || STM32G471xx || STM32G473xx || STM32G474xx ||
 129:Drivers/STM32G4xx_HAL_Driver/Src/stm32g4xx_hal_opamp_ex.c ****           STM32G483xx || STM32G484xx || STM32G491xx || STM32G4A1xx */
 130:Drivers/STM32G4xx_HAL_Driver/Src/stm32g4xx_hal_opamp_ex.c **** #if defined(STM32G473xx) || defined(STM32G474xx) || defined(STM32G483xx) || defined(STM32G484xx)
 131:Drivers/STM32G4xx_HAL_Driver/Src/stm32g4xx_hal_opamp_ex.c ****       || (hopamp4 == NULL) || (hopamp5 == NULL) || (hopamp6 == NULL)
  71              	 .loc 1 131 7 view .LVU19
  72 0016 4BB1     	 cbz r3,.L49
  73              	 .loc 1 131 28 discriminator 1 view .LVU20
  74 0018 209B     	 ldr r3,[sp,#128]
  75              	.LVL1:
  76              	 .loc 1 131 28 discriminator 1 view .LVU21
  77 001a 3BB1     	 cbz r3,.L49
  78              	 .loc 1 131 49 discriminator 2 view .LVU22
  79 001c 219B     	 ldr r3,[sp,#132]
  80 001e 2BB1     	 cbz r3,.L49
 132:Drivers/STM32G4xx_HAL_Driver/Src/stm32g4xx_hal_opamp_ex.c **** #elif defined(STM32G491xx) || defined(STM32G4A1xx)
 133:Drivers/STM32G4xx_HAL_Driver/Src/stm32g4xx_hal_opamp_ex.c ****       || (hopamp6 == NULL)
 134:Drivers/STM32G4xx_HAL_Driver/Src/stm32g4xx_hal_opamp_ex.c **** #endif /* STM32G473xx || STM32G474xx || STM32G483xx || STM32G484xx */
 135:Drivers/STM32G4xx_HAL_Driver/Src/stm32g4xx_hal_opamp_ex.c ****      )
 136:Drivers/STM32G4xx_HAL_Driver/Src/stm32g4xx_hal_opamp_ex.c ****   {
 137:Drivers/STM32G4xx_HAL_Driver/Src/stm32g4xx_hal_opamp_ex.c ****     return HAL_ERROR;
 138:Drivers/STM32G4xx_HAL_Driver/Src/stm32g4xx_hal_opamp_ex.c ****   }
 139:Drivers/STM32G4xx_HAL_Driver/Src/stm32g4xx_hal_opamp_ex.c ****   else if (hopamp1->State != HAL_OPAMP_STATE_READY)
  81              	 .loc 1 139 19 view .LVU23
  82 0020 90F83A30 	 ldrb r3,[r0,#58]
  83              	 .loc 1 139 11 view .LVU24
  84 0024 012B     	 cmp r3,#1
  85 0026 0446     	 mov r4,r0
  86              	 .loc 1 139 8 is_stmt 1 view .LVU25
  87              	 .loc 1 139 19 is_stmt 0 view .LVU26
  88 0028 D8B2     	 uxtb r0,r3
  89              	.LVL2:
ARM GAS   			page 5


  90              	 .loc 1 139 11 view .LVU27
  91 002a 03D0     	 beq .L93
  92              	.LVL3:
  93              	.L49:
 137:Drivers/STM32G4xx_HAL_Driver/Src/stm32g4xx_hal_opamp_ex.c ****   }
  94              	 .loc 1 137 12 view .LVU28
  95 002c 0120     	 movs r0,#1
  96              	.LVL4:
  97              	.L2:
 140:Drivers/STM32G4xx_HAL_Driver/Src/stm32g4xx_hal_opamp_ex.c ****   {
 141:Drivers/STM32G4xx_HAL_Driver/Src/stm32g4xx_hal_opamp_ex.c ****     return HAL_ERROR;
 142:Drivers/STM32G4xx_HAL_Driver/Src/stm32g4xx_hal_opamp_ex.c ****   }
 143:Drivers/STM32G4xx_HAL_Driver/Src/stm32g4xx_hal_opamp_ex.c **** #if defined(STM32GBK1CB) || defined(STM32G431xx) || defined(STM32G441xx) || defined(STM32G471xx) ||
 144:Drivers/STM32G4xx_HAL_Driver/Src/stm32g4xx_hal_opamp_ex.c ****     defined(STM32G473xx) || defined(STM32G474xx) || defined(STM32G483xx) || defined(STM32G484xx) ||
 145:Drivers/STM32G4xx_HAL_Driver/Src/stm32g4xx_hal_opamp_ex.c ****     defined(STM32G491xx) || defined(STM32G4A1xx)
 146:Drivers/STM32G4xx_HAL_Driver/Src/stm32g4xx_hal_opamp_ex.c ****   else if (hopamp2->State != HAL_OPAMP_STATE_READY)
 147:Drivers/STM32G4xx_HAL_Driver/Src/stm32g4xx_hal_opamp_ex.c ****   {
 148:Drivers/STM32G4xx_HAL_Driver/Src/stm32g4xx_hal_opamp_ex.c ****     return HAL_ERROR;
 149:Drivers/STM32G4xx_HAL_Driver/Src/stm32g4xx_hal_opamp_ex.c ****   }
 150:Drivers/STM32G4xx_HAL_Driver/Src/stm32g4xx_hal_opamp_ex.c ****   else if (hopamp3->State != HAL_OPAMP_STATE_READY)
 151:Drivers/STM32G4xx_HAL_Driver/Src/stm32g4xx_hal_opamp_ex.c ****   {
 152:Drivers/STM32G4xx_HAL_Driver/Src/stm32g4xx_hal_opamp_ex.c ****     return HAL_ERROR;
 153:Drivers/STM32G4xx_HAL_Driver/Src/stm32g4xx_hal_opamp_ex.c ****   }
 154:Drivers/STM32G4xx_HAL_Driver/Src/stm32g4xx_hal_opamp_ex.c **** #endif /* STM32GBK1CB || STM32G431xx || STM32G441xx || STM32G471xx || STM32G473xx || STM32G474xx ||
 155:Drivers/STM32G4xx_HAL_Driver/Src/stm32g4xx_hal_opamp_ex.c ****           STM32G483xx || STM32G484xx || STM32G491xx || STM32G4A1xx */
 156:Drivers/STM32G4xx_HAL_Driver/Src/stm32g4xx_hal_opamp_ex.c **** #if defined(STM32G473xx) || defined(STM32G474xx) || defined(STM32G483xx) || defined(STM32G484xx)
 157:Drivers/STM32G4xx_HAL_Driver/Src/stm32g4xx_hal_opamp_ex.c ****   else if (hopamp4->State != HAL_OPAMP_STATE_READY)
 158:Drivers/STM32G4xx_HAL_Driver/Src/stm32g4xx_hal_opamp_ex.c ****   {
 159:Drivers/STM32G4xx_HAL_Driver/Src/stm32g4xx_hal_opamp_ex.c ****     return HAL_ERROR;
 160:Drivers/STM32G4xx_HAL_Driver/Src/stm32g4xx_hal_opamp_ex.c ****   }
 161:Drivers/STM32G4xx_HAL_Driver/Src/stm32g4xx_hal_opamp_ex.c ****   else if (hopamp5->State != HAL_OPAMP_STATE_READY)
 162:Drivers/STM32G4xx_HAL_Driver/Src/stm32g4xx_hal_opamp_ex.c ****   {
 163:Drivers/STM32G4xx_HAL_Driver/Src/stm32g4xx_hal_opamp_ex.c ****     return HAL_ERROR;
 164:Drivers/STM32G4xx_HAL_Driver/Src/stm32g4xx_hal_opamp_ex.c ****   }
 165:Drivers/STM32G4xx_HAL_Driver/Src/stm32g4xx_hal_opamp_ex.c ****   else if (hopamp6->State != HAL_OPAMP_STATE_READY)
 166:Drivers/STM32G4xx_HAL_Driver/Src/stm32g4xx_hal_opamp_ex.c ****   {
 167:Drivers/STM32G4xx_HAL_Driver/Src/stm32g4xx_hal_opamp_ex.c ****     return HAL_ERROR;
 168:Drivers/STM32G4xx_HAL_Driver/Src/stm32g4xx_hal_opamp_ex.c ****   }
 169:Drivers/STM32G4xx_HAL_Driver/Src/stm32g4xx_hal_opamp_ex.c **** #elif defined(STM32G491xx) || defined(STM32G4A1xx)
 170:Drivers/STM32G4xx_HAL_Driver/Src/stm32g4xx_hal_opamp_ex.c ****   else if (hopamp6->State != HAL_OPAMP_STATE_READY)
 171:Drivers/STM32G4xx_HAL_Driver/Src/stm32g4xx_hal_opamp_ex.c ****   {
 172:Drivers/STM32G4xx_HAL_Driver/Src/stm32g4xx_hal_opamp_ex.c ****     return HAL_ERROR;
 173:Drivers/STM32G4xx_HAL_Driver/Src/stm32g4xx_hal_opamp_ex.c ****   }
 174:Drivers/STM32G4xx_HAL_Driver/Src/stm32g4xx_hal_opamp_ex.c **** #endif /* STM32G473xx || STM32G474xx || STM32G483xx || STM32G484xx */
 175:Drivers/STM32G4xx_HAL_Driver/Src/stm32g4xx_hal_opamp_ex.c ****   else
 176:Drivers/STM32G4xx_HAL_Driver/Src/stm32g4xx_hal_opamp_ex.c ****   {
 177:Drivers/STM32G4xx_HAL_Driver/Src/stm32g4xx_hal_opamp_ex.c **** 
 178:Drivers/STM32G4xx_HAL_Driver/Src/stm32g4xx_hal_opamp_ex.c ****     /* Check the parameter */
 179:Drivers/STM32G4xx_HAL_Driver/Src/stm32g4xx_hal_opamp_ex.c ****     assert_param(IS_OPAMP_ALL_INSTANCE(hopamp1->Instance));
 180:Drivers/STM32G4xx_HAL_Driver/Src/stm32g4xx_hal_opamp_ex.c **** #if defined(STM32GBK1CB) || defined(STM32G431xx) || defined(STM32G441xx) || defined(STM32G471xx) ||
 181:Drivers/STM32G4xx_HAL_Driver/Src/stm32g4xx_hal_opamp_ex.c ****     defined(STM32G473xx) || defined(STM32G474xx) || defined(STM32G483xx) || defined(STM32G484xx) ||
 182:Drivers/STM32G4xx_HAL_Driver/Src/stm32g4xx_hal_opamp_ex.c ****     defined(STM32G491xx) || defined(STM32G4A1xx)
 183:Drivers/STM32G4xx_HAL_Driver/Src/stm32g4xx_hal_opamp_ex.c ****     assert_param(IS_OPAMP_ALL_INSTANCE(hopamp2->Instance));
 184:Drivers/STM32G4xx_HAL_Driver/Src/stm32g4xx_hal_opamp_ex.c ****     assert_param(IS_OPAMP_ALL_INSTANCE(hopamp3->Instance));
 185:Drivers/STM32G4xx_HAL_Driver/Src/stm32g4xx_hal_opamp_ex.c **** #endif /* STM32GBK1CB || STM32G431xx || STM32G441xx || STM32G471xx || STM32G473xx || STM32G474xx ||
 186:Drivers/STM32G4xx_HAL_Driver/Src/stm32g4xx_hal_opamp_ex.c ****           STM32G483xx || STM32G484xx || STM32G491xx || STM32G4A1xx */
 187:Drivers/STM32G4xx_HAL_Driver/Src/stm32g4xx_hal_opamp_ex.c **** #if defined(STM32G473xx) || defined(STM32G474xx) || defined(STM32G483xx) || defined(STM32G484xx)
ARM GAS   			page 6


 188:Drivers/STM32G4xx_HAL_Driver/Src/stm32g4xx_hal_opamp_ex.c ****     assert_param(IS_OPAMP_ALL_INSTANCE(hopamp4->Instance));
 189:Drivers/STM32G4xx_HAL_Driver/Src/stm32g4xx_hal_opamp_ex.c ****     assert_param(IS_OPAMP_ALL_INSTANCE(hopamp5->Instance));
 190:Drivers/STM32G4xx_HAL_Driver/Src/stm32g4xx_hal_opamp_ex.c ****     assert_param(IS_OPAMP_ALL_INSTANCE(hopamp6->Instance));
 191:Drivers/STM32G4xx_HAL_Driver/Src/stm32g4xx_hal_opamp_ex.c **** #elif defined(STM32G491xx) || defined(STM32G4A1xx)
 192:Drivers/STM32G4xx_HAL_Driver/Src/stm32g4xx_hal_opamp_ex.c ****     assert_param(IS_OPAMP_ALL_INSTANCE(hopamp6->Instance));
 193:Drivers/STM32G4xx_HAL_Driver/Src/stm32g4xx_hal_opamp_ex.c **** #endif /* STM32G473xx || STM32G474xx || STM32G483xx || STM32G484xx */
 194:Drivers/STM32G4xx_HAL_Driver/Src/stm32g4xx_hal_opamp_ex.c **** 
 195:Drivers/STM32G4xx_HAL_Driver/Src/stm32g4xx_hal_opamp_ex.c ****     /* Set Calibration mode */
 196:Drivers/STM32G4xx_HAL_Driver/Src/stm32g4xx_hal_opamp_ex.c ****     /* Non-inverting input connected to calibration reference voltage. */
 197:Drivers/STM32G4xx_HAL_Driver/Src/stm32g4xx_hal_opamp_ex.c ****     SET_BIT(hopamp1->Instance->CSR, OPAMP_CSR_FORCEVP);
 198:Drivers/STM32G4xx_HAL_Driver/Src/stm32g4xx_hal_opamp_ex.c **** #if defined(STM32GBK1CB) || defined(STM32G431xx) || defined(STM32G441xx) || defined(STM32G471xx) ||
 199:Drivers/STM32G4xx_HAL_Driver/Src/stm32g4xx_hal_opamp_ex.c ****     defined(STM32G473xx) || defined(STM32G474xx) || defined(STM32G483xx) || defined(STM32G484xx) ||
 200:Drivers/STM32G4xx_HAL_Driver/Src/stm32g4xx_hal_opamp_ex.c ****     defined(STM32G491xx) || defined(STM32G4A1xx)
 201:Drivers/STM32G4xx_HAL_Driver/Src/stm32g4xx_hal_opamp_ex.c ****     SET_BIT(hopamp2->Instance->CSR, OPAMP_CSR_FORCEVP);
 202:Drivers/STM32G4xx_HAL_Driver/Src/stm32g4xx_hal_opamp_ex.c ****     SET_BIT(hopamp3->Instance->CSR, OPAMP_CSR_FORCEVP);
 203:Drivers/STM32G4xx_HAL_Driver/Src/stm32g4xx_hal_opamp_ex.c **** #endif /* STM32GBK1CB || STM32G431xx || STM32G441xx || STM32G471xx || STM32G473xx || STM32G474xx ||
 204:Drivers/STM32G4xx_HAL_Driver/Src/stm32g4xx_hal_opamp_ex.c ****           STM32G483xx || STM32G484xx || STM32G491xx || STM32G4A1xx */
 205:Drivers/STM32G4xx_HAL_Driver/Src/stm32g4xx_hal_opamp_ex.c **** #if defined(STM32G473xx) || defined(STM32G474xx) || defined(STM32G483xx) || defined(STM32G484xx)
 206:Drivers/STM32G4xx_HAL_Driver/Src/stm32g4xx_hal_opamp_ex.c ****     SET_BIT(hopamp4->Instance->CSR, OPAMP_CSR_FORCEVP);
 207:Drivers/STM32G4xx_HAL_Driver/Src/stm32g4xx_hal_opamp_ex.c ****     SET_BIT(hopamp5->Instance->CSR, OPAMP_CSR_FORCEVP);
 208:Drivers/STM32G4xx_HAL_Driver/Src/stm32g4xx_hal_opamp_ex.c ****     SET_BIT(hopamp6->Instance->CSR, OPAMP_CSR_FORCEVP);
 209:Drivers/STM32G4xx_HAL_Driver/Src/stm32g4xx_hal_opamp_ex.c **** #elif defined(STM32G491xx) || defined(STM32G4A1xx)
 210:Drivers/STM32G4xx_HAL_Driver/Src/stm32g4xx_hal_opamp_ex.c ****     SET_BIT(hopamp6->Instance->CSR, OPAMP_CSR_FORCEVP);
 211:Drivers/STM32G4xx_HAL_Driver/Src/stm32g4xx_hal_opamp_ex.c **** #endif /* STM32G473xx || STM32G474xx || STM32G483xx || STM32G484xx */
 212:Drivers/STM32G4xx_HAL_Driver/Src/stm32g4xx_hal_opamp_ex.c **** 
 213:Drivers/STM32G4xx_HAL_Driver/Src/stm32g4xx_hal_opamp_ex.c ****     /*  user trimming values are used for offset calibration */
 214:Drivers/STM32G4xx_HAL_Driver/Src/stm32g4xx_hal_opamp_ex.c ****     SET_BIT(hopamp1->Instance->CSR, OPAMP_CSR_USERTRIM);
 215:Drivers/STM32G4xx_HAL_Driver/Src/stm32g4xx_hal_opamp_ex.c **** #if defined(STM32GBK1CB) || defined(STM32G431xx) || defined(STM32G441xx) || defined(STM32G471xx) ||
 216:Drivers/STM32G4xx_HAL_Driver/Src/stm32g4xx_hal_opamp_ex.c ****     defined(STM32G473xx) || defined(STM32G474xx) || defined(STM32G483xx) || defined(STM32G484xx) ||
 217:Drivers/STM32G4xx_HAL_Driver/Src/stm32g4xx_hal_opamp_ex.c ****     defined(STM32G491xx) || defined(STM32G4A1xx)
 218:Drivers/STM32G4xx_HAL_Driver/Src/stm32g4xx_hal_opamp_ex.c ****     SET_BIT(hopamp2->Instance->CSR, OPAMP_CSR_USERTRIM);
 219:Drivers/STM32G4xx_HAL_Driver/Src/stm32g4xx_hal_opamp_ex.c ****     SET_BIT(hopamp3->Instance->CSR, OPAMP_CSR_USERTRIM);
 220:Drivers/STM32G4xx_HAL_Driver/Src/stm32g4xx_hal_opamp_ex.c **** #endif /* STM32GBK1CB || STM32G431xx || STM32G441xx || STM32G471xx || STM32G473xx || STM32G474xx ||
 221:Drivers/STM32G4xx_HAL_Driver/Src/stm32g4xx_hal_opamp_ex.c ****           STM32G483xx || STM32G484xx || STM32G491xx || STM32G4A1xx */
 222:Drivers/STM32G4xx_HAL_Driver/Src/stm32g4xx_hal_opamp_ex.c **** #if defined(STM32G473xx) || defined(STM32G474xx) || defined(STM32G483xx) || defined(STM32G484xx)
 223:Drivers/STM32G4xx_HAL_Driver/Src/stm32g4xx_hal_opamp_ex.c ****     SET_BIT(hopamp4->Instance->CSR, OPAMP_CSR_USERTRIM);
 224:Drivers/STM32G4xx_HAL_Driver/Src/stm32g4xx_hal_opamp_ex.c ****     SET_BIT(hopamp5->Instance->CSR, OPAMP_CSR_USERTRIM);
 225:Drivers/STM32G4xx_HAL_Driver/Src/stm32g4xx_hal_opamp_ex.c ****     SET_BIT(hopamp6->Instance->CSR, OPAMP_CSR_USERTRIM);
 226:Drivers/STM32G4xx_HAL_Driver/Src/stm32g4xx_hal_opamp_ex.c **** #elif defined(STM32G491xx) || defined(STM32G4A1xx)
 227:Drivers/STM32G4xx_HAL_Driver/Src/stm32g4xx_hal_opamp_ex.c ****     SET_BIT(hopamp6->Instance->CSR, OPAMP_CSR_USERTRIM);
 228:Drivers/STM32G4xx_HAL_Driver/Src/stm32g4xx_hal_opamp_ex.c **** #endif /* STM32G473xx || STM32G474xx || STM32G483xx || STM32G484xx */
 229:Drivers/STM32G4xx_HAL_Driver/Src/stm32g4xx_hal_opamp_ex.c **** 
 230:Drivers/STM32G4xx_HAL_Driver/Src/stm32g4xx_hal_opamp_ex.c ****     /* Enable calibration */
 231:Drivers/STM32G4xx_HAL_Driver/Src/stm32g4xx_hal_opamp_ex.c ****     SET_BIT(hopamp1->Instance->CSR, OPAMP_CSR_CALON);
 232:Drivers/STM32G4xx_HAL_Driver/Src/stm32g4xx_hal_opamp_ex.c **** #if defined(STM32GBK1CB) || defined(STM32G431xx) || defined(STM32G441xx) || defined(STM32G471xx) ||
 233:Drivers/STM32G4xx_HAL_Driver/Src/stm32g4xx_hal_opamp_ex.c ****     defined(STM32G473xx) || defined(STM32G474xx) || defined(STM32G483xx) || defined(STM32G484xx) ||
 234:Drivers/STM32G4xx_HAL_Driver/Src/stm32g4xx_hal_opamp_ex.c ****     defined(STM32G491xx) || defined(STM32G4A1xx)
 235:Drivers/STM32G4xx_HAL_Driver/Src/stm32g4xx_hal_opamp_ex.c ****     SET_BIT(hopamp2->Instance->CSR, OPAMP_CSR_CALON);
 236:Drivers/STM32G4xx_HAL_Driver/Src/stm32g4xx_hal_opamp_ex.c ****     SET_BIT(hopamp3->Instance->CSR, OPAMP_CSR_CALON);
 237:Drivers/STM32G4xx_HAL_Driver/Src/stm32g4xx_hal_opamp_ex.c **** #endif /* STM32GBK1CB || STM32G431xx || STM32G441xx || STM32G471xx || STM32G473xx || STM32G474xx ||
 238:Drivers/STM32G4xx_HAL_Driver/Src/stm32g4xx_hal_opamp_ex.c ****           STM32G483xx || STM32G484xx || STM32G491xx || STM32G4A1xx */
 239:Drivers/STM32G4xx_HAL_Driver/Src/stm32g4xx_hal_opamp_ex.c **** #if defined(STM32G473xx) || defined(STM32G474xx) || defined(STM32G483xx) || defined(STM32G484xx)
 240:Drivers/STM32G4xx_HAL_Driver/Src/stm32g4xx_hal_opamp_ex.c ****     SET_BIT(hopamp4->Instance->CSR, OPAMP_CSR_CALON);
 241:Drivers/STM32G4xx_HAL_Driver/Src/stm32g4xx_hal_opamp_ex.c ****     SET_BIT(hopamp5->Instance->CSR, OPAMP_CSR_CALON);
 242:Drivers/STM32G4xx_HAL_Driver/Src/stm32g4xx_hal_opamp_ex.c ****     SET_BIT(hopamp6->Instance->CSR, OPAMP_CSR_CALON);
 243:Drivers/STM32G4xx_HAL_Driver/Src/stm32g4xx_hal_opamp_ex.c **** #elif defined(STM32G491xx) || defined(STM32G4A1xx)
 244:Drivers/STM32G4xx_HAL_Driver/Src/stm32g4xx_hal_opamp_ex.c ****     SET_BIT(hopamp6->Instance->CSR, OPAMP_CSR_CALON);
ARM GAS   			page 7


 245:Drivers/STM32G4xx_HAL_Driver/Src/stm32g4xx_hal_opamp_ex.c **** #endif /* STM32G473xx || STM32G474xx || STM32G483xx || STM32G484xx */
 246:Drivers/STM32G4xx_HAL_Driver/Src/stm32g4xx_hal_opamp_ex.c **** 
 247:Drivers/STM32G4xx_HAL_Driver/Src/stm32g4xx_hal_opamp_ex.c ****     /* 1st calibration - N */
 248:Drivers/STM32G4xx_HAL_Driver/Src/stm32g4xx_hal_opamp_ex.c ****     /* Select 90% VREF */
 249:Drivers/STM32G4xx_HAL_Driver/Src/stm32g4xx_hal_opamp_ex.c ****     MODIFY_REG(hopamp1->Instance->CSR, OPAMP_CSR_CALSEL, OPAMP_VREF_90VDDA);
 250:Drivers/STM32G4xx_HAL_Driver/Src/stm32g4xx_hal_opamp_ex.c **** #if defined(STM32GBK1CB) || defined(STM32G431xx) || defined(STM32G441xx) || defined(STM32G471xx) ||
 251:Drivers/STM32G4xx_HAL_Driver/Src/stm32g4xx_hal_opamp_ex.c ****     defined(STM32G473xx) || defined(STM32G474xx) || defined(STM32G483xx) || defined(STM32G484xx) ||
 252:Drivers/STM32G4xx_HAL_Driver/Src/stm32g4xx_hal_opamp_ex.c ****     defined(STM32G491xx) || defined(STM32G4A1xx)
 253:Drivers/STM32G4xx_HAL_Driver/Src/stm32g4xx_hal_opamp_ex.c ****     MODIFY_REG(hopamp2->Instance->CSR, OPAMP_CSR_CALSEL, OPAMP_VREF_90VDDA);
 254:Drivers/STM32G4xx_HAL_Driver/Src/stm32g4xx_hal_opamp_ex.c ****     MODIFY_REG(hopamp3->Instance->CSR, OPAMP_CSR_CALSEL, OPAMP_VREF_90VDDA);
 255:Drivers/STM32G4xx_HAL_Driver/Src/stm32g4xx_hal_opamp_ex.c **** #endif /* STM32GBK1CB || STM32G431xx || STM32G441xx || STM32G471xx || STM32G473xx || STM32G474xx ||
 256:Drivers/STM32G4xx_HAL_Driver/Src/stm32g4xx_hal_opamp_ex.c ****           STM32G483xx || STM32G484xx || STM32G491xx || STM32G4A1xx */
 257:Drivers/STM32G4xx_HAL_Driver/Src/stm32g4xx_hal_opamp_ex.c **** #if defined(STM32G473xx) || defined(STM32G474xx) || defined(STM32G483xx) || defined(STM32G484xx)
 258:Drivers/STM32G4xx_HAL_Driver/Src/stm32g4xx_hal_opamp_ex.c ****     MODIFY_REG(hopamp4->Instance->CSR, OPAMP_CSR_CALSEL, OPAMP_VREF_90VDDA);
 259:Drivers/STM32G4xx_HAL_Driver/Src/stm32g4xx_hal_opamp_ex.c ****     MODIFY_REG(hopamp5->Instance->CSR, OPAMP_CSR_CALSEL, OPAMP_VREF_90VDDA);
 260:Drivers/STM32G4xx_HAL_Driver/Src/stm32g4xx_hal_opamp_ex.c ****     MODIFY_REG(hopamp6->Instance->CSR, OPAMP_CSR_CALSEL, OPAMP_VREF_90VDDA);
 261:Drivers/STM32G4xx_HAL_Driver/Src/stm32g4xx_hal_opamp_ex.c **** #elif defined(STM32G491xx) || defined(STM32G4A1xx)
 262:Drivers/STM32G4xx_HAL_Driver/Src/stm32g4xx_hal_opamp_ex.c ****     MODIFY_REG(hopamp6->Instance->CSR, OPAMP_CSR_CALSEL, OPAMP_VREF_90VDDA);
 263:Drivers/STM32G4xx_HAL_Driver/Src/stm32g4xx_hal_opamp_ex.c **** #endif /* STM32G473xx || STM32G474xx || STM32G483xx || STM32G484xx */
 264:Drivers/STM32G4xx_HAL_Driver/Src/stm32g4xx_hal_opamp_ex.c **** 
 265:Drivers/STM32G4xx_HAL_Driver/Src/stm32g4xx_hal_opamp_ex.c ****     /* Enable the opamps */
 266:Drivers/STM32G4xx_HAL_Driver/Src/stm32g4xx_hal_opamp_ex.c ****     SET_BIT(hopamp1->Instance->CSR, OPAMP_CSR_OPAMPxEN);
 267:Drivers/STM32G4xx_HAL_Driver/Src/stm32g4xx_hal_opamp_ex.c **** #if defined(STM32GBK1CB) || defined(STM32G431xx) || defined(STM32G441xx) || defined(STM32G471xx) ||
 268:Drivers/STM32G4xx_HAL_Driver/Src/stm32g4xx_hal_opamp_ex.c ****     defined(STM32G473xx) || defined(STM32G474xx) || defined(STM32G483xx) || defined(STM32G484xx) ||
 269:Drivers/STM32G4xx_HAL_Driver/Src/stm32g4xx_hal_opamp_ex.c ****     defined(STM32G491xx) || defined(STM32G4A1xx)
 270:Drivers/STM32G4xx_HAL_Driver/Src/stm32g4xx_hal_opamp_ex.c ****     SET_BIT(hopamp2->Instance->CSR, OPAMP_CSR_OPAMPxEN);
 271:Drivers/STM32G4xx_HAL_Driver/Src/stm32g4xx_hal_opamp_ex.c ****     SET_BIT(hopamp3->Instance->CSR, OPAMP_CSR_OPAMPxEN);
 272:Drivers/STM32G4xx_HAL_Driver/Src/stm32g4xx_hal_opamp_ex.c **** #endif /* STM32GBK1CB || STM32G431xx || STM32G441xx || STM32G471xx || STM32G473xx || STM32G474xx ||
 273:Drivers/STM32G4xx_HAL_Driver/Src/stm32g4xx_hal_opamp_ex.c ****           STM32G483xx || STM32G484xx || STM32G491xx || STM32G4A1xx */
 274:Drivers/STM32G4xx_HAL_Driver/Src/stm32g4xx_hal_opamp_ex.c **** #if defined(STM32G473xx) || defined(STM32G474xx) || defined(STM32G483xx) || defined(STM32G484xx)
 275:Drivers/STM32G4xx_HAL_Driver/Src/stm32g4xx_hal_opamp_ex.c ****     SET_BIT(hopamp4->Instance->CSR, OPAMP_CSR_OPAMPxEN);
 276:Drivers/STM32G4xx_HAL_Driver/Src/stm32g4xx_hal_opamp_ex.c ****     SET_BIT(hopamp5->Instance->CSR, OPAMP_CSR_OPAMPxEN);
 277:Drivers/STM32G4xx_HAL_Driver/Src/stm32g4xx_hal_opamp_ex.c ****     SET_BIT(hopamp6->Instance->CSR, OPAMP_CSR_OPAMPxEN);
 278:Drivers/STM32G4xx_HAL_Driver/Src/stm32g4xx_hal_opamp_ex.c **** #elif defined(STM32G491xx) || defined(STM32G4A1xx)
 279:Drivers/STM32G4xx_HAL_Driver/Src/stm32g4xx_hal_opamp_ex.c ****     SET_BIT(hopamp6->Instance->CSR, OPAMP_CSR_OPAMPxEN);
 280:Drivers/STM32G4xx_HAL_Driver/Src/stm32g4xx_hal_opamp_ex.c **** #endif /* STM32G473xx || STM32G474xx || STM32G483xx || STM32G484xx */
 281:Drivers/STM32G4xx_HAL_Driver/Src/stm32g4xx_hal_opamp_ex.c **** 
 282:Drivers/STM32G4xx_HAL_Driver/Src/stm32g4xx_hal_opamp_ex.c ****     /* Init trimming counter */
 283:Drivers/STM32G4xx_HAL_Driver/Src/stm32g4xx_hal_opamp_ex.c ****     /* Medium value */
 284:Drivers/STM32G4xx_HAL_Driver/Src/stm32g4xx_hal_opamp_ex.c ****     trimmingvaluen1 = 16UL;
 285:Drivers/STM32G4xx_HAL_Driver/Src/stm32g4xx_hal_opamp_ex.c **** #if defined(STM32GBK1CB) || defined(STM32G431xx) || defined(STM32G441xx) || defined(STM32G471xx) ||
 286:Drivers/STM32G4xx_HAL_Driver/Src/stm32g4xx_hal_opamp_ex.c ****     defined(STM32G473xx) || defined(STM32G474xx) || defined(STM32G483xx) || defined(STM32G484xx) ||
 287:Drivers/STM32G4xx_HAL_Driver/Src/stm32g4xx_hal_opamp_ex.c ****     defined(STM32G491xx) || defined(STM32G4A1xx)
 288:Drivers/STM32G4xx_HAL_Driver/Src/stm32g4xx_hal_opamp_ex.c ****     trimmingvaluen2 = 16UL;
 289:Drivers/STM32G4xx_HAL_Driver/Src/stm32g4xx_hal_opamp_ex.c ****     trimmingvaluen3 = 16UL;
 290:Drivers/STM32G4xx_HAL_Driver/Src/stm32g4xx_hal_opamp_ex.c **** #endif /* STM32GBK1CB || STM32G431xx || STM32G441xx || STM32G471xx || STM32G473xx || STM32G474xx ||
 291:Drivers/STM32G4xx_HAL_Driver/Src/stm32g4xx_hal_opamp_ex.c ****           STM32G483xx || STM32G484xx || STM32G491xx || STM32G4A1xx */
 292:Drivers/STM32G4xx_HAL_Driver/Src/stm32g4xx_hal_opamp_ex.c **** #if defined(STM32G473xx) || defined(STM32G474xx) || defined(STM32G483xx) || defined(STM32G484xx)
 293:Drivers/STM32G4xx_HAL_Driver/Src/stm32g4xx_hal_opamp_ex.c ****     trimmingvaluen4 = 16UL;
 294:Drivers/STM32G4xx_HAL_Driver/Src/stm32g4xx_hal_opamp_ex.c ****     trimmingvaluen5 = 16UL;
 295:Drivers/STM32G4xx_HAL_Driver/Src/stm32g4xx_hal_opamp_ex.c ****     trimmingvaluen6 = 16UL;
 296:Drivers/STM32G4xx_HAL_Driver/Src/stm32g4xx_hal_opamp_ex.c **** #elif defined(STM32G491xx) || defined(STM32G4A1xx)
 297:Drivers/STM32G4xx_HAL_Driver/Src/stm32g4xx_hal_opamp_ex.c ****     trimmingvaluen6 = 16UL;
 298:Drivers/STM32G4xx_HAL_Driver/Src/stm32g4xx_hal_opamp_ex.c **** #endif /* STM32G473xx || STM32G474xx || STM32G483xx || STM32G484xx */
 299:Drivers/STM32G4xx_HAL_Driver/Src/stm32g4xx_hal_opamp_ex.c ****     delta = 8UL;
 300:Drivers/STM32G4xx_HAL_Driver/Src/stm32g4xx_hal_opamp_ex.c **** 
 301:Drivers/STM32G4xx_HAL_Driver/Src/stm32g4xx_hal_opamp_ex.c ****     while (delta != 0UL)
ARM GAS   			page 8


 302:Drivers/STM32G4xx_HAL_Driver/Src/stm32g4xx_hal_opamp_ex.c ****     {
 303:Drivers/STM32G4xx_HAL_Driver/Src/stm32g4xx_hal_opamp_ex.c ****       /* Set candidate trimming */
 304:Drivers/STM32G4xx_HAL_Driver/Src/stm32g4xx_hal_opamp_ex.c ****       MODIFY_REG(hopamp1->Instance->CSR, OPAMP_CSR_TRIMOFFSETN, trimmingvaluen1 << OPAMP_INPUT_INVE
 305:Drivers/STM32G4xx_HAL_Driver/Src/stm32g4xx_hal_opamp_ex.c **** #if defined(STM32GBK1CB) || defined(STM32G431xx) || defined(STM32G441xx) || defined(STM32G471xx) ||
 306:Drivers/STM32G4xx_HAL_Driver/Src/stm32g4xx_hal_opamp_ex.c ****     defined(STM32G473xx) || defined(STM32G474xx) || defined(STM32G483xx) || defined(STM32G484xx) ||
 307:Drivers/STM32G4xx_HAL_Driver/Src/stm32g4xx_hal_opamp_ex.c ****     defined(STM32G491xx) || defined(STM32G4A1xx)
 308:Drivers/STM32G4xx_HAL_Driver/Src/stm32g4xx_hal_opamp_ex.c ****       MODIFY_REG(hopamp2->Instance->CSR, OPAMP_CSR_TRIMOFFSETN, trimmingvaluen2 << OPAMP_INPUT_INVE
 309:Drivers/STM32G4xx_HAL_Driver/Src/stm32g4xx_hal_opamp_ex.c ****       MODIFY_REG(hopamp3->Instance->CSR, OPAMP_CSR_TRIMOFFSETN, trimmingvaluen3 << OPAMP_INPUT_INVE
 310:Drivers/STM32G4xx_HAL_Driver/Src/stm32g4xx_hal_opamp_ex.c **** #endif /* STM32GBK1CB || STM32G431xx || STM32G441xx || STM32G471xx || STM32G473xx || STM32G474xx ||
 311:Drivers/STM32G4xx_HAL_Driver/Src/stm32g4xx_hal_opamp_ex.c ****           STM32G483xx || STM32G484xx || STM32G491xx || STM32G4A1xx */
 312:Drivers/STM32G4xx_HAL_Driver/Src/stm32g4xx_hal_opamp_ex.c **** #if defined(STM32G473xx) || defined(STM32G474xx) || defined(STM32G483xx) || defined(STM32G484xx)
 313:Drivers/STM32G4xx_HAL_Driver/Src/stm32g4xx_hal_opamp_ex.c ****       MODIFY_REG(hopamp4->Instance->CSR, OPAMP_CSR_TRIMOFFSETN, trimmingvaluen4 << OPAMP_INPUT_INVE
 314:Drivers/STM32G4xx_HAL_Driver/Src/stm32g4xx_hal_opamp_ex.c ****       MODIFY_REG(hopamp5->Instance->CSR, OPAMP_CSR_TRIMOFFSETN, trimmingvaluen5 << OPAMP_INPUT_INVE
 315:Drivers/STM32G4xx_HAL_Driver/Src/stm32g4xx_hal_opamp_ex.c ****       MODIFY_REG(hopamp6->Instance->CSR, OPAMP_CSR_TRIMOFFSETN, trimmingvaluen6 << OPAMP_INPUT_INVE
 316:Drivers/STM32G4xx_HAL_Driver/Src/stm32g4xx_hal_opamp_ex.c **** #elif defined(STM32G491xx) || defined(STM32G4A1xx)
 317:Drivers/STM32G4xx_HAL_Driver/Src/stm32g4xx_hal_opamp_ex.c ****       MODIFY_REG(hopamp6->Instance->CSR, OPAMP_CSR_TRIMOFFSETN, trimmingvaluen6 << OPAMP_INPUT_INVE
 318:Drivers/STM32G4xx_HAL_Driver/Src/stm32g4xx_hal_opamp_ex.c **** #endif /* STM32G473xx || STM32G474xx || STM32G483xx || STM32G484xx */
 319:Drivers/STM32G4xx_HAL_Driver/Src/stm32g4xx_hal_opamp_ex.c **** 
 320:Drivers/STM32G4xx_HAL_Driver/Src/stm32g4xx_hal_opamp_ex.c ****       /* OFFTRIMmax delay 2 ms as per datasheet (electrical characteristics */
 321:Drivers/STM32G4xx_HAL_Driver/Src/stm32g4xx_hal_opamp_ex.c ****       /* Offset trim time: during calibration, minimum time needed between */
 322:Drivers/STM32G4xx_HAL_Driver/Src/stm32g4xx_hal_opamp_ex.c ****       /* two steps to have 1 mV accuracy */
 323:Drivers/STM32G4xx_HAL_Driver/Src/stm32g4xx_hal_opamp_ex.c ****       HAL_Delay(2);
 324:Drivers/STM32G4xx_HAL_Driver/Src/stm32g4xx_hal_opamp_ex.c **** 
 325:Drivers/STM32G4xx_HAL_Driver/Src/stm32g4xx_hal_opamp_ex.c ****       if ((hopamp1->Instance->CSR & OPAMP_CSR_OUTCAL) != 0UL)
 326:Drivers/STM32G4xx_HAL_Driver/Src/stm32g4xx_hal_opamp_ex.c ****       {
 327:Drivers/STM32G4xx_HAL_Driver/Src/stm32g4xx_hal_opamp_ex.c ****         /* OPAMP_CSR_OUTCAL is HIGH try higher trimming */
 328:Drivers/STM32G4xx_HAL_Driver/Src/stm32g4xx_hal_opamp_ex.c ****         trimmingvaluen1 += delta;
 329:Drivers/STM32G4xx_HAL_Driver/Src/stm32g4xx_hal_opamp_ex.c ****       }
 330:Drivers/STM32G4xx_HAL_Driver/Src/stm32g4xx_hal_opamp_ex.c ****       else
 331:Drivers/STM32G4xx_HAL_Driver/Src/stm32g4xx_hal_opamp_ex.c ****       {
 332:Drivers/STM32G4xx_HAL_Driver/Src/stm32g4xx_hal_opamp_ex.c ****         /* OPAMP_CSR_OUTCAL is LOW try lower trimming */
 333:Drivers/STM32G4xx_HAL_Driver/Src/stm32g4xx_hal_opamp_ex.c ****         trimmingvaluen1 -= delta;
 334:Drivers/STM32G4xx_HAL_Driver/Src/stm32g4xx_hal_opamp_ex.c ****       }
 335:Drivers/STM32G4xx_HAL_Driver/Src/stm32g4xx_hal_opamp_ex.c **** #if defined(STM32GBK1CB) || defined(STM32G431xx) || defined(STM32G441xx) || defined(STM32G471xx) ||
 336:Drivers/STM32G4xx_HAL_Driver/Src/stm32g4xx_hal_opamp_ex.c ****     defined(STM32G473xx) || defined(STM32G474xx) || defined(STM32G483xx) || defined(STM32G484xx) ||
 337:Drivers/STM32G4xx_HAL_Driver/Src/stm32g4xx_hal_opamp_ex.c ****     defined(STM32G491xx) || defined(STM32G4A1xx)
 338:Drivers/STM32G4xx_HAL_Driver/Src/stm32g4xx_hal_opamp_ex.c ****       if ((hopamp2->Instance->CSR & OPAMP_CSR_OUTCAL) != 0UL)
 339:Drivers/STM32G4xx_HAL_Driver/Src/stm32g4xx_hal_opamp_ex.c ****       {
 340:Drivers/STM32G4xx_HAL_Driver/Src/stm32g4xx_hal_opamp_ex.c ****         /* OPAMP_CSR_OUTCAL is HIGH try higher trimming */
 341:Drivers/STM32G4xx_HAL_Driver/Src/stm32g4xx_hal_opamp_ex.c ****         trimmingvaluen2 += delta;
 342:Drivers/STM32G4xx_HAL_Driver/Src/stm32g4xx_hal_opamp_ex.c ****       }
 343:Drivers/STM32G4xx_HAL_Driver/Src/stm32g4xx_hal_opamp_ex.c ****       else
 344:Drivers/STM32G4xx_HAL_Driver/Src/stm32g4xx_hal_opamp_ex.c ****       {
 345:Drivers/STM32G4xx_HAL_Driver/Src/stm32g4xx_hal_opamp_ex.c ****         /* OPAMP_CSR_OUTCAL is LOW try lower trimming */
 346:Drivers/STM32G4xx_HAL_Driver/Src/stm32g4xx_hal_opamp_ex.c ****         trimmingvaluen2 -= delta;
 347:Drivers/STM32G4xx_HAL_Driver/Src/stm32g4xx_hal_opamp_ex.c ****       }
 348:Drivers/STM32G4xx_HAL_Driver/Src/stm32g4xx_hal_opamp_ex.c **** 
 349:Drivers/STM32G4xx_HAL_Driver/Src/stm32g4xx_hal_opamp_ex.c ****       if ((hopamp3->Instance->CSR & OPAMP_CSR_OUTCAL) != 0UL)
 350:Drivers/STM32G4xx_HAL_Driver/Src/stm32g4xx_hal_opamp_ex.c ****       {
 351:Drivers/STM32G4xx_HAL_Driver/Src/stm32g4xx_hal_opamp_ex.c ****         /* OPAMP_CSR_OUTCAL is HIGH try higher trimming */
 352:Drivers/STM32G4xx_HAL_Driver/Src/stm32g4xx_hal_opamp_ex.c ****         trimmingvaluen3 += delta;
 353:Drivers/STM32G4xx_HAL_Driver/Src/stm32g4xx_hal_opamp_ex.c ****       }
 354:Drivers/STM32G4xx_HAL_Driver/Src/stm32g4xx_hal_opamp_ex.c ****       else
 355:Drivers/STM32G4xx_HAL_Driver/Src/stm32g4xx_hal_opamp_ex.c ****       {
 356:Drivers/STM32G4xx_HAL_Driver/Src/stm32g4xx_hal_opamp_ex.c ****         /* OPAMP_CSR_OUTCAL is LOW try lower trimming */
 357:Drivers/STM32G4xx_HAL_Driver/Src/stm32g4xx_hal_opamp_ex.c ****         trimmingvaluen3 -= delta;
 358:Drivers/STM32G4xx_HAL_Driver/Src/stm32g4xx_hal_opamp_ex.c ****       }
ARM GAS   			page 9


 359:Drivers/STM32G4xx_HAL_Driver/Src/stm32g4xx_hal_opamp_ex.c **** 
 360:Drivers/STM32G4xx_HAL_Driver/Src/stm32g4xx_hal_opamp_ex.c **** #endif /* STM32GBK1CB || STM32G431xx || STM32G441xx || STM32G471xx || STM32G473xx || STM32G474xx ||
 361:Drivers/STM32G4xx_HAL_Driver/Src/stm32g4xx_hal_opamp_ex.c ****           STM32G483xx || STM32G484xx || STM32G491xx || STM32G4A1xx */
 362:Drivers/STM32G4xx_HAL_Driver/Src/stm32g4xx_hal_opamp_ex.c **** #if defined(STM32G473xx) || defined(STM32G474xx) || defined(STM32G483xx) || defined(STM32G484xx)
 363:Drivers/STM32G4xx_HAL_Driver/Src/stm32g4xx_hal_opamp_ex.c ****       if ((hopamp4->Instance->CSR & OPAMP_CSR_OUTCAL) != 0UL)
 364:Drivers/STM32G4xx_HAL_Driver/Src/stm32g4xx_hal_opamp_ex.c ****       {
 365:Drivers/STM32G4xx_HAL_Driver/Src/stm32g4xx_hal_opamp_ex.c ****         /* OPAMP_CSR_OUTCAL is HIGH try higher trimming */
 366:Drivers/STM32G4xx_HAL_Driver/Src/stm32g4xx_hal_opamp_ex.c ****         trimmingvaluen4 += delta;
 367:Drivers/STM32G4xx_HAL_Driver/Src/stm32g4xx_hal_opamp_ex.c ****       }
 368:Drivers/STM32G4xx_HAL_Driver/Src/stm32g4xx_hal_opamp_ex.c ****       else
 369:Drivers/STM32G4xx_HAL_Driver/Src/stm32g4xx_hal_opamp_ex.c ****       {
 370:Drivers/STM32G4xx_HAL_Driver/Src/stm32g4xx_hal_opamp_ex.c ****         /* OPAMP_CSR_OUTCAL is LOW try lower trimming */
 371:Drivers/STM32G4xx_HAL_Driver/Src/stm32g4xx_hal_opamp_ex.c ****         trimmingvaluen4 -= delta;
 372:Drivers/STM32G4xx_HAL_Driver/Src/stm32g4xx_hal_opamp_ex.c ****       }
 373:Drivers/STM32G4xx_HAL_Driver/Src/stm32g4xx_hal_opamp_ex.c **** 
 374:Drivers/STM32G4xx_HAL_Driver/Src/stm32g4xx_hal_opamp_ex.c ****       if ((hopamp5->Instance->CSR & OPAMP_CSR_OUTCAL) != 0UL)
 375:Drivers/STM32G4xx_HAL_Driver/Src/stm32g4xx_hal_opamp_ex.c ****       {
 376:Drivers/STM32G4xx_HAL_Driver/Src/stm32g4xx_hal_opamp_ex.c ****         /* OPAMP_CSR_OUTCAL is HIGH try higher trimming */
 377:Drivers/STM32G4xx_HAL_Driver/Src/stm32g4xx_hal_opamp_ex.c ****         trimmingvaluen5 += delta;
 378:Drivers/STM32G4xx_HAL_Driver/Src/stm32g4xx_hal_opamp_ex.c ****       }
 379:Drivers/STM32G4xx_HAL_Driver/Src/stm32g4xx_hal_opamp_ex.c ****       else
 380:Drivers/STM32G4xx_HAL_Driver/Src/stm32g4xx_hal_opamp_ex.c ****       {
 381:Drivers/STM32G4xx_HAL_Driver/Src/stm32g4xx_hal_opamp_ex.c ****         /* OPAMP_CSR_OUTCAL is LOW try lower trimming */
 382:Drivers/STM32G4xx_HAL_Driver/Src/stm32g4xx_hal_opamp_ex.c ****         trimmingvaluen5 -= delta;
 383:Drivers/STM32G4xx_HAL_Driver/Src/stm32g4xx_hal_opamp_ex.c ****       }
 384:Drivers/STM32G4xx_HAL_Driver/Src/stm32g4xx_hal_opamp_ex.c **** 
 385:Drivers/STM32G4xx_HAL_Driver/Src/stm32g4xx_hal_opamp_ex.c ****       if ((hopamp6->Instance->CSR & OPAMP_CSR_OUTCAL) != 0UL)
 386:Drivers/STM32G4xx_HAL_Driver/Src/stm32g4xx_hal_opamp_ex.c ****       {
 387:Drivers/STM32G4xx_HAL_Driver/Src/stm32g4xx_hal_opamp_ex.c ****         /* OPAMP_CSR_OUTCAL is HIGH try higher trimming */
 388:Drivers/STM32G4xx_HAL_Driver/Src/stm32g4xx_hal_opamp_ex.c ****         trimmingvaluen6 += delta;
 389:Drivers/STM32G4xx_HAL_Driver/Src/stm32g4xx_hal_opamp_ex.c ****       }
 390:Drivers/STM32G4xx_HAL_Driver/Src/stm32g4xx_hal_opamp_ex.c ****       else
 391:Drivers/STM32G4xx_HAL_Driver/Src/stm32g4xx_hal_opamp_ex.c ****       {
 392:Drivers/STM32G4xx_HAL_Driver/Src/stm32g4xx_hal_opamp_ex.c ****         /* OPAMP_CSR_OUTCAL is LOW try lower trimming */
 393:Drivers/STM32G4xx_HAL_Driver/Src/stm32g4xx_hal_opamp_ex.c ****         trimmingvaluen6 -= delta;
 394:Drivers/STM32G4xx_HAL_Driver/Src/stm32g4xx_hal_opamp_ex.c ****       }
 395:Drivers/STM32G4xx_HAL_Driver/Src/stm32g4xx_hal_opamp_ex.c **** 
 396:Drivers/STM32G4xx_HAL_Driver/Src/stm32g4xx_hal_opamp_ex.c **** #elif defined(STM32G491xx) || defined(STM32G4A1xx)
 397:Drivers/STM32G4xx_HAL_Driver/Src/stm32g4xx_hal_opamp_ex.c ****       if ((hopamp6->Instance->CSR & OPAMP_CSR_OUTCAL) != 0UL)
 398:Drivers/STM32G4xx_HAL_Driver/Src/stm32g4xx_hal_opamp_ex.c ****       {
 399:Drivers/STM32G4xx_HAL_Driver/Src/stm32g4xx_hal_opamp_ex.c ****         /* OPAMP_CSR_OUTCAL is HIGH try higher trimming */
 400:Drivers/STM32G4xx_HAL_Driver/Src/stm32g4xx_hal_opamp_ex.c ****         trimmingvaluen6 += delta;
 401:Drivers/STM32G4xx_HAL_Driver/Src/stm32g4xx_hal_opamp_ex.c ****       }
 402:Drivers/STM32G4xx_HAL_Driver/Src/stm32g4xx_hal_opamp_ex.c ****       else
 403:Drivers/STM32G4xx_HAL_Driver/Src/stm32g4xx_hal_opamp_ex.c ****       {
 404:Drivers/STM32G4xx_HAL_Driver/Src/stm32g4xx_hal_opamp_ex.c ****         /* OPAMP_CSR_OUTCAL is LOW try lower trimming */
 405:Drivers/STM32G4xx_HAL_Driver/Src/stm32g4xx_hal_opamp_ex.c ****         trimmingvaluen6 -= delta;
 406:Drivers/STM32G4xx_HAL_Driver/Src/stm32g4xx_hal_opamp_ex.c ****       }
 407:Drivers/STM32G4xx_HAL_Driver/Src/stm32g4xx_hal_opamp_ex.c **** #endif /* STM32G473xx || STM32G474xx || STM32G483xx || STM32G484xx */
 408:Drivers/STM32G4xx_HAL_Driver/Src/stm32g4xx_hal_opamp_ex.c **** 
 409:Drivers/STM32G4xx_HAL_Driver/Src/stm32g4xx_hal_opamp_ex.c ****       delta >>= 1;
 410:Drivers/STM32G4xx_HAL_Driver/Src/stm32g4xx_hal_opamp_ex.c ****     }
 411:Drivers/STM32G4xx_HAL_Driver/Src/stm32g4xx_hal_opamp_ex.c **** 
 412:Drivers/STM32G4xx_HAL_Driver/Src/stm32g4xx_hal_opamp_ex.c ****     /* Still need to check if righ calibration is current value or un step below */
 413:Drivers/STM32G4xx_HAL_Driver/Src/stm32g4xx_hal_opamp_ex.c ****     /* Indeed the first value that causes the OUTCAL bit to change from 1 to 0 */
 414:Drivers/STM32G4xx_HAL_Driver/Src/stm32g4xx_hal_opamp_ex.c ****     MODIFY_REG(hopamp1->Instance->CSR, OPAMP_CSR_TRIMOFFSETN, trimmingvaluen1 << OPAMP_INPUT_INVERT
 415:Drivers/STM32G4xx_HAL_Driver/Src/stm32g4xx_hal_opamp_ex.c **** #if defined(STM32GBK1CB) || defined(STM32G431xx) || defined(STM32G441xx) || defined(STM32G471xx) ||
ARM GAS   			page 10


 416:Drivers/STM32G4xx_HAL_Driver/Src/stm32g4xx_hal_opamp_ex.c ****     defined(STM32G473xx) || defined(STM32G474xx) || defined(STM32G483xx) || defined(STM32G484xx) ||
 417:Drivers/STM32G4xx_HAL_Driver/Src/stm32g4xx_hal_opamp_ex.c ****     defined(STM32G491xx) || defined(STM32G4A1xx)
 418:Drivers/STM32G4xx_HAL_Driver/Src/stm32g4xx_hal_opamp_ex.c ****     MODIFY_REG(hopamp2->Instance->CSR, OPAMP_CSR_TRIMOFFSETN, trimmingvaluen2 << OPAMP_INPUT_INVERT
 419:Drivers/STM32G4xx_HAL_Driver/Src/stm32g4xx_hal_opamp_ex.c ****     MODIFY_REG(hopamp3->Instance->CSR, OPAMP_CSR_TRIMOFFSETN, trimmingvaluen3 << OPAMP_INPUT_INVERT
 420:Drivers/STM32G4xx_HAL_Driver/Src/stm32g4xx_hal_opamp_ex.c **** #endif /* STM32GBK1CB || STM32G431xx || STM32G441xx || STM32G471xx || STM32G473xx || STM32G474xx ||
 421:Drivers/STM32G4xx_HAL_Driver/Src/stm32g4xx_hal_opamp_ex.c ****           STM32G483xx || STM32G484xx || STM32G491xx || STM32G4A1xx */
 422:Drivers/STM32G4xx_HAL_Driver/Src/stm32g4xx_hal_opamp_ex.c **** #if defined(STM32G473xx) || defined(STM32G474xx) || defined(STM32G483xx) || defined(STM32G484xx)
 423:Drivers/STM32G4xx_HAL_Driver/Src/stm32g4xx_hal_opamp_ex.c ****     MODIFY_REG(hopamp4->Instance->CSR, OPAMP_CSR_TRIMOFFSETN, trimmingvaluen4 << OPAMP_INPUT_INVERT
 424:Drivers/STM32G4xx_HAL_Driver/Src/stm32g4xx_hal_opamp_ex.c ****     MODIFY_REG(hopamp5->Instance->CSR, OPAMP_CSR_TRIMOFFSETN, trimmingvaluen5 << OPAMP_INPUT_INVERT
 425:Drivers/STM32G4xx_HAL_Driver/Src/stm32g4xx_hal_opamp_ex.c ****     MODIFY_REG(hopamp6->Instance->CSR, OPAMP_CSR_TRIMOFFSETN, trimmingvaluen6 << OPAMP_INPUT_INVERT
 426:Drivers/STM32G4xx_HAL_Driver/Src/stm32g4xx_hal_opamp_ex.c **** #elif defined(STM32G491xx) || defined(STM32G4A1xx)
 427:Drivers/STM32G4xx_HAL_Driver/Src/stm32g4xx_hal_opamp_ex.c ****     MODIFY_REG(hopamp6->Instance->CSR, OPAMP_CSR_TRIMOFFSETN, trimmingvaluen6 << OPAMP_INPUT_INVERT
 428:Drivers/STM32G4xx_HAL_Driver/Src/stm32g4xx_hal_opamp_ex.c **** #endif /* STM32G473xx || STM32G474xx || STM32G483xx || STM32G484xx */
 429:Drivers/STM32G4xx_HAL_Driver/Src/stm32g4xx_hal_opamp_ex.c **** 
 430:Drivers/STM32G4xx_HAL_Driver/Src/stm32g4xx_hal_opamp_ex.c ****     /* OFFTRIMmax delay 2 ms as per datasheet (electrical characteristics */
 431:Drivers/STM32G4xx_HAL_Driver/Src/stm32g4xx_hal_opamp_ex.c ****     /* Offset trim time: during calibration, minimum time needed between */
 432:Drivers/STM32G4xx_HAL_Driver/Src/stm32g4xx_hal_opamp_ex.c ****     /* two steps to have 1 mV accuracy */
 433:Drivers/STM32G4xx_HAL_Driver/Src/stm32g4xx_hal_opamp_ex.c ****     HAL_Delay(2);
 434:Drivers/STM32G4xx_HAL_Driver/Src/stm32g4xx_hal_opamp_ex.c **** 
 435:Drivers/STM32G4xx_HAL_Driver/Src/stm32g4xx_hal_opamp_ex.c ****     if ((hopamp1->Instance->CSR & OPAMP_CSR_OUTCAL) != 0UL)
 436:Drivers/STM32G4xx_HAL_Driver/Src/stm32g4xx_hal_opamp_ex.c ****     {
 437:Drivers/STM32G4xx_HAL_Driver/Src/stm32g4xx_hal_opamp_ex.c ****       /* OPAMP_CSR_OUTCAL is actually one value more */
 438:Drivers/STM32G4xx_HAL_Driver/Src/stm32g4xx_hal_opamp_ex.c ****       trimmingvaluen1++;
 439:Drivers/STM32G4xx_HAL_Driver/Src/stm32g4xx_hal_opamp_ex.c ****       /* Set right trimming */
 440:Drivers/STM32G4xx_HAL_Driver/Src/stm32g4xx_hal_opamp_ex.c ****       MODIFY_REG(hopamp1->Instance->CSR, OPAMP_CSR_TRIMOFFSETN, trimmingvaluen1 << OPAMP_INPUT_INVE
 441:Drivers/STM32G4xx_HAL_Driver/Src/stm32g4xx_hal_opamp_ex.c ****     }
 442:Drivers/STM32G4xx_HAL_Driver/Src/stm32g4xx_hal_opamp_ex.c **** #if defined(STM32GBK1CB) || defined(STM32G431xx) || defined(STM32G441xx) || defined(STM32G471xx) ||
 443:Drivers/STM32G4xx_HAL_Driver/Src/stm32g4xx_hal_opamp_ex.c ****     defined(STM32G473xx) || defined(STM32G474xx) || defined(STM32G483xx) || defined(STM32G484xx) ||
 444:Drivers/STM32G4xx_HAL_Driver/Src/stm32g4xx_hal_opamp_ex.c ****     defined(STM32G491xx) || defined(STM32G4A1xx)
 445:Drivers/STM32G4xx_HAL_Driver/Src/stm32g4xx_hal_opamp_ex.c ****     if ((hopamp2->Instance->CSR & OPAMP_CSR_OUTCAL) != 0UL)
 446:Drivers/STM32G4xx_HAL_Driver/Src/stm32g4xx_hal_opamp_ex.c ****     {
 447:Drivers/STM32G4xx_HAL_Driver/Src/stm32g4xx_hal_opamp_ex.c ****       /* OPAMP_CSR_OUTCAL is actually one value more */
 448:Drivers/STM32G4xx_HAL_Driver/Src/stm32g4xx_hal_opamp_ex.c ****       trimmingvaluen2++;
 449:Drivers/STM32G4xx_HAL_Driver/Src/stm32g4xx_hal_opamp_ex.c ****       /* Set right trimming */
 450:Drivers/STM32G4xx_HAL_Driver/Src/stm32g4xx_hal_opamp_ex.c ****       MODIFY_REG(hopamp2->Instance->CSR, OPAMP_CSR_TRIMOFFSETN, trimmingvaluen2 << OPAMP_INPUT_INVE
 451:Drivers/STM32G4xx_HAL_Driver/Src/stm32g4xx_hal_opamp_ex.c ****     }
 452:Drivers/STM32G4xx_HAL_Driver/Src/stm32g4xx_hal_opamp_ex.c **** 
 453:Drivers/STM32G4xx_HAL_Driver/Src/stm32g4xx_hal_opamp_ex.c ****     if ((hopamp3->Instance->CSR & OPAMP_CSR_OUTCAL) != 0UL)
 454:Drivers/STM32G4xx_HAL_Driver/Src/stm32g4xx_hal_opamp_ex.c ****     {
 455:Drivers/STM32G4xx_HAL_Driver/Src/stm32g4xx_hal_opamp_ex.c ****       /* OPAMP_CSR_OUTCAL is actually one value more */
 456:Drivers/STM32G4xx_HAL_Driver/Src/stm32g4xx_hal_opamp_ex.c ****       trimmingvaluen3++;
 457:Drivers/STM32G4xx_HAL_Driver/Src/stm32g4xx_hal_opamp_ex.c ****       /* Set right trimming */
 458:Drivers/STM32G4xx_HAL_Driver/Src/stm32g4xx_hal_opamp_ex.c ****       MODIFY_REG(hopamp3->Instance->CSR, OPAMP_CSR_TRIMOFFSETN, trimmingvaluen3 << OPAMP_INPUT_INVE
 459:Drivers/STM32G4xx_HAL_Driver/Src/stm32g4xx_hal_opamp_ex.c ****     }
 460:Drivers/STM32G4xx_HAL_Driver/Src/stm32g4xx_hal_opamp_ex.c **** 
 461:Drivers/STM32G4xx_HAL_Driver/Src/stm32g4xx_hal_opamp_ex.c **** #endif /* STM32GBK1CB || STM32G431xx || STM32G441xx || STM32G471xx || STM32G473xx || STM32G474xx ||
 462:Drivers/STM32G4xx_HAL_Driver/Src/stm32g4xx_hal_opamp_ex.c ****           STM32G483xx || STM32G484xx || STM32G491xx || STM32G4A1xx */
 463:Drivers/STM32G4xx_HAL_Driver/Src/stm32g4xx_hal_opamp_ex.c **** #if defined(STM32G473xx) || defined(STM32G474xx) || defined(STM32G483xx) || defined(STM32G484xx)
 464:Drivers/STM32G4xx_HAL_Driver/Src/stm32g4xx_hal_opamp_ex.c ****     if ((hopamp4->Instance->CSR & OPAMP_CSR_OUTCAL) != 0UL)
 465:Drivers/STM32G4xx_HAL_Driver/Src/stm32g4xx_hal_opamp_ex.c ****     {
 466:Drivers/STM32G4xx_HAL_Driver/Src/stm32g4xx_hal_opamp_ex.c ****       /* OPAMP_CSR_OUTCAL is actually one value more */
 467:Drivers/STM32G4xx_HAL_Driver/Src/stm32g4xx_hal_opamp_ex.c ****       trimmingvaluen4++;
 468:Drivers/STM32G4xx_HAL_Driver/Src/stm32g4xx_hal_opamp_ex.c ****       /* Set right trimming */
 469:Drivers/STM32G4xx_HAL_Driver/Src/stm32g4xx_hal_opamp_ex.c ****       MODIFY_REG(hopamp4->Instance->CSR, OPAMP_CSR_TRIMOFFSETN, trimmingvaluen4 << OPAMP_INPUT_INVE
 470:Drivers/STM32G4xx_HAL_Driver/Src/stm32g4xx_hal_opamp_ex.c ****     }
 471:Drivers/STM32G4xx_HAL_Driver/Src/stm32g4xx_hal_opamp_ex.c **** 
 472:Drivers/STM32G4xx_HAL_Driver/Src/stm32g4xx_hal_opamp_ex.c ****     if ((hopamp5->Instance->CSR & OPAMP_CSR_OUTCAL) != 0UL)
ARM GAS   			page 11


 473:Drivers/STM32G4xx_HAL_Driver/Src/stm32g4xx_hal_opamp_ex.c ****     {
 474:Drivers/STM32G4xx_HAL_Driver/Src/stm32g4xx_hal_opamp_ex.c ****       /* OPAMP_CSR_OUTCAL is actually one value more */
 475:Drivers/STM32G4xx_HAL_Driver/Src/stm32g4xx_hal_opamp_ex.c ****       trimmingvaluen5++;
 476:Drivers/STM32G4xx_HAL_Driver/Src/stm32g4xx_hal_opamp_ex.c ****       /* Set right trimming */
 477:Drivers/STM32G4xx_HAL_Driver/Src/stm32g4xx_hal_opamp_ex.c ****       MODIFY_REG(hopamp5->Instance->CSR, OPAMP_CSR_TRIMOFFSETN, trimmingvaluen5 << OPAMP_INPUT_INVE
 478:Drivers/STM32G4xx_HAL_Driver/Src/stm32g4xx_hal_opamp_ex.c ****     }
 479:Drivers/STM32G4xx_HAL_Driver/Src/stm32g4xx_hal_opamp_ex.c **** 
 480:Drivers/STM32G4xx_HAL_Driver/Src/stm32g4xx_hal_opamp_ex.c ****     if ((hopamp6->Instance->CSR & OPAMP_CSR_OUTCAL) != 0UL)
 481:Drivers/STM32G4xx_HAL_Driver/Src/stm32g4xx_hal_opamp_ex.c ****     {
 482:Drivers/STM32G4xx_HAL_Driver/Src/stm32g4xx_hal_opamp_ex.c ****       /* OPAMP_CSR_OUTCAL is actually one value more */
 483:Drivers/STM32G4xx_HAL_Driver/Src/stm32g4xx_hal_opamp_ex.c ****       trimmingvaluen6++;
 484:Drivers/STM32G4xx_HAL_Driver/Src/stm32g4xx_hal_opamp_ex.c ****       /* Set right trimming */
 485:Drivers/STM32G4xx_HAL_Driver/Src/stm32g4xx_hal_opamp_ex.c ****       MODIFY_REG(hopamp6->Instance->CSR, OPAMP_CSR_TRIMOFFSETN, trimmingvaluen6 << OPAMP_INPUT_INVE
 486:Drivers/STM32G4xx_HAL_Driver/Src/stm32g4xx_hal_opamp_ex.c ****     }
 487:Drivers/STM32G4xx_HAL_Driver/Src/stm32g4xx_hal_opamp_ex.c **** 
 488:Drivers/STM32G4xx_HAL_Driver/Src/stm32g4xx_hal_opamp_ex.c **** #elif defined(STM32G491xx) || defined(STM32G4A1xx)
 489:Drivers/STM32G4xx_HAL_Driver/Src/stm32g4xx_hal_opamp_ex.c ****     if ((hopamp6->Instance->CSR & OPAMP_CSR_OUTCAL) != 0UL)
 490:Drivers/STM32G4xx_HAL_Driver/Src/stm32g4xx_hal_opamp_ex.c ****     {
 491:Drivers/STM32G4xx_HAL_Driver/Src/stm32g4xx_hal_opamp_ex.c ****       /* OPAMP_CSR_OUTCAL is actually one value more */
 492:Drivers/STM32G4xx_HAL_Driver/Src/stm32g4xx_hal_opamp_ex.c ****       trimmingvaluen6++;
 493:Drivers/STM32G4xx_HAL_Driver/Src/stm32g4xx_hal_opamp_ex.c ****       /* Set right trimming */
 494:Drivers/STM32G4xx_HAL_Driver/Src/stm32g4xx_hal_opamp_ex.c ****       MODIFY_REG(hopamp6->Instance->CSR, OPAMP_CSR_TRIMOFFSETN, trimmingvaluen6 << OPAMP_INPUT_INVE
 495:Drivers/STM32G4xx_HAL_Driver/Src/stm32g4xx_hal_opamp_ex.c ****     }
 496:Drivers/STM32G4xx_HAL_Driver/Src/stm32g4xx_hal_opamp_ex.c **** #endif /* STM32G473xx || STM32G474xx || STM32G483xx || STM32G484xx */
 497:Drivers/STM32G4xx_HAL_Driver/Src/stm32g4xx_hal_opamp_ex.c **** 
 498:Drivers/STM32G4xx_HAL_Driver/Src/stm32g4xx_hal_opamp_ex.c ****     /* 2nd calibration - P */
 499:Drivers/STM32G4xx_HAL_Driver/Src/stm32g4xx_hal_opamp_ex.c ****     /* Select 10% VREF */
 500:Drivers/STM32G4xx_HAL_Driver/Src/stm32g4xx_hal_opamp_ex.c ****     MODIFY_REG(hopamp1->Instance->CSR, OPAMP_CSR_CALSEL, OPAMP_VREF_10VDDA);
 501:Drivers/STM32G4xx_HAL_Driver/Src/stm32g4xx_hal_opamp_ex.c **** #if defined(STM32GBK1CB) || defined(STM32G431xx) || defined(STM32G441xx) || defined(STM32G471xx) ||
 502:Drivers/STM32G4xx_HAL_Driver/Src/stm32g4xx_hal_opamp_ex.c ****     defined(STM32G473xx) || defined(STM32G474xx) || defined(STM32G483xx) || defined(STM32G484xx) ||
 503:Drivers/STM32G4xx_HAL_Driver/Src/stm32g4xx_hal_opamp_ex.c ****     defined(STM32G491xx) || defined(STM32G4A1xx)
 504:Drivers/STM32G4xx_HAL_Driver/Src/stm32g4xx_hal_opamp_ex.c ****     MODIFY_REG(hopamp2->Instance->CSR, OPAMP_CSR_CALSEL, OPAMP_VREF_10VDDA);
 505:Drivers/STM32G4xx_HAL_Driver/Src/stm32g4xx_hal_opamp_ex.c ****     MODIFY_REG(hopamp3->Instance->CSR, OPAMP_CSR_CALSEL, OPAMP_VREF_10VDDA);
 506:Drivers/STM32G4xx_HAL_Driver/Src/stm32g4xx_hal_opamp_ex.c **** #endif /* STM32GBK1CB || STM32G431xx || STM32G441xx || STM32G471xx || STM32G473xx || STM32G474xx ||
 507:Drivers/STM32G4xx_HAL_Driver/Src/stm32g4xx_hal_opamp_ex.c ****           STM32G483xx || STM32G484xx || STM32G491xx || STM32G4A1xx */
 508:Drivers/STM32G4xx_HAL_Driver/Src/stm32g4xx_hal_opamp_ex.c **** #if defined(STM32G473xx) || defined(STM32G474xx) || defined(STM32G483xx) || defined(STM32G484xx)
 509:Drivers/STM32G4xx_HAL_Driver/Src/stm32g4xx_hal_opamp_ex.c ****     MODIFY_REG(hopamp4->Instance->CSR, OPAMP_CSR_CALSEL, OPAMP_VREF_10VDDA);
 510:Drivers/STM32G4xx_HAL_Driver/Src/stm32g4xx_hal_opamp_ex.c ****     MODIFY_REG(hopamp5->Instance->CSR, OPAMP_CSR_CALSEL, OPAMP_VREF_10VDDA);
 511:Drivers/STM32G4xx_HAL_Driver/Src/stm32g4xx_hal_opamp_ex.c ****     MODIFY_REG(hopamp6->Instance->CSR, OPAMP_CSR_CALSEL, OPAMP_VREF_10VDDA);
 512:Drivers/STM32G4xx_HAL_Driver/Src/stm32g4xx_hal_opamp_ex.c **** #elif defined(STM32G491xx) || defined(STM32G4A1xx)
 513:Drivers/STM32G4xx_HAL_Driver/Src/stm32g4xx_hal_opamp_ex.c ****     MODIFY_REG(hopamp6->Instance->CSR, OPAMP_CSR_CALSEL, OPAMP_VREF_10VDDA);
 514:Drivers/STM32G4xx_HAL_Driver/Src/stm32g4xx_hal_opamp_ex.c **** #endif /* STM32G473xx || STM32G474xx || STM32G483xx || STM32G484xx */
 515:Drivers/STM32G4xx_HAL_Driver/Src/stm32g4xx_hal_opamp_ex.c **** 
 516:Drivers/STM32G4xx_HAL_Driver/Src/stm32g4xx_hal_opamp_ex.c ****     /* Init trimming counter */
 517:Drivers/STM32G4xx_HAL_Driver/Src/stm32g4xx_hal_opamp_ex.c ****     /* Medium value */
 518:Drivers/STM32G4xx_HAL_Driver/Src/stm32g4xx_hal_opamp_ex.c ****     trimmingvaluep1 = 16UL;
 519:Drivers/STM32G4xx_HAL_Driver/Src/stm32g4xx_hal_opamp_ex.c **** #if defined(STM32GBK1CB) || defined(STM32G431xx) || defined(STM32G441xx) || defined(STM32G471xx) ||
 520:Drivers/STM32G4xx_HAL_Driver/Src/stm32g4xx_hal_opamp_ex.c ****     defined(STM32G473xx) || defined(STM32G474xx) || defined(STM32G483xx) || defined(STM32G484xx) ||
 521:Drivers/STM32G4xx_HAL_Driver/Src/stm32g4xx_hal_opamp_ex.c ****     defined(STM32G491xx) || defined(STM32G4A1xx)
 522:Drivers/STM32G4xx_HAL_Driver/Src/stm32g4xx_hal_opamp_ex.c ****     trimmingvaluep2 = 16UL;
 523:Drivers/STM32G4xx_HAL_Driver/Src/stm32g4xx_hal_opamp_ex.c ****     trimmingvaluep3 = 16UL;
 524:Drivers/STM32G4xx_HAL_Driver/Src/stm32g4xx_hal_opamp_ex.c **** #endif /* STM32GBK1CB || STM32G431xx || STM32G441xx || STM32G471xx || STM32G473xx || STM32G474xx ||
 525:Drivers/STM32G4xx_HAL_Driver/Src/stm32g4xx_hal_opamp_ex.c ****           STM32G483xx || STM32G484xx || STM32G491xx || STM32G4A1xx */
 526:Drivers/STM32G4xx_HAL_Driver/Src/stm32g4xx_hal_opamp_ex.c **** #if defined(STM32G473xx) || defined(STM32G474xx) || defined(STM32G483xx) || defined(STM32G484xx)
 527:Drivers/STM32G4xx_HAL_Driver/Src/stm32g4xx_hal_opamp_ex.c ****     trimmingvaluep4 = 16UL;
 528:Drivers/STM32G4xx_HAL_Driver/Src/stm32g4xx_hal_opamp_ex.c ****     trimmingvaluep5 = 16UL;
 529:Drivers/STM32G4xx_HAL_Driver/Src/stm32g4xx_hal_opamp_ex.c ****     trimmingvaluep6 = 16UL;
ARM GAS   			page 12


 530:Drivers/STM32G4xx_HAL_Driver/Src/stm32g4xx_hal_opamp_ex.c **** #elif defined(STM32G491xx) || defined(STM32G4A1xx)
 531:Drivers/STM32G4xx_HAL_Driver/Src/stm32g4xx_hal_opamp_ex.c ****     trimmingvaluep6 = 16UL;
 532:Drivers/STM32G4xx_HAL_Driver/Src/stm32g4xx_hal_opamp_ex.c **** #endif /* STM32G473xx || STM32G474xx || STM32G483xx || STM32G484xx */
 533:Drivers/STM32G4xx_HAL_Driver/Src/stm32g4xx_hal_opamp_ex.c **** 
 534:Drivers/STM32G4xx_HAL_Driver/Src/stm32g4xx_hal_opamp_ex.c ****     delta = 8UL;
 535:Drivers/STM32G4xx_HAL_Driver/Src/stm32g4xx_hal_opamp_ex.c **** 
 536:Drivers/STM32G4xx_HAL_Driver/Src/stm32g4xx_hal_opamp_ex.c ****     while (delta != 0UL)
 537:Drivers/STM32G4xx_HAL_Driver/Src/stm32g4xx_hal_opamp_ex.c ****     {
 538:Drivers/STM32G4xx_HAL_Driver/Src/stm32g4xx_hal_opamp_ex.c ****       /* Set candidate trimming */
 539:Drivers/STM32G4xx_HAL_Driver/Src/stm32g4xx_hal_opamp_ex.c ****       MODIFY_REG(hopamp1->Instance->CSR, OPAMP_CSR_TRIMOFFSETP, trimmingvaluep1 << OPAMP_INPUT_NONI
 540:Drivers/STM32G4xx_HAL_Driver/Src/stm32g4xx_hal_opamp_ex.c **** #if defined(STM32GBK1CB) || defined(STM32G431xx) || defined(STM32G441xx) || defined(STM32G471xx) ||
 541:Drivers/STM32G4xx_HAL_Driver/Src/stm32g4xx_hal_opamp_ex.c ****     defined(STM32G473xx) || defined(STM32G474xx) || defined(STM32G483xx) || defined(STM32G484xx) ||
 542:Drivers/STM32G4xx_HAL_Driver/Src/stm32g4xx_hal_opamp_ex.c ****     defined(STM32G491xx) || defined(STM32G4A1xx)
 543:Drivers/STM32G4xx_HAL_Driver/Src/stm32g4xx_hal_opamp_ex.c ****       MODIFY_REG(hopamp2->Instance->CSR, OPAMP_CSR_TRIMOFFSETP, trimmingvaluep2 << OPAMP_INPUT_NONI
 544:Drivers/STM32G4xx_HAL_Driver/Src/stm32g4xx_hal_opamp_ex.c ****       MODIFY_REG(hopamp3->Instance->CSR, OPAMP_CSR_TRIMOFFSETP, trimmingvaluep3 << OPAMP_INPUT_NONI
 545:Drivers/STM32G4xx_HAL_Driver/Src/stm32g4xx_hal_opamp_ex.c **** #endif /* STM32GBK1CB || STM32G431xx || STM32G441xx || STM32G471xx || STM32G473xx || STM32G474xx ||
 546:Drivers/STM32G4xx_HAL_Driver/Src/stm32g4xx_hal_opamp_ex.c ****           STM32G483xx || STM32G484xx || STM32G491xx || STM32G4A1xx */
 547:Drivers/STM32G4xx_HAL_Driver/Src/stm32g4xx_hal_opamp_ex.c **** #if defined(STM32G473xx) || defined(STM32G474xx) || defined(STM32G483xx) || defined(STM32G484xx)
 548:Drivers/STM32G4xx_HAL_Driver/Src/stm32g4xx_hal_opamp_ex.c ****       MODIFY_REG(hopamp4->Instance->CSR, OPAMP_CSR_TRIMOFFSETP, trimmingvaluep4 << OPAMP_INPUT_NONI
 549:Drivers/STM32G4xx_HAL_Driver/Src/stm32g4xx_hal_opamp_ex.c ****       MODIFY_REG(hopamp5->Instance->CSR, OPAMP_CSR_TRIMOFFSETP, trimmingvaluep5 << OPAMP_INPUT_NONI
 550:Drivers/STM32G4xx_HAL_Driver/Src/stm32g4xx_hal_opamp_ex.c ****       MODIFY_REG(hopamp6->Instance->CSR, OPAMP_CSR_TRIMOFFSETP, trimmingvaluep6 << OPAMP_INPUT_NONI
 551:Drivers/STM32G4xx_HAL_Driver/Src/stm32g4xx_hal_opamp_ex.c **** #elif defined(STM32G491xx) || defined(STM32G4A1xx)
 552:Drivers/STM32G4xx_HAL_Driver/Src/stm32g4xx_hal_opamp_ex.c ****       MODIFY_REG(hopamp6->Instance->CSR, OPAMP_CSR_TRIMOFFSETP, trimmingvaluep6 << OPAMP_INPUT_NONI
 553:Drivers/STM32G4xx_HAL_Driver/Src/stm32g4xx_hal_opamp_ex.c **** #endif /* STM32G473xx || STM32G474xx || STM32G483xx || STM32G484xx */
 554:Drivers/STM32G4xx_HAL_Driver/Src/stm32g4xx_hal_opamp_ex.c **** 
 555:Drivers/STM32G4xx_HAL_Driver/Src/stm32g4xx_hal_opamp_ex.c ****       /* OFFTRIMmax delay 2 ms as per datasheet (electrical characteristics */
 556:Drivers/STM32G4xx_HAL_Driver/Src/stm32g4xx_hal_opamp_ex.c ****       /* Offset trim time: during calibration, minimum time needed between */
 557:Drivers/STM32G4xx_HAL_Driver/Src/stm32g4xx_hal_opamp_ex.c ****       /* two steps to have 1 mV accuracy */
 558:Drivers/STM32G4xx_HAL_Driver/Src/stm32g4xx_hal_opamp_ex.c ****       HAL_Delay(2);
 559:Drivers/STM32G4xx_HAL_Driver/Src/stm32g4xx_hal_opamp_ex.c **** 
 560:Drivers/STM32G4xx_HAL_Driver/Src/stm32g4xx_hal_opamp_ex.c ****       if ((hopamp1->Instance->CSR & OPAMP_CSR_OUTCAL) != 0UL)
 561:Drivers/STM32G4xx_HAL_Driver/Src/stm32g4xx_hal_opamp_ex.c ****       {
 562:Drivers/STM32G4xx_HAL_Driver/Src/stm32g4xx_hal_opamp_ex.c ****         /* OPAMP_CSR_OUTCAL is HIGH try higher trimming */
 563:Drivers/STM32G4xx_HAL_Driver/Src/stm32g4xx_hal_opamp_ex.c ****         trimmingvaluep1 += delta;
 564:Drivers/STM32G4xx_HAL_Driver/Src/stm32g4xx_hal_opamp_ex.c ****       }
 565:Drivers/STM32G4xx_HAL_Driver/Src/stm32g4xx_hal_opamp_ex.c ****       else
 566:Drivers/STM32G4xx_HAL_Driver/Src/stm32g4xx_hal_opamp_ex.c ****       {
 567:Drivers/STM32G4xx_HAL_Driver/Src/stm32g4xx_hal_opamp_ex.c ****         trimmingvaluep1 -= delta;
 568:Drivers/STM32G4xx_HAL_Driver/Src/stm32g4xx_hal_opamp_ex.c ****       }
 569:Drivers/STM32G4xx_HAL_Driver/Src/stm32g4xx_hal_opamp_ex.c **** 
 570:Drivers/STM32G4xx_HAL_Driver/Src/stm32g4xx_hal_opamp_ex.c **** #if defined(STM32GBK1CB) || defined(STM32G431xx) || defined(STM32G441xx) || defined(STM32G471xx) ||
 571:Drivers/STM32G4xx_HAL_Driver/Src/stm32g4xx_hal_opamp_ex.c ****     defined(STM32G473xx) || defined(STM32G474xx) || defined(STM32G483xx) || defined(STM32G484xx) ||
 572:Drivers/STM32G4xx_HAL_Driver/Src/stm32g4xx_hal_opamp_ex.c ****     defined(STM32G491xx) || defined(STM32G4A1xx)
 573:Drivers/STM32G4xx_HAL_Driver/Src/stm32g4xx_hal_opamp_ex.c ****       if ((hopamp2->Instance->CSR & OPAMP_CSR_OUTCAL) != 0UL)
 574:Drivers/STM32G4xx_HAL_Driver/Src/stm32g4xx_hal_opamp_ex.c ****       {
 575:Drivers/STM32G4xx_HAL_Driver/Src/stm32g4xx_hal_opamp_ex.c ****         /* OPAMP_CSR_OUTCAL is HIGH try higher trimming */
 576:Drivers/STM32G4xx_HAL_Driver/Src/stm32g4xx_hal_opamp_ex.c ****         trimmingvaluep2 += delta;
 577:Drivers/STM32G4xx_HAL_Driver/Src/stm32g4xx_hal_opamp_ex.c ****       }
 578:Drivers/STM32G4xx_HAL_Driver/Src/stm32g4xx_hal_opamp_ex.c ****       else
 579:Drivers/STM32G4xx_HAL_Driver/Src/stm32g4xx_hal_opamp_ex.c ****       {
 580:Drivers/STM32G4xx_HAL_Driver/Src/stm32g4xx_hal_opamp_ex.c ****         trimmingvaluep2 -= delta;
 581:Drivers/STM32G4xx_HAL_Driver/Src/stm32g4xx_hal_opamp_ex.c ****       }
 582:Drivers/STM32G4xx_HAL_Driver/Src/stm32g4xx_hal_opamp_ex.c **** 
 583:Drivers/STM32G4xx_HAL_Driver/Src/stm32g4xx_hal_opamp_ex.c ****       if ((hopamp3->Instance->CSR & OPAMP_CSR_OUTCAL) != 0UL)
 584:Drivers/STM32G4xx_HAL_Driver/Src/stm32g4xx_hal_opamp_ex.c ****       {
 585:Drivers/STM32G4xx_HAL_Driver/Src/stm32g4xx_hal_opamp_ex.c ****         /* OPAMP_CSR_OUTCAL is HIGH try higher trimming */
 586:Drivers/STM32G4xx_HAL_Driver/Src/stm32g4xx_hal_opamp_ex.c ****         trimmingvaluep3 += delta;
ARM GAS   			page 13


 587:Drivers/STM32G4xx_HAL_Driver/Src/stm32g4xx_hal_opamp_ex.c ****       }
 588:Drivers/STM32G4xx_HAL_Driver/Src/stm32g4xx_hal_opamp_ex.c ****       else
 589:Drivers/STM32G4xx_HAL_Driver/Src/stm32g4xx_hal_opamp_ex.c ****       {
 590:Drivers/STM32G4xx_HAL_Driver/Src/stm32g4xx_hal_opamp_ex.c ****         trimmingvaluep3 -= delta;
 591:Drivers/STM32G4xx_HAL_Driver/Src/stm32g4xx_hal_opamp_ex.c ****       }
 592:Drivers/STM32G4xx_HAL_Driver/Src/stm32g4xx_hal_opamp_ex.c **** 
 593:Drivers/STM32G4xx_HAL_Driver/Src/stm32g4xx_hal_opamp_ex.c **** #endif /* STM32GBK1CB || STM32G431xx || STM32G441xx || STM32G471xx || STM32G473xx || STM32G474xx ||
 594:Drivers/STM32G4xx_HAL_Driver/Src/stm32g4xx_hal_opamp_ex.c ****           STM32G483xx || STM32G484xx || STM32G491xx || STM32G4A1xx */
 595:Drivers/STM32G4xx_HAL_Driver/Src/stm32g4xx_hal_opamp_ex.c **** #if defined(STM32G473xx) || defined(STM32G474xx) || defined(STM32G483xx) || defined(STM32G484xx)
 596:Drivers/STM32G4xx_HAL_Driver/Src/stm32g4xx_hal_opamp_ex.c ****       if ((hopamp4->Instance->CSR & OPAMP_CSR_OUTCAL) != 0UL)
 597:Drivers/STM32G4xx_HAL_Driver/Src/stm32g4xx_hal_opamp_ex.c ****       {
 598:Drivers/STM32G4xx_HAL_Driver/Src/stm32g4xx_hal_opamp_ex.c ****         /* OPAMP_CSR_OUTCAL is HIGH try higher trimming */
 599:Drivers/STM32G4xx_HAL_Driver/Src/stm32g4xx_hal_opamp_ex.c ****         trimmingvaluep4 += delta;
 600:Drivers/STM32G4xx_HAL_Driver/Src/stm32g4xx_hal_opamp_ex.c ****       }
 601:Drivers/STM32G4xx_HAL_Driver/Src/stm32g4xx_hal_opamp_ex.c ****       else
 602:Drivers/STM32G4xx_HAL_Driver/Src/stm32g4xx_hal_opamp_ex.c ****       {
 603:Drivers/STM32G4xx_HAL_Driver/Src/stm32g4xx_hal_opamp_ex.c ****         trimmingvaluep4 -= delta;
 604:Drivers/STM32G4xx_HAL_Driver/Src/stm32g4xx_hal_opamp_ex.c ****       }
 605:Drivers/STM32G4xx_HAL_Driver/Src/stm32g4xx_hal_opamp_ex.c **** 
 606:Drivers/STM32G4xx_HAL_Driver/Src/stm32g4xx_hal_opamp_ex.c ****       if ((hopamp5->Instance->CSR & OPAMP_CSR_OUTCAL) != 0UL)
 607:Drivers/STM32G4xx_HAL_Driver/Src/stm32g4xx_hal_opamp_ex.c ****       {
 608:Drivers/STM32G4xx_HAL_Driver/Src/stm32g4xx_hal_opamp_ex.c ****         /* OPAMP_CSR_OUTCAL is HIGH try higher trimming */
 609:Drivers/STM32G4xx_HAL_Driver/Src/stm32g4xx_hal_opamp_ex.c ****         trimmingvaluep5 += delta;
 610:Drivers/STM32G4xx_HAL_Driver/Src/stm32g4xx_hal_opamp_ex.c ****       }
 611:Drivers/STM32G4xx_HAL_Driver/Src/stm32g4xx_hal_opamp_ex.c ****       else
 612:Drivers/STM32G4xx_HAL_Driver/Src/stm32g4xx_hal_opamp_ex.c ****       {
 613:Drivers/STM32G4xx_HAL_Driver/Src/stm32g4xx_hal_opamp_ex.c ****         trimmingvaluep5 -= delta;
 614:Drivers/STM32G4xx_HAL_Driver/Src/stm32g4xx_hal_opamp_ex.c ****       }
 615:Drivers/STM32G4xx_HAL_Driver/Src/stm32g4xx_hal_opamp_ex.c **** 
 616:Drivers/STM32G4xx_HAL_Driver/Src/stm32g4xx_hal_opamp_ex.c ****       if ((hopamp6->Instance->CSR & OPAMP_CSR_OUTCAL) != 0UL)
 617:Drivers/STM32G4xx_HAL_Driver/Src/stm32g4xx_hal_opamp_ex.c ****       {
 618:Drivers/STM32G4xx_HAL_Driver/Src/stm32g4xx_hal_opamp_ex.c ****         /* OPAMP_CSR_OUTCAL is HIGH try higher trimming */
 619:Drivers/STM32G4xx_HAL_Driver/Src/stm32g4xx_hal_opamp_ex.c ****         trimmingvaluep6 += delta;
 620:Drivers/STM32G4xx_HAL_Driver/Src/stm32g4xx_hal_opamp_ex.c ****       }
 621:Drivers/STM32G4xx_HAL_Driver/Src/stm32g4xx_hal_opamp_ex.c ****       else
 622:Drivers/STM32G4xx_HAL_Driver/Src/stm32g4xx_hal_opamp_ex.c ****       {
 623:Drivers/STM32G4xx_HAL_Driver/Src/stm32g4xx_hal_opamp_ex.c ****         trimmingvaluep6 -= delta;
 624:Drivers/STM32G4xx_HAL_Driver/Src/stm32g4xx_hal_opamp_ex.c ****       }
 625:Drivers/STM32G4xx_HAL_Driver/Src/stm32g4xx_hal_opamp_ex.c **** 
 626:Drivers/STM32G4xx_HAL_Driver/Src/stm32g4xx_hal_opamp_ex.c **** #elif defined(STM32G491xx) || defined(STM32G4A1xx)
 627:Drivers/STM32G4xx_HAL_Driver/Src/stm32g4xx_hal_opamp_ex.c ****       if ((hopamp6->Instance->CSR & OPAMP_CSR_OUTCAL) != 0UL)
 628:Drivers/STM32G4xx_HAL_Driver/Src/stm32g4xx_hal_opamp_ex.c ****       {
 629:Drivers/STM32G4xx_HAL_Driver/Src/stm32g4xx_hal_opamp_ex.c ****         /* OPAMP_CSR_OUTCAL is HIGH try higher trimming */
 630:Drivers/STM32G4xx_HAL_Driver/Src/stm32g4xx_hal_opamp_ex.c ****         trimmingvaluep6 += delta;
 631:Drivers/STM32G4xx_HAL_Driver/Src/stm32g4xx_hal_opamp_ex.c ****       }
 632:Drivers/STM32G4xx_HAL_Driver/Src/stm32g4xx_hal_opamp_ex.c ****       else
 633:Drivers/STM32G4xx_HAL_Driver/Src/stm32g4xx_hal_opamp_ex.c ****       {
 634:Drivers/STM32G4xx_HAL_Driver/Src/stm32g4xx_hal_opamp_ex.c ****         trimmingvaluep6 -= delta;
 635:Drivers/STM32G4xx_HAL_Driver/Src/stm32g4xx_hal_opamp_ex.c ****       }
 636:Drivers/STM32G4xx_HAL_Driver/Src/stm32g4xx_hal_opamp_ex.c **** #endif /* STM32G473xx || STM32G474xx || STM32G483xx || STM32G484xx */
 637:Drivers/STM32G4xx_HAL_Driver/Src/stm32g4xx_hal_opamp_ex.c **** 
 638:Drivers/STM32G4xx_HAL_Driver/Src/stm32g4xx_hal_opamp_ex.c ****       delta >>= 1;
 639:Drivers/STM32G4xx_HAL_Driver/Src/stm32g4xx_hal_opamp_ex.c ****     }
 640:Drivers/STM32G4xx_HAL_Driver/Src/stm32g4xx_hal_opamp_ex.c **** 
 641:Drivers/STM32G4xx_HAL_Driver/Src/stm32g4xx_hal_opamp_ex.c ****     /* Still need to check if righ calibration is current value or un step below */
 642:Drivers/STM32G4xx_HAL_Driver/Src/stm32g4xx_hal_opamp_ex.c ****     /* Indeed the first value that causes the OUTCAL bit to change from 1 to 0 */
 643:Drivers/STM32G4xx_HAL_Driver/Src/stm32g4xx_hal_opamp_ex.c ****     /* Set candidate trimming */
ARM GAS   			page 14


 644:Drivers/STM32G4xx_HAL_Driver/Src/stm32g4xx_hal_opamp_ex.c ****     MODIFY_REG(hopamp1->Instance->CSR, OPAMP_CSR_TRIMOFFSETP, trimmingvaluep1 << OPAMP_INPUT_NONINV
 645:Drivers/STM32G4xx_HAL_Driver/Src/stm32g4xx_hal_opamp_ex.c **** #if defined(STM32GBK1CB) || defined(STM32G431xx) || defined(STM32G441xx) || defined(STM32G471xx) ||
 646:Drivers/STM32G4xx_HAL_Driver/Src/stm32g4xx_hal_opamp_ex.c ****     defined(STM32G473xx) || defined(STM32G474xx) || defined(STM32G483xx) || defined(STM32G484xx) ||
 647:Drivers/STM32G4xx_HAL_Driver/Src/stm32g4xx_hal_opamp_ex.c ****     defined(STM32G491xx) || defined(STM32G4A1xx)
 648:Drivers/STM32G4xx_HAL_Driver/Src/stm32g4xx_hal_opamp_ex.c ****     MODIFY_REG(hopamp2->Instance->CSR, OPAMP_CSR_TRIMOFFSETP, trimmingvaluep2 << OPAMP_INPUT_NONINV
 649:Drivers/STM32G4xx_HAL_Driver/Src/stm32g4xx_hal_opamp_ex.c ****     MODIFY_REG(hopamp3->Instance->CSR, OPAMP_CSR_TRIMOFFSETP, trimmingvaluep3 << OPAMP_INPUT_NONINV
 650:Drivers/STM32G4xx_HAL_Driver/Src/stm32g4xx_hal_opamp_ex.c **** #endif /* STM32GBK1CB || STM32G431xx || STM32G441xx || STM32G471xx || STM32G473xx || STM32G474xx ||
 651:Drivers/STM32G4xx_HAL_Driver/Src/stm32g4xx_hal_opamp_ex.c ****           STM32G483xx || STM32G484xx || STM32G491xx || STM32G4A1xx */
 652:Drivers/STM32G4xx_HAL_Driver/Src/stm32g4xx_hal_opamp_ex.c **** #if defined(STM32G473xx) || defined(STM32G474xx) || defined(STM32G483xx) || defined(STM32G484xx)
 653:Drivers/STM32G4xx_HAL_Driver/Src/stm32g4xx_hal_opamp_ex.c ****     MODIFY_REG(hopamp4->Instance->CSR, OPAMP_CSR_TRIMOFFSETP, trimmingvaluep4 << OPAMP_INPUT_NONINV
 654:Drivers/STM32G4xx_HAL_Driver/Src/stm32g4xx_hal_opamp_ex.c ****     MODIFY_REG(hopamp5->Instance->CSR, OPAMP_CSR_TRIMOFFSETP, trimmingvaluep5 << OPAMP_INPUT_NONINV
 655:Drivers/STM32G4xx_HAL_Driver/Src/stm32g4xx_hal_opamp_ex.c ****     MODIFY_REG(hopamp6->Instance->CSR, OPAMP_CSR_TRIMOFFSETP, trimmingvaluep6 << OPAMP_INPUT_NONINV
 656:Drivers/STM32G4xx_HAL_Driver/Src/stm32g4xx_hal_opamp_ex.c **** #elif defined(STM32G491xx) || defined(STM32G4A1xx)
 657:Drivers/STM32G4xx_HAL_Driver/Src/stm32g4xx_hal_opamp_ex.c ****     MODIFY_REG(hopamp6->Instance->CSR, OPAMP_CSR_TRIMOFFSETP, trimmingvaluep6 << OPAMP_INPUT_NONINV
 658:Drivers/STM32G4xx_HAL_Driver/Src/stm32g4xx_hal_opamp_ex.c **** #endif /* STM32G473xx || STM32G474xx || STM32G483xx || STM32G484xx */
 659:Drivers/STM32G4xx_HAL_Driver/Src/stm32g4xx_hal_opamp_ex.c **** 
 660:Drivers/STM32G4xx_HAL_Driver/Src/stm32g4xx_hal_opamp_ex.c ****     /* OFFTRIMmax delay 2 ms as per datasheet (electrical characteristics */
 661:Drivers/STM32G4xx_HAL_Driver/Src/stm32g4xx_hal_opamp_ex.c ****     /* Offset trim time: during calibration, minimum time needed between */
 662:Drivers/STM32G4xx_HAL_Driver/Src/stm32g4xx_hal_opamp_ex.c ****     /* two steps to have 1 mV accuracy */
 663:Drivers/STM32G4xx_HAL_Driver/Src/stm32g4xx_hal_opamp_ex.c ****     HAL_Delay(2);
 664:Drivers/STM32G4xx_HAL_Driver/Src/stm32g4xx_hal_opamp_ex.c **** 
 665:Drivers/STM32G4xx_HAL_Driver/Src/stm32g4xx_hal_opamp_ex.c ****     if ((hopamp1->Instance->CSR & OPAMP_CSR_OUTCAL) != 0UL)
 666:Drivers/STM32G4xx_HAL_Driver/Src/stm32g4xx_hal_opamp_ex.c ****     {
 667:Drivers/STM32G4xx_HAL_Driver/Src/stm32g4xx_hal_opamp_ex.c ****       /* Trimming value is actually one value more */
 668:Drivers/STM32G4xx_HAL_Driver/Src/stm32g4xx_hal_opamp_ex.c ****       trimmingvaluep1++;
 669:Drivers/STM32G4xx_HAL_Driver/Src/stm32g4xx_hal_opamp_ex.c ****       /* Set right trimming */
 670:Drivers/STM32G4xx_HAL_Driver/Src/stm32g4xx_hal_opamp_ex.c ****       MODIFY_REG(hopamp1->Instance->CSR, OPAMP_CSR_TRIMOFFSETP, trimmingvaluep1 << OPAMP_INPUT_NONI
 671:Drivers/STM32G4xx_HAL_Driver/Src/stm32g4xx_hal_opamp_ex.c ****     }
 672:Drivers/STM32G4xx_HAL_Driver/Src/stm32g4xx_hal_opamp_ex.c **** 
 673:Drivers/STM32G4xx_HAL_Driver/Src/stm32g4xx_hal_opamp_ex.c **** #if defined(STM32GBK1CB) || defined(STM32G431xx) || defined(STM32G441xx) || defined(STM32G471xx) ||
 674:Drivers/STM32G4xx_HAL_Driver/Src/stm32g4xx_hal_opamp_ex.c ****     defined(STM32G473xx) || defined(STM32G474xx) || defined(STM32G483xx) || defined(STM32G484xx) ||
 675:Drivers/STM32G4xx_HAL_Driver/Src/stm32g4xx_hal_opamp_ex.c ****     defined(STM32G491xx) || defined(STM32G4A1xx)
 676:Drivers/STM32G4xx_HAL_Driver/Src/stm32g4xx_hal_opamp_ex.c ****     if ((hopamp2->Instance->CSR & OPAMP_CSR_OUTCAL) != 0UL)
 677:Drivers/STM32G4xx_HAL_Driver/Src/stm32g4xx_hal_opamp_ex.c ****     {
 678:Drivers/STM32G4xx_HAL_Driver/Src/stm32g4xx_hal_opamp_ex.c ****       /* Trimming value is actually one value more */
 679:Drivers/STM32G4xx_HAL_Driver/Src/stm32g4xx_hal_opamp_ex.c ****       trimmingvaluep2++;
 680:Drivers/STM32G4xx_HAL_Driver/Src/stm32g4xx_hal_opamp_ex.c ****       /* Set right trimming */
 681:Drivers/STM32G4xx_HAL_Driver/Src/stm32g4xx_hal_opamp_ex.c ****       MODIFY_REG(hopamp2->Instance->CSR, OPAMP_CSR_TRIMOFFSETP, trimmingvaluep2 << OPAMP_INPUT_NONI
 682:Drivers/STM32G4xx_HAL_Driver/Src/stm32g4xx_hal_opamp_ex.c ****     }
 683:Drivers/STM32G4xx_HAL_Driver/Src/stm32g4xx_hal_opamp_ex.c **** 
 684:Drivers/STM32G4xx_HAL_Driver/Src/stm32g4xx_hal_opamp_ex.c ****     if ((hopamp3->Instance->CSR & OPAMP_CSR_OUTCAL) != 0UL)
 685:Drivers/STM32G4xx_HAL_Driver/Src/stm32g4xx_hal_opamp_ex.c ****     {
 686:Drivers/STM32G4xx_HAL_Driver/Src/stm32g4xx_hal_opamp_ex.c ****       /* Trimming value is actually one value more */
 687:Drivers/STM32G4xx_HAL_Driver/Src/stm32g4xx_hal_opamp_ex.c ****       trimmingvaluep3++;
 688:Drivers/STM32G4xx_HAL_Driver/Src/stm32g4xx_hal_opamp_ex.c ****       /* Set right trimming */
 689:Drivers/STM32G4xx_HAL_Driver/Src/stm32g4xx_hal_opamp_ex.c ****       MODIFY_REG(hopamp3->Instance->CSR, OPAMP_CSR_TRIMOFFSETP, trimmingvaluep3 << OPAMP_INPUT_NONI
 690:Drivers/STM32G4xx_HAL_Driver/Src/stm32g4xx_hal_opamp_ex.c ****     }
 691:Drivers/STM32G4xx_HAL_Driver/Src/stm32g4xx_hal_opamp_ex.c **** 
 692:Drivers/STM32G4xx_HAL_Driver/Src/stm32g4xx_hal_opamp_ex.c **** #endif /* STM32GBK1CB || STM32G431xx || STM32G441xx || STM32G471xx || STM32G473xx || STM32G474xx ||
 693:Drivers/STM32G4xx_HAL_Driver/Src/stm32g4xx_hal_opamp_ex.c ****           STM32G483xx || STM32G484xx || STM32G491xx || STM32G4A1xx */
 694:Drivers/STM32G4xx_HAL_Driver/Src/stm32g4xx_hal_opamp_ex.c **** #if defined(STM32G473xx) || defined(STM32G474xx) || defined(STM32G483xx) || defined(STM32G484xx)
 695:Drivers/STM32G4xx_HAL_Driver/Src/stm32g4xx_hal_opamp_ex.c ****     if ((hopamp4->Instance->CSR & OPAMP_CSR_OUTCAL) != 0UL)
 696:Drivers/STM32G4xx_HAL_Driver/Src/stm32g4xx_hal_opamp_ex.c ****     {
 697:Drivers/STM32G4xx_HAL_Driver/Src/stm32g4xx_hal_opamp_ex.c ****       /* Trimming value is actually one value more */
 698:Drivers/STM32G4xx_HAL_Driver/Src/stm32g4xx_hal_opamp_ex.c ****       trimmingvaluep4++;
 699:Drivers/STM32G4xx_HAL_Driver/Src/stm32g4xx_hal_opamp_ex.c ****       /* Set right trimming */
 700:Drivers/STM32G4xx_HAL_Driver/Src/stm32g4xx_hal_opamp_ex.c ****       MODIFY_REG(hopamp4->Instance->CSR, OPAMP_CSR_TRIMOFFSETP, trimmingvaluep4 << OPAMP_INPUT_NONI
ARM GAS   			page 15


 701:Drivers/STM32G4xx_HAL_Driver/Src/stm32g4xx_hal_opamp_ex.c ****     }
 702:Drivers/STM32G4xx_HAL_Driver/Src/stm32g4xx_hal_opamp_ex.c **** 
 703:Drivers/STM32G4xx_HAL_Driver/Src/stm32g4xx_hal_opamp_ex.c ****     if ((hopamp5->Instance->CSR & OPAMP_CSR_OUTCAL) != 0UL)
 704:Drivers/STM32G4xx_HAL_Driver/Src/stm32g4xx_hal_opamp_ex.c ****     {
 705:Drivers/STM32G4xx_HAL_Driver/Src/stm32g4xx_hal_opamp_ex.c ****       /* Trimming value is actually one value more */
 706:Drivers/STM32G4xx_HAL_Driver/Src/stm32g4xx_hal_opamp_ex.c ****       trimmingvaluep5++;
 707:Drivers/STM32G4xx_HAL_Driver/Src/stm32g4xx_hal_opamp_ex.c ****       /* Set right trimming */
 708:Drivers/STM32G4xx_HAL_Driver/Src/stm32g4xx_hal_opamp_ex.c ****       MODIFY_REG(hopamp5->Instance->CSR, OPAMP_CSR_TRIMOFFSETP, trimmingvaluep5 << OPAMP_INPUT_NONI
 709:Drivers/STM32G4xx_HAL_Driver/Src/stm32g4xx_hal_opamp_ex.c ****     }
 710:Drivers/STM32G4xx_HAL_Driver/Src/stm32g4xx_hal_opamp_ex.c **** 
 711:Drivers/STM32G4xx_HAL_Driver/Src/stm32g4xx_hal_opamp_ex.c ****     if ((hopamp6->Instance->CSR & OPAMP_CSR_OUTCAL) != 0UL)
 712:Drivers/STM32G4xx_HAL_Driver/Src/stm32g4xx_hal_opamp_ex.c ****     {
 713:Drivers/STM32G4xx_HAL_Driver/Src/stm32g4xx_hal_opamp_ex.c ****       /* Trimming value is actually one value more */
 714:Drivers/STM32G4xx_HAL_Driver/Src/stm32g4xx_hal_opamp_ex.c ****       trimmingvaluep6++;
 715:Drivers/STM32G4xx_HAL_Driver/Src/stm32g4xx_hal_opamp_ex.c ****       /* Set right trimming */
 716:Drivers/STM32G4xx_HAL_Driver/Src/stm32g4xx_hal_opamp_ex.c ****       MODIFY_REG(hopamp6->Instance->CSR, OPAMP_CSR_TRIMOFFSETP, trimmingvaluep6 << OPAMP_INPUT_NONI
 717:Drivers/STM32G4xx_HAL_Driver/Src/stm32g4xx_hal_opamp_ex.c ****     }
 718:Drivers/STM32G4xx_HAL_Driver/Src/stm32g4xx_hal_opamp_ex.c **** 
 719:Drivers/STM32G4xx_HAL_Driver/Src/stm32g4xx_hal_opamp_ex.c **** #elif defined(STM32G491xx) || defined(STM32G4A1xx)
 720:Drivers/STM32G4xx_HAL_Driver/Src/stm32g4xx_hal_opamp_ex.c ****     if ((hopamp6->Instance->CSR & OPAMP_CSR_OUTCAL) != 0UL)
 721:Drivers/STM32G4xx_HAL_Driver/Src/stm32g4xx_hal_opamp_ex.c ****     {
 722:Drivers/STM32G4xx_HAL_Driver/Src/stm32g4xx_hal_opamp_ex.c ****       /* Trimming value is actually one value more */
 723:Drivers/STM32G4xx_HAL_Driver/Src/stm32g4xx_hal_opamp_ex.c ****       trimmingvaluep6++;
 724:Drivers/STM32G4xx_HAL_Driver/Src/stm32g4xx_hal_opamp_ex.c ****       /* Set right trimming */
 725:Drivers/STM32G4xx_HAL_Driver/Src/stm32g4xx_hal_opamp_ex.c ****       MODIFY_REG(hopamp6->Instance->CSR, OPAMP_CSR_TRIMOFFSETP, trimmingvaluep6 << OPAMP_INPUT_NONI
 726:Drivers/STM32G4xx_HAL_Driver/Src/stm32g4xx_hal_opamp_ex.c ****     }
 727:Drivers/STM32G4xx_HAL_Driver/Src/stm32g4xx_hal_opamp_ex.c **** #endif /* STM32G473xx || STM32G474xx || STM32G483xx || STM32G484xx */
 728:Drivers/STM32G4xx_HAL_Driver/Src/stm32g4xx_hal_opamp_ex.c **** 
 729:Drivers/STM32G4xx_HAL_Driver/Src/stm32g4xx_hal_opamp_ex.c ****     /* Disable calibration */
 730:Drivers/STM32G4xx_HAL_Driver/Src/stm32g4xx_hal_opamp_ex.c ****     CLEAR_BIT(hopamp1->Instance->CSR, OPAMP_CSR_CALON);
 731:Drivers/STM32G4xx_HAL_Driver/Src/stm32g4xx_hal_opamp_ex.c **** #if defined(STM32GBK1CB) || defined(STM32G431xx) || defined(STM32G441xx) || defined(STM32G471xx) ||
 732:Drivers/STM32G4xx_HAL_Driver/Src/stm32g4xx_hal_opamp_ex.c ****     defined(STM32G473xx) || defined(STM32G474xx) || defined(STM32G483xx) || defined(STM32G484xx) ||
 733:Drivers/STM32G4xx_HAL_Driver/Src/stm32g4xx_hal_opamp_ex.c ****     defined(STM32G491xx) || defined(STM32G4A1xx)
 734:Drivers/STM32G4xx_HAL_Driver/Src/stm32g4xx_hal_opamp_ex.c ****     CLEAR_BIT(hopamp2->Instance->CSR, OPAMP_CSR_CALON);
 735:Drivers/STM32G4xx_HAL_Driver/Src/stm32g4xx_hal_opamp_ex.c ****     CLEAR_BIT(hopamp3->Instance->CSR, OPAMP_CSR_CALON);
 736:Drivers/STM32G4xx_HAL_Driver/Src/stm32g4xx_hal_opamp_ex.c **** #endif /* STM32GBK1CB || STM32G431xx || STM32G441xx || STM32G471xx || STM32G473xx || STM32G474xx ||
 737:Drivers/STM32G4xx_HAL_Driver/Src/stm32g4xx_hal_opamp_ex.c ****           STM32G483xx || STM32G484xx || STM32G491xx || STM32G4A1xx */
 738:Drivers/STM32G4xx_HAL_Driver/Src/stm32g4xx_hal_opamp_ex.c **** #if defined(STM32G473xx) || defined(STM32G474xx) || defined(STM32G483xx) || defined(STM32G484xx)
 739:Drivers/STM32G4xx_HAL_Driver/Src/stm32g4xx_hal_opamp_ex.c ****     CLEAR_BIT(hopamp4->Instance->CSR, OPAMP_CSR_CALON);
 740:Drivers/STM32G4xx_HAL_Driver/Src/stm32g4xx_hal_opamp_ex.c ****     CLEAR_BIT(hopamp5->Instance->CSR, OPAMP_CSR_CALON);
 741:Drivers/STM32G4xx_HAL_Driver/Src/stm32g4xx_hal_opamp_ex.c ****     CLEAR_BIT(hopamp6->Instance->CSR, OPAMP_CSR_CALON);
 742:Drivers/STM32G4xx_HAL_Driver/Src/stm32g4xx_hal_opamp_ex.c **** #elif defined(STM32G491xx) || defined(STM32G4A1xx)
 743:Drivers/STM32G4xx_HAL_Driver/Src/stm32g4xx_hal_opamp_ex.c ****     CLEAR_BIT(hopamp6->Instance->CSR, OPAMP_CSR_CALON);
 744:Drivers/STM32G4xx_HAL_Driver/Src/stm32g4xx_hal_opamp_ex.c **** #endif /* STM32G473xx || STM32G474xx || STM32G483xx || STM32G484xx */
 745:Drivers/STM32G4xx_HAL_Driver/Src/stm32g4xx_hal_opamp_ex.c **** 
 746:Drivers/STM32G4xx_HAL_Driver/Src/stm32g4xx_hal_opamp_ex.c ****     /* Disable the OPAMPs */
 747:Drivers/STM32G4xx_HAL_Driver/Src/stm32g4xx_hal_opamp_ex.c ****     CLEAR_BIT(hopamp1->Instance->CSR, OPAMP_CSR_OPAMPxEN);
 748:Drivers/STM32G4xx_HAL_Driver/Src/stm32g4xx_hal_opamp_ex.c **** #if defined(STM32GBK1CB) || defined(STM32G431xx) || defined(STM32G441xx) || defined(STM32G471xx) ||
 749:Drivers/STM32G4xx_HAL_Driver/Src/stm32g4xx_hal_opamp_ex.c ****     defined(STM32G473xx) || defined(STM32G474xx) || defined(STM32G483xx) || defined(STM32G484xx) ||
 750:Drivers/STM32G4xx_HAL_Driver/Src/stm32g4xx_hal_opamp_ex.c ****     defined(STM32G491xx) || defined(STM32G4A1xx)
 751:Drivers/STM32G4xx_HAL_Driver/Src/stm32g4xx_hal_opamp_ex.c ****     CLEAR_BIT(hopamp2->Instance->CSR, OPAMP_CSR_OPAMPxEN);
 752:Drivers/STM32G4xx_HAL_Driver/Src/stm32g4xx_hal_opamp_ex.c ****     CLEAR_BIT(hopamp3->Instance->CSR, OPAMP_CSR_OPAMPxEN);
 753:Drivers/STM32G4xx_HAL_Driver/Src/stm32g4xx_hal_opamp_ex.c **** #endif /* STM32GBK1CB || STM32G431xx || STM32G441xx || STM32G471xx || STM32G473xx || STM32G474xx ||
 754:Drivers/STM32G4xx_HAL_Driver/Src/stm32g4xx_hal_opamp_ex.c ****           STM32G483xx || STM32G484xx || STM32G491xx || STM32G4A1xx */
 755:Drivers/STM32G4xx_HAL_Driver/Src/stm32g4xx_hal_opamp_ex.c **** #if defined(STM32G473xx) || defined(STM32G474xx) || defined(STM32G483xx) || defined(STM32G484xx)
 756:Drivers/STM32G4xx_HAL_Driver/Src/stm32g4xx_hal_opamp_ex.c ****     CLEAR_BIT(hopamp4->Instance->CSR, OPAMP_CSR_OPAMPxEN);
 757:Drivers/STM32G4xx_HAL_Driver/Src/stm32g4xx_hal_opamp_ex.c ****     CLEAR_BIT(hopamp5->Instance->CSR, OPAMP_CSR_OPAMPxEN);
ARM GAS   			page 16


 758:Drivers/STM32G4xx_HAL_Driver/Src/stm32g4xx_hal_opamp_ex.c ****     CLEAR_BIT(hopamp6->Instance->CSR, OPAMP_CSR_OPAMPxEN);
 759:Drivers/STM32G4xx_HAL_Driver/Src/stm32g4xx_hal_opamp_ex.c **** #elif defined(STM32G491xx) || defined(STM32G4A1xx)
 760:Drivers/STM32G4xx_HAL_Driver/Src/stm32g4xx_hal_opamp_ex.c ****     CLEAR_BIT(hopamp6->Instance->CSR, OPAMP_CSR_OPAMPxEN);
 761:Drivers/STM32G4xx_HAL_Driver/Src/stm32g4xx_hal_opamp_ex.c **** #endif /* STM32G473xx || STM32G474xx || STM32G483xx || STM32G484xx */
 762:Drivers/STM32G4xx_HAL_Driver/Src/stm32g4xx_hal_opamp_ex.c **** 
 763:Drivers/STM32G4xx_HAL_Driver/Src/stm32g4xx_hal_opamp_ex.c ****     /* Set normal operating mode back */
 764:Drivers/STM32G4xx_HAL_Driver/Src/stm32g4xx_hal_opamp_ex.c ****     CLEAR_BIT(hopamp1->Instance->CSR, OPAMP_CSR_FORCEVP);
 765:Drivers/STM32G4xx_HAL_Driver/Src/stm32g4xx_hal_opamp_ex.c **** #if defined(STM32GBK1CB) || defined(STM32G431xx) || defined(STM32G441xx) || defined(STM32G471xx) ||
 766:Drivers/STM32G4xx_HAL_Driver/Src/stm32g4xx_hal_opamp_ex.c ****     defined(STM32G473xx) || defined(STM32G474xx) || defined(STM32G483xx) || defined(STM32G484xx) ||
 767:Drivers/STM32G4xx_HAL_Driver/Src/stm32g4xx_hal_opamp_ex.c ****     defined(STM32G491xx) || defined(STM32G4A1xx)
 768:Drivers/STM32G4xx_HAL_Driver/Src/stm32g4xx_hal_opamp_ex.c ****     CLEAR_BIT(hopamp2->Instance->CSR, OPAMP_CSR_FORCEVP);
 769:Drivers/STM32G4xx_HAL_Driver/Src/stm32g4xx_hal_opamp_ex.c ****     CLEAR_BIT(hopamp3->Instance->CSR, OPAMP_CSR_FORCEVP);
 770:Drivers/STM32G4xx_HAL_Driver/Src/stm32g4xx_hal_opamp_ex.c **** #endif /* STM32GBK1CB || STM32G431xx || STM32G441xx || STM32G471xx || STM32G473xx || STM32G474xx ||
 771:Drivers/STM32G4xx_HAL_Driver/Src/stm32g4xx_hal_opamp_ex.c ****           STM32G483xx || STM32G484xx || STM32G491xx || STM32G4A1xx */
 772:Drivers/STM32G4xx_HAL_Driver/Src/stm32g4xx_hal_opamp_ex.c **** #if defined(STM32G473xx) || defined(STM32G474xx) || defined(STM32G483xx) || defined(STM32G484xx)
 773:Drivers/STM32G4xx_HAL_Driver/Src/stm32g4xx_hal_opamp_ex.c ****     CLEAR_BIT(hopamp4->Instance->CSR, OPAMP_CSR_FORCEVP);
 774:Drivers/STM32G4xx_HAL_Driver/Src/stm32g4xx_hal_opamp_ex.c ****     CLEAR_BIT(hopamp5->Instance->CSR, OPAMP_CSR_FORCEVP);
 775:Drivers/STM32G4xx_HAL_Driver/Src/stm32g4xx_hal_opamp_ex.c ****     CLEAR_BIT(hopamp6->Instance->CSR, OPAMP_CSR_FORCEVP);
 776:Drivers/STM32G4xx_HAL_Driver/Src/stm32g4xx_hal_opamp_ex.c **** #elif defined(STM32G491xx) || defined(STM32G4A1xx)
 777:Drivers/STM32G4xx_HAL_Driver/Src/stm32g4xx_hal_opamp_ex.c ****     CLEAR_BIT(hopamp6->Instance->CSR, OPAMP_CSR_FORCEVP);
 778:Drivers/STM32G4xx_HAL_Driver/Src/stm32g4xx_hal_opamp_ex.c **** #endif /* STM32G473xx || STM32G474xx || STM32G483xx || STM32G484xx */
 779:Drivers/STM32G4xx_HAL_Driver/Src/stm32g4xx_hal_opamp_ex.c **** 
 780:Drivers/STM32G4xx_HAL_Driver/Src/stm32g4xx_hal_opamp_ex.c ****     /* Self calibration is successful  */
 781:Drivers/STM32G4xx_HAL_Driver/Src/stm32g4xx_hal_opamp_ex.c ****     /* Store calibration(user timing) results in init structure. */
 782:Drivers/STM32G4xx_HAL_Driver/Src/stm32g4xx_hal_opamp_ex.c ****     /* Select user timing mode */
 783:Drivers/STM32G4xx_HAL_Driver/Src/stm32g4xx_hal_opamp_ex.c **** 
 784:Drivers/STM32G4xx_HAL_Driver/Src/stm32g4xx_hal_opamp_ex.c ****     /* Write calibration result N */
 785:Drivers/STM32G4xx_HAL_Driver/Src/stm32g4xx_hal_opamp_ex.c ****     hopamp1->Init.TrimmingValueN = trimmingvaluen1;
 786:Drivers/STM32G4xx_HAL_Driver/Src/stm32g4xx_hal_opamp_ex.c **** #if defined(STM32GBK1CB) || defined(STM32G431xx) || defined(STM32G441xx) || defined(STM32G471xx) ||
 787:Drivers/STM32G4xx_HAL_Driver/Src/stm32g4xx_hal_opamp_ex.c ****     defined(STM32G473xx) || defined(STM32G474xx) || defined(STM32G483xx) || defined(STM32G484xx) ||
 788:Drivers/STM32G4xx_HAL_Driver/Src/stm32g4xx_hal_opamp_ex.c ****     defined(STM32G491xx) || defined(STM32G4A1xx)
 789:Drivers/STM32G4xx_HAL_Driver/Src/stm32g4xx_hal_opamp_ex.c ****     hopamp2->Init.TrimmingValueN = trimmingvaluen2;
 790:Drivers/STM32G4xx_HAL_Driver/Src/stm32g4xx_hal_opamp_ex.c ****     hopamp3->Init.TrimmingValueN = trimmingvaluen3;
 791:Drivers/STM32G4xx_HAL_Driver/Src/stm32g4xx_hal_opamp_ex.c **** #endif /* STM32GBK1CB || STM32G431xx || STM32G441xx || STM32G471xx || STM32G473xx || STM32G474xx ||
 792:Drivers/STM32G4xx_HAL_Driver/Src/stm32g4xx_hal_opamp_ex.c ****           STM32G483xx || STM32G484xx || STM32G491xx || STM32G4A1xx */
 793:Drivers/STM32G4xx_HAL_Driver/Src/stm32g4xx_hal_opamp_ex.c **** #if defined(STM32G473xx) || defined(STM32G474xx) || defined(STM32G483xx) || defined(STM32G484xx)
 794:Drivers/STM32G4xx_HAL_Driver/Src/stm32g4xx_hal_opamp_ex.c ****     hopamp4->Init.TrimmingValueN = trimmingvaluen4;
 795:Drivers/STM32G4xx_HAL_Driver/Src/stm32g4xx_hal_opamp_ex.c ****     hopamp5->Init.TrimmingValueN = trimmingvaluen5;
 796:Drivers/STM32G4xx_HAL_Driver/Src/stm32g4xx_hal_opamp_ex.c ****     hopamp6->Init.TrimmingValueN = trimmingvaluen6;
 797:Drivers/STM32G4xx_HAL_Driver/Src/stm32g4xx_hal_opamp_ex.c **** #elif defined(STM32G491xx) || defined(STM32G4A1xx)
 798:Drivers/STM32G4xx_HAL_Driver/Src/stm32g4xx_hal_opamp_ex.c ****     hopamp6->Init.TrimmingValueN = trimmingvaluen6;
 799:Drivers/STM32G4xx_HAL_Driver/Src/stm32g4xx_hal_opamp_ex.c **** #endif /* STM32G473xx || STM32G474xx || STM32G483xx || STM32G484xx */
 800:Drivers/STM32G4xx_HAL_Driver/Src/stm32g4xx_hal_opamp_ex.c **** 
 801:Drivers/STM32G4xx_HAL_Driver/Src/stm32g4xx_hal_opamp_ex.c ****     /* Write calibration result P */
 802:Drivers/STM32G4xx_HAL_Driver/Src/stm32g4xx_hal_opamp_ex.c ****     hopamp1->Init.TrimmingValueP = trimmingvaluep1;
 803:Drivers/STM32G4xx_HAL_Driver/Src/stm32g4xx_hal_opamp_ex.c **** #if defined(STM32GBK1CB) || defined(STM32G431xx) || defined(STM32G441xx) || defined(STM32G471xx) ||
 804:Drivers/STM32G4xx_HAL_Driver/Src/stm32g4xx_hal_opamp_ex.c ****     defined(STM32G473xx) || defined(STM32G474xx) || defined(STM32G483xx) || defined(STM32G484xx) ||
 805:Drivers/STM32G4xx_HAL_Driver/Src/stm32g4xx_hal_opamp_ex.c ****     defined(STM32G491xx) || defined(STM32G4A1xx)
 806:Drivers/STM32G4xx_HAL_Driver/Src/stm32g4xx_hal_opamp_ex.c ****     hopamp2->Init.TrimmingValueP = trimmingvaluep2;
 807:Drivers/STM32G4xx_HAL_Driver/Src/stm32g4xx_hal_opamp_ex.c ****     hopamp3->Init.TrimmingValueP = trimmingvaluep3;
 808:Drivers/STM32G4xx_HAL_Driver/Src/stm32g4xx_hal_opamp_ex.c **** #endif /* STM32GBK1CB || STM32G431xx || STM32G441xx || STM32G471xx || STM32G473xx || STM32G474xx ||
 809:Drivers/STM32G4xx_HAL_Driver/Src/stm32g4xx_hal_opamp_ex.c ****           STM32G483xx || STM32G484xx || STM32G491xx || STM32G4A1xx */
 810:Drivers/STM32G4xx_HAL_Driver/Src/stm32g4xx_hal_opamp_ex.c **** #if defined(STM32G473xx) || defined(STM32G474xx) || defined(STM32G483xx) || defined(STM32G484xx)
 811:Drivers/STM32G4xx_HAL_Driver/Src/stm32g4xx_hal_opamp_ex.c ****     hopamp4->Init.TrimmingValueP = trimmingvaluep4;
 812:Drivers/STM32G4xx_HAL_Driver/Src/stm32g4xx_hal_opamp_ex.c ****     hopamp5->Init.TrimmingValueP = trimmingvaluep5;
 813:Drivers/STM32G4xx_HAL_Driver/Src/stm32g4xx_hal_opamp_ex.c ****     hopamp6->Init.TrimmingValueP = trimmingvaluep6;
 814:Drivers/STM32G4xx_HAL_Driver/Src/stm32g4xx_hal_opamp_ex.c **** #elif defined(STM32G491xx) || defined(STM32G4A1xx)
ARM GAS   			page 17


 815:Drivers/STM32G4xx_HAL_Driver/Src/stm32g4xx_hal_opamp_ex.c ****     hopamp6->Init.TrimmingValueP = trimmingvaluep6;
 816:Drivers/STM32G4xx_HAL_Driver/Src/stm32g4xx_hal_opamp_ex.c **** #endif /* STM32G473xx || STM32G474xx || STM32G483xx || STM32G484xx */
 817:Drivers/STM32G4xx_HAL_Driver/Src/stm32g4xx_hal_opamp_ex.c **** 
 818:Drivers/STM32G4xx_HAL_Driver/Src/stm32g4xx_hal_opamp_ex.c ****     /* Select user timing mode */
 819:Drivers/STM32G4xx_HAL_Driver/Src/stm32g4xx_hal_opamp_ex.c ****     /* And updated with calibrated settings */
 820:Drivers/STM32G4xx_HAL_Driver/Src/stm32g4xx_hal_opamp_ex.c ****     hopamp1->Init.UserTrimming = OPAMP_TRIMMING_USER;
 821:Drivers/STM32G4xx_HAL_Driver/Src/stm32g4xx_hal_opamp_ex.c **** #if defined(STM32GBK1CB) || defined(STM32G431xx) || defined(STM32G441xx) || defined(STM32G471xx) ||
 822:Drivers/STM32G4xx_HAL_Driver/Src/stm32g4xx_hal_opamp_ex.c ****     defined(STM32G473xx) || defined(STM32G474xx) || defined(STM32G483xx) || defined(STM32G484xx) ||
 823:Drivers/STM32G4xx_HAL_Driver/Src/stm32g4xx_hal_opamp_ex.c ****     defined(STM32G491xx) || defined(STM32G4A1xx)
 824:Drivers/STM32G4xx_HAL_Driver/Src/stm32g4xx_hal_opamp_ex.c ****     hopamp2->Init.UserTrimming = OPAMP_TRIMMING_USER;
 825:Drivers/STM32G4xx_HAL_Driver/Src/stm32g4xx_hal_opamp_ex.c ****     hopamp3->Init.UserTrimming = OPAMP_TRIMMING_USER;
 826:Drivers/STM32G4xx_HAL_Driver/Src/stm32g4xx_hal_opamp_ex.c **** #endif /* STM32GBK1CB || STM32G431xx || STM32G441xx || STM32G471xx || STM32G473xx || STM32G474xx ||
 827:Drivers/STM32G4xx_HAL_Driver/Src/stm32g4xx_hal_opamp_ex.c ****           STM32G483xx || STM32G484xx || STM32G491xx || STM32G4A1xx */
 828:Drivers/STM32G4xx_HAL_Driver/Src/stm32g4xx_hal_opamp_ex.c **** #if defined(STM32G473xx) || defined(STM32G474xx) || defined(STM32G483xx) || defined(STM32G484xx)
 829:Drivers/STM32G4xx_HAL_Driver/Src/stm32g4xx_hal_opamp_ex.c ****     hopamp4->Init.UserTrimming = OPAMP_TRIMMING_USER;
 830:Drivers/STM32G4xx_HAL_Driver/Src/stm32g4xx_hal_opamp_ex.c ****     hopamp5->Init.UserTrimming = OPAMP_TRIMMING_USER;
 831:Drivers/STM32G4xx_HAL_Driver/Src/stm32g4xx_hal_opamp_ex.c ****     hopamp6->Init.UserTrimming = OPAMP_TRIMMING_USER;
 832:Drivers/STM32G4xx_HAL_Driver/Src/stm32g4xx_hal_opamp_ex.c **** #elif defined(STM32G491xx) || defined(STM32G4A1xx)
 833:Drivers/STM32G4xx_HAL_Driver/Src/stm32g4xx_hal_opamp_ex.c ****     hopamp6->Init.UserTrimming = OPAMP_TRIMMING_USER;
 834:Drivers/STM32G4xx_HAL_Driver/Src/stm32g4xx_hal_opamp_ex.c **** #endif /* STM32G473xx || STM32G474xx || STM32G483xx || STM32G484xx */
 835:Drivers/STM32G4xx_HAL_Driver/Src/stm32g4xx_hal_opamp_ex.c **** 
 836:Drivers/STM32G4xx_HAL_Driver/Src/stm32g4xx_hal_opamp_ex.c ****     MODIFY_REG(hopamp1->Instance->CSR, OPAMP_CSR_TRIMOFFSETN, trimmingvaluen1 << OPAMP_INPUT_INVERT
 837:Drivers/STM32G4xx_HAL_Driver/Src/stm32g4xx_hal_opamp_ex.c **** #if defined(STM32GBK1CB) || defined(STM32G431xx) || defined(STM32G441xx) || defined(STM32G471xx) ||
 838:Drivers/STM32G4xx_HAL_Driver/Src/stm32g4xx_hal_opamp_ex.c ****     defined(STM32G473xx) || defined(STM32G474xx) || defined(STM32G483xx) || defined(STM32G484xx) ||
 839:Drivers/STM32G4xx_HAL_Driver/Src/stm32g4xx_hal_opamp_ex.c ****     defined(STM32G491xx) || defined(STM32G4A1xx)
 840:Drivers/STM32G4xx_HAL_Driver/Src/stm32g4xx_hal_opamp_ex.c ****     MODIFY_REG(hopamp2->Instance->CSR, OPAMP_CSR_TRIMOFFSETN, trimmingvaluen2 << OPAMP_INPUT_INVERT
 841:Drivers/STM32G4xx_HAL_Driver/Src/stm32g4xx_hal_opamp_ex.c ****     MODIFY_REG(hopamp3->Instance->CSR, OPAMP_CSR_TRIMOFFSETN, trimmingvaluen3 << OPAMP_INPUT_INVERT
 842:Drivers/STM32G4xx_HAL_Driver/Src/stm32g4xx_hal_opamp_ex.c **** #endif /* STM32GBK1CB || STM32G431xx || STM32G441xx || STM32G471xx || STM32G473xx || STM32G474xx ||
 843:Drivers/STM32G4xx_HAL_Driver/Src/stm32g4xx_hal_opamp_ex.c ****           STM32G483xx || STM32G484xx || STM32G491xx || STM32G4A1xx */
 844:Drivers/STM32G4xx_HAL_Driver/Src/stm32g4xx_hal_opamp_ex.c **** #if defined(STM32G473xx) || defined(STM32G474xx) || defined(STM32G483xx) || defined(STM32G484xx)
 845:Drivers/STM32G4xx_HAL_Driver/Src/stm32g4xx_hal_opamp_ex.c ****     MODIFY_REG(hopamp4->Instance->CSR, OPAMP_CSR_TRIMOFFSETN, trimmingvaluen4 << OPAMP_INPUT_INVERT
 846:Drivers/STM32G4xx_HAL_Driver/Src/stm32g4xx_hal_opamp_ex.c ****     MODIFY_REG(hopamp5->Instance->CSR, OPAMP_CSR_TRIMOFFSETN, trimmingvaluen5 << OPAMP_INPUT_INVERT
 847:Drivers/STM32G4xx_HAL_Driver/Src/stm32g4xx_hal_opamp_ex.c ****     MODIFY_REG(hopamp6->Instance->CSR, OPAMP_CSR_TRIMOFFSETN, trimmingvaluen6 << OPAMP_INPUT_INVERT
 848:Drivers/STM32G4xx_HAL_Driver/Src/stm32g4xx_hal_opamp_ex.c **** #elif defined(STM32G491xx) || defined(STM32G4A1xx)
 849:Drivers/STM32G4xx_HAL_Driver/Src/stm32g4xx_hal_opamp_ex.c ****     MODIFY_REG(hopamp6->Instance->CSR, OPAMP_CSR_TRIMOFFSETN, trimmingvaluen6 << OPAMP_INPUT_INVERT
 850:Drivers/STM32G4xx_HAL_Driver/Src/stm32g4xx_hal_opamp_ex.c **** #endif /* STM32G473xx || STM32G474xx || STM32G483xx || STM32G484xx */
 851:Drivers/STM32G4xx_HAL_Driver/Src/stm32g4xx_hal_opamp_ex.c **** 
 852:Drivers/STM32G4xx_HAL_Driver/Src/stm32g4xx_hal_opamp_ex.c ****     MODIFY_REG(hopamp1->Instance->CSR, OPAMP_CSR_TRIMOFFSETP, trimmingvaluep1 << OPAMP_INPUT_NONINV
 853:Drivers/STM32G4xx_HAL_Driver/Src/stm32g4xx_hal_opamp_ex.c **** #if defined(STM32GBK1CB) || defined(STM32G431xx) || defined(STM32G441xx) || defined(STM32G471xx) ||
 854:Drivers/STM32G4xx_HAL_Driver/Src/stm32g4xx_hal_opamp_ex.c ****     defined(STM32G473xx) || defined(STM32G474xx) || defined(STM32G483xx) || defined(STM32G484xx) ||
 855:Drivers/STM32G4xx_HAL_Driver/Src/stm32g4xx_hal_opamp_ex.c ****     defined(STM32G491xx) || defined(STM32G4A1xx)
 856:Drivers/STM32G4xx_HAL_Driver/Src/stm32g4xx_hal_opamp_ex.c ****     MODIFY_REG(hopamp2->Instance->CSR, OPAMP_CSR_TRIMOFFSETP, trimmingvaluep2 << OPAMP_INPUT_NONINV
 857:Drivers/STM32G4xx_HAL_Driver/Src/stm32g4xx_hal_opamp_ex.c ****     MODIFY_REG(hopamp3->Instance->CSR, OPAMP_CSR_TRIMOFFSETP, trimmingvaluep3 << OPAMP_INPUT_NONINV
 858:Drivers/STM32G4xx_HAL_Driver/Src/stm32g4xx_hal_opamp_ex.c **** #endif /* STM32GBK1CB || STM32G431xx || STM32G441xx || STM32G471xx || STM32G473xx || STM32G474xx ||
 859:Drivers/STM32G4xx_HAL_Driver/Src/stm32g4xx_hal_opamp_ex.c ****           STM32G483xx || STM32G484xx || STM32G491xx || STM32G4A1xx */
 860:Drivers/STM32G4xx_HAL_Driver/Src/stm32g4xx_hal_opamp_ex.c **** #if defined(STM32G473xx) || defined(STM32G474xx) || defined(STM32G483xx) || defined(STM32G484xx)
 861:Drivers/STM32G4xx_HAL_Driver/Src/stm32g4xx_hal_opamp_ex.c ****     MODIFY_REG(hopamp4->Instance->CSR, OPAMP_CSR_TRIMOFFSETP, trimmingvaluep4 << OPAMP_INPUT_NONINV
 862:Drivers/STM32G4xx_HAL_Driver/Src/stm32g4xx_hal_opamp_ex.c ****     MODIFY_REG(hopamp5->Instance->CSR, OPAMP_CSR_TRIMOFFSETP, trimmingvaluep5 << OPAMP_INPUT_NONINV
 863:Drivers/STM32G4xx_HAL_Driver/Src/stm32g4xx_hal_opamp_ex.c ****     MODIFY_REG(hopamp6->Instance->CSR, OPAMP_CSR_TRIMOFFSETP, trimmingvaluep6 << OPAMP_INPUT_NONINV
 864:Drivers/STM32G4xx_HAL_Driver/Src/stm32g4xx_hal_opamp_ex.c **** #elif defined(STM32G491xx) || defined(STM32G4A1xx)
 865:Drivers/STM32G4xx_HAL_Driver/Src/stm32g4xx_hal_opamp_ex.c ****     MODIFY_REG(hopamp6->Instance->CSR, OPAMP_CSR_TRIMOFFSETP, trimmingvaluep6 << OPAMP_INPUT_NONINV
 866:Drivers/STM32G4xx_HAL_Driver/Src/stm32g4xx_hal_opamp_ex.c **** #endif /* STM32G473xx || STM32G474xx || STM32G483xx || STM32G484xx */
 867:Drivers/STM32G4xx_HAL_Driver/Src/stm32g4xx_hal_opamp_ex.c **** 
 868:Drivers/STM32G4xx_HAL_Driver/Src/stm32g4xx_hal_opamp_ex.c ****   }
 869:Drivers/STM32G4xx_HAL_Driver/Src/stm32g4xx_hal_opamp_ex.c **** 
 870:Drivers/STM32G4xx_HAL_Driver/Src/stm32g4xx_hal_opamp_ex.c ****   return HAL_OK;
 871:Drivers/STM32G4xx_HAL_Driver/Src/stm32g4xx_hal_opamp_ex.c **** }
ARM GAS   			page 18


  98              	 .loc 1 871 1 view .LVU29
  99 002e 17B0     	 add sp,sp,#92
 100              	 .cfi_remember_state
 101              	 .cfi_def_cfa_offset 36
 102              	 
 103 0030 BDE8F08F 	 pop {r4,r5,r6,r7,r8,r9,r10,fp,pc}
 104              	.LVL5:
 105              	.L93:
 106              	 .cfi_restore_state
 146:Drivers/STM32G4xx_HAL_Driver/Src/stm32g4xx_hal_opamp_ex.c ****   {
 107              	 .loc 1 146 8 is_stmt 1 view .LVU30
 146:Drivers/STM32G4xx_HAL_Driver/Src/stm32g4xx_hal_opamp_ex.c ****   {
 108              	 .loc 1 146 19 is_stmt 0 view .LVU31
 109 0034 91F83A30 	 ldrb r3,[r1,#58]
 146:Drivers/STM32G4xx_HAL_Driver/Src/stm32g4xx_hal_opamp_ex.c ****   {
 110              	 .loc 1 146 11 view .LVU32
 111 0038 012B     	 cmp r3,#1
 112 003a F8D1     	 bne .L2
 150:Drivers/STM32G4xx_HAL_Driver/Src/stm32g4xx_hal_opamp_ex.c ****   {
 113              	 .loc 1 150 8 is_stmt 1 view .LVU33
 150:Drivers/STM32G4xx_HAL_Driver/Src/stm32g4xx_hal_opamp_ex.c ****   {
 114              	 .loc 1 150 19 is_stmt 0 view .LVU34
 115 003c 92F83A30 	 ldrb r3,[r2,#58]
 150:Drivers/STM32G4xx_HAL_Driver/Src/stm32g4xx_hal_opamp_ex.c ****   {
 116              	 .loc 1 150 11 view .LVU35
 117 0040 012B     	 cmp r3,#1
 150:Drivers/STM32G4xx_HAL_Driver/Src/stm32g4xx_hal_opamp_ex.c ****   {
 118              	 .loc 1 150 19 view .LVU36
 119 0042 D8B2     	 uxtb r0,r3
 150:Drivers/STM32G4xx_HAL_Driver/Src/stm32g4xx_hal_opamp_ex.c ****   {
 120              	 .loc 1 150 11 view .LVU37
 121 0044 F2D1     	 bne .L49
 157:Drivers/STM32G4xx_HAL_Driver/Src/stm32g4xx_hal_opamp_ex.c ****   {
 122              	 .loc 1 157 8 is_stmt 1 view .LVU38
 157:Drivers/STM32G4xx_HAL_Driver/Src/stm32g4xx_hal_opamp_ex.c ****   {
 123              	 .loc 1 157 19 is_stmt 0 view .LVU39
 124 0046 97F83A30 	 ldrb r3,[r7,#58]
 157:Drivers/STM32G4xx_HAL_Driver/Src/stm32g4xx_hal_opamp_ex.c ****   {
 125              	 .loc 1 157 11 view .LVU40
 126 004a 012B     	 cmp r3,#1
 127 004c EFD1     	 bne .L2
 161:Drivers/STM32G4xx_HAL_Driver/Src/stm32g4xx_hal_opamp_ex.c ****   {
 128              	 .loc 1 161 8 is_stmt 1 view .LVU41
 161:Drivers/STM32G4xx_HAL_Driver/Src/stm32g4xx_hal_opamp_ex.c ****   {
 129              	 .loc 1 161 19 is_stmt 0 view .LVU42
 130 004e 209B     	 ldr r3,[sp,#128]
 131 0050 93F83A30 	 ldrb r3,[r3,#58]
 161:Drivers/STM32G4xx_HAL_Driver/Src/stm32g4xx_hal_opamp_ex.c ****   {
 132              	 .loc 1 161 11 view .LVU43
 133 0054 012B     	 cmp r3,#1
 161:Drivers/STM32G4xx_HAL_Driver/Src/stm32g4xx_hal_opamp_ex.c ****   {
 134              	 .loc 1 161 19 view .LVU44
 135 0056 D8B2     	 uxtb r0,r3
 161:Drivers/STM32G4xx_HAL_Driver/Src/stm32g4xx_hal_opamp_ex.c ****   {
 136              	 .loc 1 161 11 view .LVU45
 137 0058 E8D1     	 bne .L49
 165:Drivers/STM32G4xx_HAL_Driver/Src/stm32g4xx_hal_opamp_ex.c ****   {
ARM GAS   			page 19


 138              	 .loc 1 165 8 is_stmt 1 view .LVU46
 165:Drivers/STM32G4xx_HAL_Driver/Src/stm32g4xx_hal_opamp_ex.c ****   {
 139              	 .loc 1 165 19 is_stmt 0 view .LVU47
 140 005a 219B     	 ldr r3,[sp,#132]
 141 005c 93F83A30 	 ldrb r3,[r3,#58]
 165:Drivers/STM32G4xx_HAL_Driver/Src/stm32g4xx_hal_opamp_ex.c ****   {
 142              	 .loc 1 165 11 view .LVU48
 143 0060 012B     	 cmp r3,#1
 144 0062 E4D1     	 bne .L2
 179:Drivers/STM32G4xx_HAL_Driver/Src/stm32g4xx_hal_opamp_ex.c **** #if defined(STM32GBK1CB) || defined(STM32G431xx) || defined(STM32G441xx) || defined(STM32G471xx) ||
 145              	 .loc 1 179 5 is_stmt 1 view .LVU49
 183:Drivers/STM32G4xx_HAL_Driver/Src/stm32g4xx_hal_opamp_ex.c ****     assert_param(IS_OPAMP_ALL_INSTANCE(hopamp3->Instance));
 146              	 .loc 1 183 5 view .LVU50
 184:Drivers/STM32G4xx_HAL_Driver/Src/stm32g4xx_hal_opamp_ex.c **** #endif /* STM32GBK1CB || STM32G431xx || STM32G441xx || STM32G471xx || STM32G473xx || STM32G474xx ||
 147              	 .loc 1 184 5 view .LVU51
 188:Drivers/STM32G4xx_HAL_Driver/Src/stm32g4xx_hal_opamp_ex.c ****     assert_param(IS_OPAMP_ALL_INSTANCE(hopamp5->Instance));
 148              	 .loc 1 188 5 view .LVU52
 189:Drivers/STM32G4xx_HAL_Driver/Src/stm32g4xx_hal_opamp_ex.c ****     assert_param(IS_OPAMP_ALL_INSTANCE(hopamp6->Instance));
 149              	 .loc 1 189 5 view .LVU53
 190:Drivers/STM32G4xx_HAL_Driver/Src/stm32g4xx_hal_opamp_ex.c **** #elif defined(STM32G491xx) || defined(STM32G4A1xx)
 150              	 .loc 1 190 5 view .LVU54
 197:Drivers/STM32G4xx_HAL_Driver/Src/stm32g4xx_hal_opamp_ex.c **** #if defined(STM32GBK1CB) || defined(STM32G431xx) || defined(STM32G441xx) || defined(STM32G471xx) ||
 151              	 .loc 1 197 5 view .LVU55
 152 0064 D4F800E0 	 ldr lr,[r4]
 201:Drivers/STM32G4xx_HAL_Driver/Src/stm32g4xx_hal_opamp_ex.c ****     SET_BIT(hopamp3->Instance->CSR, OPAMP_CSR_FORCEVP);
 153              	 .loc 1 201 5 is_stmt 0 view .LVU56
 154 0068 D1F800C0 	 ldr ip,[r1]
 197:Drivers/STM32G4xx_HAL_Driver/Src/stm32g4xx_hal_opamp_ex.c **** #if defined(STM32GBK1CB) || defined(STM32G431xx) || defined(STM32G441xx) || defined(STM32G471xx) ||
 155              	 .loc 1 197 5 view .LVU57
 156 006c DEF80030 	 ldr r3,[lr]
 202:Drivers/STM32G4xx_HAL_Driver/Src/stm32g4xx_hal_opamp_ex.c **** #endif /* STM32GBK1CB || STM32G431xx || STM32G441xx || STM32G471xx || STM32G473xx || STM32G474xx ||
 157              	 .loc 1 202 5 view .LVU58
 158 0070 1068     	 ldr r0,[r2]
 206:Drivers/STM32G4xx_HAL_Driver/Src/stm32g4xx_hal_opamp_ex.c ****     SET_BIT(hopamp5->Instance->CSR, OPAMP_CSR_FORCEVP);
 159              	 .loc 1 206 5 view .LVU59
 160 0072 3968     	 ldr r1,[r7]
 161              	.LVL6:
 197:Drivers/STM32G4xx_HAL_Driver/Src/stm32g4xx_hal_opamp_ex.c **** #if defined(STM32GBK1CB) || defined(STM32G431xx) || defined(STM32G441xx) || defined(STM32G471xx) ||
 162              	 .loc 1 197 5 view .LVU60
 163 0074 43F00203 	 orr r3,r3,#2
 164 0078 CEF80030 	 str r3,[lr]
 201:Drivers/STM32G4xx_HAL_Driver/Src/stm32g4xx_hal_opamp_ex.c ****     SET_BIT(hopamp3->Instance->CSR, OPAMP_CSR_FORCEVP);
 165              	 .loc 1 201 5 is_stmt 1 view .LVU61
 166 007c DCF80030 	 ldr r3,[ip]
 167 0080 43F00203 	 orr r3,r3,#2
 168 0084 CCF80030 	 str r3,[ip]
 202:Drivers/STM32G4xx_HAL_Driver/Src/stm32g4xx_hal_opamp_ex.c **** #endif /* STM32GBK1CB || STM32G431xx || STM32G441xx || STM32G471xx || STM32G473xx || STM32G474xx ||
 169              	 .loc 1 202 5 view .LVU62
 170 0088 0368     	 ldr r3,[r0]
 171 008a 43F00203 	 orr r3,r3,#2
 172 008e 0360     	 str r3,[r0]
 206:Drivers/STM32G4xx_HAL_Driver/Src/stm32g4xx_hal_opamp_ex.c ****     SET_BIT(hopamp5->Instance->CSR, OPAMP_CSR_FORCEVP);
 173              	 .loc 1 206 5 view .LVU63
 174 0090 0B68     	 ldr r3,[r1]
 175 0092 43F00203 	 orr r3,r3,#2
 176 0096 0B60     	 str r3,[r1]
 207:Drivers/STM32G4xx_HAL_Driver/Src/stm32g4xx_hal_opamp_ex.c ****     SET_BIT(hopamp6->Instance->CSR, OPAMP_CSR_FORCEVP);
ARM GAS   			page 20


 177              	 .loc 1 207 5 view .LVU64
 178 0098 209B     	 ldr r3,[sp,#128]
 179 009a 1A68     	 ldr r2,[r3]
 180              	.LVL7:
 208:Drivers/STM32G4xx_HAL_Driver/Src/stm32g4xx_hal_opamp_ex.c **** #elif defined(STM32G491xx) || defined(STM32G4A1xx)
 181              	 .loc 1 208 5 is_stmt 0 view .LVU65
 182 009c 219B     	 ldr r3,[sp,#132]
 207:Drivers/STM32G4xx_HAL_Driver/Src/stm32g4xx_hal_opamp_ex.c ****     SET_BIT(hopamp6->Instance->CSR, OPAMP_CSR_FORCEVP);
 183              	 .loc 1 207 5 view .LVU66
 184 009e D2F80080 	 ldr r8,[r2]
 208:Drivers/STM32G4xx_HAL_Driver/Src/stm32g4xx_hal_opamp_ex.c **** #elif defined(STM32G491xx) || defined(STM32G4A1xx)
 185              	 .loc 1 208 5 view .LVU67
 186 00a2 1B68     	 ldr r3,[r3]
 207:Drivers/STM32G4xx_HAL_Driver/Src/stm32g4xx_hal_opamp_ex.c ****     SET_BIT(hopamp6->Instance->CSR, OPAMP_CSR_FORCEVP);
 187              	 .loc 1 207 5 view .LVU68
 188 00a4 48F00208 	 orr r8,r8,#2
 189 00a8 C2F80080 	 str r8,[r2]
 208:Drivers/STM32G4xx_HAL_Driver/Src/stm32g4xx_hal_opamp_ex.c **** #elif defined(STM32G491xx) || defined(STM32G4A1xx)
 190              	 .loc 1 208 5 is_stmt 1 view .LVU69
 191 00ac D3F80080 	 ldr r8,[r3]
 192 00b0 48F00208 	 orr r8,r8,#2
 193 00b4 C3F80080 	 str r8,[r3]
 214:Drivers/STM32G4xx_HAL_Driver/Src/stm32g4xx_hal_opamp_ex.c **** #if defined(STM32GBK1CB) || defined(STM32G431xx) || defined(STM32G441xx) || defined(STM32G471xx) ||
 194              	 .loc 1 214 5 view .LVU70
 195 00b8 DEF80080 	 ldr r8,[lr]
 196 00bc 48F01008 	 orr r8,r8,#16
 197 00c0 CEF80080 	 str r8,[lr]
 218:Drivers/STM32G4xx_HAL_Driver/Src/stm32g4xx_hal_opamp_ex.c ****     SET_BIT(hopamp3->Instance->CSR, OPAMP_CSR_USERTRIM);
 198              	 .loc 1 218 5 view .LVU71
 199 00c4 DCF80080 	 ldr r8,[ip]
 200 00c8 48F01008 	 orr r8,r8,#16
 201 00cc CCF80080 	 str r8,[ip]
 219:Drivers/STM32G4xx_HAL_Driver/Src/stm32g4xx_hal_opamp_ex.c **** #endif /* STM32GBK1CB || STM32G431xx || STM32G441xx || STM32G471xx || STM32G473xx || STM32G474xx ||
 202              	 .loc 1 219 5 view .LVU72
 203 00d0 D0F80080 	 ldr r8,[r0]
 204 00d4 48F01008 	 orr r8,r8,#16
 205 00d8 C0F80080 	 str r8,[r0]
 223:Drivers/STM32G4xx_HAL_Driver/Src/stm32g4xx_hal_opamp_ex.c ****     SET_BIT(hopamp5->Instance->CSR, OPAMP_CSR_USERTRIM);
 206              	 .loc 1 223 5 view .LVU73
 207 00dc D1F80080 	 ldr r8,[r1]
 208 00e0 48F01008 	 orr r8,r8,#16
 209 00e4 C1F80080 	 str r8,[r1]
 224:Drivers/STM32G4xx_HAL_Driver/Src/stm32g4xx_hal_opamp_ex.c ****     SET_BIT(hopamp6->Instance->CSR, OPAMP_CSR_USERTRIM);
 210              	 .loc 1 224 5 view .LVU74
 211 00e8 D2F80080 	 ldr r8,[r2]
 212 00ec 48F01008 	 orr r8,r8,#16
 213 00f0 C2F80080 	 str r8,[r2]
 225:Drivers/STM32G4xx_HAL_Driver/Src/stm32g4xx_hal_opamp_ex.c **** #elif defined(STM32G491xx) || defined(STM32G4A1xx)
 214              	 .loc 1 225 5 view .LVU75
 215 00f4 D3F80080 	 ldr r8,[r3]
 216 00f8 48F01008 	 orr r8,r8,#16
 217 00fc C3F80080 	 str r8,[r3]
 231:Drivers/STM32G4xx_HAL_Driver/Src/stm32g4xx_hal_opamp_ex.c **** #if defined(STM32GBK1CB) || defined(STM32G431xx) || defined(STM32G441xx) || defined(STM32G471xx) ||
 218              	 .loc 1 231 5 view .LVU76
 219 0100 DEF80080 	 ldr r8,[lr]
 220 0104 48F40068 	 orr r8,r8,#2048
 221 0108 CEF80080 	 str r8,[lr]
ARM GAS   			page 21


 235:Drivers/STM32G4xx_HAL_Driver/Src/stm32g4xx_hal_opamp_ex.c ****     SET_BIT(hopamp3->Instance->CSR, OPAMP_CSR_CALON);
 222              	 .loc 1 235 5 view .LVU77
 223 010c DCF80080 	 ldr r8,[ip]
 224 0110 48F40068 	 orr r8,r8,#2048
 225 0114 CCF80080 	 str r8,[ip]
 236:Drivers/STM32G4xx_HAL_Driver/Src/stm32g4xx_hal_opamp_ex.c **** #endif /* STM32GBK1CB || STM32G431xx || STM32G441xx || STM32G471xx || STM32G473xx || STM32G474xx ||
 226              	 .loc 1 236 5 view .LVU78
 227 0118 D0F80080 	 ldr r8,[r0]
 228 011c 48F40068 	 orr r8,r8,#2048
 229 0120 C0F80080 	 str r8,[r0]
 240:Drivers/STM32G4xx_HAL_Driver/Src/stm32g4xx_hal_opamp_ex.c ****     SET_BIT(hopamp5->Instance->CSR, OPAMP_CSR_CALON);
 230              	 .loc 1 240 5 view .LVU79
 231 0124 D1F80080 	 ldr r8,[r1]
 232 0128 48F40068 	 orr r8,r8,#2048
 233 012c C1F80080 	 str r8,[r1]
 241:Drivers/STM32G4xx_HAL_Driver/Src/stm32g4xx_hal_opamp_ex.c ****     SET_BIT(hopamp6->Instance->CSR, OPAMP_CSR_CALON);
 234              	 .loc 1 241 5 view .LVU80
 235 0130 D2F80080 	 ldr r8,[r2]
 236 0134 48F40068 	 orr r8,r8,#2048
 237 0138 C2F80080 	 str r8,[r2]
 242:Drivers/STM32G4xx_HAL_Driver/Src/stm32g4xx_hal_opamp_ex.c **** #elif defined(STM32G491xx) || defined(STM32G4A1xx)
 238              	 .loc 1 242 5 view .LVU81
 239 013c D3F80080 	 ldr r8,[r3]
 240 0140 48F40068 	 orr r8,r8,#2048
 241 0144 C3F80080 	 str r8,[r3]
 249:Drivers/STM32G4xx_HAL_Driver/Src/stm32g4xx_hal_opamp_ex.c **** #if defined(STM32GBK1CB) || defined(STM32G431xx) || defined(STM32G441xx) || defined(STM32G471xx) ||
 242              	 .loc 1 249 5 view .LVU82
 243 0148 DEF80080 	 ldr r8,[lr]
 244 014c 48F44058 	 orr r8,r8,#12288
 245 0150 CEF80080 	 str r8,[lr]
 253:Drivers/STM32G4xx_HAL_Driver/Src/stm32g4xx_hal_opamp_ex.c ****     MODIFY_REG(hopamp3->Instance->CSR, OPAMP_CSR_CALSEL, OPAMP_VREF_90VDDA);
 246              	 .loc 1 253 5 view .LVU83
 247 0154 DCF80080 	 ldr r8,[ip]
 248 0158 48F44058 	 orr r8,r8,#12288
 249 015c CCF80080 	 str r8,[ip]
 254:Drivers/STM32G4xx_HAL_Driver/Src/stm32g4xx_hal_opamp_ex.c **** #endif /* STM32GBK1CB || STM32G431xx || STM32G441xx || STM32G471xx || STM32G473xx || STM32G474xx ||
 250              	 .loc 1 254 5 view .LVU84
 251 0160 D0F80080 	 ldr r8,[r0]
 252 0164 48F44058 	 orr r8,r8,#12288
 253 0168 C0F80080 	 str r8,[r0]
 258:Drivers/STM32G4xx_HAL_Driver/Src/stm32g4xx_hal_opamp_ex.c ****     MODIFY_REG(hopamp5->Instance->CSR, OPAMP_CSR_CALSEL, OPAMP_VREF_90VDDA);
 254              	 .loc 1 258 5 view .LVU85
 255 016c D1F80080 	 ldr r8,[r1]
 256 0170 48F44058 	 orr r8,r8,#12288
 257 0174 C1F80080 	 str r8,[r1]
 259:Drivers/STM32G4xx_HAL_Driver/Src/stm32g4xx_hal_opamp_ex.c ****     MODIFY_REG(hopamp6->Instance->CSR, OPAMP_CSR_CALSEL, OPAMP_VREF_90VDDA);
 258              	 .loc 1 259 5 view .LVU86
 259 0178 D2F80080 	 ldr r8,[r2]
 260 017c 48F44058 	 orr r8,r8,#12288
 261 0180 C2F80080 	 str r8,[r2]
 260:Drivers/STM32G4xx_HAL_Driver/Src/stm32g4xx_hal_opamp_ex.c **** #elif defined(STM32G491xx) || defined(STM32G4A1xx)
 262              	 .loc 1 260 5 view .LVU87
 263 0184 D3F80080 	 ldr r8,[r3]
 264 0188 48F44058 	 orr r8,r8,#12288
 265 018c C3F80080 	 str r8,[r3]
 266:Drivers/STM32G4xx_HAL_Driver/Src/stm32g4xx_hal_opamp_ex.c **** #if defined(STM32GBK1CB) || defined(STM32G431xx) || defined(STM32G441xx) || defined(STM32G471xx) ||
 266              	 .loc 1 266 5 view .LVU88
ARM GAS   			page 22


 267 0190 DEF80080 	 ldr r8,[lr]
 268 0194 48F00108 	 orr r8,r8,#1
 269 0198 CEF80080 	 str r8,[lr]
 270:Drivers/STM32G4xx_HAL_Driver/Src/stm32g4xx_hal_opamp_ex.c ****     SET_BIT(hopamp3->Instance->CSR, OPAMP_CSR_OPAMPxEN);
 270              	 .loc 1 270 5 view .LVU89
 271 019c DCF80080 	 ldr r8,[ip]
 272 01a0 48F00108 	 orr r8,r8,#1
 273 01a4 CCF80080 	 str r8,[ip]
 271:Drivers/STM32G4xx_HAL_Driver/Src/stm32g4xx_hal_opamp_ex.c **** #endif /* STM32GBK1CB || STM32G431xx || STM32G441xx || STM32G471xx || STM32G473xx || STM32G474xx ||
 274              	 .loc 1 271 5 view .LVU90
 275 01a8 D0F80080 	 ldr r8,[r0]
 276 01ac 48F00108 	 orr r8,r8,#1
 277 01b0 C0F80080 	 str r8,[r0]
 275:Drivers/STM32G4xx_HAL_Driver/Src/stm32g4xx_hal_opamp_ex.c ****     SET_BIT(hopamp5->Instance->CSR, OPAMP_CSR_OPAMPxEN);
 278              	 .loc 1 275 5 view .LVU91
 279 01b4 D1F80080 	 ldr r8,[r1]
 280 01b8 48F00108 	 orr r8,r8,#1
 281 01bc C1F80080 	 str r8,[r1]
 276:Drivers/STM32G4xx_HAL_Driver/Src/stm32g4xx_hal_opamp_ex.c ****     SET_BIT(hopamp6->Instance->CSR, OPAMP_CSR_OPAMPxEN);
 282              	 .loc 1 276 5 view .LVU92
 283 01c0 D2F80080 	 ldr r8,[r2]
 284:Drivers/STM32G4xx_HAL_Driver/Src/stm32g4xx_hal_opamp_ex.c **** #if defined(STM32GBK1CB) || defined(STM32G431xx) || defined(STM32G441xx) || defined(STM32G471xx) ||
 284              	 .loc 1 284 21 is_stmt 0 view .LVU93
 285 01c4 0696     	 str r6,[sp,#24]
 276:Drivers/STM32G4xx_HAL_Driver/Src/stm32g4xx_hal_opamp_ex.c ****     SET_BIT(hopamp6->Instance->CSR, OPAMP_CSR_OPAMPxEN);
 286              	 .loc 1 276 5 view .LVU94
 287 01c6 48F00108 	 orr r8,r8,#1
 288 01ca C2F80080 	 str r8,[r2]
 277:Drivers/STM32G4xx_HAL_Driver/Src/stm32g4xx_hal_opamp_ex.c **** #elif defined(STM32G491xx) || defined(STM32G4A1xx)
 289              	 .loc 1 277 5 is_stmt 1 view .LVU95
 290 01ce D3F80080 	 ldr r8,[r3]
 284:Drivers/STM32G4xx_HAL_Driver/Src/stm32g4xx_hal_opamp_ex.c **** #if defined(STM32GBK1CB) || defined(STM32G431xx) || defined(STM32G441xx) || defined(STM32G471xx) ||
 291              	 .loc 1 284 21 is_stmt 0 view .LVU96
 292 01d2 0797     	 str r7,[sp,#28]
 295:Drivers/STM32G4xx_HAL_Driver/Src/stm32g4xx_hal_opamp_ex.c **** #elif defined(STM32G491xx) || defined(STM32G4A1xx)
 293              	 .loc 1 295 21 view .LVU97
 294 01d4 4FF01009 	 mov r9,#16
 277:Drivers/STM32G4xx_HAL_Driver/Src/stm32g4xx_hal_opamp_ex.c **** #elif defined(STM32G491xx) || defined(STM32G4A1xx)
 295              	 .loc 1 277 5 view .LVU98
 296 01d8 48F00108 	 orr r8,r8,#1
 297 01dc 4FF0040A 	 mov r10,#4
 298 01e0 C3F80080 	 str r8,[r3]
 284:Drivers/STM32G4xx_HAL_Driver/Src/stm32g4xx_hal_opamp_ex.c **** #if defined(STM32GBK1CB) || defined(STM32G431xx) || defined(STM32G441xx) || defined(STM32G471xx) ||
 299              	 .loc 1 284 5 is_stmt 1 view .LVU99
 300              	.LVL8:
 288:Drivers/STM32G4xx_HAL_Driver/Src/stm32g4xx_hal_opamp_ex.c ****     trimmingvaluen3 = 16UL;
 301              	 .loc 1 288 5 view .LVU100
 289:Drivers/STM32G4xx_HAL_Driver/Src/stm32g4xx_hal_opamp_ex.c **** #endif /* STM32GBK1CB || STM32G431xx || STM32G441xx || STM32G471xx || STM32G473xx || STM32G474xx ||
 302              	 .loc 1 289 5 view .LVU101
 293:Drivers/STM32G4xx_HAL_Driver/Src/stm32g4xx_hal_opamp_ex.c ****     trimmingvaluen5 = 16UL;
 303              	 .loc 1 293 5 view .LVU102
 294:Drivers/STM32G4xx_HAL_Driver/Src/stm32g4xx_hal_opamp_ex.c ****     trimmingvaluen6 = 16UL;
 304              	 .loc 1 294 5 view .LVU103
 295:Drivers/STM32G4xx_HAL_Driver/Src/stm32g4xx_hal_opamp_ex.c **** #elif defined(STM32G491xx) || defined(STM32G4A1xx)
 305              	 .loc 1 295 5 view .LVU104
 299:Drivers/STM32G4xx_HAL_Driver/Src/stm32g4xx_hal_opamp_ex.c **** 
 306              	 .loc 1 299 5 view .LVU105
ARM GAS   			page 23


 301:Drivers/STM32G4xx_HAL_Driver/Src/stm32g4xx_hal_opamp_ex.c ****     {
 307              	 .loc 1 301 5 view .LVU106
 301:Drivers/STM32G4xx_HAL_Driver/Src/stm32g4xx_hal_opamp_ex.c ****     {
 308              	 .loc 1 301 18 view .LVU107
 284:Drivers/STM32G4xx_HAL_Driver/Src/stm32g4xx_hal_opamp_ex.c **** #if defined(STM32GBK1CB) || defined(STM32G431xx) || defined(STM32G441xx) || defined(STM32G471xx) ||
 309              	 .loc 1 284 21 is_stmt 0 view .LVU108
 310 01e4 CDE90445 	 strd r4,r5,[sp,#16]
 311 01e8 CDF800A0 	 str r10,[sp]
 312 01ec 7546     	 mov r5,lr
 313              	.LVL9:
 284:Drivers/STM32G4xx_HAL_Driver/Src/stm32g4xx_hal_opamp_ex.c **** #if defined(STM32GBK1CB) || defined(STM32G431xx) || defined(STM32G441xx) || defined(STM32G471xx) ||
 314              	 .loc 1 284 21 view .LVU109
 315 01ee 6646     	 mov r6,ip
 316              	.LVL10:
 284:Drivers/STM32G4xx_HAL_Driver/Src/stm32g4xx_hal_opamp_ex.c **** #if defined(STM32GBK1CB) || defined(STM32G431xx) || defined(STM32G441xx) || defined(STM32G471xx) ||
 317              	 .loc 1 284 21 view .LVU110
 318 01f0 9E46     	 mov lr,r3
 319 01f2 9446     	 mov ip,r2
 299:Drivers/STM32G4xx_HAL_Driver/Src/stm32g4xx_hal_opamp_ex.c **** 
 320              	 .loc 1 299 11 view .LVU111
 321 01f4 4FF00808 	 mov r8,#8
 294:Drivers/STM32G4xx_HAL_Driver/Src/stm32g4xx_hal_opamp_ex.c ****     trimmingvaluen6 = 16UL;
 322              	 .loc 1 294 21 view .LVU112
 323 01f8 CDF82C90 	 str r9,[sp,#44]
 289:Drivers/STM32G4xx_HAL_Driver/Src/stm32g4xx_hal_opamp_ex.c **** #endif /* STM32GBK1CB || STM32G431xx || STM32G441xx || STM32G471xx || STM32G473xx || STM32G474xx ||
 324              	 .loc 1 289 21 view .LVU113
 325 01fc CB46     	 mov fp,r9
 288:Drivers/STM32G4xx_HAL_Driver/Src/stm32g4xx_hal_opamp_ex.c ****     trimmingvaluen3 = 16UL;
 326              	 .loc 1 288 21 view .LVU114
 327 01fe CDF80C90 	 str r9,[sp,#12]
 284:Drivers/STM32G4xx_HAL_Driver/Src/stm32g4xx_hal_opamp_ex.c **** #if defined(STM32GBK1CB) || defined(STM32G431xx) || defined(STM32G441xx) || defined(STM32G471xx) ||
 328              	 .loc 1 284 21 view .LVU115
 329 0202 CA46     	 mov r10,r9
 330 0204 4B46     	 mov r3,r9
 331 0206 4A46     	 mov r2,r9
 332 0208 4F46     	 mov r7,r9
 333              	.LVL11:
 334              	.L15:
 304:Drivers/STM32G4xx_HAL_Driver/Src/stm32g4xx_hal_opamp_ex.c **** #if defined(STM32GBK1CB) || defined(STM32G431xx) || defined(STM32G441xx) || defined(STM32G471xx) ||
 335              	 .loc 1 304 7 is_stmt 1 view .LVU116
 336 020a 2C68     	 ldr r4,[r5]
 337 020c 0293     	 str r3,[sp,#8]
 338 020e 24F0F854 	 bic r4,r4,#520093696
 339 0212 44EA0364 	 orr r4,r4,r3,lsl#24
 340 0216 2C60     	 str r4,[r5]
 308:Drivers/STM32G4xx_HAL_Driver/Src/stm32g4xx_hal_opamp_ex.c ****       MODIFY_REG(hopamp3->Instance->CSR, OPAMP_CSR_TRIMOFFSETN, trimmingvaluen3 << OPAMP_INPUT_INVE
 341              	 .loc 1 308 7 view .LVU117
 342 0218 3468     	 ldr r4,[r6]
 315:Drivers/STM32G4xx_HAL_Driver/Src/stm32g4xx_hal_opamp_ex.c **** #elif defined(STM32G491xx) || defined(STM32G4A1xx)
 343              	 .loc 1 315 7 is_stmt 0 view .LVU118
 344 021a 0192     	 str r2,[sp,#4]
 308:Drivers/STM32G4xx_HAL_Driver/Src/stm32g4xx_hal_opamp_ex.c ****       MODIFY_REG(hopamp3->Instance->CSR, OPAMP_CSR_TRIMOFFSETN, trimmingvaluen3 << OPAMP_INPUT_INVE
 345              	 .loc 1 308 7 view .LVU119
 346 021c 24F0F854 	 bic r4,r4,#520093696
 347 0220 44EA0764 	 orr r4,r4,r7,lsl#24
 348 0224 3460     	 str r4,[r6]
 309:Drivers/STM32G4xx_HAL_Driver/Src/stm32g4xx_hal_opamp_ex.c **** #endif /* STM32GBK1CB || STM32G431xx || STM32G441xx || STM32G471xx || STM32G473xx || STM32G474xx ||
ARM GAS   			page 24


 349              	 .loc 1 309 7 is_stmt 1 view .LVU120
 350 0226 0468     	 ldr r4,[r0]
 351 0228 24F0F854 	 bic r4,r4,#520093696
 352 022c 44EA0B64 	 orr r4,r4,fp,lsl#24
 353 0230 0460     	 str r4,[r0]
 313:Drivers/STM32G4xx_HAL_Driver/Src/stm32g4xx_hal_opamp_ex.c ****       MODIFY_REG(hopamp5->Instance->CSR, OPAMP_CSR_TRIMOFFSETN, trimmingvaluen5 << OPAMP_INPUT_INVE
 354              	 .loc 1 313 7 view .LVU121
 355 0232 0868     	 ldr r0,[r1]
 356 0234 20F0F850 	 bic r0,r0,#520093696
 357 0238 40EA0A60 	 orr r0,r0,r10,lsl#24
 358 023c 0860     	 str r0,[r1]
 314:Drivers/STM32G4xx_HAL_Driver/Src/stm32g4xx_hal_opamp_ex.c ****       MODIFY_REG(hopamp6->Instance->CSR, OPAMP_CSR_TRIMOFFSETN, trimmingvaluen6 << OPAMP_INPUT_INVE
 359              	 .loc 1 314 7 view .LVU122
 360 023e DCF80010 	 ldr r1,[ip]
 361 0242 21F0F851 	 bic r1,r1,#520093696
 362 0246 41EA0961 	 orr r1,r1,r9,lsl#24
 363 024a CCF80010 	 str r1,[ip]
 315:Drivers/STM32G4xx_HAL_Driver/Src/stm32g4xx_hal_opamp_ex.c **** #elif defined(STM32G491xx) || defined(STM32G4A1xx)
 364              	 .loc 1 315 7 view .LVU123
 365 024e DEF80010 	 ldr r1,[lr]
 366 0252 21F0F851 	 bic r1,r1,#520093696
 367 0256 41EA0261 	 orr r1,r1,r2,lsl#24
 368 025a CEF80010 	 str r1,[lr]
 323:Drivers/STM32G4xx_HAL_Driver/Src/stm32g4xx_hal_opamp_ex.c **** 
 369              	 .loc 1 323 7 view .LVU124
 370 025e 0220     	 movs r0,#2
 371 0260 FFF7FEFF 	 bl HAL_Delay
 372              	.LVL12:
 325:Drivers/STM32G4xx_HAL_Driver/Src/stm32g4xx_hal_opamp_ex.c ****       {
 373              	 .loc 1 325 7 view .LVU125
 325:Drivers/STM32G4xx_HAL_Driver/Src/stm32g4xx_hal_opamp_ex.c ****       {
 374              	 .loc 1 325 19 is_stmt 0 view .LVU126
 375 0264 049B     	 ldr r3,[sp,#16]
 376 0266 1D68     	 ldr r5,[r3]
 325:Drivers/STM32G4xx_HAL_Driver/Src/stm32g4xx_hal_opamp_ex.c ****       {
 377              	 .loc 1 325 29 view .LVU127
 378 0268 2968     	 ldr r1,[r5]
 325:Drivers/STM32G4xx_HAL_Driver/Src/stm32g4xx_hal_opamp_ex.c ****       {
 379              	 .loc 1 325 10 view .LVU128
 380 026a 11F0804F 	 tst r1,#1073741824
 338:Drivers/STM32G4xx_HAL_Driver/Src/stm32g4xx_hal_opamp_ex.c ****       {
 381              	 .loc 1 338 19 view .LVU129
 382 026e 0599     	 ldr r1,[sp,#20]
 383 0270 0E68     	 ldr r6,[r1]
 325:Drivers/STM32G4xx_HAL_Driver/Src/stm32g4xx_hal_opamp_ex.c ****       {
 384              	 .loc 1 325 10 view .LVU130
 385 0272 DDE90123 	 ldrd r2,r3,[sp,#4]
 328:Drivers/STM32G4xx_HAL_Driver/Src/stm32g4xx_hal_opamp_ex.c ****       }
 386              	 .loc 1 328 9 is_stmt 1 view .LVU131
 338:Drivers/STM32G4xx_HAL_Driver/Src/stm32g4xx_hal_opamp_ex.c ****       {
 387              	 .loc 1 338 29 is_stmt 0 view .LVU132
 388 0276 3168     	 ldr r1,[r6]
 328:Drivers/STM32G4xx_HAL_Driver/Src/stm32g4xx_hal_opamp_ex.c ****       }
 389              	 .loc 1 328 25 view .LVU133
 390 0278 14BF     	 ite ne
 391 027a 4344     	 addne r3,r3,r8
 392              	.LVL13:
ARM GAS   			page 25


 333:Drivers/STM32G4xx_HAL_Driver/Src/stm32g4xx_hal_opamp_ex.c ****       }
 393              	 .loc 1 333 9 is_stmt 1 view .LVU134
 333:Drivers/STM32G4xx_HAL_Driver/Src/stm32g4xx_hal_opamp_ex.c ****       }
 394              	 .loc 1 333 25 is_stmt 0 view .LVU135
 395 027c A3EB0803 	 subeq r3,r3,r8
 396              	.LVL14:
 338:Drivers/STM32G4xx_HAL_Driver/Src/stm32g4xx_hal_opamp_ex.c ****       {
 397              	 .loc 1 338 7 is_stmt 1 view .LVU136
 338:Drivers/STM32G4xx_HAL_Driver/Src/stm32g4xx_hal_opamp_ex.c ****       {
 398              	 .loc 1 338 10 is_stmt 0 view .LVU137
 399 0280 4800     	 lsls r0,r1,#1
 341:Drivers/STM32G4xx_HAL_Driver/Src/stm32g4xx_hal_opamp_ex.c ****       }
 400              	 .loc 1 341 9 is_stmt 1 view .LVU138
 349:Drivers/STM32G4xx_HAL_Driver/Src/stm32g4xx_hal_opamp_ex.c ****       {
 401              	 .loc 1 349 19 is_stmt 0 view .LVU139
 402 0282 0699     	 ldr r1,[sp,#24]
 403 0284 0868     	 ldr r0,[r1]
 349:Drivers/STM32G4xx_HAL_Driver/Src/stm32g4xx_hal_opamp_ex.c ****       {
 404              	 .loc 1 349 29 view .LVU140
 405 0286 0168     	 ldr r1,[r0]
 341:Drivers/STM32G4xx_HAL_Driver/Src/stm32g4xx_hal_opamp_ex.c ****       }
 406              	 .loc 1 341 25 view .LVU141
 407 0288 4CBF     	 ite mi
 408 028a 4744     	 addmi r7,r7,r8
 409              	.LVL15:
 346:Drivers/STM32G4xx_HAL_Driver/Src/stm32g4xx_hal_opamp_ex.c ****       }
 410              	 .loc 1 346 9 is_stmt 1 view .LVU142
 346:Drivers/STM32G4xx_HAL_Driver/Src/stm32g4xx_hal_opamp_ex.c ****       }
 411              	 .loc 1 346 25 is_stmt 0 view .LVU143
 412 028c A7EB0807 	 subpl r7,r7,r8
 413              	.LVL16:
 349:Drivers/STM32G4xx_HAL_Driver/Src/stm32g4xx_hal_opamp_ex.c ****       {
 414              	 .loc 1 349 7 is_stmt 1 view .LVU144
 349:Drivers/STM32G4xx_HAL_Driver/Src/stm32g4xx_hal_opamp_ex.c ****       {
 415              	 .loc 1 349 10 is_stmt 0 view .LVU145
 416 0290 4900     	 lsls r1,r1,#1
 352:Drivers/STM32G4xx_HAL_Driver/Src/stm32g4xx_hal_opamp_ex.c ****       }
 417              	 .loc 1 352 9 is_stmt 1 view .LVU146
 363:Drivers/STM32G4xx_HAL_Driver/Src/stm32g4xx_hal_opamp_ex.c ****       {
 418              	 .loc 1 363 19 is_stmt 0 view .LVU147
 419 0292 0799     	 ldr r1,[sp,#28]
 420 0294 0968     	 ldr r1,[r1]
 363:Drivers/STM32G4xx_HAL_Driver/Src/stm32g4xx_hal_opamp_ex.c ****       {
 421              	 .loc 1 363 29 view .LVU148
 422 0296 0C68     	 ldr r4,[r1]
 352:Drivers/STM32G4xx_HAL_Driver/Src/stm32g4xx_hal_opamp_ex.c ****       }
 423              	 .loc 1 352 25 view .LVU149
 424 0298 4CBF     	 ite mi
 425 029a C344     	 addmi fp,fp,r8
 426              	.LVL17:
 357:Drivers/STM32G4xx_HAL_Driver/Src/stm32g4xx_hal_opamp_ex.c ****       }
 427              	 .loc 1 357 9 is_stmt 1 view .LVU150
 357:Drivers/STM32G4xx_HAL_Driver/Src/stm32g4xx_hal_opamp_ex.c ****       }
 428              	 .loc 1 357 25 is_stmt 0 view .LVU151
 429 029c ABEB080B 	 subpl fp,fp,r8
 430              	.LVL18:
 363:Drivers/STM32G4xx_HAL_Driver/Src/stm32g4xx_hal_opamp_ex.c ****       {
ARM GAS   			page 26


 431              	 .loc 1 363 7 is_stmt 1 view .LVU152
 363:Drivers/STM32G4xx_HAL_Driver/Src/stm32g4xx_hal_opamp_ex.c ****       {
 432              	 .loc 1 363 10 is_stmt 0 view .LVU153
 433 02a0 6400     	 lsls r4,r4,#1
 366:Drivers/STM32G4xx_HAL_Driver/Src/stm32g4xx_hal_opamp_ex.c ****       }
 434              	 .loc 1 366 9 is_stmt 1 view .LVU154
 374:Drivers/STM32G4xx_HAL_Driver/Src/stm32g4xx_hal_opamp_ex.c ****       {
 435              	 .loc 1 374 19 is_stmt 0 view .LVU155
 436 02a2 209C     	 ldr r4,[sp,#128]
 437 02a4 D4F800C0 	 ldr ip,[r4]
 374:Drivers/STM32G4xx_HAL_Driver/Src/stm32g4xx_hal_opamp_ex.c ****       {
 438              	 .loc 1 374 29 view .LVU156
 439 02a8 DCF80040 	 ldr r4,[ip]
 366:Drivers/STM32G4xx_HAL_Driver/Src/stm32g4xx_hal_opamp_ex.c ****       }
 440              	 .loc 1 366 25 view .LVU157
 441 02ac 4CBF     	 ite mi
 442 02ae C244     	 addmi r10,r10,r8
 443              	.LVL19:
 371:Drivers/STM32G4xx_HAL_Driver/Src/stm32g4xx_hal_opamp_ex.c ****       }
 444              	 .loc 1 371 9 is_stmt 1 view .LVU158
 371:Drivers/STM32G4xx_HAL_Driver/Src/stm32g4xx_hal_opamp_ex.c ****       }
 445              	 .loc 1 371 25 is_stmt 0 view .LVU159
 446 02b0 AAEB080A 	 subpl r10,r10,r8
 447              	.LVL20:
 374:Drivers/STM32G4xx_HAL_Driver/Src/stm32g4xx_hal_opamp_ex.c ****       {
 448              	 .loc 1 374 7 is_stmt 1 view .LVU160
 374:Drivers/STM32G4xx_HAL_Driver/Src/stm32g4xx_hal_opamp_ex.c ****       {
 449              	 .loc 1 374 10 is_stmt 0 view .LVU161
 450 02b4 6400     	 lsls r4,r4,#1
 377:Drivers/STM32G4xx_HAL_Driver/Src/stm32g4xx_hal_opamp_ex.c ****       }
 451              	 .loc 1 377 9 is_stmt 1 view .LVU162
 385:Drivers/STM32G4xx_HAL_Driver/Src/stm32g4xx_hal_opamp_ex.c ****       {
 452              	 .loc 1 385 19 is_stmt 0 view .LVU163
 453 02b6 219C     	 ldr r4,[sp,#132]
 454 02b8 D4F800E0 	 ldr lr,[r4]
 385:Drivers/STM32G4xx_HAL_Driver/Src/stm32g4xx_hal_opamp_ex.c ****       {
 455              	 .loc 1 385 29 view .LVU164
 456 02bc DEF80040 	 ldr r4,[lr]
 377:Drivers/STM32G4xx_HAL_Driver/Src/stm32g4xx_hal_opamp_ex.c ****       }
 457              	 .loc 1 377 25 view .LVU165
 458 02c0 4CBF     	 ite mi
 459 02c2 C144     	 addmi r9,r9,r8
 460              	.LVL21:
 382:Drivers/STM32G4xx_HAL_Driver/Src/stm32g4xx_hal_opamp_ex.c ****       }
 461              	 .loc 1 382 9 is_stmt 1 view .LVU166
 382:Drivers/STM32G4xx_HAL_Driver/Src/stm32g4xx_hal_opamp_ex.c ****       }
 462              	 .loc 1 382 25 is_stmt 0 view .LVU167
 463 02c4 A9EB0809 	 subpl r9,r9,r8
 464              	.LVL22:
 385:Drivers/STM32G4xx_HAL_Driver/Src/stm32g4xx_hal_opamp_ex.c ****       {
 465              	 .loc 1 385 7 is_stmt 1 view .LVU168
 385:Drivers/STM32G4xx_HAL_Driver/Src/stm32g4xx_hal_opamp_ex.c ****       {
 466              	 .loc 1 385 10 is_stmt 0 view .LVU169
 467 02c8 6400     	 lsls r4,r4,#1
 388:Drivers/STM32G4xx_HAL_Driver/Src/stm32g4xx_hal_opamp_ex.c ****       }
 468              	 .loc 1 388 9 is_stmt 1 view .LVU170
 301:Drivers/STM32G4xx_HAL_Driver/Src/stm32g4xx_hal_opamp_ex.c ****     {
ARM GAS   			page 27


 469              	 .loc 1 301 18 is_stmt 0 view .LVU171
 470 02ca 009C     	 ldr r4,[sp]
 388:Drivers/STM32G4xx_HAL_Driver/Src/stm32g4xx_hal_opamp_ex.c ****       }
 471              	 .loc 1 388 25 view .LVU172
 472 02cc 4CBF     	 ite mi
 473 02ce 4244     	 addmi r2,r2,r8
 474              	.LVL23:
 393:Drivers/STM32G4xx_HAL_Driver/Src/stm32g4xx_hal_opamp_ex.c ****       }
 475              	 .loc 1 393 9 is_stmt 1 view .LVU173
 393:Drivers/STM32G4xx_HAL_Driver/Src/stm32g4xx_hal_opamp_ex.c ****       }
 476              	 .loc 1 393 25 is_stmt 0 view .LVU174
 477 02d0 A2EB0802 	 subpl r2,r2,r8
 478              	.LVL24:
 409:Drivers/STM32G4xx_HAL_Driver/Src/stm32g4xx_hal_opamp_ex.c ****     }
 479              	 .loc 1 409 7 is_stmt 1 view .LVU175
 301:Drivers/STM32G4xx_HAL_Driver/Src/stm32g4xx_hal_opamp_ex.c ****     {
 480              	 .loc 1 301 18 is_stmt 0 view .LVU176
 481 02d4 013C     	 subs r4,r4,#1
 409:Drivers/STM32G4xx_HAL_Driver/Src/stm32g4xx_hal_opamp_ex.c ****     }
 482              	 .loc 1 409 13 view .LVU177
 483 02d6 4FEA5808 	 lsr r8,r8,#1
 484              	.LVL25:
 301:Drivers/STM32G4xx_HAL_Driver/Src/stm32g4xx_hal_opamp_ex.c ****     {
 485              	 .loc 1 301 18 is_stmt 1 view .LVU178
 486 02da 0094     	 str r4,[sp]
 487 02dc 95D1     	 bne .L15
 414:Drivers/STM32G4xx_HAL_Driver/Src/stm32g4xx_hal_opamp_ex.c **** #if defined(STM32GBK1CB) || defined(STM32G431xx) || defined(STM32G441xx) || defined(STM32G471xx) ||
 488              	 .loc 1 414 5 view .LVU179
 489 02de 0091     	 str r1,[sp]
 490 02e0 1946     	 mov r1,r3
 491 02e2 7346     	 mov r3,lr
 492              	.LVL26:
 414:Drivers/STM32G4xx_HAL_Driver/Src/stm32g4xx_hal_opamp_ex.c **** #if defined(STM32GBK1CB) || defined(STM32G431xx) || defined(STM32G441xx) || defined(STM32G471xx) ||
 493              	 .loc 1 414 5 is_stmt 0 view .LVU180
 494 02e4 AE46     	 mov lr,r5
 495 02e6 CDF824B0 	 str fp,[sp,#36]
 496 02ea DEF80080 	 ldr r8,[lr]
 497              	.LVL27:
 414:Drivers/STM32G4xx_HAL_Driver/Src/stm32g4xx_hal_opamp_ex.c **** #if defined(STM32GBK1CB) || defined(STM32G431xx) || defined(STM32G441xx) || defined(STM32G471xx) ||
 498              	 .loc 1 414 5 view .LVU181
 499 02ee 0397     	 str r7,[sp,#12]
 500 02f0 28F0F858 	 bic r8,r8,#520093696
 501 02f4 D346     	 mov fp,r10
 502              	.LVL28:
 414:Drivers/STM32G4xx_HAL_Driver/Src/stm32g4xx_hal_opamp_ex.c **** #if defined(STM32GBK1CB) || defined(STM32G431xx) || defined(STM32G441xx) || defined(STM32G471xx) ||
 503              	 .loc 1 414 5 view .LVU182
 504 02f6 48EA0168 	 orr r8,r8,r1,lsl#24
 505 02fa CA46     	 mov r10,r9
 506              	.LVL29:
 414:Drivers/STM32G4xx_HAL_Driver/Src/stm32g4xx_hal_opamp_ex.c **** #if defined(STM32GBK1CB) || defined(STM32G431xx) || defined(STM32G441xx) || defined(STM32G471xx) ||
 507              	 .loc 1 414 5 view .LVU183
 508 02fc 9146     	 mov r9,r2
 509              	.LVL30:
 414:Drivers/STM32G4xx_HAL_Driver/Src/stm32g4xx_hal_opamp_ex.c **** #if defined(STM32GBK1CB) || defined(STM32G431xx) || defined(STM32G441xx) || defined(STM32G471xx) ||
 510              	 .loc 1 414 5 view .LVU184
 511 02fe 6246     	 mov r2,ip
 512              	.LVL31:
ARM GAS   			page 28


 414:Drivers/STM32G4xx_HAL_Driver/Src/stm32g4xx_hal_opamp_ex.c **** #if defined(STM32GBK1CB) || defined(STM32G431xx) || defined(STM32G441xx) || defined(STM32G471xx) ||
 513              	 .loc 1 414 5 view .LVU185
 514 0300 B446     	 mov ip,r6
 515 0302 CEF80080 	 str r8,[lr]
 418:Drivers/STM32G4xx_HAL_Driver/Src/stm32g4xx_hal_opamp_ex.c ****     MODIFY_REG(hopamp3->Instance->CSR, OPAMP_CSR_TRIMOFFSETN, trimmingvaluen3 << OPAMP_INPUT_INVERT
 516              	 .loc 1 418 5 is_stmt 1 view .LVU186
 517 0306 DCF800E0 	 ldr lr,[ip]
 414:Drivers/STM32G4xx_HAL_Driver/Src/stm32g4xx_hal_opamp_ex.c **** #if defined(STM32GBK1CB) || defined(STM32G431xx) || defined(STM32G441xx) || defined(STM32G471xx) ||
 518              	 .loc 1 414 5 is_stmt 0 view .LVU187
 519 030a 0C91     	 str r1,[sp,#48]
 418:Drivers/STM32G4xx_HAL_Driver/Src/stm32g4xx_hal_opamp_ex.c ****     MODIFY_REG(hopamp3->Instance->CSR, OPAMP_CSR_TRIMOFFSETN, trimmingvaluen3 << OPAMP_INPUT_INVERT
 520              	 .loc 1 418 5 view .LVU188
 521 030c 0399     	 ldr r1,[sp,#12]
 522              	.LVL32:
 423:Drivers/STM32G4xx_HAL_Driver/Src/stm32g4xx_hal_opamp_ex.c ****     MODIFY_REG(hopamp5->Instance->CSR, OPAMP_CSR_TRIMOFFSETN, trimmingvaluen5 << OPAMP_INPUT_INVERT
 523              	 .loc 1 423 5 view .LVU189
 524 030e CDF834B0 	 str fp,[sp,#52]
 418:Drivers/STM32G4xx_HAL_Driver/Src/stm32g4xx_hal_opamp_ex.c ****     MODIFY_REG(hopamp3->Instance->CSR, OPAMP_CSR_TRIMOFFSETN, trimmingvaluen3 << OPAMP_INPUT_INVERT
 525              	 .loc 1 418 5 view .LVU190
 526 0312 2EF0F85E 	 bic lr,lr,#520093696
 527 0316 4EEA016E 	 orr lr,lr,r1,lsl#24
 528 031a CCF800E0 	 str lr,[ip]
 419:Drivers/STM32G4xx_HAL_Driver/Src/stm32g4xx_hal_opamp_ex.c **** #endif /* STM32GBK1CB || STM32G431xx || STM32G441xx || STM32G471xx || STM32G473xx || STM32G474xx ||
 529              	 .loc 1 419 5 is_stmt 1 view .LVU191
 530 031e D0F800C0 	 ldr ip,[r0]
 531 0322 0999     	 ldr r1,[sp,#36]
 424:Drivers/STM32G4xx_HAL_Driver/Src/stm32g4xx_hal_opamp_ex.c ****     MODIFY_REG(hopamp6->Instance->CSR, OPAMP_CSR_TRIMOFFSETN, trimmingvaluen6 << OPAMP_INPUT_INVERT
 532              	 .loc 1 424 5 is_stmt 0 view .LVU192
 533 0324 CDF82CA0 	 str r10,[sp,#44]
 419:Drivers/STM32G4xx_HAL_Driver/Src/stm32g4xx_hal_opamp_ex.c **** #endif /* STM32GBK1CB || STM32G431xx || STM32G441xx || STM32G471xx || STM32G473xx || STM32G474xx ||
 534              	 .loc 1 419 5 view .LVU193
 535 0328 2CF0F85C 	 bic ip,ip,#520093696
 536 032c 4CEA016C 	 orr ip,ip,r1,lsl#24
 423:Drivers/STM32G4xx_HAL_Driver/Src/stm32g4xx_hal_opamp_ex.c ****     MODIFY_REG(hopamp5->Instance->CSR, OPAMP_CSR_TRIMOFFSETN, trimmingvaluen5 << OPAMP_INPUT_INVERT
 537              	 .loc 1 423 5 view .LVU194
 538 0330 0099     	 ldr r1,[sp]
 419:Drivers/STM32G4xx_HAL_Driver/Src/stm32g4xx_hal_opamp_ex.c **** #endif /* STM32GBK1CB || STM32G431xx || STM32G441xx || STM32G471xx || STM32G473xx || STM32G474xx ||
 539              	 .loc 1 419 5 view .LVU195
 540 0332 C0F800C0 	 str ip,[r0]
 423:Drivers/STM32G4xx_HAL_Driver/Src/stm32g4xx_hal_opamp_ex.c ****     MODIFY_REG(hopamp5->Instance->CSR, OPAMP_CSR_TRIMOFFSETN, trimmingvaluen5 << OPAMP_INPUT_INVERT
 541              	 .loc 1 423 5 is_stmt 1 view .LVU196
 542 0336 0868     	 ldr r0,[r1]
 543 0338 0099     	 ldr r1,[sp]
 544 033a 20F0F850 	 bic r0,r0,#520093696
 545 033e 40EA0B60 	 orr r0,r0,fp,lsl#24
 546 0342 0860     	 str r0,[r1]
 424:Drivers/STM32G4xx_HAL_Driver/Src/stm32g4xx_hal_opamp_ex.c ****     MODIFY_REG(hopamp6->Instance->CSR, OPAMP_CSR_TRIMOFFSETN, trimmingvaluen6 << OPAMP_INPUT_INVERT
 547              	 .loc 1 424 5 view .LVU197
 548 0344 1168     	 ldr r1,[r2]
 549 0346 21F0F851 	 bic r1,r1,#520093696
 550 034a 41EA0A61 	 orr r1,r1,r10,lsl#24
 551 034e 1160     	 str r1,[r2]
 425:Drivers/STM32G4xx_HAL_Driver/Src/stm32g4xx_hal_opamp_ex.c **** #elif defined(STM32G491xx) || defined(STM32G4A1xx)
 552              	 .loc 1 425 5 view .LVU198
 553 0350 1A68     	 ldr r2,[r3]
 554 0352 22F0F852 	 bic r2,r2,#520093696
 555 0356 42EA0962 	 orr r2,r2,r9,lsl#24
ARM GAS   			page 29


 556 035a 1A60     	 str r2,[r3]
 433:Drivers/STM32G4xx_HAL_Driver/Src/stm32g4xx_hal_opamp_ex.c **** 
 557              	 .loc 1 433 5 view .LVU199
 414:Drivers/STM32G4xx_HAL_Driver/Src/stm32g4xx_hal_opamp_ex.c **** #if defined(STM32GBK1CB) || defined(STM32G431xx) || defined(STM32G441xx) || defined(STM32G471xx) ||
 558              	 .loc 1 414 5 is_stmt 0 view .LVU200
 559 035c 0C9A     	 ldr r2,[sp,#48]
 418:Drivers/STM32G4xx_HAL_Driver/Src/stm32g4xx_hal_opamp_ex.c ****     MODIFY_REG(hopamp3->Instance->CSR, OPAMP_CSR_TRIMOFFSETN, trimmingvaluen3 << OPAMP_INPUT_INVERT
 560              	 .loc 1 418 5 view .LVU201
 561 035e 039B     	 ldr r3,[sp,#12]
 414:Drivers/STM32G4xx_HAL_Driver/Src/stm32g4xx_hal_opamp_ex.c **** #if defined(STM32GBK1CB) || defined(STM32G431xx) || defined(STM32G441xx) || defined(STM32G471xx) ||
 562              	 .loc 1 414 5 view .LVU202
 563 0360 1206     	 lsls r2,r2,#24
 564 0362 0E92     	 str r2,[sp,#56]
 418:Drivers/STM32G4xx_HAL_Driver/Src/stm32g4xx_hal_opamp_ex.c ****     MODIFY_REG(hopamp3->Instance->CSR, OPAMP_CSR_TRIMOFFSETN, trimmingvaluen3 << OPAMP_INPUT_INVERT
 565              	 .loc 1 418 5 view .LVU203
 566 0364 1A06     	 lsls r2,r3,#24
 419:Drivers/STM32G4xx_HAL_Driver/Src/stm32g4xx_hal_opamp_ex.c **** #endif /* STM32GBK1CB || STM32G431xx || STM32G441xx || STM32G471xx || STM32G473xx || STM32G474xx ||
 567              	 .loc 1 419 5 view .LVU204
 568 0366 099B     	 ldr r3,[sp,#36]
 418:Drivers/STM32G4xx_HAL_Driver/Src/stm32g4xx_hal_opamp_ex.c ****     MODIFY_REG(hopamp3->Instance->CSR, OPAMP_CSR_TRIMOFFSETN, trimmingvaluen3 << OPAMP_INPUT_INVERT
 569              	 .loc 1 418 5 view .LVU205
 570 0368 0F92     	 str r2,[sp,#60]
 419:Drivers/STM32G4xx_HAL_Driver/Src/stm32g4xx_hal_opamp_ex.c **** #endif /* STM32GBK1CB || STM32G431xx || STM32G441xx || STM32G471xx || STM32G473xx || STM32G474xx ||
 571              	 .loc 1 419 5 view .LVU206
 572 036a 1906     	 lsls r1,r3,#24
 423:Drivers/STM32G4xx_HAL_Driver/Src/stm32g4xx_hal_opamp_ex.c ****     MODIFY_REG(hopamp5->Instance->CSR, OPAMP_CSR_TRIMOFFSETN, trimmingvaluen5 << OPAMP_INPUT_INVERT
 573              	 .loc 1 423 5 view .LVU207
 574 036c 5B46     	 mov r3,fp
 414:Drivers/STM32G4xx_HAL_Driver/Src/stm32g4xx_hal_opamp_ex.c **** #if defined(STM32GBK1CB) || defined(STM32G431xx) || defined(STM32G441xx) || defined(STM32G471xx) ||
 575              	 .loc 1 414 5 view .LVU208
 576 036e DDE90445 	 ldrd r4,r5,[sp,#16]
 419:Drivers/STM32G4xx_HAL_Driver/Src/stm32g4xx_hal_opamp_ex.c **** #endif /* STM32GBK1CB || STM32G431xx || STM32G441xx || STM32G471xx || STM32G473xx || STM32G474xx ||
 577              	 .loc 1 419 5 view .LVU209
 578 0372 1091     	 str r1,[sp,#64]
 423:Drivers/STM32G4xx_HAL_Driver/Src/stm32g4xx_hal_opamp_ex.c ****     MODIFY_REG(hopamp5->Instance->CSR, OPAMP_CSR_TRIMOFFSETN, trimmingvaluen5 << OPAMP_INPUT_INVERT
 579              	 .loc 1 423 5 view .LVU210
 580 0374 1906     	 lsls r1,r3,#24
 424:Drivers/STM32G4xx_HAL_Driver/Src/stm32g4xx_hal_opamp_ex.c ****     MODIFY_REG(hopamp6->Instance->CSR, OPAMP_CSR_TRIMOFFSETN, trimmingvaluen6 << OPAMP_INPUT_INVERT
 581              	 .loc 1 424 5 view .LVU211
 582 0376 5346     	 mov r3,r10
 583 0378 1B06     	 lsls r3,r3,#24
 414:Drivers/STM32G4xx_HAL_Driver/Src/stm32g4xx_hal_opamp_ex.c **** #if defined(STM32GBK1CB) || defined(STM32G431xx) || defined(STM32G441xx) || defined(STM32G471xx) ||
 584              	 .loc 1 414 5 view .LVU212
 585 037a DDE90667 	 ldrd r6,r7,[sp,#24]
 586              	.LVL33:
 433:Drivers/STM32G4xx_HAL_Driver/Src/stm32g4xx_hal_opamp_ex.c **** 
 587              	 .loc 1 433 5 view .LVU213
 588 037e 0220     	 movs r0,#2
 423:Drivers/STM32G4xx_HAL_Driver/Src/stm32g4xx_hal_opamp_ex.c ****     MODIFY_REG(hopamp5->Instance->CSR, OPAMP_CSR_TRIMOFFSETN, trimmingvaluen5 << OPAMP_INPUT_INVERT
 589              	 .loc 1 423 5 view .LVU214
 590 0380 1191     	 str r1,[sp,#68]
 424:Drivers/STM32G4xx_HAL_Driver/Src/stm32g4xx_hal_opamp_ex.c ****     MODIFY_REG(hopamp6->Instance->CSR, OPAMP_CSR_TRIMOFFSETN, trimmingvaluen6 << OPAMP_INPUT_INVERT
 591              	 .loc 1 424 5 view .LVU215
 592 0382 1293     	 str r3,[sp,#72]
 425:Drivers/STM32G4xx_HAL_Driver/Src/stm32g4xx_hal_opamp_ex.c **** #elif defined(STM32G491xx) || defined(STM32G4A1xx)
 593              	 .loc 1 425 5 view .LVU216
 594 0384 4FEA0963 	 lsl r3,r9,#24
ARM GAS   			page 30


 595 0388 1393     	 str r3,[sp,#76]
 433:Drivers/STM32G4xx_HAL_Driver/Src/stm32g4xx_hal_opamp_ex.c **** 
 596              	 .loc 1 433 5 view .LVU217
 597 038a FFF7FEFF 	 bl HAL_Delay
 598              	.LVL34:
 435:Drivers/STM32G4xx_HAL_Driver/Src/stm32g4xx_hal_opamp_ex.c ****     {
 599              	 .loc 1 435 5 is_stmt 1 view .LVU218
 435:Drivers/STM32G4xx_HAL_Driver/Src/stm32g4xx_hal_opamp_ex.c ****     {
 600              	 .loc 1 435 17 is_stmt 0 view .LVU219
 601 038e D4F800B0 	 ldr fp,[r4]
 602              	.LVL35:
 435:Drivers/STM32G4xx_HAL_Driver/Src/stm32g4xx_hal_opamp_ex.c ****     {
 603              	 .loc 1 435 27 view .LVU220
 604 0392 DBF80030 	 ldr r3,[fp]
 435:Drivers/STM32G4xx_HAL_Driver/Src/stm32g4xx_hal_opamp_ex.c ****     {
 605              	 .loc 1 435 8 view .LVU221
 606 0396 5A00     	 lsls r2,r3,#1
 607 0398 0CD5     	 bpl .L16
 438:Drivers/STM32G4xx_HAL_Driver/Src/stm32g4xx_hal_opamp_ex.c ****       /* Set right trimming */
 608              	 .loc 1 438 7 is_stmt 1 view .LVU222
 438:Drivers/STM32G4xx_HAL_Driver/Src/stm32g4xx_hal_opamp_ex.c ****       /* Set right trimming */
 609              	 .loc 1 438 22 is_stmt 0 view .LVU223
 610 039a 0C9A     	 ldr r2,[sp,#48]
 440:Drivers/STM32G4xx_HAL_Driver/Src/stm32g4xx_hal_opamp_ex.c ****     }
 611              	 .loc 1 440 7 view .LVU224
 612 039c DBF80030 	 ldr r3,[fp]
 438:Drivers/STM32G4xx_HAL_Driver/Src/stm32g4xx_hal_opamp_ex.c ****       /* Set right trimming */
 613              	 .loc 1 438 22 view .LVU225
 614 03a0 0132     	 adds r2,r2,#1
 440:Drivers/STM32G4xx_HAL_Driver/Src/stm32g4xx_hal_opamp_ex.c ****     }
 615              	 .loc 1 440 7 view .LVU226
 616 03a2 23F0F853 	 bic r3,r3,#520093696
 617 03a6 43EA0263 	 orr r3,r3,r2,lsl#24
 618 03aa CBF80030 	 str r3,[fp]
 619 03ae 1306     	 lsls r3,r2,#24
 438:Drivers/STM32G4xx_HAL_Driver/Src/stm32g4xx_hal_opamp_ex.c ****       /* Set right trimming */
 620              	 .loc 1 438 22 view .LVU227
 621 03b0 0C92     	 str r2,[sp,#48]
 622              	.LVL36:
 440:Drivers/STM32G4xx_HAL_Driver/Src/stm32g4xx_hal_opamp_ex.c ****     }
 623              	 .loc 1 440 7 is_stmt 1 view .LVU228
 624 03b2 0E93     	 str r3,[sp,#56]
 625              	.LVL37:
 626              	.L16:
 445:Drivers/STM32G4xx_HAL_Driver/Src/stm32g4xx_hal_opamp_ex.c ****     {
 627              	 .loc 1 445 5 view .LVU229
 445:Drivers/STM32G4xx_HAL_Driver/Src/stm32g4xx_hal_opamp_ex.c ****     {
 628              	 .loc 1 445 17 is_stmt 0 view .LVU230
 629 03b4 D5F800E0 	 ldr lr,[r5]
 445:Drivers/STM32G4xx_HAL_Driver/Src/stm32g4xx_hal_opamp_ex.c ****     {
 630              	 .loc 1 445 27 view .LVU231
 631 03b8 DEF80030 	 ldr r3,[lr]
 445:Drivers/STM32G4xx_HAL_Driver/Src/stm32g4xx_hal_opamp_ex.c ****     {
 632              	 .loc 1 445 8 view .LVU232
 633 03bc 5B00     	 lsls r3,r3,#1
 634 03be 0CD5     	 bpl .L17
 448:Drivers/STM32G4xx_HAL_Driver/Src/stm32g4xx_hal_opamp_ex.c ****       /* Set right trimming */
ARM GAS   			page 31


 635              	 .loc 1 448 7 is_stmt 1 view .LVU233
 448:Drivers/STM32G4xx_HAL_Driver/Src/stm32g4xx_hal_opamp_ex.c ****       /* Set right trimming */
 636              	 .loc 1 448 22 is_stmt 0 view .LVU234
 637 03c0 039A     	 ldr r2,[sp,#12]
 450:Drivers/STM32G4xx_HAL_Driver/Src/stm32g4xx_hal_opamp_ex.c ****     }
 638              	 .loc 1 450 7 view .LVU235
 639 03c2 DEF80030 	 ldr r3,[lr]
 448:Drivers/STM32G4xx_HAL_Driver/Src/stm32g4xx_hal_opamp_ex.c ****       /* Set right trimming */
 640              	 .loc 1 448 22 view .LVU236
 641 03c6 0132     	 adds r2,r2,#1
 450:Drivers/STM32G4xx_HAL_Driver/Src/stm32g4xx_hal_opamp_ex.c ****     }
 642              	 .loc 1 450 7 view .LVU237
 643 03c8 23F0F853 	 bic r3,r3,#520093696
 644 03cc 43EA0263 	 orr r3,r3,r2,lsl#24
 645 03d0 CEF80030 	 str r3,[lr]
 646 03d4 1306     	 lsls r3,r2,#24
 448:Drivers/STM32G4xx_HAL_Driver/Src/stm32g4xx_hal_opamp_ex.c ****       /* Set right trimming */
 647              	 .loc 1 448 22 view .LVU238
 648 03d6 0392     	 str r2,[sp,#12]
 649              	.LVL38:
 450:Drivers/STM32G4xx_HAL_Driver/Src/stm32g4xx_hal_opamp_ex.c ****     }
 650              	 .loc 1 450 7 is_stmt 1 view .LVU239
 651 03d8 0F93     	 str r3,[sp,#60]
 652              	.LVL39:
 653              	.L17:
 453:Drivers/STM32G4xx_HAL_Driver/Src/stm32g4xx_hal_opamp_ex.c ****     {
 654              	 .loc 1 453 5 view .LVU240
 453:Drivers/STM32G4xx_HAL_Driver/Src/stm32g4xx_hal_opamp_ex.c ****     {
 655              	 .loc 1 453 17 is_stmt 0 view .LVU241
 656 03da D6F800C0 	 ldr ip,[r6]
 453:Drivers/STM32G4xx_HAL_Driver/Src/stm32g4xx_hal_opamp_ex.c ****     {
 657              	 .loc 1 453 27 view .LVU242
 658 03de DCF80030 	 ldr r3,[ip]
 453:Drivers/STM32G4xx_HAL_Driver/Src/stm32g4xx_hal_opamp_ex.c ****     {
 659              	 .loc 1 453 8 view .LVU243
 660 03e2 5800     	 lsls r0,r3,#1
 661 03e4 0CD5     	 bpl .L18
 456:Drivers/STM32G4xx_HAL_Driver/Src/stm32g4xx_hal_opamp_ex.c ****       /* Set right trimming */
 662              	 .loc 1 456 7 is_stmt 1 view .LVU244
 456:Drivers/STM32G4xx_HAL_Driver/Src/stm32g4xx_hal_opamp_ex.c ****       /* Set right trimming */
 663              	 .loc 1 456 22 is_stmt 0 view .LVU245
 664 03e6 099A     	 ldr r2,[sp,#36]
 458:Drivers/STM32G4xx_HAL_Driver/Src/stm32g4xx_hal_opamp_ex.c ****     }
 665              	 .loc 1 458 7 view .LVU246
 666 03e8 DCF80030 	 ldr r3,[ip]
 456:Drivers/STM32G4xx_HAL_Driver/Src/stm32g4xx_hal_opamp_ex.c ****       /* Set right trimming */
 667              	 .loc 1 456 22 view .LVU247
 668 03ec 0132     	 adds r2,r2,#1
 458:Drivers/STM32G4xx_HAL_Driver/Src/stm32g4xx_hal_opamp_ex.c ****     }
 669              	 .loc 1 458 7 view .LVU248
 670 03ee 23F0F853 	 bic r3,r3,#520093696
 671 03f2 43EA0263 	 orr r3,r3,r2,lsl#24
 672 03f6 CCF80030 	 str r3,[ip]
 673 03fa 1306     	 lsls r3,r2,#24
 456:Drivers/STM32G4xx_HAL_Driver/Src/stm32g4xx_hal_opamp_ex.c ****       /* Set right trimming */
 674              	 .loc 1 456 22 view .LVU249
 675 03fc 0992     	 str r2,[sp,#36]
ARM GAS   			page 32


 676              	.LVL40:
 458:Drivers/STM32G4xx_HAL_Driver/Src/stm32g4xx_hal_opamp_ex.c ****     }
 677              	 .loc 1 458 7 is_stmt 1 view .LVU250
 678 03fe 1093     	 str r3,[sp,#64]
 679              	.LVL41:
 680              	.L18:
 464:Drivers/STM32G4xx_HAL_Driver/Src/stm32g4xx_hal_opamp_ex.c ****     {
 681              	 .loc 1 464 5 view .LVU251
 464:Drivers/STM32G4xx_HAL_Driver/Src/stm32g4xx_hal_opamp_ex.c ****     {
 682              	 .loc 1 464 17 is_stmt 0 view .LVU252
 683 0400 3868     	 ldr r0,[r7]
 464:Drivers/STM32G4xx_HAL_Driver/Src/stm32g4xx_hal_opamp_ex.c ****     {
 684              	 .loc 1 464 27 view .LVU253
 685 0402 0368     	 ldr r3,[r0]
 464:Drivers/STM32G4xx_HAL_Driver/Src/stm32g4xx_hal_opamp_ex.c ****     {
 686              	 .loc 1 464 8 view .LVU254
 687 0404 5900     	 lsls r1,r3,#1
 688 0406 0AD5     	 bpl .L19
 467:Drivers/STM32G4xx_HAL_Driver/Src/stm32g4xx_hal_opamp_ex.c ****       /* Set right trimming */
 689              	 .loc 1 467 7 is_stmt 1 view .LVU255
 467:Drivers/STM32G4xx_HAL_Driver/Src/stm32g4xx_hal_opamp_ex.c ****       /* Set right trimming */
 690              	 .loc 1 467 22 is_stmt 0 view .LVU256
 691 0408 0D9A     	 ldr r2,[sp,#52]
 469:Drivers/STM32G4xx_HAL_Driver/Src/stm32g4xx_hal_opamp_ex.c ****     }
 692              	 .loc 1 469 7 view .LVU257
 693 040a 0368     	 ldr r3,[r0]
 467:Drivers/STM32G4xx_HAL_Driver/Src/stm32g4xx_hal_opamp_ex.c ****       /* Set right trimming */
 694              	 .loc 1 467 22 view .LVU258
 695 040c 0132     	 adds r2,r2,#1
 469:Drivers/STM32G4xx_HAL_Driver/Src/stm32g4xx_hal_opamp_ex.c ****     }
 696              	 .loc 1 469 7 view .LVU259
 697 040e 23F0F853 	 bic r3,r3,#520093696
 698 0412 43EA0263 	 orr r3,r3,r2,lsl#24
 699 0416 0360     	 str r3,[r0]
 700 0418 1306     	 lsls r3,r2,#24
 467:Drivers/STM32G4xx_HAL_Driver/Src/stm32g4xx_hal_opamp_ex.c ****       /* Set right trimming */
 701              	 .loc 1 467 22 view .LVU260
 702 041a 0D92     	 str r2,[sp,#52]
 703              	.LVL42:
 469:Drivers/STM32G4xx_HAL_Driver/Src/stm32g4xx_hal_opamp_ex.c ****     }
 704              	 .loc 1 469 7 is_stmt 1 view .LVU261
 705 041c 1193     	 str r3,[sp,#68]
 706              	.LVL43:
 707              	.L19:
 472:Drivers/STM32G4xx_HAL_Driver/Src/stm32g4xx_hal_opamp_ex.c ****     {
 708              	 .loc 1 472 5 view .LVU262
 472:Drivers/STM32G4xx_HAL_Driver/Src/stm32g4xx_hal_opamp_ex.c ****     {
 709              	 .loc 1 472 17 is_stmt 0 view .LVU263
 710 041e 209B     	 ldr r3,[sp,#128]
 711 0420 1968     	 ldr r1,[r3]
 712 0422 0291     	 str r1,[sp,#8]
 472:Drivers/STM32G4xx_HAL_Driver/Src/stm32g4xx_hal_opamp_ex.c ****     {
 713              	 .loc 1 472 27 view .LVU264
 714 0424 0B68     	 ldr r3,[r1]
 472:Drivers/STM32G4xx_HAL_Driver/Src/stm32g4xx_hal_opamp_ex.c ****     {
 715              	 .loc 1 472 8 view .LVU265
 716 0426 5A00     	 lsls r2,r3,#1
ARM GAS   			page 33


 717 0428 0AD5     	 bpl .L20
 475:Drivers/STM32G4xx_HAL_Driver/Src/stm32g4xx_hal_opamp_ex.c ****       /* Set right trimming */
 718              	 .loc 1 475 7 is_stmt 1 view .LVU266
 475:Drivers/STM32G4xx_HAL_Driver/Src/stm32g4xx_hal_opamp_ex.c ****       /* Set right trimming */
 719              	 .loc 1 475 22 is_stmt 0 view .LVU267
 720 042a 0B9A     	 ldr r2,[sp,#44]
 477:Drivers/STM32G4xx_HAL_Driver/Src/stm32g4xx_hal_opamp_ex.c ****     }
 721              	 .loc 1 477 7 view .LVU268
 722 042c 0B68     	 ldr r3,[r1]
 475:Drivers/STM32G4xx_HAL_Driver/Src/stm32g4xx_hal_opamp_ex.c ****       /* Set right trimming */
 723              	 .loc 1 475 22 view .LVU269
 724 042e 0132     	 adds r2,r2,#1
 477:Drivers/STM32G4xx_HAL_Driver/Src/stm32g4xx_hal_opamp_ex.c ****     }
 725              	 .loc 1 477 7 view .LVU270
 726 0430 23F0F853 	 bic r3,r3,#520093696
 727 0434 43EA0263 	 orr r3,r3,r2,lsl#24
 728 0438 0B60     	 str r3,[r1]
 729 043a 1306     	 lsls r3,r2,#24
 475:Drivers/STM32G4xx_HAL_Driver/Src/stm32g4xx_hal_opamp_ex.c ****       /* Set right trimming */
 730              	 .loc 1 475 22 view .LVU271
 731 043c 0B92     	 str r2,[sp,#44]
 732              	.LVL44:
 477:Drivers/STM32G4xx_HAL_Driver/Src/stm32g4xx_hal_opamp_ex.c ****     }
 733              	 .loc 1 477 7 is_stmt 1 view .LVU272
 734 043e 1293     	 str r3,[sp,#72]
 735              	.LVL45:
 736              	.L20:
 480:Drivers/STM32G4xx_HAL_Driver/Src/stm32g4xx_hal_opamp_ex.c ****     {
 737              	 .loc 1 480 5 view .LVU273
 480:Drivers/STM32G4xx_HAL_Driver/Src/stm32g4xx_hal_opamp_ex.c ****     {
 738              	 .loc 1 480 17 is_stmt 0 view .LVU274
 739 0440 219B     	 ldr r3,[sp,#132]
 740 0442 1A68     	 ldr r2,[r3]
 480:Drivers/STM32G4xx_HAL_Driver/Src/stm32g4xx_hal_opamp_ex.c ****     {
 741              	 .loc 1 480 27 view .LVU275
 742 0444 1368     	 ldr r3,[r2]
 480:Drivers/STM32G4xx_HAL_Driver/Src/stm32g4xx_hal_opamp_ex.c ****     {
 743              	 .loc 1 480 8 view .LVU276
 744 0446 5B00     	 lsls r3,r3,#1
 745 0448 0AD5     	 bpl .L21
 483:Drivers/STM32G4xx_HAL_Driver/Src/stm32g4xx_hal_opamp_ex.c ****       /* Set right trimming */
 746              	 .loc 1 483 7 is_stmt 1 view .LVU277
 485:Drivers/STM32G4xx_HAL_Driver/Src/stm32g4xx_hal_opamp_ex.c ****     }
 747              	 .loc 1 485 7 is_stmt 0 view .LVU278
 748 044a 1368     	 ldr r3,[r2]
 483:Drivers/STM32G4xx_HAL_Driver/Src/stm32g4xx_hal_opamp_ex.c ****       /* Set right trimming */
 749              	 .loc 1 483 22 view .LVU279
 750 044c 09F10109 	 add r9,r9,#1
 751              	.LVL46:
 485:Drivers/STM32G4xx_HAL_Driver/Src/stm32g4xx_hal_opamp_ex.c ****     }
 752              	 .loc 1 485 7 is_stmt 1 view .LVU280
 753 0450 23F0F853 	 bic r3,r3,#520093696
 754 0454 43EA0963 	 orr r3,r3,r9,lsl#24
 755 0458 1360     	 str r3,[r2]
 756 045a 4FEA0963 	 lsl r3,r9,#24
 757 045e 1393     	 str r3,[sp,#76]
 758              	.L21:
ARM GAS   			page 34


 500:Drivers/STM32G4xx_HAL_Driver/Src/stm32g4xx_hal_opamp_ex.c **** #if defined(STM32GBK1CB) || defined(STM32G431xx) || defined(STM32G441xx) || defined(STM32G471xx) ||
 759              	 .loc 1 500 5 view .LVU281
 760 0460 DBF80030 	 ldr r3,[fp]
 510:Drivers/STM32G4xx_HAL_Driver/Src/stm32g4xx_hal_opamp_ex.c ****     MODIFY_REG(hopamp6->Instance->CSR, OPAMP_CSR_CALSEL, OPAMP_VREF_10VDDA);
 761              	 .loc 1 510 5 is_stmt 0 view .LVU282
 762 0464 0299     	 ldr r1,[sp,#8]
 518:Drivers/STM32G4xx_HAL_Driver/Src/stm32g4xx_hal_opamp_ex.c **** #if defined(STM32GBK1CB) || defined(STM32G431xx) || defined(STM32G441xx) || defined(STM32G471xx) ||
 763              	 .loc 1 518 21 view .LVU283
 764 0466 0696     	 str r6,[sp,#24]
 765              	.LVL47:
 500:Drivers/STM32G4xx_HAL_Driver/Src/stm32g4xx_hal_opamp_ex.c **** #if defined(STM32GBK1CB) || defined(STM32G431xx) || defined(STM32G441xx) || defined(STM32G471xx) ||
 766              	 .loc 1 500 5 view .LVU284
 767 0468 23F44053 	 bic r3,r3,#12288
 768 046c 43F48053 	 orr r3,r3,#4096
 769 0470 CBF80030 	 str r3,[fp]
 504:Drivers/STM32G4xx_HAL_Driver/Src/stm32g4xx_hal_opamp_ex.c ****     MODIFY_REG(hopamp3->Instance->CSR, OPAMP_CSR_CALSEL, OPAMP_VREF_10VDDA);
 770              	 .loc 1 504 5 is_stmt 1 view .LVU285
 771 0474 DEF80030 	 ldr r3,[lr]
 518:Drivers/STM32G4xx_HAL_Driver/Src/stm32g4xx_hal_opamp_ex.c **** #if defined(STM32GBK1CB) || defined(STM32G431xx) || defined(STM32G441xx) || defined(STM32G471xx) ||
 772              	 .loc 1 518 21 is_stmt 0 view .LVU286
 773 0478 CDF85090 	 str r9,[sp,#80]
 504:Drivers/STM32G4xx_HAL_Driver/Src/stm32g4xx_hal_opamp_ex.c ****     MODIFY_REG(hopamp3->Instance->CSR, OPAMP_CSR_CALSEL, OPAMP_VREF_10VDDA);
 774              	 .loc 1 504 5 view .LVU287
 775 047c 23F44053 	 bic r3,r3,#12288
 776 0480 43F48053 	 orr r3,r3,#4096
 777 0484 CEF80030 	 str r3,[lr]
 505:Drivers/STM32G4xx_HAL_Driver/Src/stm32g4xx_hal_opamp_ex.c **** #endif /* STM32GBK1CB || STM32G431xx || STM32G441xx || STM32G471xx || STM32G473xx || STM32G474xx ||
 778              	 .loc 1 505 5 is_stmt 1 view .LVU288
 779 0488 DCF80030 	 ldr r3,[ip]
 518:Drivers/STM32G4xx_HAL_Driver/Src/stm32g4xx_hal_opamp_ex.c **** #if defined(STM32GBK1CB) || defined(STM32G431xx) || defined(STM32G441xx) || defined(STM32G471xx) ||
 780              	 .loc 1 518 21 is_stmt 0 view .LVU289
 781 048c 0494     	 str r4,[sp,#16]
 782              	.LVL48:
 505:Drivers/STM32G4xx_HAL_Driver/Src/stm32g4xx_hal_opamp_ex.c **** #endif /* STM32GBK1CB || STM32G431xx || STM32G441xx || STM32G471xx || STM32G473xx || STM32G474xx ||
 783              	 .loc 1 505 5 view .LVU290
 784 048e 23F44053 	 bic r3,r3,#12288
 785 0492 43F48053 	 orr r3,r3,#4096
 786 0496 CCF80030 	 str r3,[ip]
 509:Drivers/STM32G4xx_HAL_Driver/Src/stm32g4xx_hal_opamp_ex.c ****     MODIFY_REG(hopamp5->Instance->CSR, OPAMP_CSR_CALSEL, OPAMP_VREF_10VDDA);
 787              	 .loc 1 509 5 is_stmt 1 view .LVU291
 788 049a 0368     	 ldr r3,[r0]
 518:Drivers/STM32G4xx_HAL_Driver/Src/stm32g4xx_hal_opamp_ex.c **** #if defined(STM32GBK1CB) || defined(STM32G431xx) || defined(STM32G441xx) || defined(STM32G471xx) ||
 789              	 .loc 1 518 21 is_stmt 0 view .LVU292
 790 049c 0595     	 str r5,[sp,#20]
 791              	.LVL49:
 509:Drivers/STM32G4xx_HAL_Driver/Src/stm32g4xx_hal_opamp_ex.c ****     MODIFY_REG(hopamp5->Instance->CSR, OPAMP_CSR_CALSEL, OPAMP_VREF_10VDDA);
 792              	 .loc 1 509 5 view .LVU293
 793 049e 23F44053 	 bic r3,r3,#12288
 794 04a2 43F48053 	 orr r3,r3,#4096
 795 04a6 0360     	 str r3,[r0]
 510:Drivers/STM32G4xx_HAL_Driver/Src/stm32g4xx_hal_opamp_ex.c ****     MODIFY_REG(hopamp6->Instance->CSR, OPAMP_CSR_CALSEL, OPAMP_VREF_10VDDA);
 796              	 .loc 1 510 5 is_stmt 1 view .LVU294
 797 04a8 0B68     	 ldr r3,[r1]
 518:Drivers/STM32G4xx_HAL_Driver/Src/stm32g4xx_hal_opamp_ex.c **** #if defined(STM32GBK1CB) || defined(STM32G431xx) || defined(STM32G441xx) || defined(STM32G471xx) ||
 798              	 .loc 1 518 21 is_stmt 0 view .LVU295
 799 04aa 0797     	 str r7,[sp,#28]
 800              	.LVL50:
ARM GAS   			page 35


 510:Drivers/STM32G4xx_HAL_Driver/Src/stm32g4xx_hal_opamp_ex.c ****     MODIFY_REG(hopamp6->Instance->CSR, OPAMP_CSR_CALSEL, OPAMP_VREF_10VDDA);
 801              	 .loc 1 510 5 view .LVU296
 802 04ac 23F44053 	 bic r3,r3,#12288
 803 04b0 43F48053 	 orr r3,r3,#4096
 804 04b4 0B60     	 str r3,[r1]
 511:Drivers/STM32G4xx_HAL_Driver/Src/stm32g4xx_hal_opamp_ex.c **** #elif defined(STM32G491xx) || defined(STM32G4A1xx)
 805              	 .loc 1 511 5 is_stmt 1 view .LVU297
 806 04b6 1368     	 ldr r3,[r2]
 807 04b8 23F44053 	 bic r3,r3,#12288
 808 04bc 43F48053 	 orr r3,r3,#4096
 529:Drivers/STM32G4xx_HAL_Driver/Src/stm32g4xx_hal_opamp_ex.c **** #elif defined(STM32G491xx) || defined(STM32G4A1xx)
 809              	 .loc 1 529 21 is_stmt 0 view .LVU298
 810 04c0 4FF0100A 	 mov r10,#16
 511:Drivers/STM32G4xx_HAL_Driver/Src/stm32g4xx_hal_opamp_ex.c **** #elif defined(STM32G491xx) || defined(STM32G4A1xx)
 811              	 .loc 1 511 5 view .LVU299
 812 04c4 1360     	 str r3,[r2]
 518:Drivers/STM32G4xx_HAL_Driver/Src/stm32g4xx_hal_opamp_ex.c **** #if defined(STM32GBK1CB) || defined(STM32G431xx) || defined(STM32G441xx) || defined(STM32G471xx) ||
 813              	 .loc 1 518 5 is_stmt 1 view .LVU300
 814              	.LVL51:
 522:Drivers/STM32G4xx_HAL_Driver/Src/stm32g4xx_hal_opamp_ex.c ****     trimmingvaluep3 = 16UL;
 815              	 .loc 1 522 5 view .LVU301
 523:Drivers/STM32G4xx_HAL_Driver/Src/stm32g4xx_hal_opamp_ex.c **** #endif /* STM32GBK1CB || STM32G431xx || STM32G441xx || STM32G471xx || STM32G473xx || STM32G474xx ||
 816              	 .loc 1 523 5 view .LVU302
 527:Drivers/STM32G4xx_HAL_Driver/Src/stm32g4xx_hal_opamp_ex.c ****     trimmingvaluep5 = 16UL;
 817              	 .loc 1 527 5 view .LVU303
 528:Drivers/STM32G4xx_HAL_Driver/Src/stm32g4xx_hal_opamp_ex.c ****     trimmingvaluep6 = 16UL;
 818              	 .loc 1 528 5 view .LVU304
 529:Drivers/STM32G4xx_HAL_Driver/Src/stm32g4xx_hal_opamp_ex.c **** #elif defined(STM32G491xx) || defined(STM32G4A1xx)
 819              	 .loc 1 529 5 view .LVU305
 534:Drivers/STM32G4xx_HAL_Driver/Src/stm32g4xx_hal_opamp_ex.c **** 
 820              	 .loc 1 534 5 view .LVU306
 536:Drivers/STM32G4xx_HAL_Driver/Src/stm32g4xx_hal_opamp_ex.c ****     {
 821              	 .loc 1 536 5 view .LVU307
 536:Drivers/STM32G4xx_HAL_Driver/Src/stm32g4xx_hal_opamp_ex.c ****     {
 822              	 .loc 1 536 18 view .LVU308
 518:Drivers/STM32G4xx_HAL_Driver/Src/stm32g4xx_hal_opamp_ex.c **** #if defined(STM32GBK1CB) || defined(STM32G431xx) || defined(STM32G441xx) || defined(STM32G471xx) ||
 823              	 .loc 1 518 21 is_stmt 0 view .LVU309
 824 04c6 6646     	 mov r6,ip
 511:Drivers/STM32G4xx_HAL_Driver/Src/stm32g4xx_hal_opamp_ex.c **** #elif defined(STM32G491xx) || defined(STM32G4A1xx)
 825              	 .loc 1 511 5 view .LVU310
 826 04c8 0423     	 movs r3,#4
 518:Drivers/STM32G4xx_HAL_Driver/Src/stm32g4xx_hal_opamp_ex.c **** #if defined(STM32GBK1CB) || defined(STM32G431xx) || defined(STM32G441xx) || defined(STM32G471xx) ||
 827              	 .loc 1 518 21 view .LVU311
 828 04ca DDF808C0 	 ldr ip,[sp,#8]
 511:Drivers/STM32G4xx_HAL_Driver/Src/stm32g4xx_hal_opamp_ex.c **** #elif defined(STM32G491xx) || defined(STM32G4A1xx)
 829              	 .loc 1 511 5 view .LVU312
 830 04ce 0093     	 str r3,[sp]
 518:Drivers/STM32G4xx_HAL_Driver/Src/stm32g4xx_hal_opamp_ex.c **** #if defined(STM32GBK1CB) || defined(STM32G431xx) || defined(STM32G441xx) || defined(STM32G471xx) ||
 831              	 .loc 1 518 21 view .LVU313
 832 04d0 5C46     	 mov r4,fp
 833 04d2 7546     	 mov r5,lr
 534:Drivers/STM32G4xx_HAL_Driver/Src/stm32g4xx_hal_opamp_ex.c **** 
 834              	 .loc 1 534 11 view .LVU314
 835 04d4 4FF00808 	 mov r8,#8
 518:Drivers/STM32G4xx_HAL_Driver/Src/stm32g4xx_hal_opamp_ex.c **** #if defined(STM32GBK1CB) || defined(STM32G431xx) || defined(STM32G441xx) || defined(STM32G471xx) ||
 836              	 .loc 1 518 21 view .LVU315
 837 04d8 9646     	 mov lr,r2
ARM GAS   			page 36


 527:Drivers/STM32G4xx_HAL_Driver/Src/stm32g4xx_hal_opamp_ex.c ****     trimmingvaluep5 = 16UL;
 838              	 .loc 1 527 21 view .LVU316
 839 04da CDF804A0 	 str r10,[sp,#4]
 522:Drivers/STM32G4xx_HAL_Driver/Src/stm32g4xx_hal_opamp_ex.c ****     trimmingvaluep3 = 16UL;
 840              	 .loc 1 522 21 view .LVU317
 841 04de 5146     	 mov r1,r10
 518:Drivers/STM32G4xx_HAL_Driver/Src/stm32g4xx_hal_opamp_ex.c **** #if defined(STM32GBK1CB) || defined(STM32G431xx) || defined(STM32G441xx) || defined(STM32G471xx) ||
 842              	 .loc 1 518 21 view .LVU318
 843 04e0 D146     	 mov r9,r10
 844              	.LVL52:
 518:Drivers/STM32G4xx_HAL_Driver/Src/stm32g4xx_hal_opamp_ex.c **** #if defined(STM32GBK1CB) || defined(STM32G431xx) || defined(STM32G441xx) || defined(STM32G471xx) ||
 845              	 .loc 1 518 21 view .LVU319
 846 04e2 D346     	 mov fp,r10
 847 04e4 5246     	 mov r2,r10
 848 04e6 5746     	 mov r7,r10
 849              	.LVL53:
 850              	.L34:
 539:Drivers/STM32G4xx_HAL_Driver/Src/stm32g4xx_hal_opamp_ex.c **** #if defined(STM32GBK1CB) || defined(STM32G431xx) || defined(STM32G441xx) || defined(STM32G471xx) ||
 851              	 .loc 1 539 7 is_stmt 1 view .LVU320
 852 04e8 2368     	 ldr r3,[r4]
 549:Drivers/STM32G4xx_HAL_Driver/Src/stm32g4xx_hal_opamp_ex.c ****       MODIFY_REG(hopamp6->Instance->CSR, OPAMP_CSR_TRIMOFFSETP, trimmingvaluep6 << OPAMP_INPUT_NONI
 853              	 .loc 1 549 7 is_stmt 0 view .LVU321
 854 04ea 0292     	 str r2,[sp,#8]
 539:Drivers/STM32G4xx_HAL_Driver/Src/stm32g4xx_hal_opamp_ex.c **** #if defined(STM32GBK1CB) || defined(STM32G431xx) || defined(STM32G441xx) || defined(STM32G471xx) ||
 855              	 .loc 1 539 7 view .LVU322
 856 04ec 23F47803 	 bic r3,r3,#16252928
 857 04f0 43EAC743 	 orr r3,r3,r7,lsl#19
 858 04f4 2360     	 str r3,[r4]
 543:Drivers/STM32G4xx_HAL_Driver/Src/stm32g4xx_hal_opamp_ex.c ****       MODIFY_REG(hopamp3->Instance->CSR, OPAMP_CSR_TRIMOFFSETP, trimmingvaluep3 << OPAMP_INPUT_NONI
 859              	 .loc 1 543 7 is_stmt 1 view .LVU323
 860 04f6 2B68     	 ldr r3,[r5]
 550:Drivers/STM32G4xx_HAL_Driver/Src/stm32g4xx_hal_opamp_ex.c **** #elif defined(STM32G491xx) || defined(STM32G4A1xx)
 861              	 .loc 1 550 7 is_stmt 0 view .LVU324
 862 04f8 0191     	 str r1,[sp,#4]
 543:Drivers/STM32G4xx_HAL_Driver/Src/stm32g4xx_hal_opamp_ex.c ****       MODIFY_REG(hopamp3->Instance->CSR, OPAMP_CSR_TRIMOFFSETP, trimmingvaluep3 << OPAMP_INPUT_NONI
 863              	 .loc 1 543 7 view .LVU325
 864 04fa 23F47803 	 bic r3,r3,#16252928
 865 04fe 43EAC943 	 orr r3,r3,r9,lsl#19
 866 0502 2B60     	 str r3,[r5]
 544:Drivers/STM32G4xx_HAL_Driver/Src/stm32g4xx_hal_opamp_ex.c **** #endif /* STM32GBK1CB || STM32G431xx || STM32G441xx || STM32G471xx || STM32G473xx || STM32G474xx ||
 867              	 .loc 1 544 7 is_stmt 1 view .LVU326
 868 0504 3368     	 ldr r3,[r6]
 869 0506 23F47803 	 bic r3,r3,#16252928
 870 050a 43EACB43 	 orr r3,r3,fp,lsl#19
 871 050e 3360     	 str r3,[r6]
 548:Drivers/STM32G4xx_HAL_Driver/Src/stm32g4xx_hal_opamp_ex.c ****       MODIFY_REG(hopamp5->Instance->CSR, OPAMP_CSR_TRIMOFFSETP, trimmingvaluep5 << OPAMP_INPUT_NONI
 872              	 .loc 1 548 7 view .LVU327
 873 0510 0368     	 ldr r3,[r0]
 874 0512 23F47803 	 bic r3,r3,#16252928
 875 0516 43EACA43 	 orr r3,r3,r10,lsl#19
 876 051a 0360     	 str r3,[r0]
 549:Drivers/STM32G4xx_HAL_Driver/Src/stm32g4xx_hal_opamp_ex.c ****       MODIFY_REG(hopamp6->Instance->CSR, OPAMP_CSR_TRIMOFFSETP, trimmingvaluep6 << OPAMP_INPUT_NONI
 877              	 .loc 1 549 7 view .LVU328
 878 051c DCF80030 	 ldr r3,[ip]
 879 0520 23F47803 	 bic r3,r3,#16252928
 880 0524 43EAC243 	 orr r3,r3,r2,lsl#19
 881 0528 CCF80030 	 str r3,[ip]
ARM GAS   			page 37


 550:Drivers/STM32G4xx_HAL_Driver/Src/stm32g4xx_hal_opamp_ex.c **** #elif defined(STM32G491xx) || defined(STM32G4A1xx)
 882              	 .loc 1 550 7 view .LVU329
 883 052c DEF80030 	 ldr r3,[lr]
 884 0530 23F47803 	 bic r3,r3,#16252928
 885 0534 43EAC143 	 orr r3,r3,r1,lsl#19
 886 0538 CEF80030 	 str r3,[lr]
 558:Drivers/STM32G4xx_HAL_Driver/Src/stm32g4xx_hal_opamp_ex.c **** 
 887              	 .loc 1 558 7 view .LVU330
 888 053c 0220     	 movs r0,#2
 889 053e FFF7FEFF 	 bl HAL_Delay
 890              	.LVL54:
 560:Drivers/STM32G4xx_HAL_Driver/Src/stm32g4xx_hal_opamp_ex.c ****       {
 891              	 .loc 1 560 7 view .LVU331
 560:Drivers/STM32G4xx_HAL_Driver/Src/stm32g4xx_hal_opamp_ex.c ****       {
 892              	 .loc 1 560 19 is_stmt 0 view .LVU332
 893 0542 049B     	 ldr r3,[sp,#16]
 894 0544 1C68     	 ldr r4,[r3]
 560:Drivers/STM32G4xx_HAL_Driver/Src/stm32g4xx_hal_opamp_ex.c ****       {
 895              	 .loc 1 560 29 view .LVU333
 896 0546 2368     	 ldr r3,[r4]
 560:Drivers/STM32G4xx_HAL_Driver/Src/stm32g4xx_hal_opamp_ex.c ****       {
 897              	 .loc 1 560 10 view .LVU334
 898 0548 13F0804F 	 tst r3,#1073741824
 573:Drivers/STM32G4xx_HAL_Driver/Src/stm32g4xx_hal_opamp_ex.c ****       {
 899              	 .loc 1 573 19 view .LVU335
 900 054c 059B     	 ldr r3,[sp,#20]
 901 054e 1D68     	 ldr r5,[r3]
 573:Drivers/STM32G4xx_HAL_Driver/Src/stm32g4xx_hal_opamp_ex.c ****       {
 902              	 .loc 1 573 29 view .LVU336
 903 0550 2B68     	 ldr r3,[r5]
 563:Drivers/STM32G4xx_HAL_Driver/Src/stm32g4xx_hal_opamp_ex.c ****       }
 904              	 .loc 1 563 25 view .LVU337
 905 0552 14BF     	 ite ne
 906 0554 4744     	 addne r7,r7,r8
 907              	.LVL55:
 567:Drivers/STM32G4xx_HAL_Driver/Src/stm32g4xx_hal_opamp_ex.c ****       }
 908              	 .loc 1 567 25 view .LVU338
 909 0556 A7EB0807 	 subeq r7,r7,r8
 573:Drivers/STM32G4xx_HAL_Driver/Src/stm32g4xx_hal_opamp_ex.c ****       {
 910              	 .loc 1 573 10 view .LVU339
 911 055a 5E00     	 lsls r6,r3,#1
 583:Drivers/STM32G4xx_HAL_Driver/Src/stm32g4xx_hal_opamp_ex.c ****       {
 912              	 .loc 1 583 19 view .LVU340
 913 055c 069B     	 ldr r3,[sp,#24]
 914 055e 1E68     	 ldr r6,[r3]
 583:Drivers/STM32G4xx_HAL_Driver/Src/stm32g4xx_hal_opamp_ex.c ****       {
 915              	 .loc 1 583 29 view .LVU341
 916 0560 3368     	 ldr r3,[r6]
 576:Drivers/STM32G4xx_HAL_Driver/Src/stm32g4xx_hal_opamp_ex.c ****       }
 917              	 .loc 1 576 25 view .LVU342
 918 0562 4CBF     	 ite mi
 919 0564 C144     	 addmi r9,r9,r8
 920              	.LVL56:
 580:Drivers/STM32G4xx_HAL_Driver/Src/stm32g4xx_hal_opamp_ex.c ****       }
 921              	 .loc 1 580 25 view .LVU343
 922 0566 A9EB0809 	 subpl r9,r9,r8
 583:Drivers/STM32G4xx_HAL_Driver/Src/stm32g4xx_hal_opamp_ex.c ****       {
ARM GAS   			page 38


 923              	 .loc 1 583 10 view .LVU344
 924 056a 5800     	 lsls r0,r3,#1
 596:Drivers/STM32G4xx_HAL_Driver/Src/stm32g4xx_hal_opamp_ex.c ****       {
 925              	 .loc 1 596 19 view .LVU345
 926 056c 079B     	 ldr r3,[sp,#28]
 927 056e 1868     	 ldr r0,[r3]
 596:Drivers/STM32G4xx_HAL_Driver/Src/stm32g4xx_hal_opamp_ex.c ****       {
 928              	 .loc 1 596 29 view .LVU346
 929 0570 0368     	 ldr r3,[r0]
 586:Drivers/STM32G4xx_HAL_Driver/Src/stm32g4xx_hal_opamp_ex.c ****       }
 930              	 .loc 1 586 25 view .LVU347
 931 0572 4CBF     	 ite mi
 932 0574 C344     	 addmi fp,fp,r8
 933              	.LVL57:
 590:Drivers/STM32G4xx_HAL_Driver/Src/stm32g4xx_hal_opamp_ex.c ****       }
 934              	 .loc 1 590 25 view .LVU348
 935 0576 ABEB080B 	 subpl fp,fp,r8
 596:Drivers/STM32G4xx_HAL_Driver/Src/stm32g4xx_hal_opamp_ex.c ****       {
 936              	 .loc 1 596 10 view .LVU349
 937 057a 5B00     	 lsls r3,r3,#1
 606:Drivers/STM32G4xx_HAL_Driver/Src/stm32g4xx_hal_opamp_ex.c ****       {
 938              	 .loc 1 606 19 view .LVU350
 939 057c 209B     	 ldr r3,[sp,#128]
 940 057e D3F800C0 	 ldr ip,[r3]
 606:Drivers/STM32G4xx_HAL_Driver/Src/stm32g4xx_hal_opamp_ex.c ****       {
 941              	 .loc 1 606 29 view .LVU351
 942 0582 DCF80030 	 ldr r3,[ip]
 599:Drivers/STM32G4xx_HAL_Driver/Src/stm32g4xx_hal_opamp_ex.c ****       }
 943              	 .loc 1 599 25 view .LVU352
 944 0586 4CBF     	 ite mi
 945 0588 C244     	 addmi r10,r10,r8
 946              	.LVL58:
 603:Drivers/STM32G4xx_HAL_Driver/Src/stm32g4xx_hal_opamp_ex.c ****       }
 947              	 .loc 1 603 25 view .LVU353
 948 058a AAEB080A 	 subpl r10,r10,r8
 606:Drivers/STM32G4xx_HAL_Driver/Src/stm32g4xx_hal_opamp_ex.c ****       {
 949              	 .loc 1 606 10 view .LVU354
 950 058e 5B00     	 lsls r3,r3,#1
 616:Drivers/STM32G4xx_HAL_Driver/Src/stm32g4xx_hal_opamp_ex.c ****       {
 951              	 .loc 1 616 19 view .LVU355
 952 0590 219B     	 ldr r3,[sp,#132]
 953 0592 D3F800E0 	 ldr lr,[r3]
 560:Drivers/STM32G4xx_HAL_Driver/Src/stm32g4xx_hal_opamp_ex.c ****       {
 954              	 .loc 1 560 10 view .LVU356
 955 0596 DDE90112 	 ldrd r1,r2,[sp,#4]
 563:Drivers/STM32G4xx_HAL_Driver/Src/stm32g4xx_hal_opamp_ex.c ****       }
 956              	 .loc 1 563 9 is_stmt 1 view .LVU357
 957              	.LVL59:
 567:Drivers/STM32G4xx_HAL_Driver/Src/stm32g4xx_hal_opamp_ex.c ****       }
 958              	 .loc 1 567 9 view .LVU358
 573:Drivers/STM32G4xx_HAL_Driver/Src/stm32g4xx_hal_opamp_ex.c ****       {
 959              	 .loc 1 573 7 view .LVU359
 576:Drivers/STM32G4xx_HAL_Driver/Src/stm32g4xx_hal_opamp_ex.c ****       }
 960              	 .loc 1 576 9 view .LVU360
 580:Drivers/STM32G4xx_HAL_Driver/Src/stm32g4xx_hal_opamp_ex.c ****       }
 961              	 .loc 1 580 9 view .LVU361
 583:Drivers/STM32G4xx_HAL_Driver/Src/stm32g4xx_hal_opamp_ex.c ****       {
ARM GAS   			page 39


 962              	 .loc 1 583 7 view .LVU362
 586:Drivers/STM32G4xx_HAL_Driver/Src/stm32g4xx_hal_opamp_ex.c ****       }
 963              	 .loc 1 586 9 view .LVU363
 590:Drivers/STM32G4xx_HAL_Driver/Src/stm32g4xx_hal_opamp_ex.c ****       }
 964              	 .loc 1 590 9 view .LVU364
 596:Drivers/STM32G4xx_HAL_Driver/Src/stm32g4xx_hal_opamp_ex.c ****       {
 965              	 .loc 1 596 7 view .LVU365
 599:Drivers/STM32G4xx_HAL_Driver/Src/stm32g4xx_hal_opamp_ex.c ****       }
 966              	 .loc 1 599 9 view .LVU366
 603:Drivers/STM32G4xx_HAL_Driver/Src/stm32g4xx_hal_opamp_ex.c ****       }
 967              	 .loc 1 603 9 view .LVU367
 606:Drivers/STM32G4xx_HAL_Driver/Src/stm32g4xx_hal_opamp_ex.c ****       {
 968              	 .loc 1 606 7 view .LVU368
 609:Drivers/STM32G4xx_HAL_Driver/Src/stm32g4xx_hal_opamp_ex.c ****       }
 969              	 .loc 1 609 9 view .LVU369
 616:Drivers/STM32G4xx_HAL_Driver/Src/stm32g4xx_hal_opamp_ex.c ****       {
 970              	 .loc 1 616 29 is_stmt 0 view .LVU370
 971 059a DEF80030 	 ldr r3,[lr]
 609:Drivers/STM32G4xx_HAL_Driver/Src/stm32g4xx_hal_opamp_ex.c ****       }
 972              	 .loc 1 609 25 view .LVU371
 973 059e 4CBF     	 ite mi
 974 05a0 4244     	 addmi r2,r2,r8
 975              	.LVL60:
 613:Drivers/STM32G4xx_HAL_Driver/Src/stm32g4xx_hal_opamp_ex.c ****       }
 976              	 .loc 1 613 9 is_stmt 1 view .LVU372
 613:Drivers/STM32G4xx_HAL_Driver/Src/stm32g4xx_hal_opamp_ex.c ****       }
 977              	 .loc 1 613 25 is_stmt 0 view .LVU373
 978 05a2 A2EB0802 	 subpl r2,r2,r8
 979              	.LVL61:
 616:Drivers/STM32G4xx_HAL_Driver/Src/stm32g4xx_hal_opamp_ex.c ****       {
 980              	 .loc 1 616 7 is_stmt 1 view .LVU374
 616:Drivers/STM32G4xx_HAL_Driver/Src/stm32g4xx_hal_opamp_ex.c ****       {
 981              	 .loc 1 616 10 is_stmt 0 view .LVU375
 982 05a6 5B00     	 lsls r3,r3,#1
 619:Drivers/STM32G4xx_HAL_Driver/Src/stm32g4xx_hal_opamp_ex.c ****       }
 983              	 .loc 1 619 9 is_stmt 1 view .LVU376
 536:Drivers/STM32G4xx_HAL_Driver/Src/stm32g4xx_hal_opamp_ex.c ****     {
 984              	 .loc 1 536 18 is_stmt 0 view .LVU377
 985 05a8 009B     	 ldr r3,[sp]
 619:Drivers/STM32G4xx_HAL_Driver/Src/stm32g4xx_hal_opamp_ex.c ****       }
 986              	 .loc 1 619 25 view .LVU378
 987 05aa 4CBF     	 ite mi
 988 05ac 4144     	 addmi r1,r1,r8
 989              	.LVL62:
 623:Drivers/STM32G4xx_HAL_Driver/Src/stm32g4xx_hal_opamp_ex.c ****       }
 990              	 .loc 1 623 9 is_stmt 1 view .LVU379
 623:Drivers/STM32G4xx_HAL_Driver/Src/stm32g4xx_hal_opamp_ex.c ****       }
 991              	 .loc 1 623 25 is_stmt 0 view .LVU380
 992 05ae A1EB0801 	 subpl r1,r1,r8
 993              	.LVL63:
 638:Drivers/STM32G4xx_HAL_Driver/Src/stm32g4xx_hal_opamp_ex.c ****     }
 994              	 .loc 1 638 7 is_stmt 1 view .LVU381
 536:Drivers/STM32G4xx_HAL_Driver/Src/stm32g4xx_hal_opamp_ex.c ****     {
 995              	 .loc 1 536 18 is_stmt 0 view .LVU382
 996 05b2 013B     	 subs r3,r3,#1
 638:Drivers/STM32G4xx_HAL_Driver/Src/stm32g4xx_hal_opamp_ex.c ****     }
 997              	 .loc 1 638 13 view .LVU383
ARM GAS   			page 40


 998 05b4 4FEA5808 	 lsr r8,r8,#1
 999              	.LVL64:
 536:Drivers/STM32G4xx_HAL_Driver/Src/stm32g4xx_hal_opamp_ex.c ****     {
 1000              	 .loc 1 536 18 is_stmt 1 view .LVU384
 1001 05b8 0093     	 str r3,[sp]
 1002 05ba 95D1     	 bne .L34
 644:Drivers/STM32G4xx_HAL_Driver/Src/stm32g4xx_hal_opamp_ex.c **** #if defined(STM32GBK1CB) || defined(STM32G431xx) || defined(STM32G441xx) || defined(STM32G471xx) ||
 1003              	 .loc 1 644 5 view .LVU385
 1004 05bc CDF828B0 	 str fp,[sp,#40]
 1005 05c0 A346     	 mov fp,r4
 1006              	.LVL65:
 644:Drivers/STM32G4xx_HAL_Driver/Src/stm32g4xx_hal_opamp_ex.c **** #if defined(STM32GBK1CB) || defined(STM32G431xx) || defined(STM32G441xx) || defined(STM32G471xx) ||
 1007              	 .loc 1 644 5 is_stmt 0 view .LVU386
 1008 05c2 0097     	 str r7,[sp]
 1009 05c4 DBF80030 	 ldr r3,[fp]
 1010 05c8 CDF804A0 	 str r10,[sp,#4]
 1011 05cc 8A46     	 mov r10,r1
 1012              	.LVL66:
 644:Drivers/STM32G4xx_HAL_Driver/Src/stm32g4xx_hal_opamp_ex.c **** #if defined(STM32GBK1CB) || defined(STM32G431xx) || defined(STM32G441xx) || defined(STM32G471xx) ||
 1013              	 .loc 1 644 5 view .LVU387
 1014 05ce 0099     	 ldr r1,[sp]
 1015              	.LVL67:
 644:Drivers/STM32G4xx_HAL_Driver/Src/stm32g4xx_hal_opamp_ex.c **** #if defined(STM32GBK1CB) || defined(STM32G431xx) || defined(STM32G441xx) || defined(STM32G471xx) ||
 1016              	 .loc 1 644 5 view .LVU388
 1017 05d0 CDF82090 	 str r9,[sp,#32]
 1018 05d4 23F47803 	 bic r3,r3,#16252928
 1019 05d8 9046     	 mov r8,r2
 1020              	.LVL68:
 644:Drivers/STM32G4xx_HAL_Driver/Src/stm32g4xx_hal_opamp_ex.c **** #if defined(STM32GBK1CB) || defined(STM32G431xx) || defined(STM32G441xx) || defined(STM32G471xx) ||
 1021              	 .loc 1 644 5 view .LVU389
 1022 05da 43EAC143 	 orr r3,r3,r1,lsl#19
 1023 05de 7246     	 mov r2,lr
 1024              	.LVL69:
 644:Drivers/STM32G4xx_HAL_Driver/Src/stm32g4xx_hal_opamp_ex.c **** #if defined(STM32GBK1CB) || defined(STM32G431xx) || defined(STM32G441xx) || defined(STM32G471xx) ||
 1025              	 .loc 1 644 5 view .LVU390
 1026 05e0 AE46     	 mov lr,r5
 1027 05e2 CBF80030 	 str r3,[fp]
 648:Drivers/STM32G4xx_HAL_Driver/Src/stm32g4xx_hal_opamp_ex.c ****     MODIFY_REG(hopamp3->Instance->CSR, OPAMP_CSR_TRIMOFFSETP, trimmingvaluep3 << OPAMP_INPUT_NONINV
 1028              	 .loc 1 648 5 is_stmt 1 view .LVU391
 1029 05e6 DEF80030 	 ldr r3,[lr]
 1030 05ea 0899     	 ldr r1,[sp,#32]
 644:Drivers/STM32G4xx_HAL_Driver/Src/stm32g4xx_hal_opamp_ex.c **** #if defined(STM32GBK1CB) || defined(STM32G431xx) || defined(STM32G441xx) || defined(STM32G471xx) ||
 1031              	 .loc 1 644 5 is_stmt 0 view .LVU392
 1032 05ec CDF808C0 	 str ip,[sp,#8]
 648:Drivers/STM32G4xx_HAL_Driver/Src/stm32g4xx_hal_opamp_ex.c ****     MODIFY_REG(hopamp3->Instance->CSR, OPAMP_CSR_TRIMOFFSETP, trimmingvaluep3 << OPAMP_INPUT_NONINV
 1033              	 .loc 1 648 5 view .LVU393
 1034 05f0 23F47803 	 bic r3,r3,#16252928
 644:Drivers/STM32G4xx_HAL_Driver/Src/stm32g4xx_hal_opamp_ex.c **** #if defined(STM32GBK1CB) || defined(STM32G431xx) || defined(STM32G441xx) || defined(STM32G471xx) ||
 1035              	 .loc 1 644 5 view .LVU394
 1036 05f4 B446     	 mov ip,r6
 648:Drivers/STM32G4xx_HAL_Driver/Src/stm32g4xx_hal_opamp_ex.c ****     MODIFY_REG(hopamp3->Instance->CSR, OPAMP_CSR_TRIMOFFSETP, trimmingvaluep3 << OPAMP_INPUT_NONINV
 1037              	 .loc 1 648 5 view .LVU395
 1038 05f6 43EAC143 	 orr r3,r3,r1,lsl#19
 1039 05fa CEF80030 	 str r3,[lr]
 649:Drivers/STM32G4xx_HAL_Driver/Src/stm32g4xx_hal_opamp_ex.c **** #endif /* STM32GBK1CB || STM32G431xx || STM32G441xx || STM32G471xx || STM32G473xx || STM32G474xx ||
 1040              	 .loc 1 649 5 is_stmt 1 view .LVU396
 1041 05fe DCF80030 	 ldr r3,[ip]
ARM GAS   			page 41


 1042 0602 0A99     	 ldr r1,[sp,#40]
 644:Drivers/STM32G4xx_HAL_Driver/Src/stm32g4xx_hal_opamp_ex.c **** #if defined(STM32GBK1CB) || defined(STM32G431xx) || defined(STM32G441xx) || defined(STM32G471xx) ||
 1043              	 .loc 1 644 5 is_stmt 0 view .LVU397
 1044 0604 DDF85090 	 ldr r9,[sp,#80]
 1045              	.LVL70:
 649:Drivers/STM32G4xx_HAL_Driver/Src/stm32g4xx_hal_opamp_ex.c **** #endif /* STM32GBK1CB || STM32G431xx || STM32G441xx || STM32G471xx || STM32G473xx || STM32G474xx ||
 1046              	 .loc 1 649 5 view .LVU398
 1047 0608 23F47803 	 bic r3,r3,#16252928
 1048 060c 43EAC143 	 orr r3,r3,r1,lsl#19
 1049 0610 CCF80030 	 str r3,[ip]
 653:Drivers/STM32G4xx_HAL_Driver/Src/stm32g4xx_hal_opamp_ex.c ****     MODIFY_REG(hopamp5->Instance->CSR, OPAMP_CSR_TRIMOFFSETP, trimmingvaluep5 << OPAMP_INPUT_NONINV
 1050              	 .loc 1 653 5 is_stmt 1 view .LVU399
 1051 0614 0368     	 ldr r3,[r0]
 1052 0616 0199     	 ldr r1,[sp,#4]
 1053 0618 23F47803 	 bic r3,r3,#16252928
 1054 061c 43EAC143 	 orr r3,r3,r1,lsl#19
 654:Drivers/STM32G4xx_HAL_Driver/Src/stm32g4xx_hal_opamp_ex.c ****     MODIFY_REG(hopamp6->Instance->CSR, OPAMP_CSR_TRIMOFFSETP, trimmingvaluep6 << OPAMP_INPUT_NONINV
 1055              	 .loc 1 654 5 is_stmt 0 view .LVU400
 1056 0620 0299     	 ldr r1,[sp,#8]
 653:Drivers/STM32G4xx_HAL_Driver/Src/stm32g4xx_hal_opamp_ex.c ****     MODIFY_REG(hopamp5->Instance->CSR, OPAMP_CSR_TRIMOFFSETP, trimmingvaluep5 << OPAMP_INPUT_NONINV
 1057              	 .loc 1 653 5 view .LVU401
 1058 0622 0360     	 str r3,[r0]
 654:Drivers/STM32G4xx_HAL_Driver/Src/stm32g4xx_hal_opamp_ex.c ****     MODIFY_REG(hopamp6->Instance->CSR, OPAMP_CSR_TRIMOFFSETP, trimmingvaluep6 << OPAMP_INPUT_NONINV
 1059              	 .loc 1 654 5 is_stmt 1 view .LVU402
 1060 0624 0B68     	 ldr r3,[r1]
 1061 0626 23F47803 	 bic r3,r3,#16252928
 1062 062a 43EAC843 	 orr r3,r3,r8,lsl#19
 1063 062e 0B60     	 str r3,[r1]
 655:Drivers/STM32G4xx_HAL_Driver/Src/stm32g4xx_hal_opamp_ex.c **** #elif defined(STM32G491xx) || defined(STM32G4A1xx)
 1064              	 .loc 1 655 5 view .LVU403
 1065 0630 1368     	 ldr r3,[r2]
 648:Drivers/STM32G4xx_HAL_Driver/Src/stm32g4xx_hal_opamp_ex.c ****     MODIFY_REG(hopamp3->Instance->CSR, OPAMP_CSR_TRIMOFFSETP, trimmingvaluep3 << OPAMP_INPUT_NONINV
 1066              	 .loc 1 648 5 is_stmt 0 view .LVU404
 1067 0632 0899     	 ldr r1,[sp,#32]
 655:Drivers/STM32G4xx_HAL_Driver/Src/stm32g4xx_hal_opamp_ex.c **** #elif defined(STM32G491xx) || defined(STM32G4A1xx)
 1068              	 .loc 1 655 5 view .LVU405
 1069 0634 23F47803 	 bic r3,r3,#16252928
 1070 0638 43EACA43 	 orr r3,r3,r10,lsl#19
 1071 063c 1360     	 str r3,[r2]
 663:Drivers/STM32G4xx_HAL_Driver/Src/stm32g4xx_hal_opamp_ex.c **** 
 1072              	 .loc 1 663 5 is_stmt 1 view .LVU406
 649:Drivers/STM32G4xx_HAL_Driver/Src/stm32g4xx_hal_opamp_ex.c **** #endif /* STM32GBK1CB || STM32G431xx || STM32G441xx || STM32G471xx || STM32G473xx || STM32G474xx ||
 1073              	 .loc 1 649 5 is_stmt 0 view .LVU407
 1074 063e 0A9B     	 ldr r3,[sp,#40]
 644:Drivers/STM32G4xx_HAL_Driver/Src/stm32g4xx_hal_opamp_ex.c **** #if defined(STM32GBK1CB) || defined(STM32G431xx) || defined(STM32G441xx) || defined(STM32G471xx) ||
 1075              	 .loc 1 644 5 view .LVU408
 1076 0640 009A     	 ldr r2,[sp]
 648:Drivers/STM32G4xx_HAL_Driver/Src/stm32g4xx_hal_opamp_ex.c ****     MODIFY_REG(hopamp3->Instance->CSR, OPAMP_CSR_TRIMOFFSETP, trimmingvaluep3 << OPAMP_INPUT_NONINV
 1077              	 .loc 1 648 5 view .LVU409
 1078 0642 4FEAC14B 	 lsl fp,r1,#19
 644:Drivers/STM32G4xx_HAL_Driver/Src/stm32g4xx_hal_opamp_ex.c **** #if defined(STM32GBK1CB) || defined(STM32G431xx) || defined(STM32G441xx) || defined(STM32G471xx) ||
 1079              	 .loc 1 644 5 view .LVU410
 1080 0646 D204     	 lsls r2,r2,#19
 649:Drivers/STM32G4xx_HAL_Driver/Src/stm32g4xx_hal_opamp_ex.c **** #endif /* STM32GBK1CB || STM32G431xx || STM32G441xx || STM32G471xx || STM32G473xx || STM32G474xx ||
 1081              	 .loc 1 649 5 view .LVU411
 1082 0648 D904     	 lsls r1,r3,#19
 644:Drivers/STM32G4xx_HAL_Driver/Src/stm32g4xx_hal_opamp_ex.c **** #if defined(STM32GBK1CB) || defined(STM32G431xx) || defined(STM32G441xx) || defined(STM32G471xx) ||
ARM GAS   			page 42


 1083              	 .loc 1 644 5 view .LVU412
 1084 064a DDE90445 	 ldrd r4,r5,[sp,#16]
 1085 064e DDE90667 	 ldrd r6,r7,[sp,#24]
 1086              	.LVL71:
 644:Drivers/STM32G4xx_HAL_Driver/Src/stm32g4xx_hal_opamp_ex.c **** #if defined(STM32GBK1CB) || defined(STM32G431xx) || defined(STM32G441xx) || defined(STM32G471xx) ||
 1087              	 .loc 1 644 5 view .LVU413
 1088 0652 0592     	 str r2,[sp,#20]
 654:Drivers/STM32G4xx_HAL_Driver/Src/stm32g4xx_hal_opamp_ex.c ****     MODIFY_REG(hopamp6->Instance->CSR, OPAMP_CSR_TRIMOFFSETP, trimmingvaluep6 << OPAMP_INPUT_NONINV
 1089              	 .loc 1 654 5 view .LVU414
 1090 0654 CDF81080 	 str r8,[sp,#16]
 649:Drivers/STM32G4xx_HAL_Driver/Src/stm32g4xx_hal_opamp_ex.c **** #endif /* STM32GBK1CB || STM32G431xx || STM32G441xx || STM32G471xx || STM32G473xx || STM32G474xx ||
 1091              	 .loc 1 649 5 view .LVU415
 1092 0658 0691     	 str r1,[sp,#24]
 653:Drivers/STM32G4xx_HAL_Driver/Src/stm32g4xx_hal_opamp_ex.c ****     MODIFY_REG(hopamp5->Instance->CSR, OPAMP_CSR_TRIMOFFSETP, trimmingvaluep5 << OPAMP_INPUT_NONINV
 1093              	 .loc 1 653 5 view .LVU416
 1094 065a 019B     	 ldr r3,[sp,#4]
 1095 065c D904     	 lsls r1,r3,#19
 654:Drivers/STM32G4xx_HAL_Driver/Src/stm32g4xx_hal_opamp_ex.c ****     MODIFY_REG(hopamp6->Instance->CSR, OPAMP_CSR_TRIMOFFSETP, trimmingvaluep6 << OPAMP_INPUT_NONINV
 1096              	 .loc 1 654 5 view .LVU417
 1097 065e 4346     	 mov r3,r8
 1098 0660 DB04     	 lsls r3,r3,#19
 1099 0662 1493     	 str r3,[sp,#80]
 1100              	.LVL72:
 663:Drivers/STM32G4xx_HAL_Driver/Src/stm32g4xx_hal_opamp_ex.c **** 
 1101              	 .loc 1 663 5 view .LVU418
 1102 0664 0220     	 movs r0,#2
 655:Drivers/STM32G4xx_HAL_Driver/Src/stm32g4xx_hal_opamp_ex.c **** #elif defined(STM32G491xx) || defined(STM32G4A1xx)
 1103              	 .loc 1 655 5 view .LVU419
 1104 0666 4FEACA43 	 lsl r3,r10,#19
 1105 066a 1593     	 str r3,[sp,#84]
 653:Drivers/STM32G4xx_HAL_Driver/Src/stm32g4xx_hal_opamp_ex.c ****     MODIFY_REG(hopamp5->Instance->CSR, OPAMP_CSR_TRIMOFFSETP, trimmingvaluep5 << OPAMP_INPUT_NONINV
 1106              	 .loc 1 653 5 view .LVU420
 1107 066c 0791     	 str r1,[sp,#28]
 663:Drivers/STM32G4xx_HAL_Driver/Src/stm32g4xx_hal_opamp_ex.c **** 
 1108              	 .loc 1 663 5 view .LVU421
 1109 066e FFF7FEFF 	 bl HAL_Delay
 1110              	.LVL73:
 665:Drivers/STM32G4xx_HAL_Driver/Src/stm32g4xx_hal_opamp_ex.c ****     {
 1111              	 .loc 1 665 5 is_stmt 1 view .LVU422
 665:Drivers/STM32G4xx_HAL_Driver/Src/stm32g4xx_hal_opamp_ex.c ****     {
 1112              	 .loc 1 665 17 is_stmt 0 view .LVU423
 1113 0672 D4F800C0 	 ldr ip,[r4]
 665:Drivers/STM32G4xx_HAL_Driver/Src/stm32g4xx_hal_opamp_ex.c ****     {
 1114              	 .loc 1 665 27 view .LVU424
 1115 0676 DCF80030 	 ldr r3,[ip]
 665:Drivers/STM32G4xx_HAL_Driver/Src/stm32g4xx_hal_opamp_ex.c ****     {
 1116              	 .loc 1 665 8 view .LVU425
 1117 067a 5B00     	 lsls r3,r3,#1
 1118 067c 0CD5     	 bpl .L35
 668:Drivers/STM32G4xx_HAL_Driver/Src/stm32g4xx_hal_opamp_ex.c ****       /* Set right trimming */
 1119              	 .loc 1 668 7 is_stmt 1 view .LVU426
 668:Drivers/STM32G4xx_HAL_Driver/Src/stm32g4xx_hal_opamp_ex.c ****       /* Set right trimming */
 1120              	 .loc 1 668 22 is_stmt 0 view .LVU427
 1121 067e 009A     	 ldr r2,[sp]
 670:Drivers/STM32G4xx_HAL_Driver/Src/stm32g4xx_hal_opamp_ex.c ****     }
 1122              	 .loc 1 670 7 view .LVU428
 1123 0680 DCF80030 	 ldr r3,[ip]
ARM GAS   			page 43


 668:Drivers/STM32G4xx_HAL_Driver/Src/stm32g4xx_hal_opamp_ex.c ****       /* Set right trimming */
 1124              	 .loc 1 668 22 view .LVU429
 1125 0684 0132     	 adds r2,r2,#1
 670:Drivers/STM32G4xx_HAL_Driver/Src/stm32g4xx_hal_opamp_ex.c ****     }
 1126              	 .loc 1 670 7 view .LVU430
 1127 0686 23F47803 	 bic r3,r3,#16252928
 1128 068a 43EAC243 	 orr r3,r3,r2,lsl#19
 1129 068e CCF80030 	 str r3,[ip]
 1130 0692 D304     	 lsls r3,r2,#19
 668:Drivers/STM32G4xx_HAL_Driver/Src/stm32g4xx_hal_opamp_ex.c ****       /* Set right trimming */
 1131              	 .loc 1 668 22 view .LVU431
 1132 0694 0092     	 str r2,[sp]
 1133              	.LVL74:
 670:Drivers/STM32G4xx_HAL_Driver/Src/stm32g4xx_hal_opamp_ex.c ****     }
 1134              	 .loc 1 670 7 is_stmt 1 view .LVU432
 1135 0696 0593     	 str r3,[sp,#20]
 1136              	.LVL75:
 1137              	.L35:
 676:Drivers/STM32G4xx_HAL_Driver/Src/stm32g4xx_hal_opamp_ex.c ****     {
 1138              	 .loc 1 676 5 view .LVU433
 676:Drivers/STM32G4xx_HAL_Driver/Src/stm32g4xx_hal_opamp_ex.c ****     {
 1139              	 .loc 1 676 17 is_stmt 0 view .LVU434
 1140 0698 D5F800E0 	 ldr lr,[r5]
 676:Drivers/STM32G4xx_HAL_Driver/Src/stm32g4xx_hal_opamp_ex.c ****     {
 1141              	 .loc 1 676 27 view .LVU435
 1142 069c DEF80030 	 ldr r3,[lr]
 676:Drivers/STM32G4xx_HAL_Driver/Src/stm32g4xx_hal_opamp_ex.c ****     {
 1143              	 .loc 1 676 8 view .LVU436
 1144 06a0 5800     	 lsls r0,r3,#1
 1145 06a2 0CD5     	 bpl .L36
 679:Drivers/STM32G4xx_HAL_Driver/Src/stm32g4xx_hal_opamp_ex.c ****       /* Set right trimming */
 1146              	 .loc 1 679 7 is_stmt 1 view .LVU437
 679:Drivers/STM32G4xx_HAL_Driver/Src/stm32g4xx_hal_opamp_ex.c ****       /* Set right trimming */
 1147              	 .loc 1 679 22 is_stmt 0 view .LVU438
 1148 06a4 089A     	 ldr r2,[sp,#32]
 681:Drivers/STM32G4xx_HAL_Driver/Src/stm32g4xx_hal_opamp_ex.c ****     }
 1149              	 .loc 1 681 7 view .LVU439
 1150 06a6 DEF80030 	 ldr r3,[lr]
 679:Drivers/STM32G4xx_HAL_Driver/Src/stm32g4xx_hal_opamp_ex.c ****       /* Set right trimming */
 1151              	 .loc 1 679 22 view .LVU440
 1152 06aa 0132     	 adds r2,r2,#1
 681:Drivers/STM32G4xx_HAL_Driver/Src/stm32g4xx_hal_opamp_ex.c ****     }
 1153              	 .loc 1 681 7 view .LVU441
 1154 06ac 23F47803 	 bic r3,r3,#16252928
 1155 06b0 43EAC243 	 orr r3,r3,r2,lsl#19
 679:Drivers/STM32G4xx_HAL_Driver/Src/stm32g4xx_hal_opamp_ex.c ****       /* Set right trimming */
 1156              	 .loc 1 679 22 view .LVU442
 1157 06b4 0892     	 str r2,[sp,#32]
 1158              	.LVL76:
 681:Drivers/STM32G4xx_HAL_Driver/Src/stm32g4xx_hal_opamp_ex.c ****     }
 1159              	 .loc 1 681 7 is_stmt 1 view .LVU443
 1160 06b6 CEF80030 	 str r3,[lr]
 1161 06ba 4FEAC24B 	 lsl fp,r2,#19
 1162              	.LVL77:
 1163              	.L36:
 684:Drivers/STM32G4xx_HAL_Driver/Src/stm32g4xx_hal_opamp_ex.c ****     {
 1164              	 .loc 1 684 5 view .LVU444
ARM GAS   			page 44


 684:Drivers/STM32G4xx_HAL_Driver/Src/stm32g4xx_hal_opamp_ex.c ****     {
 1165              	 .loc 1 684 17 is_stmt 0 view .LVU445
 1166 06be D6F80080 	 ldr r8,[r6]
 1167              	.LVL78:
 684:Drivers/STM32G4xx_HAL_Driver/Src/stm32g4xx_hal_opamp_ex.c ****     {
 1168              	 .loc 1 684 27 view .LVU446
 1169 06c2 D8F80030 	 ldr r3,[r8]
 684:Drivers/STM32G4xx_HAL_Driver/Src/stm32g4xx_hal_opamp_ex.c ****     {
 1170              	 .loc 1 684 8 view .LVU447
 1171 06c6 5900     	 lsls r1,r3,#1
 1172 06c8 0CD5     	 bpl .L37
 687:Drivers/STM32G4xx_HAL_Driver/Src/stm32g4xx_hal_opamp_ex.c ****       /* Set right trimming */
 1173              	 .loc 1 687 7 is_stmt 1 view .LVU448
 687:Drivers/STM32G4xx_HAL_Driver/Src/stm32g4xx_hal_opamp_ex.c ****       /* Set right trimming */
 1174              	 .loc 1 687 22 is_stmt 0 view .LVU449
 1175 06ca 0A9A     	 ldr r2,[sp,#40]
 689:Drivers/STM32G4xx_HAL_Driver/Src/stm32g4xx_hal_opamp_ex.c ****     }
 1176              	 .loc 1 689 7 view .LVU450
 1177 06cc D8F80030 	 ldr r3,[r8]
 687:Drivers/STM32G4xx_HAL_Driver/Src/stm32g4xx_hal_opamp_ex.c ****       /* Set right trimming */
 1178              	 .loc 1 687 22 view .LVU451
 1179 06d0 0132     	 adds r2,r2,#1
 689:Drivers/STM32G4xx_HAL_Driver/Src/stm32g4xx_hal_opamp_ex.c ****     }
 1180              	 .loc 1 689 7 view .LVU452
 1181 06d2 23F47803 	 bic r3,r3,#16252928
 1182 06d6 43EAC243 	 orr r3,r3,r2,lsl#19
 1183 06da C8F80030 	 str r3,[r8]
 1184 06de D304     	 lsls r3,r2,#19
 687:Drivers/STM32G4xx_HAL_Driver/Src/stm32g4xx_hal_opamp_ex.c ****       /* Set right trimming */
 1185              	 .loc 1 687 22 view .LVU453
 1186 06e0 0A92     	 str r2,[sp,#40]
 1187              	.LVL79:
 689:Drivers/STM32G4xx_HAL_Driver/Src/stm32g4xx_hal_opamp_ex.c ****     }
 1188              	 .loc 1 689 7 is_stmt 1 view .LVU454
 1189 06e2 0693     	 str r3,[sp,#24]
 1190              	.LVL80:
 1191              	.L37:
 695:Drivers/STM32G4xx_HAL_Driver/Src/stm32g4xx_hal_opamp_ex.c ****     {
 1192              	 .loc 1 695 5 view .LVU455
 695:Drivers/STM32G4xx_HAL_Driver/Src/stm32g4xx_hal_opamp_ex.c ****     {
 1193              	 .loc 1 695 17 is_stmt 0 view .LVU456
 1194 06e4 3968     	 ldr r1,[r7]
 695:Drivers/STM32G4xx_HAL_Driver/Src/stm32g4xx_hal_opamp_ex.c ****     {
 1195              	 .loc 1 695 27 view .LVU457
 1196 06e6 0B68     	 ldr r3,[r1]
 695:Drivers/STM32G4xx_HAL_Driver/Src/stm32g4xx_hal_opamp_ex.c ****     {
 1197              	 .loc 1 695 8 view .LVU458
 1198 06e8 5A00     	 lsls r2,r3,#1
 1199 06ea 0AD5     	 bpl .L38
 698:Drivers/STM32G4xx_HAL_Driver/Src/stm32g4xx_hal_opamp_ex.c ****       /* Set right trimming */
 1200              	 .loc 1 698 7 is_stmt 1 view .LVU459
 698:Drivers/STM32G4xx_HAL_Driver/Src/stm32g4xx_hal_opamp_ex.c ****       /* Set right trimming */
 1201              	 .loc 1 698 22 is_stmt 0 view .LVU460
 1202 06ec 019A     	 ldr r2,[sp,#4]
 700:Drivers/STM32G4xx_HAL_Driver/Src/stm32g4xx_hal_opamp_ex.c ****     }
 1203              	 .loc 1 700 7 view .LVU461
 1204 06ee 0B68     	 ldr r3,[r1]
ARM GAS   			page 45


 698:Drivers/STM32G4xx_HAL_Driver/Src/stm32g4xx_hal_opamp_ex.c ****       /* Set right trimming */
 1205              	 .loc 1 698 22 view .LVU462
 1206 06f0 0132     	 adds r2,r2,#1
 700:Drivers/STM32G4xx_HAL_Driver/Src/stm32g4xx_hal_opamp_ex.c ****     }
 1207              	 .loc 1 700 7 view .LVU463
 1208 06f2 23F47803 	 bic r3,r3,#16252928
 1209 06f6 43EAC243 	 orr r3,r3,r2,lsl#19
 1210 06fa 0B60     	 str r3,[r1]
 1211 06fc D304     	 lsls r3,r2,#19
 698:Drivers/STM32G4xx_HAL_Driver/Src/stm32g4xx_hal_opamp_ex.c ****       /* Set right trimming */
 1212              	 .loc 1 698 22 view .LVU464
 1213 06fe 0192     	 str r2,[sp,#4]
 1214              	.LVL81:
 700:Drivers/STM32G4xx_HAL_Driver/Src/stm32g4xx_hal_opamp_ex.c ****     }
 1215              	 .loc 1 700 7 is_stmt 1 view .LVU465
 1216 0700 0793     	 str r3,[sp,#28]
 1217              	.LVL82:
 1218              	.L38:
 703:Drivers/STM32G4xx_HAL_Driver/Src/stm32g4xx_hal_opamp_ex.c ****     {
 1219              	 .loc 1 703 5 view .LVU466
 703:Drivers/STM32G4xx_HAL_Driver/Src/stm32g4xx_hal_opamp_ex.c ****     {
 1220              	 .loc 1 703 17 is_stmt 0 view .LVU467
 1221 0702 209B     	 ldr r3,[sp,#128]
 1222 0704 1A68     	 ldr r2,[r3]
 703:Drivers/STM32G4xx_HAL_Driver/Src/stm32g4xx_hal_opamp_ex.c ****     {
 1223              	 .loc 1 703 27 view .LVU468
 1224 0706 1368     	 ldr r3,[r2]
 703:Drivers/STM32G4xx_HAL_Driver/Src/stm32g4xx_hal_opamp_ex.c ****     {
 1225              	 .loc 1 703 8 view .LVU469
 1226 0708 5B00     	 lsls r3,r3,#1
 1227 070a 0AD5     	 bpl .L39
 706:Drivers/STM32G4xx_HAL_Driver/Src/stm32g4xx_hal_opamp_ex.c ****       /* Set right trimming */
 1228              	 .loc 1 706 7 is_stmt 1 view .LVU470
 706:Drivers/STM32G4xx_HAL_Driver/Src/stm32g4xx_hal_opamp_ex.c ****       /* Set right trimming */
 1229              	 .loc 1 706 22 is_stmt 0 view .LVU471
 1230 070c 0498     	 ldr r0,[sp,#16]
 708:Drivers/STM32G4xx_HAL_Driver/Src/stm32g4xx_hal_opamp_ex.c ****     }
 1231              	 .loc 1 708 7 view .LVU472
 1232 070e 1368     	 ldr r3,[r2]
 706:Drivers/STM32G4xx_HAL_Driver/Src/stm32g4xx_hal_opamp_ex.c ****       /* Set right trimming */
 1233              	 .loc 1 706 22 view .LVU473
 1234 0710 0130     	 adds r0,r0,#1
 708:Drivers/STM32G4xx_HAL_Driver/Src/stm32g4xx_hal_opamp_ex.c ****     }
 1235              	 .loc 1 708 7 view .LVU474
 1236 0712 23F47803 	 bic r3,r3,#16252928
 1237 0716 43EAC043 	 orr r3,r3,r0,lsl#19
 1238 071a 1360     	 str r3,[r2]
 1239 071c C304     	 lsls r3,r0,#19
 706:Drivers/STM32G4xx_HAL_Driver/Src/stm32g4xx_hal_opamp_ex.c ****       /* Set right trimming */
 1240              	 .loc 1 706 22 view .LVU475
 1241 071e 0490     	 str r0,[sp,#16]
 1242              	.LVL83:
 708:Drivers/STM32G4xx_HAL_Driver/Src/stm32g4xx_hal_opamp_ex.c ****     }
 1243              	 .loc 1 708 7 is_stmt 1 view .LVU476
 1244 0720 1493     	 str r3,[sp,#80]
 1245              	.LVL84:
 1246              	.L39:
ARM GAS   			page 46


 711:Drivers/STM32G4xx_HAL_Driver/Src/stm32g4xx_hal_opamp_ex.c ****     {
 1247              	 .loc 1 711 5 view .LVU477
 711:Drivers/STM32G4xx_HAL_Driver/Src/stm32g4xx_hal_opamp_ex.c ****     {
 1248              	 .loc 1 711 17 is_stmt 0 view .LVU478
 1249 0722 219B     	 ldr r3,[sp,#132]
 1250 0724 1B68     	 ldr r3,[r3]
 1251 0726 0293     	 str r3,[sp,#8]
 711:Drivers/STM32G4xx_HAL_Driver/Src/stm32g4xx_hal_opamp_ex.c ****     {
 1252              	 .loc 1 711 27 view .LVU479
 1253 0728 1868     	 ldr r0,[r3]
 711:Drivers/STM32G4xx_HAL_Driver/Src/stm32g4xx_hal_opamp_ex.c ****     {
 1254              	 .loc 1 711 8 view .LVU480
 1255 072a 4000     	 lsls r0,r0,#1
 1256 072c 0AD5     	 bpl .L40
 714:Drivers/STM32G4xx_HAL_Driver/Src/stm32g4xx_hal_opamp_ex.c ****       /* Set right trimming */
 1257              	 .loc 1 714 7 is_stmt 1 view .LVU481
 716:Drivers/STM32G4xx_HAL_Driver/Src/stm32g4xx_hal_opamp_ex.c ****     }
 1258              	 .loc 1 716 7 is_stmt 0 view .LVU482
 1259 072e 1868     	 ldr r0,[r3]
 714:Drivers/STM32G4xx_HAL_Driver/Src/stm32g4xx_hal_opamp_ex.c ****       /* Set right trimming */
 1260              	 .loc 1 714 22 view .LVU483
 1261 0730 0AF1010A 	 add r10,r10,#1
 1262              	.LVL85:
 716:Drivers/STM32G4xx_HAL_Driver/Src/stm32g4xx_hal_opamp_ex.c ****     }
 1263              	 .loc 1 716 7 is_stmt 1 view .LVU484
 1264 0734 20F47800 	 bic r0,r0,#16252928
 1265 0738 40EACA40 	 orr r0,r0,r10,lsl#19
 1266 073c 1860     	 str r0,[r3]
 1267 073e 4FEACA43 	 lsl r3,r10,#19
 1268 0742 1593     	 str r3,[sp,#84]
 1269              	.L40:
 730:Drivers/STM32G4xx_HAL_Driver/Src/stm32g4xx_hal_opamp_ex.c **** #if defined(STM32GBK1CB) || defined(STM32G431xx) || defined(STM32G441xx) || defined(STM32G471xx) ||
 1270              	 .loc 1 730 5 view .LVU485
 1271 0744 DCF80000 	 ldr r0,[ip]
 741:Drivers/STM32G4xx_HAL_Driver/Src/stm32g4xx_hal_opamp_ex.c **** #elif defined(STM32G491xx) || defined(STM32G4A1xx)
 1272              	 .loc 1 741 5 is_stmt 0 view .LVU486
 1273 0748 029B     	 ldr r3,[sp,#8]
 730:Drivers/STM32G4xx_HAL_Driver/Src/stm32g4xx_hal_opamp_ex.c **** #if defined(STM32GBK1CB) || defined(STM32G431xx) || defined(STM32G441xx) || defined(STM32G471xx) ||
 1274              	 .loc 1 730 5 view .LVU487
 1275 074a 20F40060 	 bic r0,r0,#2048
 1276 074e CCF80000 	 str r0,[ip]
 734:Drivers/STM32G4xx_HAL_Driver/Src/stm32g4xx_hal_opamp_ex.c ****     CLEAR_BIT(hopamp3->Instance->CSR, OPAMP_CSR_CALON);
 1277              	 .loc 1 734 5 is_stmt 1 view .LVU488
 1278 0752 DEF80000 	 ldr r0,[lr]
 1279 0756 20F40060 	 bic r0,r0,#2048
 1280 075a CEF80000 	 str r0,[lr]
 735:Drivers/STM32G4xx_HAL_Driver/Src/stm32g4xx_hal_opamp_ex.c **** #endif /* STM32GBK1CB || STM32G431xx || STM32G441xx || STM32G471xx || STM32G473xx || STM32G474xx ||
 1281              	 .loc 1 735 5 view .LVU489
 1282 075e D8F80000 	 ldr r0,[r8]
 1283 0762 20F40060 	 bic r0,r0,#2048
 1284 0766 C8F80000 	 str r0,[r8]
 739:Drivers/STM32G4xx_HAL_Driver/Src/stm32g4xx_hal_opamp_ex.c ****     CLEAR_BIT(hopamp5->Instance->CSR, OPAMP_CSR_CALON);
 1285              	 .loc 1 739 5 view .LVU490
 1286 076a 0868     	 ldr r0,[r1]
 1287 076c 20F40060 	 bic r0,r0,#2048
 1288 0770 0860     	 str r0,[r1]
 740:Drivers/STM32G4xx_HAL_Driver/Src/stm32g4xx_hal_opamp_ex.c ****     CLEAR_BIT(hopamp6->Instance->CSR, OPAMP_CSR_CALON);
ARM GAS   			page 47


 1289              	 .loc 1 740 5 view .LVU491
 1290 0772 1068     	 ldr r0,[r2]
 1291 0774 20F40060 	 bic r0,r0,#2048
 1292 0778 1060     	 str r0,[r2]
 741:Drivers/STM32G4xx_HAL_Driver/Src/stm32g4xx_hal_opamp_ex.c **** #elif defined(STM32G491xx) || defined(STM32G4A1xx)
 1293              	 .loc 1 741 5 view .LVU492
 1294 077a 1868     	 ldr r0,[r3]
 1295 077c 20F40060 	 bic r0,r0,#2048
 1296 0780 1860     	 str r0,[r3]
 747:Drivers/STM32G4xx_HAL_Driver/Src/stm32g4xx_hal_opamp_ex.c **** #if defined(STM32GBK1CB) || defined(STM32G431xx) || defined(STM32G441xx) || defined(STM32G471xx) ||
 1297              	 .loc 1 747 5 view .LVU493
 1298 0782 DCF80000 	 ldr r0,[ip]
 1299 0786 20F00100 	 bic r0,r0,#1
 1300 078a CCF80000 	 str r0,[ip]
 751:Drivers/STM32G4xx_HAL_Driver/Src/stm32g4xx_hal_opamp_ex.c ****     CLEAR_BIT(hopamp3->Instance->CSR, OPAMP_CSR_OPAMPxEN);
 1301              	 .loc 1 751 5 view .LVU494
 1302 078e DEF80000 	 ldr r0,[lr]
 1303 0792 20F00100 	 bic r0,r0,#1
 1304 0796 CEF80000 	 str r0,[lr]
 752:Drivers/STM32G4xx_HAL_Driver/Src/stm32g4xx_hal_opamp_ex.c **** #endif /* STM32GBK1CB || STM32G431xx || STM32G441xx || STM32G471xx || STM32G473xx || STM32G474xx ||
 1305              	 .loc 1 752 5 view .LVU495
 1306 079a D8F80000 	 ldr r0,[r8]
 1307 079e 20F00100 	 bic r0,r0,#1
 1308 07a2 C8F80000 	 str r0,[r8]
 756:Drivers/STM32G4xx_HAL_Driver/Src/stm32g4xx_hal_opamp_ex.c ****     CLEAR_BIT(hopamp5->Instance->CSR, OPAMP_CSR_OPAMPxEN);
 1309              	 .loc 1 756 5 view .LVU496
 1310 07a6 0868     	 ldr r0,[r1]
 1311 07a8 20F00100 	 bic r0,r0,#1
 1312 07ac 0860     	 str r0,[r1]
 757:Drivers/STM32G4xx_HAL_Driver/Src/stm32g4xx_hal_opamp_ex.c ****     CLEAR_BIT(hopamp6->Instance->CSR, OPAMP_CSR_OPAMPxEN);
 1313              	 .loc 1 757 5 view .LVU497
 1314 07ae 1068     	 ldr r0,[r2]
 1315 07b0 20F00100 	 bic r0,r0,#1
 1316 07b4 1060     	 str r0,[r2]
 758:Drivers/STM32G4xx_HAL_Driver/Src/stm32g4xx_hal_opamp_ex.c **** #elif defined(STM32G491xx) || defined(STM32G4A1xx)
 1317              	 .loc 1 758 5 view .LVU498
 1318 07b6 1868     	 ldr r0,[r3]
 1319 07b8 20F00100 	 bic r0,r0,#1
 1320 07bc 1860     	 str r0,[r3]
 764:Drivers/STM32G4xx_HAL_Driver/Src/stm32g4xx_hal_opamp_ex.c **** #if defined(STM32GBK1CB) || defined(STM32G431xx) || defined(STM32G441xx) || defined(STM32G471xx) ||
 1321              	 .loc 1 764 5 view .LVU499
 1322 07be DCF80000 	 ldr r0,[ip]
 1323 07c2 20F00200 	 bic r0,r0,#2
 1324 07c6 CCF80000 	 str r0,[ip]
 768:Drivers/STM32G4xx_HAL_Driver/Src/stm32g4xx_hal_opamp_ex.c ****     CLEAR_BIT(hopamp3->Instance->CSR, OPAMP_CSR_FORCEVP);
 1325              	 .loc 1 768 5 view .LVU500
 1326 07ca DEF80000 	 ldr r0,[lr]
 1327 07ce 20F00200 	 bic r0,r0,#2
 1328 07d2 CEF80000 	 str r0,[lr]
 769:Drivers/STM32G4xx_HAL_Driver/Src/stm32g4xx_hal_opamp_ex.c **** #endif /* STM32GBK1CB || STM32G431xx || STM32G441xx || STM32G471xx || STM32G473xx || STM32G474xx ||
 1329              	 .loc 1 769 5 view .LVU501
 1330 07d6 D8F80000 	 ldr r0,[r8]
 1331 07da 20F00200 	 bic r0,r0,#2
 1332 07de C8F80000 	 str r0,[r8]
 773:Drivers/STM32G4xx_HAL_Driver/Src/stm32g4xx_hal_opamp_ex.c ****     CLEAR_BIT(hopamp5->Instance->CSR, OPAMP_CSR_FORCEVP);
 1333              	 .loc 1 773 5 view .LVU502
 1334 07e2 0868     	 ldr r0,[r1]
ARM GAS   			page 48


 1335 07e4 20F00200 	 bic r0,r0,#2
 1336 07e8 0860     	 str r0,[r1]
 774:Drivers/STM32G4xx_HAL_Driver/Src/stm32g4xx_hal_opamp_ex.c ****     CLEAR_BIT(hopamp6->Instance->CSR, OPAMP_CSR_FORCEVP);
 1337              	 .loc 1 774 5 view .LVU503
 1338 07ea 1068     	 ldr r0,[r2]
 1339 07ec 20F00200 	 bic r0,r0,#2
 1340 07f0 1060     	 str r0,[r2]
 775:Drivers/STM32G4xx_HAL_Driver/Src/stm32g4xx_hal_opamp_ex.c **** #elif defined(STM32G491xx) || defined(STM32G4A1xx)
 1341              	 .loc 1 775 5 view .LVU504
 1342 07f2 1868     	 ldr r0,[r3]
 1343 07f4 20F00200 	 bic r0,r0,#2
 1344 07f8 1860     	 str r0,[r3]
 785:Drivers/STM32G4xx_HAL_Driver/Src/stm32g4xx_hal_opamp_ex.c **** #if defined(STM32GBK1CB) || defined(STM32G431xx) || defined(STM32G441xx) || defined(STM32G471xx) ||
 1345              	 .loc 1 785 5 view .LVU505
 785:Drivers/STM32G4xx_HAL_Driver/Src/stm32g4xx_hal_opamp_ex.c **** #if defined(STM32GBK1CB) || defined(STM32G431xx) || defined(STM32G441xx) || defined(STM32G471xx) ||
 1346              	 .loc 1 785 34 is_stmt 0 view .LVU506
 1347 07fa 0C98     	 ldr r0,[sp,#48]
 1348 07fc 6063     	 str r0,[r4,#52]
 789:Drivers/STM32G4xx_HAL_Driver/Src/stm32g4xx_hal_opamp_ex.c ****     hopamp3->Init.TrimmingValueN = trimmingvaluen3;
 1349              	 .loc 1 789 5 is_stmt 1 view .LVU507
 789:Drivers/STM32G4xx_HAL_Driver/Src/stm32g4xx_hal_opamp_ex.c ****     hopamp3->Init.TrimmingValueN = trimmingvaluen3;
 1350              	 .loc 1 789 34 is_stmt 0 view .LVU508
 1351 07fe 0398     	 ldr r0,[sp,#12]
 1352 0800 6863     	 str r0,[r5,#52]
 790:Drivers/STM32G4xx_HAL_Driver/Src/stm32g4xx_hal_opamp_ex.c **** #endif /* STM32GBK1CB || STM32G431xx || STM32G441xx || STM32G471xx || STM32G473xx || STM32G474xx ||
 1353              	 .loc 1 790 5 is_stmt 1 view .LVU509
 790:Drivers/STM32G4xx_HAL_Driver/Src/stm32g4xx_hal_opamp_ex.c **** #endif /* STM32GBK1CB || STM32G431xx || STM32G441xx || STM32G471xx || STM32G473xx || STM32G474xx ||
 1354              	 .loc 1 790 34 is_stmt 0 view .LVU510
 1355 0802 0998     	 ldr r0,[sp,#36]
 1356 0804 7063     	 str r0,[r6,#52]
 794:Drivers/STM32G4xx_HAL_Driver/Src/stm32g4xx_hal_opamp_ex.c ****     hopamp5->Init.TrimmingValueN = trimmingvaluen5;
 1357              	 .loc 1 794 5 is_stmt 1 view .LVU511
 794:Drivers/STM32G4xx_HAL_Driver/Src/stm32g4xx_hal_opamp_ex.c ****     hopamp5->Init.TrimmingValueN = trimmingvaluen5;
 1358              	 .loc 1 794 34 is_stmt 0 view .LVU512
 1359 0806 0D98     	 ldr r0,[sp,#52]
 1360 0808 7863     	 str r0,[r7,#52]
 795:Drivers/STM32G4xx_HAL_Driver/Src/stm32g4xx_hal_opamp_ex.c ****     hopamp6->Init.TrimmingValueN = trimmingvaluen6;
 1361              	 .loc 1 795 5 is_stmt 1 view .LVU513
 795:Drivers/STM32G4xx_HAL_Driver/Src/stm32g4xx_hal_opamp_ex.c ****     hopamp6->Init.TrimmingValueN = trimmingvaluen6;
 1362              	 .loc 1 795 34 is_stmt 0 view .LVU514
 1363 080a 2098     	 ldr r0,[sp,#128]
 1364 080c 0B9B     	 ldr r3,[sp,#44]
 1365 080e 4363     	 str r3,[r0,#52]
 796:Drivers/STM32G4xx_HAL_Driver/Src/stm32g4xx_hal_opamp_ex.c **** #elif defined(STM32G491xx) || defined(STM32G4A1xx)
 1366              	 .loc 1 796 5 is_stmt 1 view .LVU515
 796:Drivers/STM32G4xx_HAL_Driver/Src/stm32g4xx_hal_opamp_ex.c **** #elif defined(STM32G491xx) || defined(STM32G4A1xx)
 1367              	 .loc 1 796 34 is_stmt 0 view .LVU516
 1368 0810 219B     	 ldr r3,[sp,#132]
 1369 0812 C3F83490 	 str r9,[r3,#52]
 802:Drivers/STM32G4xx_HAL_Driver/Src/stm32g4xx_hal_opamp_ex.c **** #if defined(STM32GBK1CB) || defined(STM32G431xx) || defined(STM32G441xx) || defined(STM32G471xx) ||
 1370              	 .loc 1 802 5 is_stmt 1 view .LVU517
 802:Drivers/STM32G4xx_HAL_Driver/Src/stm32g4xx_hal_opamp_ex.c **** #if defined(STM32GBK1CB) || defined(STM32G431xx) || defined(STM32G441xx) || defined(STM32G471xx) ||
 1371              	 .loc 1 802 34 is_stmt 0 view .LVU518
 1372 0816 009B     	 ldr r3,[sp]
 1373 0818 2363     	 str r3,[r4,#48]
 806:Drivers/STM32G4xx_HAL_Driver/Src/stm32g4xx_hal_opamp_ex.c ****     hopamp3->Init.TrimmingValueP = trimmingvaluep3;
 1374              	 .loc 1 806 5 is_stmt 1 view .LVU519
ARM GAS   			page 49


 806:Drivers/STM32G4xx_HAL_Driver/Src/stm32g4xx_hal_opamp_ex.c ****     hopamp3->Init.TrimmingValueP = trimmingvaluep3;
 1375              	 .loc 1 806 34 is_stmt 0 view .LVU520
 1376 081a 089B     	 ldr r3,[sp,#32]
 1377 081c 2B63     	 str r3,[r5,#48]
 807:Drivers/STM32G4xx_HAL_Driver/Src/stm32g4xx_hal_opamp_ex.c **** #endif /* STM32GBK1CB || STM32G431xx || STM32G441xx || STM32G471xx || STM32G473xx || STM32G474xx ||
 1378              	 .loc 1 807 5 is_stmt 1 view .LVU521
 807:Drivers/STM32G4xx_HAL_Driver/Src/stm32g4xx_hal_opamp_ex.c **** #endif /* STM32GBK1CB || STM32G431xx || STM32G441xx || STM32G471xx || STM32G473xx || STM32G474xx ||
 1379              	 .loc 1 807 34 is_stmt 0 view .LVU522
 1380 081e 0A9B     	 ldr r3,[sp,#40]
 1381 0820 3363     	 str r3,[r6,#48]
 811:Drivers/STM32G4xx_HAL_Driver/Src/stm32g4xx_hal_opamp_ex.c ****     hopamp5->Init.TrimmingValueP = trimmingvaluep5;
 1382              	 .loc 1 811 5 is_stmt 1 view .LVU523
 811:Drivers/STM32G4xx_HAL_Driver/Src/stm32g4xx_hal_opamp_ex.c ****     hopamp5->Init.TrimmingValueP = trimmingvaluep5;
 1383              	 .loc 1 811 34 is_stmt 0 view .LVU524
 1384 0822 019B     	 ldr r3,[sp,#4]
 1385 0824 3B63     	 str r3,[r7,#48]
 812:Drivers/STM32G4xx_HAL_Driver/Src/stm32g4xx_hal_opamp_ex.c ****     hopamp6->Init.TrimmingValueP = trimmingvaluep6;
 1386              	 .loc 1 812 5 is_stmt 1 view .LVU525
 812:Drivers/STM32G4xx_HAL_Driver/Src/stm32g4xx_hal_opamp_ex.c ****     hopamp6->Init.TrimmingValueP = trimmingvaluep6;
 1387              	 .loc 1 812 34 is_stmt 0 view .LVU526
 1388 0826 0346     	 mov r3,r0
 1389 0828 0498     	 ldr r0,[sp,#16]
 1390 082a 1863     	 str r0,[r3,#48]
 813:Drivers/STM32G4xx_HAL_Driver/Src/stm32g4xx_hal_opamp_ex.c **** #elif defined(STM32G491xx) || defined(STM32G4A1xx)
 1391              	 .loc 1 813 5 is_stmt 1 view .LVU527
 813:Drivers/STM32G4xx_HAL_Driver/Src/stm32g4xx_hal_opamp_ex.c **** #elif defined(STM32G491xx) || defined(STM32G4A1xx)
 1392              	 .loc 1 813 34 is_stmt 0 view .LVU528
 1393 082c 219B     	 ldr r3,[sp,#132]
 836:Drivers/STM32G4xx_HAL_Driver/Src/stm32g4xx_hal_opamp_ex.c **** #if defined(STM32GBK1CB) || defined(STM32G431xx) || defined(STM32G441xx) || defined(STM32G471xx) ||
 1394              	 .loc 1 836 5 view .LVU529
 1395 082e DCF80000 	 ldr r0,[ip]
 813:Drivers/STM32G4xx_HAL_Driver/Src/stm32g4xx_hal_opamp_ex.c **** #elif defined(STM32G491xx) || defined(STM32G4A1xx)
 1396              	 .loc 1 813 34 view .LVU530
 1397 0832 C3F830A0 	 str r10,[r3,#48]
 820:Drivers/STM32G4xx_HAL_Driver/Src/stm32g4xx_hal_opamp_ex.c **** #if defined(STM32GBK1CB) || defined(STM32G431xx) || defined(STM32G441xx) || defined(STM32G471xx) ||
 1398              	 .loc 1 820 5 is_stmt 1 view .LVU531
 836:Drivers/STM32G4xx_HAL_Driver/Src/stm32g4xx_hal_opamp_ex.c **** #if defined(STM32GBK1CB) || defined(STM32G431xx) || defined(STM32G441xx) || defined(STM32G471xx) ||
 1399              	 .loc 1 836 5 is_stmt 0 view .LVU532
 1400 0836 0E9B     	 ldr r3,[sp,#56]
 1401 0838 20F0F859 	 bic r9,r0,#520093696
 820:Drivers/STM32G4xx_HAL_Driver/Src/stm32g4xx_hal_opamp_ex.c **** #if defined(STM32GBK1CB) || defined(STM32G431xx) || defined(STM32G441xx) || defined(STM32G471xx) ||
 1402              	 .loc 1 820 32 view .LVU533
 1403 083c 1020     	 movs r0,#16
 1404 083e E062     	 str r0,[r4,#44]
 824:Drivers/STM32G4xx_HAL_Driver/Src/stm32g4xx_hal_opamp_ex.c ****     hopamp3->Init.UserTrimming = OPAMP_TRIMMING_USER;
 1405              	 .loc 1 824 5 is_stmt 1 view .LVU534
 836:Drivers/STM32G4xx_HAL_Driver/Src/stm32g4xx_hal_opamp_ex.c **** #if defined(STM32GBK1CB) || defined(STM32G431xx) || defined(STM32G441xx) || defined(STM32G471xx) ||
 1406              	 .loc 1 836 5 is_stmt 0 view .LVU535
 1407 0840 49EA0309 	 orr r9,r9,r3
 824:Drivers/STM32G4xx_HAL_Driver/Src/stm32g4xx_hal_opamp_ex.c ****     hopamp3->Init.UserTrimming = OPAMP_TRIMMING_USER;
 1408              	 .loc 1 824 32 view .LVU536
 1409 0844 E862     	 str r0,[r5,#44]
 825:Drivers/STM32G4xx_HAL_Driver/Src/stm32g4xx_hal_opamp_ex.c **** #endif /* STM32GBK1CB || STM32G431xx || STM32G441xx || STM32G471xx || STM32G473xx || STM32G474xx ||
 1410              	 .loc 1 825 5 is_stmt 1 view .LVU537
 830:Drivers/STM32G4xx_HAL_Driver/Src/stm32g4xx_hal_opamp_ex.c ****     hopamp6->Init.UserTrimming = OPAMP_TRIMMING_USER;
 1411              	 .loc 1 830 32 is_stmt 0 view .LVU538
 1412 0846 209B     	 ldr r3,[sp,#128]
ARM GAS   			page 50


 825:Drivers/STM32G4xx_HAL_Driver/Src/stm32g4xx_hal_opamp_ex.c **** #endif /* STM32GBK1CB || STM32G431xx || STM32G441xx || STM32G471xx || STM32G473xx || STM32G474xx ||
 1413              	 .loc 1 825 32 view .LVU539
 1414 0848 F062     	 str r0,[r6,#44]
 829:Drivers/STM32G4xx_HAL_Driver/Src/stm32g4xx_hal_opamp_ex.c ****     hopamp5->Init.UserTrimming = OPAMP_TRIMMING_USER;
 1415              	 .loc 1 829 5 is_stmt 1 view .LVU540
 829:Drivers/STM32G4xx_HAL_Driver/Src/stm32g4xx_hal_opamp_ex.c ****     hopamp5->Init.UserTrimming = OPAMP_TRIMMING_USER;
 1416              	 .loc 1 829 32 is_stmt 0 view .LVU541
 1417 084a F862     	 str r0,[r7,#44]
 830:Drivers/STM32G4xx_HAL_Driver/Src/stm32g4xx_hal_opamp_ex.c ****     hopamp6->Init.UserTrimming = OPAMP_TRIMMING_USER;
 1418              	 .loc 1 830 5 is_stmt 1 view .LVU542
 830:Drivers/STM32G4xx_HAL_Driver/Src/stm32g4xx_hal_opamp_ex.c ****     hopamp6->Init.UserTrimming = OPAMP_TRIMMING_USER;
 1419              	 .loc 1 830 32 is_stmt 0 view .LVU543
 1420 084c D862     	 str r0,[r3,#44]
 831:Drivers/STM32G4xx_HAL_Driver/Src/stm32g4xx_hal_opamp_ex.c **** #elif defined(STM32G491xx) || defined(STM32G4A1xx)
 1421              	 .loc 1 831 5 is_stmt 1 view .LVU544
 831:Drivers/STM32G4xx_HAL_Driver/Src/stm32g4xx_hal_opamp_ex.c **** #elif defined(STM32G491xx) || defined(STM32G4A1xx)
 1422              	 .loc 1 831 32 is_stmt 0 view .LVU545
 1423 084e 219B     	 ldr r3,[sp,#132]
 847:Drivers/STM32G4xx_HAL_Driver/Src/stm32g4xx_hal_opamp_ex.c **** #elif defined(STM32G491xx) || defined(STM32G4A1xx)
 1424              	 .loc 1 847 5 view .LVU546
 1425 0850 029C     	 ldr r4,[sp,#8]
 831:Drivers/STM32G4xx_HAL_Driver/Src/stm32g4xx_hal_opamp_ex.c **** #elif defined(STM32G491xx) || defined(STM32G4A1xx)
 1426              	 .loc 1 831 32 view .LVU547
 1427 0852 D862     	 str r0,[r3,#44]
 836:Drivers/STM32G4xx_HAL_Driver/Src/stm32g4xx_hal_opamp_ex.c **** #if defined(STM32GBK1CB) || defined(STM32G431xx) || defined(STM32G441xx) || defined(STM32G471xx) ||
 1428              	 .loc 1 836 5 is_stmt 1 view .LVU548
 1429 0854 CCF80090 	 str r9,[ip]
 840:Drivers/STM32G4xx_HAL_Driver/Src/stm32g4xx_hal_opamp_ex.c ****     MODIFY_REG(hopamp3->Instance->CSR, OPAMP_CSR_TRIMOFFSETN, trimmingvaluen3 << OPAMP_INPUT_INVERT
 1430              	 .loc 1 840 5 view .LVU549
 1431 0858 DEF80000 	 ldr r0,[lr]
 1432 085c 0F9B     	 ldr r3,[sp,#60]
 1433 085e 20F0F850 	 bic r0,r0,#520093696
 1434 0862 1843     	 orrs r0,r0,r3
 1435 0864 CEF80000 	 str r0,[lr]
 841:Drivers/STM32G4xx_HAL_Driver/Src/stm32g4xx_hal_opamp_ex.c **** #endif /* STM32GBK1CB || STM32G431xx || STM32G441xx || STM32G471xx || STM32G473xx || STM32G474xx ||
 1436              	 .loc 1 841 5 view .LVU550
 1437 0868 D8F80000 	 ldr r0,[r8]
 1438 086c 109B     	 ldr r3,[sp,#64]
 1439 086e 20F0F850 	 bic r0,r0,#520093696
 1440 0872 1843     	 orrs r0,r0,r3
 1441 0874 C8F80000 	 str r0,[r8]
 845:Drivers/STM32G4xx_HAL_Driver/Src/stm32g4xx_hal_opamp_ex.c ****     MODIFY_REG(hopamp5->Instance->CSR, OPAMP_CSR_TRIMOFFSETN, trimmingvaluen5 << OPAMP_INPUT_INVERT
 1442              	 .loc 1 845 5 view .LVU551
 1443 0878 0868     	 ldr r0,[r1]
 1444 087a 119B     	 ldr r3,[sp,#68]
 1445 087c 20F0F850 	 bic r0,r0,#520093696
 1446 0880 1843     	 orrs r0,r0,r3
 1447 0882 0860     	 str r0,[r1]
 846:Drivers/STM32G4xx_HAL_Driver/Src/stm32g4xx_hal_opamp_ex.c ****     MODIFY_REG(hopamp6->Instance->CSR, OPAMP_CSR_TRIMOFFSETN, trimmingvaluen6 << OPAMP_INPUT_INVERT
 1448              	 .loc 1 846 5 view .LVU552
 1449 0884 1068     	 ldr r0,[r2]
 1450 0886 129B     	 ldr r3,[sp,#72]
 1451 0888 20F0F850 	 bic r0,r0,#520093696
 1452 088c 1843     	 orrs r0,r0,r3
 1453 088e 1060     	 str r0,[r2]
 847:Drivers/STM32G4xx_HAL_Driver/Src/stm32g4xx_hal_opamp_ex.c **** #elif defined(STM32G491xx) || defined(STM32G4A1xx)
 1454              	 .loc 1 847 5 view .LVU553
ARM GAS   			page 51


 1455 0890 2068     	 ldr r0,[r4]
 1456 0892 139B     	 ldr r3,[sp,#76]
 1457 0894 20F0F850 	 bic r0,r0,#520093696
 1458 0898 1843     	 orrs r0,r0,r3
 1459 089a 2060     	 str r0,[r4]
 852:Drivers/STM32G4xx_HAL_Driver/Src/stm32g4xx_hal_opamp_ex.c **** #if defined(STM32GBK1CB) || defined(STM32G431xx) || defined(STM32G441xx) || defined(STM32G471xx) ||
 1460              	 .loc 1 852 5 view .LVU554
 1461 089c DCF80000 	 ldr r0,[ip]
 1462 08a0 059B     	 ldr r3,[sp,#20]
 1463 08a2 20F47800 	 bic r0,r0,#16252928
 1464 08a6 1843     	 orrs r0,r0,r3
 1465 08a8 CCF80000 	 str r0,[ip]
 856:Drivers/STM32G4xx_HAL_Driver/Src/stm32g4xx_hal_opamp_ex.c ****     MODIFY_REG(hopamp3->Instance->CSR, OPAMP_CSR_TRIMOFFSETP, trimmingvaluep3 << OPAMP_INPUT_NONINV
 1466              	 .loc 1 856 5 view .LVU555
 1467 08ac DEF80000 	 ldr r0,[lr]
 857:Drivers/STM32G4xx_HAL_Driver/Src/stm32g4xx_hal_opamp_ex.c **** #endif /* STM32GBK1CB || STM32G431xx || STM32G441xx || STM32G471xx || STM32G473xx || STM32G474xx ||
 1468              	 .loc 1 857 5 is_stmt 0 view .LVU556
 1469 08b0 069B     	 ldr r3,[sp,#24]
 856:Drivers/STM32G4xx_HAL_Driver/Src/stm32g4xx_hal_opamp_ex.c ****     MODIFY_REG(hopamp3->Instance->CSR, OPAMP_CSR_TRIMOFFSETP, trimmingvaluep3 << OPAMP_INPUT_NONINV
 1470              	 .loc 1 856 5 view .LVU557
 1471 08b2 20F47800 	 bic r0,r0,#16252928
 1472 08b6 40EA0B00 	 orr r0,r0,fp
 1473 08ba CEF80000 	 str r0,[lr]
 857:Drivers/STM32G4xx_HAL_Driver/Src/stm32g4xx_hal_opamp_ex.c **** #endif /* STM32GBK1CB || STM32G431xx || STM32G441xx || STM32G471xx || STM32G473xx || STM32G474xx ||
 1474              	 .loc 1 857 5 is_stmt 1 view .LVU558
 1475 08be D8F80000 	 ldr r0,[r8]
 1476 08c2 20F47800 	 bic r0,r0,#16252928
 1477 08c6 1843     	 orrs r0,r0,r3
 1478 08c8 C8F80000 	 str r0,[r8]
 861:Drivers/STM32G4xx_HAL_Driver/Src/stm32g4xx_hal_opamp_ex.c ****     MODIFY_REG(hopamp5->Instance->CSR, OPAMP_CSR_TRIMOFFSETP, trimmingvaluep5 << OPAMP_INPUT_NONINV
 1479              	 .loc 1 861 5 view .LVU559
 1480 08cc 0868     	 ldr r0,[r1]
 1481 08ce 079B     	 ldr r3,[sp,#28]
 1482 08d0 20F47800 	 bic r0,r0,#16252928
 1483 08d4 1843     	 orrs r0,r0,r3
 1484 08d6 0860     	 str r0,[r1]
 862:Drivers/STM32G4xx_HAL_Driver/Src/stm32g4xx_hal_opamp_ex.c ****     MODIFY_REG(hopamp6->Instance->CSR, OPAMP_CSR_TRIMOFFSETP, trimmingvaluep6 << OPAMP_INPUT_NONINV
 1485              	 .loc 1 862 5 view .LVU560
 1486 08d8 1168     	 ldr r1,[r2]
 1487 08da 149B     	 ldr r3,[sp,#80]
 1488 08dc 21F47801 	 bic r1,r1,#16252928
 1489 08e0 1943     	 orrs r1,r1,r3
 1490 08e2 1160     	 str r1,[r2]
 863:Drivers/STM32G4xx_HAL_Driver/Src/stm32g4xx_hal_opamp_ex.c **** #elif defined(STM32G491xx) || defined(STM32G4A1xx)
 1491              	 .loc 1 863 5 view .LVU561
 1492 08e4 2268     	 ldr r2,[r4]
 1493 08e6 159B     	 ldr r3,[sp,#84]
 1494 08e8 22F47802 	 bic r2,r2,#16252928
 1495 08ec 1A43     	 orrs r2,r2,r3
 870:Drivers/STM32G4xx_HAL_Driver/Src/stm32g4xx_hal_opamp_ex.c **** }
 1496              	 .loc 1 870 10 is_stmt 0 view .LVU562
 1497 08ee 0020     	 movs r0,#0
 863:Drivers/STM32G4xx_HAL_Driver/Src/stm32g4xx_hal_opamp_ex.c **** #elif defined(STM32G491xx) || defined(STM32G4A1xx)
 1498              	 .loc 1 863 5 view .LVU563
 1499 08f0 2260     	 str r2,[r4]
 870:Drivers/STM32G4xx_HAL_Driver/Src/stm32g4xx_hal_opamp_ex.c **** }
 1500              	 .loc 1 870 3 is_stmt 1 view .LVU564
ARM GAS   			page 52


 870:Drivers/STM32G4xx_HAL_Driver/Src/stm32g4xx_hal_opamp_ex.c **** }
 1501              	 .loc 1 870 10 is_stmt 0 view .LVU565
 1502 08f2 FFF79CBB 	 b .L2
 1503              	.LVL86:
 1504              	.L41:
 1505              	 .cfi_def_cfa_offset 0
 1506              	 .cfi_restore 4
 1507              	 .cfi_restore 5
 1508              	 .cfi_restore 6
 1509              	 .cfi_restore 7
 1510              	 .cfi_restore 8
 1511              	 .cfi_restore 9
 1512              	 .cfi_restore 10
 1513              	 .cfi_restore 11
 1514              	 .cfi_restore 14
 137:Drivers/STM32G4xx_HAL_Driver/Src/stm32g4xx_hal_opamp_ex.c ****   }
 1515              	 .loc 1 137 12 view .LVU566
 1516 08f6 0120     	 movs r0,#1
 1517              	.LVL87:
 1518              	 .loc 1 871 1 view .LVU567
 1519 08f8 7047     	 bx lr
 1520              	 .cfi_endproc
 1521              	.LFE361:
 1523 08fa 00BF     	 .text
 1524              	.Letext0:
 1525              	 .file 2 "D:/msys2/mingw64/arm-none-eabi/include/machine/_default_types.h"
 1526              	 .file 3 "D:/msys2/mingw64/arm-none-eabi/include/sys/_stdint.h"
 1527              	 .file 4 "Drivers/CMSIS/Device/ST/STM32G4xx/Include/stm32g474xx.h"
 1528              	 .file 5 "Drivers/CMSIS/Device/ST/STM32G4xx/Include/stm32g4xx.h"
 1529              	 .file 6 "Drivers/STM32G4xx_HAL_Driver/Inc/stm32g4xx_hal_def.h"
 1530              	 .file 7 "Drivers/STM32G4xx_HAL_Driver/Inc/stm32g4xx_hal_opamp.h"
 1531              	 .file 8 "Drivers/STM32G4xx_HAL_Driver/Inc/stm32g4xx_hal.h"
ARM GAS   			page 53

