ARM GAS   			page 1


   1              	 .cpu cortex-m4
   2              	 .arch armv7e-m
   3              	 .fpu fpv4-sp-d16
   4              	 .eabi_attribute 27,1
   5              	 .eabi_attribute 28,1
   6              	 .eabi_attribute 23,1
   7              	 .eabi_attribute 24,1
   8              	 .eabi_attribute 25,1
   9              	 .eabi_attribute 26,1
  10              	 .eabi_attribute 30,2
  11              	 .eabi_attribute 34,1
  12              	 .eabi_attribute 18,4
  13              	 .file "stm32g4xx_hal_dma.c"
  14              	 .text
  15              	.Ltext0:
  16              	 .cfi_sections .debug_frame
  17              	 .file 1 "Drivers/STM32G4xx_HAL_Driver/Src/stm32g4xx_hal_dma.c"
  18              	 .section .text.HAL_DMA_Init,"ax",%progbits
  19              	 .align 1
  20              	 .p2align 2,,3
  21              	 .global HAL_DMA_Init
  22              	 .syntax unified
  23              	 .thumb
  24              	 .thumb_func
  26              	HAL_DMA_Init:
  27              	.LVL0:
  28              	.LFB361:
   1:Drivers/STM32G4xx_HAL_Driver/Src/stm32g4xx_hal_dma.c **** /**
   2:Drivers/STM32G4xx_HAL_Driver/Src/stm32g4xx_hal_dma.c ****   ******************************************************************************
   3:Drivers/STM32G4xx_HAL_Driver/Src/stm32g4xx_hal_dma.c ****   * @file    stm32g4xx_hal_dma.c
   4:Drivers/STM32G4xx_HAL_Driver/Src/stm32g4xx_hal_dma.c ****   * @author  MCD Application Team
   5:Drivers/STM32G4xx_HAL_Driver/Src/stm32g4xx_hal_dma.c ****   * @brief   DMA HAL module driver.
   6:Drivers/STM32G4xx_HAL_Driver/Src/stm32g4xx_hal_dma.c ****   *         This file provides firmware functions to manage the following
   7:Drivers/STM32G4xx_HAL_Driver/Src/stm32g4xx_hal_dma.c ****   *         functionalities of the Direct Memory Access (DMA) peripheral:
   8:Drivers/STM32G4xx_HAL_Driver/Src/stm32g4xx_hal_dma.c ****   *           + Initialization and de-initialization functions
   9:Drivers/STM32G4xx_HAL_Driver/Src/stm32g4xx_hal_dma.c ****   *           + IO operation functions
  10:Drivers/STM32G4xx_HAL_Driver/Src/stm32g4xx_hal_dma.c ****   *           + Peripheral State and errors functions
  11:Drivers/STM32G4xx_HAL_Driver/Src/stm32g4xx_hal_dma.c ****   *
  12:Drivers/STM32G4xx_HAL_Driver/Src/stm32g4xx_hal_dma.c ****   ******************************************************************************
  13:Drivers/STM32G4xx_HAL_Driver/Src/stm32g4xx_hal_dma.c ****   * @attention
  14:Drivers/STM32G4xx_HAL_Driver/Src/stm32g4xx_hal_dma.c ****   *
  15:Drivers/STM32G4xx_HAL_Driver/Src/stm32g4xx_hal_dma.c ****   * Copyright (c) 2019 STMicroelectronics.
  16:Drivers/STM32G4xx_HAL_Driver/Src/stm32g4xx_hal_dma.c ****   * All rights reserved.
  17:Drivers/STM32G4xx_HAL_Driver/Src/stm32g4xx_hal_dma.c ****   *
  18:Drivers/STM32G4xx_HAL_Driver/Src/stm32g4xx_hal_dma.c ****   * This software is licensed under terms that can be found in the LICENSE file
  19:Drivers/STM32G4xx_HAL_Driver/Src/stm32g4xx_hal_dma.c ****   * in the root directory of this software component.
  20:Drivers/STM32G4xx_HAL_Driver/Src/stm32g4xx_hal_dma.c ****   * If no LICENSE file comes with this software, it is provided AS-IS.
  21:Drivers/STM32G4xx_HAL_Driver/Src/stm32g4xx_hal_dma.c ****   *
  22:Drivers/STM32G4xx_HAL_Driver/Src/stm32g4xx_hal_dma.c ****   ******************************************************************************
  23:Drivers/STM32G4xx_HAL_Driver/Src/stm32g4xx_hal_dma.c ****   @verbatim
  24:Drivers/STM32G4xx_HAL_Driver/Src/stm32g4xx_hal_dma.c ****   ==============================================================================
  25:Drivers/STM32G4xx_HAL_Driver/Src/stm32g4xx_hal_dma.c ****                         ##### How to use this driver #####
  26:Drivers/STM32G4xx_HAL_Driver/Src/stm32g4xx_hal_dma.c ****   ==============================================================================
  27:Drivers/STM32G4xx_HAL_Driver/Src/stm32g4xx_hal_dma.c ****   [..]
  28:Drivers/STM32G4xx_HAL_Driver/Src/stm32g4xx_hal_dma.c ****    (#) Enable and configure the peripheral to be connected to the DMA Channel
  29:Drivers/STM32G4xx_HAL_Driver/Src/stm32g4xx_hal_dma.c ****        (except for internal SRAM / FLASH memories: no initialization is
  30:Drivers/STM32G4xx_HAL_Driver/Src/stm32g4xx_hal_dma.c ****        necessary). Please refer to the Reference manual for connection between peripherals
ARM GAS   			page 2


  31:Drivers/STM32G4xx_HAL_Driver/Src/stm32g4xx_hal_dma.c ****        and DMA requests.
  32:Drivers/STM32G4xx_HAL_Driver/Src/stm32g4xx_hal_dma.c **** 
  33:Drivers/STM32G4xx_HAL_Driver/Src/stm32g4xx_hal_dma.c ****    (#) For a given Channel, program the required configuration through the following parameters:
  34:Drivers/STM32G4xx_HAL_Driver/Src/stm32g4xx_hal_dma.c ****        Channel request, Transfer Direction, Source and Destination data formats,
  35:Drivers/STM32G4xx_HAL_Driver/Src/stm32g4xx_hal_dma.c ****        Circular or Normal mode, Channel Priority level, Source and Destination Increment mode
  36:Drivers/STM32G4xx_HAL_Driver/Src/stm32g4xx_hal_dma.c ****        using HAL_DMA_Init() function.
  37:Drivers/STM32G4xx_HAL_Driver/Src/stm32g4xx_hal_dma.c **** 
  38:Drivers/STM32G4xx_HAL_Driver/Src/stm32g4xx_hal_dma.c ****        Prior to HAL_DMA_Init the peripheral clock shall be enabled for both DMA & DMAMUX
  39:Drivers/STM32G4xx_HAL_Driver/Src/stm32g4xx_hal_dma.c ****        thanks to:
  40:Drivers/STM32G4xx_HAL_Driver/Src/stm32g4xx_hal_dma.c ****       (##) DMA1 or DMA2: __HAL_RCC_DMA1_CLK_ENABLE() or  __HAL_RCC_DMA2_CLK_ENABLE() ;
  41:Drivers/STM32G4xx_HAL_Driver/Src/stm32g4xx_hal_dma.c ****       (##) DMAMUX1:      __HAL_RCC_DMAMUX1_CLK_ENABLE();
  42:Drivers/STM32G4xx_HAL_Driver/Src/stm32g4xx_hal_dma.c **** 
  43:Drivers/STM32G4xx_HAL_Driver/Src/stm32g4xx_hal_dma.c ****    (#) Use HAL_DMA_GetState() function to return the DMA state and HAL_DMA_GetError() in case of er
  44:Drivers/STM32G4xx_HAL_Driver/Src/stm32g4xx_hal_dma.c ****        detection.
  45:Drivers/STM32G4xx_HAL_Driver/Src/stm32g4xx_hal_dma.c **** 
  46:Drivers/STM32G4xx_HAL_Driver/Src/stm32g4xx_hal_dma.c ****    (#) Use HAL_DMA_Abort() function to abort the current transfer
  47:Drivers/STM32G4xx_HAL_Driver/Src/stm32g4xx_hal_dma.c **** 
  48:Drivers/STM32G4xx_HAL_Driver/Src/stm32g4xx_hal_dma.c ****      -@-   In Memory-to-Memory transfer mode, Circular mode is not allowed.
  49:Drivers/STM32G4xx_HAL_Driver/Src/stm32g4xx_hal_dma.c **** 
  50:Drivers/STM32G4xx_HAL_Driver/Src/stm32g4xx_hal_dma.c ****      *** Polling mode IO operation ***
  51:Drivers/STM32G4xx_HAL_Driver/Src/stm32g4xx_hal_dma.c ****      =================================
  52:Drivers/STM32G4xx_HAL_Driver/Src/stm32g4xx_hal_dma.c ****     [..]
  53:Drivers/STM32G4xx_HAL_Driver/Src/stm32g4xx_hal_dma.c ****           (+) Use HAL_DMA_Start() to start DMA transfer after the configuration of Source
  54:Drivers/STM32G4xx_HAL_Driver/Src/stm32g4xx_hal_dma.c ****               address and destination address and the Length of data to be transferred
  55:Drivers/STM32G4xx_HAL_Driver/Src/stm32g4xx_hal_dma.c ****           (+) Use HAL_DMA_PollForTransfer() to poll for the end of current transfer, in this
  56:Drivers/STM32G4xx_HAL_Driver/Src/stm32g4xx_hal_dma.c ****               case a fixed Timeout can be configured by User depending from his application.
  57:Drivers/STM32G4xx_HAL_Driver/Src/stm32g4xx_hal_dma.c **** 
  58:Drivers/STM32G4xx_HAL_Driver/Src/stm32g4xx_hal_dma.c ****      *** Interrupt mode IO operation ***
  59:Drivers/STM32G4xx_HAL_Driver/Src/stm32g4xx_hal_dma.c ****      ===================================
  60:Drivers/STM32G4xx_HAL_Driver/Src/stm32g4xx_hal_dma.c ****     [..]
  61:Drivers/STM32G4xx_HAL_Driver/Src/stm32g4xx_hal_dma.c ****           (+) Configure the DMA interrupt priority using HAL_NVIC_SetPriority()
  62:Drivers/STM32G4xx_HAL_Driver/Src/stm32g4xx_hal_dma.c ****           (+) Enable the DMA IRQ handler using HAL_NVIC_EnableIRQ()
  63:Drivers/STM32G4xx_HAL_Driver/Src/stm32g4xx_hal_dma.c ****           (+) Use HAL_DMA_Start_IT() to start DMA transfer after the configuration of
  64:Drivers/STM32G4xx_HAL_Driver/Src/stm32g4xx_hal_dma.c ****               Source address and destination address and the Length of data to be transferred.
  65:Drivers/STM32G4xx_HAL_Driver/Src/stm32g4xx_hal_dma.c ****               In this case the DMA interrupt is configured
  66:Drivers/STM32G4xx_HAL_Driver/Src/stm32g4xx_hal_dma.c ****           (+) Use HAL_DMA_IRQHandler() called under DMA_IRQHandler() Interrupt subroutine
  67:Drivers/STM32G4xx_HAL_Driver/Src/stm32g4xx_hal_dma.c ****           (+) At the end of data transfer HAL_DMA_IRQHandler() function is executed and user can
  68:Drivers/STM32G4xx_HAL_Driver/Src/stm32g4xx_hal_dma.c ****               add his own function to register callbacks with HAL_DMA_RegisterCallback().
  69:Drivers/STM32G4xx_HAL_Driver/Src/stm32g4xx_hal_dma.c **** 
  70:Drivers/STM32G4xx_HAL_Driver/Src/stm32g4xx_hal_dma.c ****      *** DMA HAL driver macros list ***
  71:Drivers/STM32G4xx_HAL_Driver/Src/stm32g4xx_hal_dma.c ****      =============================================
  72:Drivers/STM32G4xx_HAL_Driver/Src/stm32g4xx_hal_dma.c ****       [..]
  73:Drivers/STM32G4xx_HAL_Driver/Src/stm32g4xx_hal_dma.c ****        Below the list of macros in DMA HAL driver.
  74:Drivers/STM32G4xx_HAL_Driver/Src/stm32g4xx_hal_dma.c **** 
  75:Drivers/STM32G4xx_HAL_Driver/Src/stm32g4xx_hal_dma.c ****        (+) __HAL_DMA_ENABLE: Enable the specified DMA Channel.
  76:Drivers/STM32G4xx_HAL_Driver/Src/stm32g4xx_hal_dma.c ****        (+) __HAL_DMA_DISABLE: Disable the specified DMA Channel.
  77:Drivers/STM32G4xx_HAL_Driver/Src/stm32g4xx_hal_dma.c ****        (+) __HAL_DMA_GET_FLAG: Get the DMA Channel pending flags.
  78:Drivers/STM32G4xx_HAL_Driver/Src/stm32g4xx_hal_dma.c ****        (+) __HAL_DMA_CLEAR_FLAG: Clear the DMA Channel pending flags.
  79:Drivers/STM32G4xx_HAL_Driver/Src/stm32g4xx_hal_dma.c ****        (+) __HAL_DMA_ENABLE_IT: Enable the specified DMA Channel interrupts.
  80:Drivers/STM32G4xx_HAL_Driver/Src/stm32g4xx_hal_dma.c ****        (+) __HAL_DMA_DISABLE_IT: Disable the specified DMA Channel interrupts.
  81:Drivers/STM32G4xx_HAL_Driver/Src/stm32g4xx_hal_dma.c ****        (+) __HAL_DMA_GET_IT_SOURCE: Check whether the specified DMA Channel interrupt has occurred 
  82:Drivers/STM32G4xx_HAL_Driver/Src/stm32g4xx_hal_dma.c **** 
  83:Drivers/STM32G4xx_HAL_Driver/Src/stm32g4xx_hal_dma.c ****      [..]
  84:Drivers/STM32G4xx_HAL_Driver/Src/stm32g4xx_hal_dma.c ****       (@) You can refer to the DMA HAL driver header file for more useful macros
  85:Drivers/STM32G4xx_HAL_Driver/Src/stm32g4xx_hal_dma.c **** 
  86:Drivers/STM32G4xx_HAL_Driver/Src/stm32g4xx_hal_dma.c ****   @endverbatim
  87:Drivers/STM32G4xx_HAL_Driver/Src/stm32g4xx_hal_dma.c ****   */
ARM GAS   			page 3


  88:Drivers/STM32G4xx_HAL_Driver/Src/stm32g4xx_hal_dma.c **** 
  89:Drivers/STM32G4xx_HAL_Driver/Src/stm32g4xx_hal_dma.c **** /* Includes ------------------------------------------------------------------*/
  90:Drivers/STM32G4xx_HAL_Driver/Src/stm32g4xx_hal_dma.c **** #include "stm32g4xx_hal.h"
  91:Drivers/STM32G4xx_HAL_Driver/Src/stm32g4xx_hal_dma.c **** 
  92:Drivers/STM32G4xx_HAL_Driver/Src/stm32g4xx_hal_dma.c **** /** @addtogroup STM32G4xx_HAL_Driver
  93:Drivers/STM32G4xx_HAL_Driver/Src/stm32g4xx_hal_dma.c ****   * @{
  94:Drivers/STM32G4xx_HAL_Driver/Src/stm32g4xx_hal_dma.c ****   */
  95:Drivers/STM32G4xx_HAL_Driver/Src/stm32g4xx_hal_dma.c **** 
  96:Drivers/STM32G4xx_HAL_Driver/Src/stm32g4xx_hal_dma.c **** /** @defgroup DMA DMA
  97:Drivers/STM32G4xx_HAL_Driver/Src/stm32g4xx_hal_dma.c ****   * @brief DMA HAL module driver
  98:Drivers/STM32G4xx_HAL_Driver/Src/stm32g4xx_hal_dma.c ****   * @{
  99:Drivers/STM32G4xx_HAL_Driver/Src/stm32g4xx_hal_dma.c ****   */
 100:Drivers/STM32G4xx_HAL_Driver/Src/stm32g4xx_hal_dma.c **** 
 101:Drivers/STM32G4xx_HAL_Driver/Src/stm32g4xx_hal_dma.c **** #ifdef HAL_DMA_MODULE_ENABLED
 102:Drivers/STM32G4xx_HAL_Driver/Src/stm32g4xx_hal_dma.c **** 
 103:Drivers/STM32G4xx_HAL_Driver/Src/stm32g4xx_hal_dma.c **** /* Private typedef -----------------------------------------------------------*/
 104:Drivers/STM32G4xx_HAL_Driver/Src/stm32g4xx_hal_dma.c **** /* Private define ------------------------------------------------------------*/
 105:Drivers/STM32G4xx_HAL_Driver/Src/stm32g4xx_hal_dma.c **** /* Private macro -------------------------------------------------------------*/
 106:Drivers/STM32G4xx_HAL_Driver/Src/stm32g4xx_hal_dma.c **** /* Private variables ---------------------------------------------------------*/
 107:Drivers/STM32G4xx_HAL_Driver/Src/stm32g4xx_hal_dma.c **** /* Private function prototypes -----------------------------------------------*/
 108:Drivers/STM32G4xx_HAL_Driver/Src/stm32g4xx_hal_dma.c **** /** @defgroup DMA_Private_Functions DMA Private Functions
 109:Drivers/STM32G4xx_HAL_Driver/Src/stm32g4xx_hal_dma.c ****   * @{
 110:Drivers/STM32G4xx_HAL_Driver/Src/stm32g4xx_hal_dma.c ****   */
 111:Drivers/STM32G4xx_HAL_Driver/Src/stm32g4xx_hal_dma.c **** static void DMA_SetConfig(DMA_HandleTypeDef *hdma, uint32_t SrcAddress, uint32_t DstAddress, uint32
 112:Drivers/STM32G4xx_HAL_Driver/Src/stm32g4xx_hal_dma.c **** 
 113:Drivers/STM32G4xx_HAL_Driver/Src/stm32g4xx_hal_dma.c **** static void DMA_CalcDMAMUXChannelBaseAndMask(DMA_HandleTypeDef *hdma);
 114:Drivers/STM32G4xx_HAL_Driver/Src/stm32g4xx_hal_dma.c **** static void DMA_CalcDMAMUXRequestGenBaseAndMask(DMA_HandleTypeDef *hdma);
 115:Drivers/STM32G4xx_HAL_Driver/Src/stm32g4xx_hal_dma.c **** 
 116:Drivers/STM32G4xx_HAL_Driver/Src/stm32g4xx_hal_dma.c **** /**
 117:Drivers/STM32G4xx_HAL_Driver/Src/stm32g4xx_hal_dma.c ****   * @}
 118:Drivers/STM32G4xx_HAL_Driver/Src/stm32g4xx_hal_dma.c ****   */
 119:Drivers/STM32G4xx_HAL_Driver/Src/stm32g4xx_hal_dma.c **** 
 120:Drivers/STM32G4xx_HAL_Driver/Src/stm32g4xx_hal_dma.c **** /* Exported functions ---------------------------------------------------------*/
 121:Drivers/STM32G4xx_HAL_Driver/Src/stm32g4xx_hal_dma.c **** 
 122:Drivers/STM32G4xx_HAL_Driver/Src/stm32g4xx_hal_dma.c **** /** @defgroup DMA_Exported_Functions DMA Exported Functions
 123:Drivers/STM32G4xx_HAL_Driver/Src/stm32g4xx_hal_dma.c ****   * @{
 124:Drivers/STM32G4xx_HAL_Driver/Src/stm32g4xx_hal_dma.c ****   */
 125:Drivers/STM32G4xx_HAL_Driver/Src/stm32g4xx_hal_dma.c **** 
 126:Drivers/STM32G4xx_HAL_Driver/Src/stm32g4xx_hal_dma.c **** /** @defgroup DMA_Exported_Functions_Group1 Initialization and de-initialization functions
 127:Drivers/STM32G4xx_HAL_Driver/Src/stm32g4xx_hal_dma.c ****   *  @brief   Initialization and de-initialization functions
 128:Drivers/STM32G4xx_HAL_Driver/Src/stm32g4xx_hal_dma.c ****   *
 129:Drivers/STM32G4xx_HAL_Driver/Src/stm32g4xx_hal_dma.c **** @verbatim
 130:Drivers/STM32G4xx_HAL_Driver/Src/stm32g4xx_hal_dma.c ****  ===============================================================================
 131:Drivers/STM32G4xx_HAL_Driver/Src/stm32g4xx_hal_dma.c ****              ##### Initialization and de-initialization functions  #####
 132:Drivers/STM32G4xx_HAL_Driver/Src/stm32g4xx_hal_dma.c ****  ===============================================================================
 133:Drivers/STM32G4xx_HAL_Driver/Src/stm32g4xx_hal_dma.c ****     [..]
 134:Drivers/STM32G4xx_HAL_Driver/Src/stm32g4xx_hal_dma.c ****     This section provides functions allowing to initialize the DMA Channel source
 135:Drivers/STM32G4xx_HAL_Driver/Src/stm32g4xx_hal_dma.c ****     and destination addresses, incrementation and data sizes, transfer direction,
 136:Drivers/STM32G4xx_HAL_Driver/Src/stm32g4xx_hal_dma.c ****     circular/normal mode selection, memory-to-memory mode selection and Channel priority value.
 137:Drivers/STM32G4xx_HAL_Driver/Src/stm32g4xx_hal_dma.c ****     [..]
 138:Drivers/STM32G4xx_HAL_Driver/Src/stm32g4xx_hal_dma.c ****     The HAL_DMA_Init() function follows the DMA configuration procedures as described in
 139:Drivers/STM32G4xx_HAL_Driver/Src/stm32g4xx_hal_dma.c ****     reference manual.
 140:Drivers/STM32G4xx_HAL_Driver/Src/stm32g4xx_hal_dma.c **** 
 141:Drivers/STM32G4xx_HAL_Driver/Src/stm32g4xx_hal_dma.c **** @endverbatim
 142:Drivers/STM32G4xx_HAL_Driver/Src/stm32g4xx_hal_dma.c ****   * @{
 143:Drivers/STM32G4xx_HAL_Driver/Src/stm32g4xx_hal_dma.c ****   */
 144:Drivers/STM32G4xx_HAL_Driver/Src/stm32g4xx_hal_dma.c **** 
ARM GAS   			page 4


 145:Drivers/STM32G4xx_HAL_Driver/Src/stm32g4xx_hal_dma.c **** /**
 146:Drivers/STM32G4xx_HAL_Driver/Src/stm32g4xx_hal_dma.c ****   * @brief  Initialize the DMA according to the specified
 147:Drivers/STM32G4xx_HAL_Driver/Src/stm32g4xx_hal_dma.c ****   *         parameters in the DMA_InitTypeDef and initialize the associated handle.
 148:Drivers/STM32G4xx_HAL_Driver/Src/stm32g4xx_hal_dma.c ****   * @param  hdma Pointer to a DMA_HandleTypeDef structure that contains
 149:Drivers/STM32G4xx_HAL_Driver/Src/stm32g4xx_hal_dma.c ****   *               the configuration information for the specified DMA Channel.
 150:Drivers/STM32G4xx_HAL_Driver/Src/stm32g4xx_hal_dma.c ****   * @retval HAL status
 151:Drivers/STM32G4xx_HAL_Driver/Src/stm32g4xx_hal_dma.c ****   */
 152:Drivers/STM32G4xx_HAL_Driver/Src/stm32g4xx_hal_dma.c **** HAL_StatusTypeDef HAL_DMA_Init(DMA_HandleTypeDef *hdma)
 153:Drivers/STM32G4xx_HAL_Driver/Src/stm32g4xx_hal_dma.c **** {
  29              	 .loc 1 153 1 view-0
  30              	 .cfi_startproc
  31              	 
  32              	 
  33              	 
 154:Drivers/STM32G4xx_HAL_Driver/Src/stm32g4xx_hal_dma.c ****   uint32_t tmp;
  34              	 .loc 1 154 3 view .LVU1
 155:Drivers/STM32G4xx_HAL_Driver/Src/stm32g4xx_hal_dma.c **** 
 156:Drivers/STM32G4xx_HAL_Driver/Src/stm32g4xx_hal_dma.c ****   /* Check the DMA handle allocation */
 157:Drivers/STM32G4xx_HAL_Driver/Src/stm32g4xx_hal_dma.c ****   if (hdma == NULL)
  35              	 .loc 1 157 3 view .LVU2
  36              	 .loc 1 157 6 is_stmt 0 view .LVU3
  37 0000 0028     	 cmp r0,#0
  38 0002 76D0     	 beq .L9
 153:Drivers/STM32G4xx_HAL_Driver/Src/stm32g4xx_hal_dma.c ****   uint32_t tmp;
  39              	 .loc 1 153 1 view .LVU4
  40 0004 F0B4     	 push {r4,r5,r6,r7}
  41              	 .cfi_def_cfa_offset 16
  42              	 .cfi_offset 4,-16
  43              	 .cfi_offset 5,-12
  44              	 .cfi_offset 6,-8
  45              	 .cfi_offset 7,-4
 158:Drivers/STM32G4xx_HAL_Driver/Src/stm32g4xx_hal_dma.c ****   {
 159:Drivers/STM32G4xx_HAL_Driver/Src/stm32g4xx_hal_dma.c ****     return HAL_ERROR;
 160:Drivers/STM32G4xx_HAL_Driver/Src/stm32g4xx_hal_dma.c ****   }
 161:Drivers/STM32G4xx_HAL_Driver/Src/stm32g4xx_hal_dma.c **** 
 162:Drivers/STM32G4xx_HAL_Driver/Src/stm32g4xx_hal_dma.c ****   /* Check the parameters */
 163:Drivers/STM32G4xx_HAL_Driver/Src/stm32g4xx_hal_dma.c ****   assert_param(IS_DMA_ALL_INSTANCE(hdma->Instance));
 164:Drivers/STM32G4xx_HAL_Driver/Src/stm32g4xx_hal_dma.c ****   assert_param(IS_DMA_DIRECTION(hdma->Init.Direction));
 165:Drivers/STM32G4xx_HAL_Driver/Src/stm32g4xx_hal_dma.c ****   assert_param(IS_DMA_PERIPHERAL_INC_STATE(hdma->Init.PeriphInc));
 166:Drivers/STM32G4xx_HAL_Driver/Src/stm32g4xx_hal_dma.c ****   assert_param(IS_DMA_MEMORY_INC_STATE(hdma->Init.MemInc));
 167:Drivers/STM32G4xx_HAL_Driver/Src/stm32g4xx_hal_dma.c ****   assert_param(IS_DMA_PERIPHERAL_DATA_SIZE(hdma->Init.PeriphDataAlignment));
 168:Drivers/STM32G4xx_HAL_Driver/Src/stm32g4xx_hal_dma.c ****   assert_param(IS_DMA_MEMORY_DATA_SIZE(hdma->Init.MemDataAlignment));
 169:Drivers/STM32G4xx_HAL_Driver/Src/stm32g4xx_hal_dma.c ****   assert_param(IS_DMA_MODE(hdma->Init.Mode));
 170:Drivers/STM32G4xx_HAL_Driver/Src/stm32g4xx_hal_dma.c ****   assert_param(IS_DMA_PRIORITY(hdma->Init.Priority));
 171:Drivers/STM32G4xx_HAL_Driver/Src/stm32g4xx_hal_dma.c **** 
 172:Drivers/STM32G4xx_HAL_Driver/Src/stm32g4xx_hal_dma.c ****   assert_param(IS_DMA_ALL_REQUEST(hdma->Init.Request));
 173:Drivers/STM32G4xx_HAL_Driver/Src/stm32g4xx_hal_dma.c **** 
 174:Drivers/STM32G4xx_HAL_Driver/Src/stm32g4xx_hal_dma.c ****   /* Compute the channel index */
 175:Drivers/STM32G4xx_HAL_Driver/Src/stm32g4xx_hal_dma.c ****   if ((uint32_t)(hdma->Instance) < (uint32_t)(DMA2_Channel1))
  46              	 .loc 1 175 6 view .LVU5
  47 0006 3C4A     	 ldr r2,.L18
  48              	 .loc 1 175 22 view .LVU6
  49 0008 0468     	 ldr r4,[r0]
  50              	 .loc 1 175 6 view .LVU7
  51 000a 9442     	 cmp r4,r2
  52 000c 0346     	 mov r3,r0
 163:Drivers/STM32G4xx_HAL_Driver/Src/stm32g4xx_hal_dma.c ****   assert_param(IS_DMA_DIRECTION(hdma->Init.Direction));
ARM GAS   			page 5


  53              	 .loc 1 163 3 is_stmt 1 view .LVU8
 164:Drivers/STM32G4xx_HAL_Driver/Src/stm32g4xx_hal_dma.c ****   assert_param(IS_DMA_PERIPHERAL_INC_STATE(hdma->Init.PeriphInc));
  54              	 .loc 1 164 3 view .LVU9
 165:Drivers/STM32G4xx_HAL_Driver/Src/stm32g4xx_hal_dma.c ****   assert_param(IS_DMA_MEMORY_INC_STATE(hdma->Init.MemInc));
  55              	 .loc 1 165 3 view .LVU10
 166:Drivers/STM32G4xx_HAL_Driver/Src/stm32g4xx_hal_dma.c ****   assert_param(IS_DMA_PERIPHERAL_DATA_SIZE(hdma->Init.PeriphDataAlignment));
  56              	 .loc 1 166 3 view .LVU11
 167:Drivers/STM32G4xx_HAL_Driver/Src/stm32g4xx_hal_dma.c ****   assert_param(IS_DMA_MEMORY_DATA_SIZE(hdma->Init.MemDataAlignment));
  57              	 .loc 1 167 3 view .LVU12
 168:Drivers/STM32G4xx_HAL_Driver/Src/stm32g4xx_hal_dma.c ****   assert_param(IS_DMA_MODE(hdma->Init.Mode));
  58              	 .loc 1 168 3 view .LVU13
 169:Drivers/STM32G4xx_HAL_Driver/Src/stm32g4xx_hal_dma.c ****   assert_param(IS_DMA_PRIORITY(hdma->Init.Priority));
  59              	 .loc 1 169 3 view .LVU14
 170:Drivers/STM32G4xx_HAL_Driver/Src/stm32g4xx_hal_dma.c **** 
  60              	 .loc 1 170 3 view .LVU15
 172:Drivers/STM32G4xx_HAL_Driver/Src/stm32g4xx_hal_dma.c **** 
  61              	 .loc 1 172 3 view .LVU16
  62              	 .loc 1 175 3 view .LVU17
  63              	 .loc 1 175 6 is_stmt 0 view .LVU18
  64 000e 5CD9     	 bls .L16
 176:Drivers/STM32G4xx_HAL_Driver/Src/stm32g4xx_hal_dma.c ****   {
 177:Drivers/STM32G4xx_HAL_Driver/Src/stm32g4xx_hal_dma.c ****     /* DMA1 */
 178:Drivers/STM32G4xx_HAL_Driver/Src/stm32g4xx_hal_dma.c ****     hdma->ChannelIndex = (((uint32_t)hdma->Instance - (uint32_t)DMA1_Channel1) / ((uint32_t)DMA1_Ch
 179:Drivers/STM32G4xx_HAL_Driver/Src/stm32g4xx_hal_dma.c ****     hdma->DmaBaseAddress = DMA1;
 180:Drivers/STM32G4xx_HAL_Driver/Src/stm32g4xx_hal_dma.c ****   }
 181:Drivers/STM32G4xx_HAL_Driver/Src/stm32g4xx_hal_dma.c ****   else
 182:Drivers/STM32G4xx_HAL_Driver/Src/stm32g4xx_hal_dma.c ****   {
 183:Drivers/STM32G4xx_HAL_Driver/Src/stm32g4xx_hal_dma.c ****     /* DMA2 */
 184:Drivers/STM32G4xx_HAL_Driver/Src/stm32g4xx_hal_dma.c ****     hdma->ChannelIndex = (((uint32_t)hdma->Instance - (uint32_t)DMA2_Channel1) / ((uint32_t)DMA2_Ch
  65              	 .loc 1 184 5 is_stmt 1 view .LVU19
  66              	 .loc 1 184 53 is_stmt 0 view .LVU20
  67 0010 3A49     	 ldr r1,.L18+4
  68              	 .loc 1 184 80 view .LVU21
  69 0012 3B4A     	 ldr r2,.L18+8
 185:Drivers/STM32G4xx_HAL_Driver/Src/stm32g4xx_hal_dma.c ****     hdma->DmaBaseAddress = DMA2;
  70              	 .loc 1 185 26 view .LVU22
  71 0014 3B48     	 ldr r0,.L18+12
  72              	.LVL1:
 184:Drivers/STM32G4xx_HAL_Driver/Src/stm32g4xx_hal_dma.c ****     hdma->DmaBaseAddress = DMA2;
  73              	 .loc 1 184 53 view .LVU23
  74 0016 2144     	 add r1,r1,r4
 184:Drivers/STM32G4xx_HAL_Driver/Src/stm32g4xx_hal_dma.c ****     hdma->DmaBaseAddress = DMA2;
  75              	 .loc 1 184 80 view .LVU24
  76 0018 A2FB0121 	 umull r2,r1,r2,r1
  77 001c 0909     	 lsrs r1,r1,#4
 184:Drivers/STM32G4xx_HAL_Driver/Src/stm32g4xx_hal_dma.c ****     hdma->DmaBaseAddress = DMA2;
  78              	 .loc 1 184 135 view .LVU25
  79 001e 8900     	 lsls r1,r1,#2
  80              	 .loc 1 185 5 is_stmt 1 view .LVU26
  81              	.L4:
 186:Drivers/STM32G4xx_HAL_Driver/Src/stm32g4xx_hal_dma.c ****   }
 187:Drivers/STM32G4xx_HAL_Driver/Src/stm32g4xx_hal_dma.c **** 
 188:Drivers/STM32G4xx_HAL_Driver/Src/stm32g4xx_hal_dma.c ****   /* Change DMA peripheral state */
 189:Drivers/STM32G4xx_HAL_Driver/Src/stm32g4xx_hal_dma.c ****   hdma->State = HAL_DMA_STATE_BUSY;
  82              	 .loc 1 189 15 is_stmt 0 view .LVU27
  83 0020 0222     	 movs r2,#2
 190:Drivers/STM32G4xx_HAL_Driver/Src/stm32g4xx_hal_dma.c **** 
ARM GAS   			page 6


 191:Drivers/STM32G4xx_HAL_Driver/Src/stm32g4xx_hal_dma.c ****   /* Get the CR register value */
 192:Drivers/STM32G4xx_HAL_Driver/Src/stm32g4xx_hal_dma.c ****   tmp = hdma->Instance->CCR;
 193:Drivers/STM32G4xx_HAL_Driver/Src/stm32g4xx_hal_dma.c **** 
 194:Drivers/STM32G4xx_HAL_Driver/Src/stm32g4xx_hal_dma.c ****   /* Clear PL, MSIZE, PSIZE, MINC, PINC, CIRC, DIR and MEM2MEM bits */
 195:Drivers/STM32G4xx_HAL_Driver/Src/stm32g4xx_hal_dma.c ****   tmp &= ((uint32_t)~(DMA_CCR_PL    | DMA_CCR_MSIZE  | DMA_CCR_PSIZE  |
 196:Drivers/STM32G4xx_HAL_Driver/Src/stm32g4xx_hal_dma.c ****                       DMA_CCR_MINC  | DMA_CCR_PINC   | DMA_CCR_CIRC   |
 197:Drivers/STM32G4xx_HAL_Driver/Src/stm32g4xx_hal_dma.c ****                       DMA_CCR_DIR   | DMA_CCR_MEM2MEM));
 198:Drivers/STM32G4xx_HAL_Driver/Src/stm32g4xx_hal_dma.c **** 
 199:Drivers/STM32G4xx_HAL_Driver/Src/stm32g4xx_hal_dma.c ****   /* Prepare the DMA Channel configuration */
 200:Drivers/STM32G4xx_HAL_Driver/Src/stm32g4xx_hal_dma.c ****   tmp |=  hdma->Init.Direction        |
  84              	 .loc 1 200 21 view .LVU28
  85 0022 9D68     	 ldr r5,[r3,#8]
 189:Drivers/STM32G4xx_HAL_Driver/Src/stm32g4xx_hal_dma.c **** 
  86              	 .loc 1 189 15 view .LVU29
  87 0024 83F82520 	 strb r2,[r3,#37]
  88              	 .loc 1 200 39 view .LVU30
  89 0028 DA68     	 ldr r2,[r3,#12]
  90              	.LBB14:
  91              	.LBB15:
 201:Drivers/STM32G4xx_HAL_Driver/Src/stm32g4xx_hal_dma.c ****           hdma->Init.PeriphInc           | hdma->Init.MemInc           |
 202:Drivers/STM32G4xx_HAL_Driver/Src/stm32g4xx_hal_dma.c ****           hdma->Init.PeriphDataAlignment | hdma->Init.MemDataAlignment |
 203:Drivers/STM32G4xx_HAL_Driver/Src/stm32g4xx_hal_dma.c ****           hdma->Init.Mode                | hdma->Init.Priority;
 204:Drivers/STM32G4xx_HAL_Driver/Src/stm32g4xx_hal_dma.c **** 
 205:Drivers/STM32G4xx_HAL_Driver/Src/stm32g4xx_hal_dma.c ****   /* Write to DMA Channel CR register */
 206:Drivers/STM32G4xx_HAL_Driver/Src/stm32g4xx_hal_dma.c ****   hdma->Instance->CCR = tmp;
 207:Drivers/STM32G4xx_HAL_Driver/Src/stm32g4xx_hal_dma.c **** 
 208:Drivers/STM32G4xx_HAL_Driver/Src/stm32g4xx_hal_dma.c ****   /* Initialize parameters for DMAMUX channel :
 209:Drivers/STM32G4xx_HAL_Driver/Src/stm32g4xx_hal_dma.c ****      DMAmuxChannel, DMAmuxChannelStatus and DMAmuxChannelStatusMask
 210:Drivers/STM32G4xx_HAL_Driver/Src/stm32g4xx_hal_dma.c ****   */
 211:Drivers/STM32G4xx_HAL_Driver/Src/stm32g4xx_hal_dma.c ****   DMA_CalcDMAMUXChannelBaseAndMask(hdma);
 212:Drivers/STM32G4xx_HAL_Driver/Src/stm32g4xx_hal_dma.c **** 
 213:Drivers/STM32G4xx_HAL_Driver/Src/stm32g4xx_hal_dma.c ****   if (hdma->Init.Direction == DMA_MEMORY_TO_MEMORY)
 214:Drivers/STM32G4xx_HAL_Driver/Src/stm32g4xx_hal_dma.c ****   {
 215:Drivers/STM32G4xx_HAL_Driver/Src/stm32g4xx_hal_dma.c ****     /* if memory to memory force the request to 0*/
 216:Drivers/STM32G4xx_HAL_Driver/Src/stm32g4xx_hal_dma.c ****     hdma->Init.Request = DMA_REQUEST_MEM2MEM;
 217:Drivers/STM32G4xx_HAL_Driver/Src/stm32g4xx_hal_dma.c ****   }
 218:Drivers/STM32G4xx_HAL_Driver/Src/stm32g4xx_hal_dma.c **** 
 219:Drivers/STM32G4xx_HAL_Driver/Src/stm32g4xx_hal_dma.c ****   /* Set peripheral request  to DMAMUX channel */
 220:Drivers/STM32G4xx_HAL_Driver/Src/stm32g4xx_hal_dma.c ****   hdma->DMAmuxChannel->CCR = (hdma->Init.Request & DMAMUX_CxCR_DMAREQ_ID);
 221:Drivers/STM32G4xx_HAL_Driver/Src/stm32g4xx_hal_dma.c **** 
 222:Drivers/STM32G4xx_HAL_Driver/Src/stm32g4xx_hal_dma.c ****   /* Clear the DMAMUX synchro overrun flag */
 223:Drivers/STM32G4xx_HAL_Driver/Src/stm32g4xx_hal_dma.c ****   hdma->DMAmuxChannelStatus->CFR = hdma->DMAmuxChannelStatusMask;
 224:Drivers/STM32G4xx_HAL_Driver/Src/stm32g4xx_hal_dma.c **** 
 225:Drivers/STM32G4xx_HAL_Driver/Src/stm32g4xx_hal_dma.c ****   if (((hdma->Init.Request >  0U) && (hdma->Init.Request <= DMA_REQUEST_GENERATOR3)))
 226:Drivers/STM32G4xx_HAL_Driver/Src/stm32g4xx_hal_dma.c ****   {
 227:Drivers/STM32G4xx_HAL_Driver/Src/stm32g4xx_hal_dma.c ****     /* Initialize parameters for DMAMUX request generator :
 228:Drivers/STM32G4xx_HAL_Driver/Src/stm32g4xx_hal_dma.c ****        DMAmuxRequestGen, DMAmuxRequestGenStatus and DMAmuxRequestGenStatusMask
 229:Drivers/STM32G4xx_HAL_Driver/Src/stm32g4xx_hal_dma.c ****     */
 230:Drivers/STM32G4xx_HAL_Driver/Src/stm32g4xx_hal_dma.c ****     DMA_CalcDMAMUXRequestGenBaseAndMask(hdma);
 231:Drivers/STM32G4xx_HAL_Driver/Src/stm32g4xx_hal_dma.c **** 
 232:Drivers/STM32G4xx_HAL_Driver/Src/stm32g4xx_hal_dma.c ****     /* Reset the DMAMUX request generator register*/
 233:Drivers/STM32G4xx_HAL_Driver/Src/stm32g4xx_hal_dma.c ****     hdma->DMAmuxRequestGen->RGCR = 0U;
 234:Drivers/STM32G4xx_HAL_Driver/Src/stm32g4xx_hal_dma.c **** 
 235:Drivers/STM32G4xx_HAL_Driver/Src/stm32g4xx_hal_dma.c ****     /* Clear the DMAMUX request generator overrun flag */
 236:Drivers/STM32G4xx_HAL_Driver/Src/stm32g4xx_hal_dma.c ****     hdma->DMAmuxRequestGenStatus->RGCFR = hdma->DMAmuxRequestGenStatusMask;
 237:Drivers/STM32G4xx_HAL_Driver/Src/stm32g4xx_hal_dma.c ****   }
 238:Drivers/STM32G4xx_HAL_Driver/Src/stm32g4xx_hal_dma.c ****   else
ARM GAS   			page 7


 239:Drivers/STM32G4xx_HAL_Driver/Src/stm32g4xx_hal_dma.c ****   {
 240:Drivers/STM32G4xx_HAL_Driver/Src/stm32g4xx_hal_dma.c ****     hdma->DMAmuxRequestGen = 0U;
 241:Drivers/STM32G4xx_HAL_Driver/Src/stm32g4xx_hal_dma.c ****     hdma->DMAmuxRequestGenStatus = 0U;
 242:Drivers/STM32G4xx_HAL_Driver/Src/stm32g4xx_hal_dma.c ****     hdma->DMAmuxRequestGenStatusMask = 0U;
 243:Drivers/STM32G4xx_HAL_Driver/Src/stm32g4xx_hal_dma.c ****   }
 244:Drivers/STM32G4xx_HAL_Driver/Src/stm32g4xx_hal_dma.c **** 
 245:Drivers/STM32G4xx_HAL_Driver/Src/stm32g4xx_hal_dma.c ****   /* Initialize the error code */
 246:Drivers/STM32G4xx_HAL_Driver/Src/stm32g4xx_hal_dma.c ****   hdma->ErrorCode = HAL_DMA_ERROR_NONE;
 247:Drivers/STM32G4xx_HAL_Driver/Src/stm32g4xx_hal_dma.c **** 
 248:Drivers/STM32G4xx_HAL_Driver/Src/stm32g4xx_hal_dma.c ****   /* Initialize the DMA state*/
 249:Drivers/STM32G4xx_HAL_Driver/Src/stm32g4xx_hal_dma.c ****   hdma->State  = HAL_DMA_STATE_READY;
 250:Drivers/STM32G4xx_HAL_Driver/Src/stm32g4xx_hal_dma.c **** 
 251:Drivers/STM32G4xx_HAL_Driver/Src/stm32g4xx_hal_dma.c ****   /* Allocate lock resource and initialize it */
 252:Drivers/STM32G4xx_HAL_Driver/Src/stm32g4xx_hal_dma.c ****   hdma->Lock = HAL_UNLOCKED;
 253:Drivers/STM32G4xx_HAL_Driver/Src/stm32g4xx_hal_dma.c **** 
 254:Drivers/STM32G4xx_HAL_Driver/Src/stm32g4xx_hal_dma.c ****   return HAL_OK;
 255:Drivers/STM32G4xx_HAL_Driver/Src/stm32g4xx_hal_dma.c **** }
 256:Drivers/STM32G4xx_HAL_Driver/Src/stm32g4xx_hal_dma.c **** 
 257:Drivers/STM32G4xx_HAL_Driver/Src/stm32g4xx_hal_dma.c **** /**
 258:Drivers/STM32G4xx_HAL_Driver/Src/stm32g4xx_hal_dma.c ****   * @brief  DeInitialize the DMA peripheral.
 259:Drivers/STM32G4xx_HAL_Driver/Src/stm32g4xx_hal_dma.c ****   * @param  hdma pointer to a DMA_HandleTypeDef structure that contains
 260:Drivers/STM32G4xx_HAL_Driver/Src/stm32g4xx_hal_dma.c ****   *               the configuration information for the specified DMA Channel.
 261:Drivers/STM32G4xx_HAL_Driver/Src/stm32g4xx_hal_dma.c ****   * @retval HAL status
 262:Drivers/STM32G4xx_HAL_Driver/Src/stm32g4xx_hal_dma.c ****   */
 263:Drivers/STM32G4xx_HAL_Driver/Src/stm32g4xx_hal_dma.c **** HAL_StatusTypeDef HAL_DMA_DeInit(DMA_HandleTypeDef *hdma)
 264:Drivers/STM32G4xx_HAL_Driver/Src/stm32g4xx_hal_dma.c **** {
 265:Drivers/STM32G4xx_HAL_Driver/Src/stm32g4xx_hal_dma.c **** 
 266:Drivers/STM32G4xx_HAL_Driver/Src/stm32g4xx_hal_dma.c ****   /* Check the DMA handle allocation */
 267:Drivers/STM32G4xx_HAL_Driver/Src/stm32g4xx_hal_dma.c ****   if (NULL == hdma)
 268:Drivers/STM32G4xx_HAL_Driver/Src/stm32g4xx_hal_dma.c ****   {
 269:Drivers/STM32G4xx_HAL_Driver/Src/stm32g4xx_hal_dma.c ****     return HAL_ERROR;
 270:Drivers/STM32G4xx_HAL_Driver/Src/stm32g4xx_hal_dma.c ****   }
 271:Drivers/STM32G4xx_HAL_Driver/Src/stm32g4xx_hal_dma.c **** 
 272:Drivers/STM32G4xx_HAL_Driver/Src/stm32g4xx_hal_dma.c ****   /* Check the parameters */
 273:Drivers/STM32G4xx_HAL_Driver/Src/stm32g4xx_hal_dma.c ****   assert_param(IS_DMA_ALL_INSTANCE(hdma->Instance));
 274:Drivers/STM32G4xx_HAL_Driver/Src/stm32g4xx_hal_dma.c **** 
 275:Drivers/STM32G4xx_HAL_Driver/Src/stm32g4xx_hal_dma.c ****   /* Disable the selected DMA Channelx */
 276:Drivers/STM32G4xx_HAL_Driver/Src/stm32g4xx_hal_dma.c ****   __HAL_DMA_DISABLE(hdma);
 277:Drivers/STM32G4xx_HAL_Driver/Src/stm32g4xx_hal_dma.c **** 
 278:Drivers/STM32G4xx_HAL_Driver/Src/stm32g4xx_hal_dma.c ****   /* Compute the channel index */
 279:Drivers/STM32G4xx_HAL_Driver/Src/stm32g4xx_hal_dma.c ****   if ((uint32_t)(hdma->Instance) < (uint32_t)(DMA2_Channel1))
 280:Drivers/STM32G4xx_HAL_Driver/Src/stm32g4xx_hal_dma.c ****   {
 281:Drivers/STM32G4xx_HAL_Driver/Src/stm32g4xx_hal_dma.c ****     /* DMA1 */
 282:Drivers/STM32G4xx_HAL_Driver/Src/stm32g4xx_hal_dma.c ****     hdma->ChannelIndex = (((uint32_t)hdma->Instance - (uint32_t)DMA1_Channel1) / ((uint32_t)DMA1_Ch
 283:Drivers/STM32G4xx_HAL_Driver/Src/stm32g4xx_hal_dma.c ****     hdma->DmaBaseAddress = DMA1;
 284:Drivers/STM32G4xx_HAL_Driver/Src/stm32g4xx_hal_dma.c ****   }
 285:Drivers/STM32G4xx_HAL_Driver/Src/stm32g4xx_hal_dma.c ****   else
 286:Drivers/STM32G4xx_HAL_Driver/Src/stm32g4xx_hal_dma.c ****   {
 287:Drivers/STM32G4xx_HAL_Driver/Src/stm32g4xx_hal_dma.c ****     /* DMA2 */
 288:Drivers/STM32G4xx_HAL_Driver/Src/stm32g4xx_hal_dma.c ****     hdma->ChannelIndex = (((uint32_t)hdma->Instance - (uint32_t)DMA2_Channel1) / ((uint32_t)DMA2_Ch
 289:Drivers/STM32G4xx_HAL_Driver/Src/stm32g4xx_hal_dma.c ****     hdma->DmaBaseAddress = DMA2;
 290:Drivers/STM32G4xx_HAL_Driver/Src/stm32g4xx_hal_dma.c ****   }
 291:Drivers/STM32G4xx_HAL_Driver/Src/stm32g4xx_hal_dma.c **** 
 292:Drivers/STM32G4xx_HAL_Driver/Src/stm32g4xx_hal_dma.c ****   /* Reset DMA Channel control register */
 293:Drivers/STM32G4xx_HAL_Driver/Src/stm32g4xx_hal_dma.c ****   hdma->Instance->CCR  = 0;
 294:Drivers/STM32G4xx_HAL_Driver/Src/stm32g4xx_hal_dma.c **** 
 295:Drivers/STM32G4xx_HAL_Driver/Src/stm32g4xx_hal_dma.c ****   /* Clear all flags */
ARM GAS   			page 8


 296:Drivers/STM32G4xx_HAL_Driver/Src/stm32g4xx_hal_dma.c ****   hdma->DmaBaseAddress->IFCR = (DMA_ISR_GIF1 << (hdma->ChannelIndex & 0x1FU));
 297:Drivers/STM32G4xx_HAL_Driver/Src/stm32g4xx_hal_dma.c **** 
 298:Drivers/STM32G4xx_HAL_Driver/Src/stm32g4xx_hal_dma.c ****   /* Initialize parameters for DMAMUX channel :
 299:Drivers/STM32G4xx_HAL_Driver/Src/stm32g4xx_hal_dma.c ****      DMAmuxChannel, DMAmuxChannelStatus and DMAmuxChannelStatusMask */
 300:Drivers/STM32G4xx_HAL_Driver/Src/stm32g4xx_hal_dma.c **** 
 301:Drivers/STM32G4xx_HAL_Driver/Src/stm32g4xx_hal_dma.c ****   DMA_CalcDMAMUXChannelBaseAndMask(hdma);
 302:Drivers/STM32G4xx_HAL_Driver/Src/stm32g4xx_hal_dma.c **** 
 303:Drivers/STM32G4xx_HAL_Driver/Src/stm32g4xx_hal_dma.c ****   /* Reset the DMAMUX channel that corresponds to the DMA channel */
 304:Drivers/STM32G4xx_HAL_Driver/Src/stm32g4xx_hal_dma.c ****   hdma->DMAmuxChannel->CCR = 0;
 305:Drivers/STM32G4xx_HAL_Driver/Src/stm32g4xx_hal_dma.c **** 
 306:Drivers/STM32G4xx_HAL_Driver/Src/stm32g4xx_hal_dma.c ****   /* Clear the DMAMUX synchro overrun flag */
 307:Drivers/STM32G4xx_HAL_Driver/Src/stm32g4xx_hal_dma.c ****   hdma->DMAmuxChannelStatus->CFR = hdma->DMAmuxChannelStatusMask;
 308:Drivers/STM32G4xx_HAL_Driver/Src/stm32g4xx_hal_dma.c **** 
 309:Drivers/STM32G4xx_HAL_Driver/Src/stm32g4xx_hal_dma.c ****   /* Reset Request generator parameters if any */
 310:Drivers/STM32G4xx_HAL_Driver/Src/stm32g4xx_hal_dma.c ****   if (((hdma->Init.Request >  0U) && (hdma->Init.Request <= DMA_REQUEST_GENERATOR3)))
 311:Drivers/STM32G4xx_HAL_Driver/Src/stm32g4xx_hal_dma.c ****   {
 312:Drivers/STM32G4xx_HAL_Driver/Src/stm32g4xx_hal_dma.c ****     /* Initialize parameters for DMAMUX request generator :
 313:Drivers/STM32G4xx_HAL_Driver/Src/stm32g4xx_hal_dma.c ****        DMAmuxRequestGen, DMAmuxRequestGenStatus and DMAmuxRequestGenStatusMask
 314:Drivers/STM32G4xx_HAL_Driver/Src/stm32g4xx_hal_dma.c ****     */
 315:Drivers/STM32G4xx_HAL_Driver/Src/stm32g4xx_hal_dma.c ****     DMA_CalcDMAMUXRequestGenBaseAndMask(hdma);
 316:Drivers/STM32G4xx_HAL_Driver/Src/stm32g4xx_hal_dma.c **** 
 317:Drivers/STM32G4xx_HAL_Driver/Src/stm32g4xx_hal_dma.c ****     /* Reset the DMAMUX request generator register*/
 318:Drivers/STM32G4xx_HAL_Driver/Src/stm32g4xx_hal_dma.c ****     hdma->DMAmuxRequestGen->RGCR = 0U;
 319:Drivers/STM32G4xx_HAL_Driver/Src/stm32g4xx_hal_dma.c **** 
 320:Drivers/STM32G4xx_HAL_Driver/Src/stm32g4xx_hal_dma.c ****     /* Clear the DMAMUX request generator overrun flag */
 321:Drivers/STM32G4xx_HAL_Driver/Src/stm32g4xx_hal_dma.c ****     hdma->DMAmuxRequestGenStatus->RGCFR = hdma->DMAmuxRequestGenStatusMask;
 322:Drivers/STM32G4xx_HAL_Driver/Src/stm32g4xx_hal_dma.c ****   }
 323:Drivers/STM32G4xx_HAL_Driver/Src/stm32g4xx_hal_dma.c **** 
 324:Drivers/STM32G4xx_HAL_Driver/Src/stm32g4xx_hal_dma.c ****   hdma->DMAmuxRequestGen = 0U;
 325:Drivers/STM32G4xx_HAL_Driver/Src/stm32g4xx_hal_dma.c ****   hdma->DMAmuxRequestGenStatus = 0U;
 326:Drivers/STM32G4xx_HAL_Driver/Src/stm32g4xx_hal_dma.c ****   hdma->DMAmuxRequestGenStatusMask = 0U;
 327:Drivers/STM32G4xx_HAL_Driver/Src/stm32g4xx_hal_dma.c **** 
 328:Drivers/STM32G4xx_HAL_Driver/Src/stm32g4xx_hal_dma.c ****   /* Clean callbacks */
 329:Drivers/STM32G4xx_HAL_Driver/Src/stm32g4xx_hal_dma.c ****   hdma->XferCpltCallback = NULL;
 330:Drivers/STM32G4xx_HAL_Driver/Src/stm32g4xx_hal_dma.c ****   hdma->XferHalfCpltCallback = NULL;
 331:Drivers/STM32G4xx_HAL_Driver/Src/stm32g4xx_hal_dma.c ****   hdma->XferErrorCallback = NULL;
 332:Drivers/STM32G4xx_HAL_Driver/Src/stm32g4xx_hal_dma.c ****   hdma->XferAbortCallback = NULL;
 333:Drivers/STM32G4xx_HAL_Driver/Src/stm32g4xx_hal_dma.c **** 
 334:Drivers/STM32G4xx_HAL_Driver/Src/stm32g4xx_hal_dma.c ****   /* Initialize the error code */
 335:Drivers/STM32G4xx_HAL_Driver/Src/stm32g4xx_hal_dma.c ****   hdma->ErrorCode = HAL_DMA_ERROR_NONE;
 336:Drivers/STM32G4xx_HAL_Driver/Src/stm32g4xx_hal_dma.c **** 
 337:Drivers/STM32G4xx_HAL_Driver/Src/stm32g4xx_hal_dma.c ****   /* Initialize the DMA state */
 338:Drivers/STM32G4xx_HAL_Driver/Src/stm32g4xx_hal_dma.c ****   hdma->State = HAL_DMA_STATE_RESET;
 339:Drivers/STM32G4xx_HAL_Driver/Src/stm32g4xx_hal_dma.c **** 
 340:Drivers/STM32G4xx_HAL_Driver/Src/stm32g4xx_hal_dma.c ****   /* Release Lock */
 341:Drivers/STM32G4xx_HAL_Driver/Src/stm32g4xx_hal_dma.c ****   __HAL_UNLOCK(hdma);
 342:Drivers/STM32G4xx_HAL_Driver/Src/stm32g4xx_hal_dma.c **** 
 343:Drivers/STM32G4xx_HAL_Driver/Src/stm32g4xx_hal_dma.c ****   return HAL_OK;
 344:Drivers/STM32G4xx_HAL_Driver/Src/stm32g4xx_hal_dma.c **** }
 345:Drivers/STM32G4xx_HAL_Driver/Src/stm32g4xx_hal_dma.c **** 
 346:Drivers/STM32G4xx_HAL_Driver/Src/stm32g4xx_hal_dma.c **** /**
 347:Drivers/STM32G4xx_HAL_Driver/Src/stm32g4xx_hal_dma.c ****   * @}
 348:Drivers/STM32G4xx_HAL_Driver/Src/stm32g4xx_hal_dma.c ****   */
 349:Drivers/STM32G4xx_HAL_Driver/Src/stm32g4xx_hal_dma.c **** 
 350:Drivers/STM32G4xx_HAL_Driver/Src/stm32g4xx_hal_dma.c **** /** @defgroup DMA_Exported_Functions_Group2 Input and Output operation functions
 351:Drivers/STM32G4xx_HAL_Driver/Src/stm32g4xx_hal_dma.c ****   *  @brief   Input and Output operation functions
 352:Drivers/STM32G4xx_HAL_Driver/Src/stm32g4xx_hal_dma.c ****   *
ARM GAS   			page 9


 353:Drivers/STM32G4xx_HAL_Driver/Src/stm32g4xx_hal_dma.c **** @verbatim
 354:Drivers/STM32G4xx_HAL_Driver/Src/stm32g4xx_hal_dma.c ****  ===============================================================================
 355:Drivers/STM32G4xx_HAL_Driver/Src/stm32g4xx_hal_dma.c ****                       #####  IO operation functions  #####
 356:Drivers/STM32G4xx_HAL_Driver/Src/stm32g4xx_hal_dma.c ****  ===============================================================================
 357:Drivers/STM32G4xx_HAL_Driver/Src/stm32g4xx_hal_dma.c ****     [..]  This section provides functions allowing to:
 358:Drivers/STM32G4xx_HAL_Driver/Src/stm32g4xx_hal_dma.c ****       (+) Configure the source, destination address and data length and Start DMA transfer
 359:Drivers/STM32G4xx_HAL_Driver/Src/stm32g4xx_hal_dma.c ****       (+) Configure the source, destination address and data length and
 360:Drivers/STM32G4xx_HAL_Driver/Src/stm32g4xx_hal_dma.c ****           Start DMA transfer with interrupt
 361:Drivers/STM32G4xx_HAL_Driver/Src/stm32g4xx_hal_dma.c ****       (+) Abort DMA transfer
 362:Drivers/STM32G4xx_HAL_Driver/Src/stm32g4xx_hal_dma.c ****       (+) Poll for transfer complete
 363:Drivers/STM32G4xx_HAL_Driver/Src/stm32g4xx_hal_dma.c ****       (+) Handle DMA interrupt request
 364:Drivers/STM32G4xx_HAL_Driver/Src/stm32g4xx_hal_dma.c **** 
 365:Drivers/STM32G4xx_HAL_Driver/Src/stm32g4xx_hal_dma.c **** @endverbatim
 366:Drivers/STM32G4xx_HAL_Driver/Src/stm32g4xx_hal_dma.c ****   * @{
 367:Drivers/STM32G4xx_HAL_Driver/Src/stm32g4xx_hal_dma.c ****   */
 368:Drivers/STM32G4xx_HAL_Driver/Src/stm32g4xx_hal_dma.c **** 
 369:Drivers/STM32G4xx_HAL_Driver/Src/stm32g4xx_hal_dma.c **** /**
 370:Drivers/STM32G4xx_HAL_Driver/Src/stm32g4xx_hal_dma.c ****   * @brief  Start the DMA Transfer.
 371:Drivers/STM32G4xx_HAL_Driver/Src/stm32g4xx_hal_dma.c ****   * @param  hdma pointer to a DMA_HandleTypeDef structure that contains
 372:Drivers/STM32G4xx_HAL_Driver/Src/stm32g4xx_hal_dma.c ****   *               the configuration information for the specified DMA Channel.
 373:Drivers/STM32G4xx_HAL_Driver/Src/stm32g4xx_hal_dma.c ****   * @param  SrcAddress The source memory Buffer address
 374:Drivers/STM32G4xx_HAL_Driver/Src/stm32g4xx_hal_dma.c ****   * @param  DstAddress The destination memory Buffer address
 375:Drivers/STM32G4xx_HAL_Driver/Src/stm32g4xx_hal_dma.c ****   * @param  DataLength The length of data to be transferred from source to destination (up to 256Kb
 376:Drivers/STM32G4xx_HAL_Driver/Src/stm32g4xx_hal_dma.c ****   * @retval HAL status
 377:Drivers/STM32G4xx_HAL_Driver/Src/stm32g4xx_hal_dma.c ****   */
 378:Drivers/STM32G4xx_HAL_Driver/Src/stm32g4xx_hal_dma.c **** HAL_StatusTypeDef HAL_DMA_Start(DMA_HandleTypeDef *hdma, uint32_t SrcAddress, uint32_t DstAddress, 
 379:Drivers/STM32G4xx_HAL_Driver/Src/stm32g4xx_hal_dma.c **** {
 380:Drivers/STM32G4xx_HAL_Driver/Src/stm32g4xx_hal_dma.c ****   HAL_StatusTypeDef status = HAL_OK;
 381:Drivers/STM32G4xx_HAL_Driver/Src/stm32g4xx_hal_dma.c **** 
 382:Drivers/STM32G4xx_HAL_Driver/Src/stm32g4xx_hal_dma.c ****   /* Check the parameters */
 383:Drivers/STM32G4xx_HAL_Driver/Src/stm32g4xx_hal_dma.c ****   assert_param(IS_DMA_BUFFER_SIZE(DataLength));
 384:Drivers/STM32G4xx_HAL_Driver/Src/stm32g4xx_hal_dma.c **** 
 385:Drivers/STM32G4xx_HAL_Driver/Src/stm32g4xx_hal_dma.c ****   /* Process locked */
 386:Drivers/STM32G4xx_HAL_Driver/Src/stm32g4xx_hal_dma.c ****   __HAL_LOCK(hdma);
 387:Drivers/STM32G4xx_HAL_Driver/Src/stm32g4xx_hal_dma.c **** 
 388:Drivers/STM32G4xx_HAL_Driver/Src/stm32g4xx_hal_dma.c ****   if (HAL_DMA_STATE_READY == hdma->State)
 389:Drivers/STM32G4xx_HAL_Driver/Src/stm32g4xx_hal_dma.c ****   {
 390:Drivers/STM32G4xx_HAL_Driver/Src/stm32g4xx_hal_dma.c ****     /* Change DMA peripheral state */
 391:Drivers/STM32G4xx_HAL_Driver/Src/stm32g4xx_hal_dma.c ****     hdma->State = HAL_DMA_STATE_BUSY;
 392:Drivers/STM32G4xx_HAL_Driver/Src/stm32g4xx_hal_dma.c ****     hdma->ErrorCode = HAL_DMA_ERROR_NONE;
 393:Drivers/STM32G4xx_HAL_Driver/Src/stm32g4xx_hal_dma.c **** 
 394:Drivers/STM32G4xx_HAL_Driver/Src/stm32g4xx_hal_dma.c ****     /* Disable the peripheral */
 395:Drivers/STM32G4xx_HAL_Driver/Src/stm32g4xx_hal_dma.c ****     __HAL_DMA_DISABLE(hdma);
 396:Drivers/STM32G4xx_HAL_Driver/Src/stm32g4xx_hal_dma.c **** 
 397:Drivers/STM32G4xx_HAL_Driver/Src/stm32g4xx_hal_dma.c ****     /* Configure the source, destination address and the data length & clear flags*/
 398:Drivers/STM32G4xx_HAL_Driver/Src/stm32g4xx_hal_dma.c ****     DMA_SetConfig(hdma, SrcAddress, DstAddress, DataLength);
 399:Drivers/STM32G4xx_HAL_Driver/Src/stm32g4xx_hal_dma.c **** 
 400:Drivers/STM32G4xx_HAL_Driver/Src/stm32g4xx_hal_dma.c ****     /* Enable the Peripheral */
 401:Drivers/STM32G4xx_HAL_Driver/Src/stm32g4xx_hal_dma.c ****     __HAL_DMA_ENABLE(hdma);
 402:Drivers/STM32G4xx_HAL_Driver/Src/stm32g4xx_hal_dma.c ****   }
 403:Drivers/STM32G4xx_HAL_Driver/Src/stm32g4xx_hal_dma.c ****   else
 404:Drivers/STM32G4xx_HAL_Driver/Src/stm32g4xx_hal_dma.c ****   {
 405:Drivers/STM32G4xx_HAL_Driver/Src/stm32g4xx_hal_dma.c ****     /* Process Unlocked */
 406:Drivers/STM32G4xx_HAL_Driver/Src/stm32g4xx_hal_dma.c ****     __HAL_UNLOCK(hdma);
 407:Drivers/STM32G4xx_HAL_Driver/Src/stm32g4xx_hal_dma.c ****     status = HAL_BUSY;
 408:Drivers/STM32G4xx_HAL_Driver/Src/stm32g4xx_hal_dma.c ****   }
 409:Drivers/STM32G4xx_HAL_Driver/Src/stm32g4xx_hal_dma.c ****   return status;
ARM GAS   			page 10


 410:Drivers/STM32G4xx_HAL_Driver/Src/stm32g4xx_hal_dma.c **** }
 411:Drivers/STM32G4xx_HAL_Driver/Src/stm32g4xx_hal_dma.c **** 
 412:Drivers/STM32G4xx_HAL_Driver/Src/stm32g4xx_hal_dma.c **** /**
 413:Drivers/STM32G4xx_HAL_Driver/Src/stm32g4xx_hal_dma.c ****   * @brief  Start the DMA Transfer with interrupt enabled.
 414:Drivers/STM32G4xx_HAL_Driver/Src/stm32g4xx_hal_dma.c ****   * @param  hdma pointer to a DMA_HandleTypeDef structure that contains
 415:Drivers/STM32G4xx_HAL_Driver/Src/stm32g4xx_hal_dma.c ****   *               the configuration information for the specified DMA Channel.
 416:Drivers/STM32G4xx_HAL_Driver/Src/stm32g4xx_hal_dma.c ****   * @param  SrcAddress The source memory Buffer address
 417:Drivers/STM32G4xx_HAL_Driver/Src/stm32g4xx_hal_dma.c ****   * @param  DstAddress The destination memory Buffer address
 418:Drivers/STM32G4xx_HAL_Driver/Src/stm32g4xx_hal_dma.c ****   * @param  DataLength The length of data to be transferred from source to destination (up to 256Kb
 419:Drivers/STM32G4xx_HAL_Driver/Src/stm32g4xx_hal_dma.c ****   * @retval HAL status
 420:Drivers/STM32G4xx_HAL_Driver/Src/stm32g4xx_hal_dma.c ****   */
 421:Drivers/STM32G4xx_HAL_Driver/Src/stm32g4xx_hal_dma.c **** HAL_StatusTypeDef HAL_DMA_Start_IT(DMA_HandleTypeDef *hdma, uint32_t SrcAddress, uint32_t DstAddres
 422:Drivers/STM32G4xx_HAL_Driver/Src/stm32g4xx_hal_dma.c ****                                    uint32_t DataLength)
 423:Drivers/STM32G4xx_HAL_Driver/Src/stm32g4xx_hal_dma.c **** {
 424:Drivers/STM32G4xx_HAL_Driver/Src/stm32g4xx_hal_dma.c ****   HAL_StatusTypeDef status = HAL_OK;
 425:Drivers/STM32G4xx_HAL_Driver/Src/stm32g4xx_hal_dma.c **** 
 426:Drivers/STM32G4xx_HAL_Driver/Src/stm32g4xx_hal_dma.c ****   /* Check the parameters */
 427:Drivers/STM32G4xx_HAL_Driver/Src/stm32g4xx_hal_dma.c ****   assert_param(IS_DMA_BUFFER_SIZE(DataLength));
 428:Drivers/STM32G4xx_HAL_Driver/Src/stm32g4xx_hal_dma.c **** 
 429:Drivers/STM32G4xx_HAL_Driver/Src/stm32g4xx_hal_dma.c ****   /* Process locked */
 430:Drivers/STM32G4xx_HAL_Driver/Src/stm32g4xx_hal_dma.c ****   __HAL_LOCK(hdma);
 431:Drivers/STM32G4xx_HAL_Driver/Src/stm32g4xx_hal_dma.c **** 
 432:Drivers/STM32G4xx_HAL_Driver/Src/stm32g4xx_hal_dma.c ****   if (HAL_DMA_STATE_READY == hdma->State)
 433:Drivers/STM32G4xx_HAL_Driver/Src/stm32g4xx_hal_dma.c ****   {
 434:Drivers/STM32G4xx_HAL_Driver/Src/stm32g4xx_hal_dma.c ****     /* Change DMA peripheral state */
 435:Drivers/STM32G4xx_HAL_Driver/Src/stm32g4xx_hal_dma.c ****     hdma->State = HAL_DMA_STATE_BUSY;
 436:Drivers/STM32G4xx_HAL_Driver/Src/stm32g4xx_hal_dma.c ****     hdma->ErrorCode = HAL_DMA_ERROR_NONE;
 437:Drivers/STM32G4xx_HAL_Driver/Src/stm32g4xx_hal_dma.c **** 
 438:Drivers/STM32G4xx_HAL_Driver/Src/stm32g4xx_hal_dma.c ****     /* Disable the peripheral */
 439:Drivers/STM32G4xx_HAL_Driver/Src/stm32g4xx_hal_dma.c ****     __HAL_DMA_DISABLE(hdma);
 440:Drivers/STM32G4xx_HAL_Driver/Src/stm32g4xx_hal_dma.c **** 
 441:Drivers/STM32G4xx_HAL_Driver/Src/stm32g4xx_hal_dma.c ****     /* Configure the source, destination address and the data length & clear flags*/
 442:Drivers/STM32G4xx_HAL_Driver/Src/stm32g4xx_hal_dma.c ****     DMA_SetConfig(hdma, SrcAddress, DstAddress, DataLength);
 443:Drivers/STM32G4xx_HAL_Driver/Src/stm32g4xx_hal_dma.c **** 
 444:Drivers/STM32G4xx_HAL_Driver/Src/stm32g4xx_hal_dma.c ****     /* Enable the transfer complete interrupt */
 445:Drivers/STM32G4xx_HAL_Driver/Src/stm32g4xx_hal_dma.c ****     /* Enable the transfer Error interrupt */
 446:Drivers/STM32G4xx_HAL_Driver/Src/stm32g4xx_hal_dma.c ****     if (NULL != hdma->XferHalfCpltCallback)
 447:Drivers/STM32G4xx_HAL_Driver/Src/stm32g4xx_hal_dma.c ****     {
 448:Drivers/STM32G4xx_HAL_Driver/Src/stm32g4xx_hal_dma.c ****       /* Enable the Half transfer complete interrupt as well */
 449:Drivers/STM32G4xx_HAL_Driver/Src/stm32g4xx_hal_dma.c ****       __HAL_DMA_ENABLE_IT(hdma, (DMA_IT_TC | DMA_IT_HT | DMA_IT_TE));
 450:Drivers/STM32G4xx_HAL_Driver/Src/stm32g4xx_hal_dma.c ****     }
 451:Drivers/STM32G4xx_HAL_Driver/Src/stm32g4xx_hal_dma.c ****     else
 452:Drivers/STM32G4xx_HAL_Driver/Src/stm32g4xx_hal_dma.c ****     {
 453:Drivers/STM32G4xx_HAL_Driver/Src/stm32g4xx_hal_dma.c ****       __HAL_DMA_DISABLE_IT(hdma, DMA_IT_HT);
 454:Drivers/STM32G4xx_HAL_Driver/Src/stm32g4xx_hal_dma.c ****       __HAL_DMA_ENABLE_IT(hdma, (DMA_IT_TC | DMA_IT_TE));
 455:Drivers/STM32G4xx_HAL_Driver/Src/stm32g4xx_hal_dma.c ****     }
 456:Drivers/STM32G4xx_HAL_Driver/Src/stm32g4xx_hal_dma.c **** 
 457:Drivers/STM32G4xx_HAL_Driver/Src/stm32g4xx_hal_dma.c ****     /* Check if DMAMUX Synchronization is enabled*/
 458:Drivers/STM32G4xx_HAL_Driver/Src/stm32g4xx_hal_dma.c ****     if ((hdma->DMAmuxChannel->CCR & DMAMUX_CxCR_SE) != 0U)
 459:Drivers/STM32G4xx_HAL_Driver/Src/stm32g4xx_hal_dma.c ****     {
 460:Drivers/STM32G4xx_HAL_Driver/Src/stm32g4xx_hal_dma.c ****       /* Enable DMAMUX sync overrun IT*/
 461:Drivers/STM32G4xx_HAL_Driver/Src/stm32g4xx_hal_dma.c ****       hdma->DMAmuxChannel->CCR |= DMAMUX_CxCR_SOIE;
 462:Drivers/STM32G4xx_HAL_Driver/Src/stm32g4xx_hal_dma.c ****     }
 463:Drivers/STM32G4xx_HAL_Driver/Src/stm32g4xx_hal_dma.c **** 
 464:Drivers/STM32G4xx_HAL_Driver/Src/stm32g4xx_hal_dma.c ****     if (hdma->DMAmuxRequestGen != 0U)
 465:Drivers/STM32G4xx_HAL_Driver/Src/stm32g4xx_hal_dma.c ****     {
 466:Drivers/STM32G4xx_HAL_Driver/Src/stm32g4xx_hal_dma.c ****       /* if using DMAMUX request generator, enable the DMAMUX request generator overrun IT*/
ARM GAS   			page 11


 467:Drivers/STM32G4xx_HAL_Driver/Src/stm32g4xx_hal_dma.c ****       /* enable the request gen overrun IT*/
 468:Drivers/STM32G4xx_HAL_Driver/Src/stm32g4xx_hal_dma.c ****       hdma->DMAmuxRequestGen->RGCR |= DMAMUX_RGxCR_OIE;
 469:Drivers/STM32G4xx_HAL_Driver/Src/stm32g4xx_hal_dma.c ****     }
 470:Drivers/STM32G4xx_HAL_Driver/Src/stm32g4xx_hal_dma.c **** 
 471:Drivers/STM32G4xx_HAL_Driver/Src/stm32g4xx_hal_dma.c ****     /* Enable the Peripheral */
 472:Drivers/STM32G4xx_HAL_Driver/Src/stm32g4xx_hal_dma.c ****     __HAL_DMA_ENABLE(hdma);
 473:Drivers/STM32G4xx_HAL_Driver/Src/stm32g4xx_hal_dma.c ****   }
 474:Drivers/STM32G4xx_HAL_Driver/Src/stm32g4xx_hal_dma.c ****   else
 475:Drivers/STM32G4xx_HAL_Driver/Src/stm32g4xx_hal_dma.c ****   {
 476:Drivers/STM32G4xx_HAL_Driver/Src/stm32g4xx_hal_dma.c ****     /* Process Unlocked */
 477:Drivers/STM32G4xx_HAL_Driver/Src/stm32g4xx_hal_dma.c ****     __HAL_UNLOCK(hdma);
 478:Drivers/STM32G4xx_HAL_Driver/Src/stm32g4xx_hal_dma.c **** 
 479:Drivers/STM32G4xx_HAL_Driver/Src/stm32g4xx_hal_dma.c ****     /* Remain BUSY */
 480:Drivers/STM32G4xx_HAL_Driver/Src/stm32g4xx_hal_dma.c ****     status = HAL_BUSY;
 481:Drivers/STM32G4xx_HAL_Driver/Src/stm32g4xx_hal_dma.c ****   }
 482:Drivers/STM32G4xx_HAL_Driver/Src/stm32g4xx_hal_dma.c ****   return status;
 483:Drivers/STM32G4xx_HAL_Driver/Src/stm32g4xx_hal_dma.c **** }
 484:Drivers/STM32G4xx_HAL_Driver/Src/stm32g4xx_hal_dma.c **** 
 485:Drivers/STM32G4xx_HAL_Driver/Src/stm32g4xx_hal_dma.c **** /**
 486:Drivers/STM32G4xx_HAL_Driver/Src/stm32g4xx_hal_dma.c ****   * @brief  Abort the DMA Transfer.
 487:Drivers/STM32G4xx_HAL_Driver/Src/stm32g4xx_hal_dma.c ****   * @param  hdma pointer to a DMA_HandleTypeDef structure that contains
 488:Drivers/STM32G4xx_HAL_Driver/Src/stm32g4xx_hal_dma.c ****   *               the configuration information for the specified DMA Channel.
 489:Drivers/STM32G4xx_HAL_Driver/Src/stm32g4xx_hal_dma.c ****     * @retval HAL status
 490:Drivers/STM32G4xx_HAL_Driver/Src/stm32g4xx_hal_dma.c ****   */
 491:Drivers/STM32G4xx_HAL_Driver/Src/stm32g4xx_hal_dma.c **** HAL_StatusTypeDef HAL_DMA_Abort(DMA_HandleTypeDef *hdma)
 492:Drivers/STM32G4xx_HAL_Driver/Src/stm32g4xx_hal_dma.c **** {
 493:Drivers/STM32G4xx_HAL_Driver/Src/stm32g4xx_hal_dma.c ****   HAL_StatusTypeDef status = HAL_OK;
 494:Drivers/STM32G4xx_HAL_Driver/Src/stm32g4xx_hal_dma.c **** 
 495:Drivers/STM32G4xx_HAL_Driver/Src/stm32g4xx_hal_dma.c ****   if(hdma->State != HAL_DMA_STATE_BUSY)
 496:Drivers/STM32G4xx_HAL_Driver/Src/stm32g4xx_hal_dma.c ****   {
 497:Drivers/STM32G4xx_HAL_Driver/Src/stm32g4xx_hal_dma.c ****     /* no transfer ongoing */
 498:Drivers/STM32G4xx_HAL_Driver/Src/stm32g4xx_hal_dma.c ****     hdma->ErrorCode = HAL_DMA_ERROR_NO_XFER;
 499:Drivers/STM32G4xx_HAL_Driver/Src/stm32g4xx_hal_dma.c **** 
 500:Drivers/STM32G4xx_HAL_Driver/Src/stm32g4xx_hal_dma.c ****     status = HAL_ERROR;
 501:Drivers/STM32G4xx_HAL_Driver/Src/stm32g4xx_hal_dma.c ****   }
 502:Drivers/STM32G4xx_HAL_Driver/Src/stm32g4xx_hal_dma.c ****   else
 503:Drivers/STM32G4xx_HAL_Driver/Src/stm32g4xx_hal_dma.c ****   {
 504:Drivers/STM32G4xx_HAL_Driver/Src/stm32g4xx_hal_dma.c ****      /* Disable DMA IT */
 505:Drivers/STM32G4xx_HAL_Driver/Src/stm32g4xx_hal_dma.c ****      __HAL_DMA_DISABLE_IT(hdma, (DMA_IT_TC | DMA_IT_HT | DMA_IT_TE));
 506:Drivers/STM32G4xx_HAL_Driver/Src/stm32g4xx_hal_dma.c ****      
 507:Drivers/STM32G4xx_HAL_Driver/Src/stm32g4xx_hal_dma.c ****      /* disable the DMAMUX sync overrun IT*/
 508:Drivers/STM32G4xx_HAL_Driver/Src/stm32g4xx_hal_dma.c ****      hdma->DMAmuxChannel->CCR &= ~DMAMUX_CxCR_SOIE;
 509:Drivers/STM32G4xx_HAL_Driver/Src/stm32g4xx_hal_dma.c ****      
 510:Drivers/STM32G4xx_HAL_Driver/Src/stm32g4xx_hal_dma.c ****      /* Disable the channel */
 511:Drivers/STM32G4xx_HAL_Driver/Src/stm32g4xx_hal_dma.c ****      __HAL_DMA_DISABLE(hdma);
 512:Drivers/STM32G4xx_HAL_Driver/Src/stm32g4xx_hal_dma.c ****      
 513:Drivers/STM32G4xx_HAL_Driver/Src/stm32g4xx_hal_dma.c ****      /* Clear all flags */
 514:Drivers/STM32G4xx_HAL_Driver/Src/stm32g4xx_hal_dma.c ****      hdma->DmaBaseAddress->IFCR = (DMA_ISR_GIF1 << (hdma->ChannelIndex & 0x1FU));
 515:Drivers/STM32G4xx_HAL_Driver/Src/stm32g4xx_hal_dma.c ****      
 516:Drivers/STM32G4xx_HAL_Driver/Src/stm32g4xx_hal_dma.c ****      /* Clear the DMAMUX synchro overrun flag */
 517:Drivers/STM32G4xx_HAL_Driver/Src/stm32g4xx_hal_dma.c ****      hdma->DMAmuxChannelStatus->CFR = hdma->DMAmuxChannelStatusMask;
 518:Drivers/STM32G4xx_HAL_Driver/Src/stm32g4xx_hal_dma.c ****      
 519:Drivers/STM32G4xx_HAL_Driver/Src/stm32g4xx_hal_dma.c ****      if (hdma->DMAmuxRequestGen != 0U)
 520:Drivers/STM32G4xx_HAL_Driver/Src/stm32g4xx_hal_dma.c ****      {
 521:Drivers/STM32G4xx_HAL_Driver/Src/stm32g4xx_hal_dma.c ****        /* if using DMAMUX request generator, disable the DMAMUX request generator overrun IT*/
 522:Drivers/STM32G4xx_HAL_Driver/Src/stm32g4xx_hal_dma.c ****        /* disable the request gen overrun IT*/
 523:Drivers/STM32G4xx_HAL_Driver/Src/stm32g4xx_hal_dma.c ****        hdma->DMAmuxRequestGen->RGCR &= ~DMAMUX_RGxCR_OIE;
ARM GAS   			page 12


 524:Drivers/STM32G4xx_HAL_Driver/Src/stm32g4xx_hal_dma.c ****      
 525:Drivers/STM32G4xx_HAL_Driver/Src/stm32g4xx_hal_dma.c ****        /* Clear the DMAMUX request generator overrun flag */
 526:Drivers/STM32G4xx_HAL_Driver/Src/stm32g4xx_hal_dma.c ****        hdma->DMAmuxRequestGenStatus->RGCFR = hdma->DMAmuxRequestGenStatusMask;
 527:Drivers/STM32G4xx_HAL_Driver/Src/stm32g4xx_hal_dma.c ****      }
 528:Drivers/STM32G4xx_HAL_Driver/Src/stm32g4xx_hal_dma.c ****   }  
 529:Drivers/STM32G4xx_HAL_Driver/Src/stm32g4xx_hal_dma.c ****   /* Change the DMA state */
 530:Drivers/STM32G4xx_HAL_Driver/Src/stm32g4xx_hal_dma.c ****   hdma->State = HAL_DMA_STATE_READY;
 531:Drivers/STM32G4xx_HAL_Driver/Src/stm32g4xx_hal_dma.c **** 
 532:Drivers/STM32G4xx_HAL_Driver/Src/stm32g4xx_hal_dma.c ****   /* Process Unlocked */
 533:Drivers/STM32G4xx_HAL_Driver/Src/stm32g4xx_hal_dma.c ****   __HAL_UNLOCK(hdma);
 534:Drivers/STM32G4xx_HAL_Driver/Src/stm32g4xx_hal_dma.c **** 
 535:Drivers/STM32G4xx_HAL_Driver/Src/stm32g4xx_hal_dma.c ****   return status;
 536:Drivers/STM32G4xx_HAL_Driver/Src/stm32g4xx_hal_dma.c **** }
 537:Drivers/STM32G4xx_HAL_Driver/Src/stm32g4xx_hal_dma.c **** 
 538:Drivers/STM32G4xx_HAL_Driver/Src/stm32g4xx_hal_dma.c **** /**
 539:Drivers/STM32G4xx_HAL_Driver/Src/stm32g4xx_hal_dma.c ****   * @brief  Aborts the DMA Transfer in Interrupt mode.
 540:Drivers/STM32G4xx_HAL_Driver/Src/stm32g4xx_hal_dma.c ****   * @param  hdma pointer to a DMA_HandleTypeDef structure that contains
 541:Drivers/STM32G4xx_HAL_Driver/Src/stm32g4xx_hal_dma.c ****   *              the configuration information for the specified DMA Channel.
 542:Drivers/STM32G4xx_HAL_Driver/Src/stm32g4xx_hal_dma.c ****   * @retval HAL status
 543:Drivers/STM32G4xx_HAL_Driver/Src/stm32g4xx_hal_dma.c ****   */
 544:Drivers/STM32G4xx_HAL_Driver/Src/stm32g4xx_hal_dma.c **** HAL_StatusTypeDef HAL_DMA_Abort_IT(DMA_HandleTypeDef *hdma)
 545:Drivers/STM32G4xx_HAL_Driver/Src/stm32g4xx_hal_dma.c **** {
 546:Drivers/STM32G4xx_HAL_Driver/Src/stm32g4xx_hal_dma.c ****   HAL_StatusTypeDef status = HAL_OK;
 547:Drivers/STM32G4xx_HAL_Driver/Src/stm32g4xx_hal_dma.c **** 
 548:Drivers/STM32G4xx_HAL_Driver/Src/stm32g4xx_hal_dma.c ****   if (HAL_DMA_STATE_BUSY != hdma->State)
 549:Drivers/STM32G4xx_HAL_Driver/Src/stm32g4xx_hal_dma.c ****   {
 550:Drivers/STM32G4xx_HAL_Driver/Src/stm32g4xx_hal_dma.c ****     /* no transfer ongoing */
 551:Drivers/STM32G4xx_HAL_Driver/Src/stm32g4xx_hal_dma.c ****     hdma->ErrorCode = HAL_DMA_ERROR_NO_XFER;
 552:Drivers/STM32G4xx_HAL_Driver/Src/stm32g4xx_hal_dma.c **** 
 553:Drivers/STM32G4xx_HAL_Driver/Src/stm32g4xx_hal_dma.c ****     /* Change the DMA state */
 554:Drivers/STM32G4xx_HAL_Driver/Src/stm32g4xx_hal_dma.c ****     hdma->State = HAL_DMA_STATE_READY;
 555:Drivers/STM32G4xx_HAL_Driver/Src/stm32g4xx_hal_dma.c **** 
 556:Drivers/STM32G4xx_HAL_Driver/Src/stm32g4xx_hal_dma.c ****     /* Process Unlocked */
 557:Drivers/STM32G4xx_HAL_Driver/Src/stm32g4xx_hal_dma.c ****     __HAL_UNLOCK(hdma);
 558:Drivers/STM32G4xx_HAL_Driver/Src/stm32g4xx_hal_dma.c **** 
 559:Drivers/STM32G4xx_HAL_Driver/Src/stm32g4xx_hal_dma.c ****     status = HAL_ERROR;
 560:Drivers/STM32G4xx_HAL_Driver/Src/stm32g4xx_hal_dma.c ****   }
 561:Drivers/STM32G4xx_HAL_Driver/Src/stm32g4xx_hal_dma.c ****   else
 562:Drivers/STM32G4xx_HAL_Driver/Src/stm32g4xx_hal_dma.c ****   {
 563:Drivers/STM32G4xx_HAL_Driver/Src/stm32g4xx_hal_dma.c ****     /* Disable DMA IT */
 564:Drivers/STM32G4xx_HAL_Driver/Src/stm32g4xx_hal_dma.c ****     __HAL_DMA_DISABLE_IT(hdma, (DMA_IT_TC | DMA_IT_HT | DMA_IT_TE));
 565:Drivers/STM32G4xx_HAL_Driver/Src/stm32g4xx_hal_dma.c **** 
 566:Drivers/STM32G4xx_HAL_Driver/Src/stm32g4xx_hal_dma.c ****     /* Disable the channel */
 567:Drivers/STM32G4xx_HAL_Driver/Src/stm32g4xx_hal_dma.c ****     __HAL_DMA_DISABLE(hdma);
 568:Drivers/STM32G4xx_HAL_Driver/Src/stm32g4xx_hal_dma.c **** 
 569:Drivers/STM32G4xx_HAL_Driver/Src/stm32g4xx_hal_dma.c ****     /* disable the DMAMUX sync overrun IT*/
 570:Drivers/STM32G4xx_HAL_Driver/Src/stm32g4xx_hal_dma.c ****     hdma->DMAmuxChannel->CCR &= ~DMAMUX_CxCR_SOIE;
 571:Drivers/STM32G4xx_HAL_Driver/Src/stm32g4xx_hal_dma.c **** 
 572:Drivers/STM32G4xx_HAL_Driver/Src/stm32g4xx_hal_dma.c ****     /* Clear all flags */
 573:Drivers/STM32G4xx_HAL_Driver/Src/stm32g4xx_hal_dma.c ****     hdma->DmaBaseAddress->IFCR = (DMA_ISR_GIF1 << (hdma->ChannelIndex & 0x1FU));
 574:Drivers/STM32G4xx_HAL_Driver/Src/stm32g4xx_hal_dma.c **** 
 575:Drivers/STM32G4xx_HAL_Driver/Src/stm32g4xx_hal_dma.c ****     /* Clear the DMAMUX synchro overrun flag */
 576:Drivers/STM32G4xx_HAL_Driver/Src/stm32g4xx_hal_dma.c ****     hdma->DMAmuxChannelStatus->CFR = hdma->DMAmuxChannelStatusMask;
 577:Drivers/STM32G4xx_HAL_Driver/Src/stm32g4xx_hal_dma.c **** 
 578:Drivers/STM32G4xx_HAL_Driver/Src/stm32g4xx_hal_dma.c ****     if (hdma->DMAmuxRequestGen != 0U)
 579:Drivers/STM32G4xx_HAL_Driver/Src/stm32g4xx_hal_dma.c ****     {
 580:Drivers/STM32G4xx_HAL_Driver/Src/stm32g4xx_hal_dma.c ****       /* if using DMAMUX request generator, disable the DMAMUX request generator overrun IT*/
ARM GAS   			page 13


 581:Drivers/STM32G4xx_HAL_Driver/Src/stm32g4xx_hal_dma.c ****       /* disable the request gen overrun IT*/
 582:Drivers/STM32G4xx_HAL_Driver/Src/stm32g4xx_hal_dma.c ****       hdma->DMAmuxRequestGen->RGCR &= ~DMAMUX_RGxCR_OIE;
 583:Drivers/STM32G4xx_HAL_Driver/Src/stm32g4xx_hal_dma.c **** 
 584:Drivers/STM32G4xx_HAL_Driver/Src/stm32g4xx_hal_dma.c ****       /* Clear the DMAMUX request generator overrun flag */
 585:Drivers/STM32G4xx_HAL_Driver/Src/stm32g4xx_hal_dma.c ****       hdma->DMAmuxRequestGenStatus->RGCFR = hdma->DMAmuxRequestGenStatusMask;
 586:Drivers/STM32G4xx_HAL_Driver/Src/stm32g4xx_hal_dma.c ****     }
 587:Drivers/STM32G4xx_HAL_Driver/Src/stm32g4xx_hal_dma.c **** 
 588:Drivers/STM32G4xx_HAL_Driver/Src/stm32g4xx_hal_dma.c ****     /* Change the DMA state */
 589:Drivers/STM32G4xx_HAL_Driver/Src/stm32g4xx_hal_dma.c ****     hdma->State = HAL_DMA_STATE_READY;
 590:Drivers/STM32G4xx_HAL_Driver/Src/stm32g4xx_hal_dma.c **** 
 591:Drivers/STM32G4xx_HAL_Driver/Src/stm32g4xx_hal_dma.c ****     /* Process Unlocked */
 592:Drivers/STM32G4xx_HAL_Driver/Src/stm32g4xx_hal_dma.c ****     __HAL_UNLOCK(hdma);
 593:Drivers/STM32G4xx_HAL_Driver/Src/stm32g4xx_hal_dma.c **** 
 594:Drivers/STM32G4xx_HAL_Driver/Src/stm32g4xx_hal_dma.c ****     /* Call User Abort callback */
 595:Drivers/STM32G4xx_HAL_Driver/Src/stm32g4xx_hal_dma.c ****     if (hdma->XferAbortCallback != NULL)
 596:Drivers/STM32G4xx_HAL_Driver/Src/stm32g4xx_hal_dma.c ****     {
 597:Drivers/STM32G4xx_HAL_Driver/Src/stm32g4xx_hal_dma.c ****       hdma->XferAbortCallback(hdma);
 598:Drivers/STM32G4xx_HAL_Driver/Src/stm32g4xx_hal_dma.c ****     }
 599:Drivers/STM32G4xx_HAL_Driver/Src/stm32g4xx_hal_dma.c ****   }
 600:Drivers/STM32G4xx_HAL_Driver/Src/stm32g4xx_hal_dma.c ****   return status;
 601:Drivers/STM32G4xx_HAL_Driver/Src/stm32g4xx_hal_dma.c **** }
 602:Drivers/STM32G4xx_HAL_Driver/Src/stm32g4xx_hal_dma.c **** 
 603:Drivers/STM32G4xx_HAL_Driver/Src/stm32g4xx_hal_dma.c **** /**
 604:Drivers/STM32G4xx_HAL_Driver/Src/stm32g4xx_hal_dma.c ****   * @brief  Polling for transfer complete.
 605:Drivers/STM32G4xx_HAL_Driver/Src/stm32g4xx_hal_dma.c ****   * @param  hdma pointer to a DMA_HandleTypeDef structure that contains
 606:Drivers/STM32G4xx_HAL_Driver/Src/stm32g4xx_hal_dma.c ****   *              the configuration information for the specified DMA Channel.
 607:Drivers/STM32G4xx_HAL_Driver/Src/stm32g4xx_hal_dma.c ****   * @param  CompleteLevel Specifies the DMA level complete.
 608:Drivers/STM32G4xx_HAL_Driver/Src/stm32g4xx_hal_dma.c ****   * @param  Timeout       Timeout duration.
 609:Drivers/STM32G4xx_HAL_Driver/Src/stm32g4xx_hal_dma.c ****   * @retval HAL status
 610:Drivers/STM32G4xx_HAL_Driver/Src/stm32g4xx_hal_dma.c ****   */
 611:Drivers/STM32G4xx_HAL_Driver/Src/stm32g4xx_hal_dma.c **** HAL_StatusTypeDef HAL_DMA_PollForTransfer(DMA_HandleTypeDef *hdma, HAL_DMA_LevelCompleteTypeDef Com
 612:Drivers/STM32G4xx_HAL_Driver/Src/stm32g4xx_hal_dma.c ****                                           uint32_t Timeout)
 613:Drivers/STM32G4xx_HAL_Driver/Src/stm32g4xx_hal_dma.c **** {
 614:Drivers/STM32G4xx_HAL_Driver/Src/stm32g4xx_hal_dma.c ****   uint32_t temp;
 615:Drivers/STM32G4xx_HAL_Driver/Src/stm32g4xx_hal_dma.c ****   uint32_t tickstart;
 616:Drivers/STM32G4xx_HAL_Driver/Src/stm32g4xx_hal_dma.c **** 
 617:Drivers/STM32G4xx_HAL_Driver/Src/stm32g4xx_hal_dma.c ****   if (HAL_DMA_STATE_BUSY != hdma->State)
 618:Drivers/STM32G4xx_HAL_Driver/Src/stm32g4xx_hal_dma.c ****   {
 619:Drivers/STM32G4xx_HAL_Driver/Src/stm32g4xx_hal_dma.c ****     /* no transfer ongoing */
 620:Drivers/STM32G4xx_HAL_Driver/Src/stm32g4xx_hal_dma.c ****     hdma->ErrorCode = HAL_DMA_ERROR_NO_XFER;
 621:Drivers/STM32G4xx_HAL_Driver/Src/stm32g4xx_hal_dma.c ****     __HAL_UNLOCK(hdma);
 622:Drivers/STM32G4xx_HAL_Driver/Src/stm32g4xx_hal_dma.c ****     return HAL_ERROR;
 623:Drivers/STM32G4xx_HAL_Driver/Src/stm32g4xx_hal_dma.c ****   }
 624:Drivers/STM32G4xx_HAL_Driver/Src/stm32g4xx_hal_dma.c **** 
 625:Drivers/STM32G4xx_HAL_Driver/Src/stm32g4xx_hal_dma.c ****   /* Polling mode not supported in circular mode */
 626:Drivers/STM32G4xx_HAL_Driver/Src/stm32g4xx_hal_dma.c ****   if (0U != (hdma->Instance->CCR & DMA_CCR_CIRC))
 627:Drivers/STM32G4xx_HAL_Driver/Src/stm32g4xx_hal_dma.c ****   {
 628:Drivers/STM32G4xx_HAL_Driver/Src/stm32g4xx_hal_dma.c ****     hdma->ErrorCode = HAL_DMA_ERROR_NOT_SUPPORTED;
 629:Drivers/STM32G4xx_HAL_Driver/Src/stm32g4xx_hal_dma.c ****     return HAL_ERROR;
 630:Drivers/STM32G4xx_HAL_Driver/Src/stm32g4xx_hal_dma.c ****   }
 631:Drivers/STM32G4xx_HAL_Driver/Src/stm32g4xx_hal_dma.c **** 
 632:Drivers/STM32G4xx_HAL_Driver/Src/stm32g4xx_hal_dma.c ****   /* Get the level transfer complete flag */
 633:Drivers/STM32G4xx_HAL_Driver/Src/stm32g4xx_hal_dma.c ****   if (HAL_DMA_FULL_TRANSFER == CompleteLevel)
 634:Drivers/STM32G4xx_HAL_Driver/Src/stm32g4xx_hal_dma.c ****   {
 635:Drivers/STM32G4xx_HAL_Driver/Src/stm32g4xx_hal_dma.c ****     /* Transfer Complete flag */
 636:Drivers/STM32G4xx_HAL_Driver/Src/stm32g4xx_hal_dma.c **** 
 637:Drivers/STM32G4xx_HAL_Driver/Src/stm32g4xx_hal_dma.c ****     temp = (uint32_t)DMA_FLAG_TC1 << (hdma->ChannelIndex & 0x1FU);
ARM GAS   			page 14


 638:Drivers/STM32G4xx_HAL_Driver/Src/stm32g4xx_hal_dma.c ****   }
 639:Drivers/STM32G4xx_HAL_Driver/Src/stm32g4xx_hal_dma.c ****   else
 640:Drivers/STM32G4xx_HAL_Driver/Src/stm32g4xx_hal_dma.c ****   {
 641:Drivers/STM32G4xx_HAL_Driver/Src/stm32g4xx_hal_dma.c ****     /* Half Transfer Complete flag */
 642:Drivers/STM32G4xx_HAL_Driver/Src/stm32g4xx_hal_dma.c ****     temp = (uint32_t)DMA_FLAG_HT1 << (hdma->ChannelIndex & 0x1FU);
 643:Drivers/STM32G4xx_HAL_Driver/Src/stm32g4xx_hal_dma.c ****   }
 644:Drivers/STM32G4xx_HAL_Driver/Src/stm32g4xx_hal_dma.c **** 
 645:Drivers/STM32G4xx_HAL_Driver/Src/stm32g4xx_hal_dma.c ****   /* Get tick */
 646:Drivers/STM32G4xx_HAL_Driver/Src/stm32g4xx_hal_dma.c ****   tickstart = HAL_GetTick();
 647:Drivers/STM32G4xx_HAL_Driver/Src/stm32g4xx_hal_dma.c **** 
 648:Drivers/STM32G4xx_HAL_Driver/Src/stm32g4xx_hal_dma.c ****   while (0U == (hdma->DmaBaseAddress->ISR & temp))
 649:Drivers/STM32G4xx_HAL_Driver/Src/stm32g4xx_hal_dma.c ****   {
 650:Drivers/STM32G4xx_HAL_Driver/Src/stm32g4xx_hal_dma.c ****     if ((0U != (hdma->DmaBaseAddress->ISR & ((uint32_t)DMA_FLAG_TE1 << (hdma->ChannelIndex & 0x1FU)
 651:Drivers/STM32G4xx_HAL_Driver/Src/stm32g4xx_hal_dma.c ****     {
 652:Drivers/STM32G4xx_HAL_Driver/Src/stm32g4xx_hal_dma.c ****       /* When a DMA transfer error occurs */
 653:Drivers/STM32G4xx_HAL_Driver/Src/stm32g4xx_hal_dma.c ****       /* A hardware clear of its EN bits is performed */
 654:Drivers/STM32G4xx_HAL_Driver/Src/stm32g4xx_hal_dma.c ****       /* Clear all flags */
 655:Drivers/STM32G4xx_HAL_Driver/Src/stm32g4xx_hal_dma.c ****       hdma->DmaBaseAddress->IFCR = ((uint32_t)DMA_ISR_GIF1 << (hdma->ChannelIndex & 0x1FU));
 656:Drivers/STM32G4xx_HAL_Driver/Src/stm32g4xx_hal_dma.c **** 
 657:Drivers/STM32G4xx_HAL_Driver/Src/stm32g4xx_hal_dma.c ****       /* Update error code */
 658:Drivers/STM32G4xx_HAL_Driver/Src/stm32g4xx_hal_dma.c ****       hdma->ErrorCode = HAL_DMA_ERROR_TE;
 659:Drivers/STM32G4xx_HAL_Driver/Src/stm32g4xx_hal_dma.c **** 
 660:Drivers/STM32G4xx_HAL_Driver/Src/stm32g4xx_hal_dma.c ****       /* Change the DMA state */
 661:Drivers/STM32G4xx_HAL_Driver/Src/stm32g4xx_hal_dma.c ****       hdma->State = HAL_DMA_STATE_READY;
 662:Drivers/STM32G4xx_HAL_Driver/Src/stm32g4xx_hal_dma.c **** 
 663:Drivers/STM32G4xx_HAL_Driver/Src/stm32g4xx_hal_dma.c ****       /* Process Unlocked */
 664:Drivers/STM32G4xx_HAL_Driver/Src/stm32g4xx_hal_dma.c ****       __HAL_UNLOCK(hdma);
 665:Drivers/STM32G4xx_HAL_Driver/Src/stm32g4xx_hal_dma.c **** 
 666:Drivers/STM32G4xx_HAL_Driver/Src/stm32g4xx_hal_dma.c ****       return HAL_ERROR;
 667:Drivers/STM32G4xx_HAL_Driver/Src/stm32g4xx_hal_dma.c ****     }
 668:Drivers/STM32G4xx_HAL_Driver/Src/stm32g4xx_hal_dma.c ****     /* Check for the Timeout */
 669:Drivers/STM32G4xx_HAL_Driver/Src/stm32g4xx_hal_dma.c ****     if (Timeout != HAL_MAX_DELAY)
 670:Drivers/STM32G4xx_HAL_Driver/Src/stm32g4xx_hal_dma.c ****     {
 671:Drivers/STM32G4xx_HAL_Driver/Src/stm32g4xx_hal_dma.c ****       if (((HAL_GetTick() - tickstart) > Timeout) || (Timeout == 0U))
 672:Drivers/STM32G4xx_HAL_Driver/Src/stm32g4xx_hal_dma.c ****       {
 673:Drivers/STM32G4xx_HAL_Driver/Src/stm32g4xx_hal_dma.c ****         /* Update error code */
 674:Drivers/STM32G4xx_HAL_Driver/Src/stm32g4xx_hal_dma.c ****         hdma->ErrorCode = HAL_DMA_ERROR_TIMEOUT;
 675:Drivers/STM32G4xx_HAL_Driver/Src/stm32g4xx_hal_dma.c **** 
 676:Drivers/STM32G4xx_HAL_Driver/Src/stm32g4xx_hal_dma.c ****         /* Change the DMA state */
 677:Drivers/STM32G4xx_HAL_Driver/Src/stm32g4xx_hal_dma.c ****         hdma->State = HAL_DMA_STATE_READY;
 678:Drivers/STM32G4xx_HAL_Driver/Src/stm32g4xx_hal_dma.c **** 
 679:Drivers/STM32G4xx_HAL_Driver/Src/stm32g4xx_hal_dma.c ****         /* Process Unlocked */
 680:Drivers/STM32G4xx_HAL_Driver/Src/stm32g4xx_hal_dma.c ****         __HAL_UNLOCK(hdma);
 681:Drivers/STM32G4xx_HAL_Driver/Src/stm32g4xx_hal_dma.c **** 
 682:Drivers/STM32G4xx_HAL_Driver/Src/stm32g4xx_hal_dma.c ****         return HAL_ERROR;
 683:Drivers/STM32G4xx_HAL_Driver/Src/stm32g4xx_hal_dma.c ****       }
 684:Drivers/STM32G4xx_HAL_Driver/Src/stm32g4xx_hal_dma.c ****     }
 685:Drivers/STM32G4xx_HAL_Driver/Src/stm32g4xx_hal_dma.c ****   }
 686:Drivers/STM32G4xx_HAL_Driver/Src/stm32g4xx_hal_dma.c **** 
 687:Drivers/STM32G4xx_HAL_Driver/Src/stm32g4xx_hal_dma.c ****   /*Check for DMAMUX Request generator (if used) overrun status */
 688:Drivers/STM32G4xx_HAL_Driver/Src/stm32g4xx_hal_dma.c ****   if (hdma->DMAmuxRequestGen != 0U)
 689:Drivers/STM32G4xx_HAL_Driver/Src/stm32g4xx_hal_dma.c ****   {
 690:Drivers/STM32G4xx_HAL_Driver/Src/stm32g4xx_hal_dma.c ****     /* if using DMAMUX request generator Check for DMAMUX request generator overrun */
 691:Drivers/STM32G4xx_HAL_Driver/Src/stm32g4xx_hal_dma.c ****     if ((hdma->DMAmuxRequestGenStatus->RGSR & hdma->DMAmuxRequestGenStatusMask) != 0U)
 692:Drivers/STM32G4xx_HAL_Driver/Src/stm32g4xx_hal_dma.c ****     {
 693:Drivers/STM32G4xx_HAL_Driver/Src/stm32g4xx_hal_dma.c ****       /* Disable the request gen overrun interrupt */
 694:Drivers/STM32G4xx_HAL_Driver/Src/stm32g4xx_hal_dma.c ****       hdma->DMAmuxRequestGen->RGCR |= DMAMUX_RGxCR_OIE;
ARM GAS   			page 15


 695:Drivers/STM32G4xx_HAL_Driver/Src/stm32g4xx_hal_dma.c **** 
 696:Drivers/STM32G4xx_HAL_Driver/Src/stm32g4xx_hal_dma.c ****       /* Clear the DMAMUX request generator overrun flag */
 697:Drivers/STM32G4xx_HAL_Driver/Src/stm32g4xx_hal_dma.c ****       hdma->DMAmuxRequestGenStatus->RGCFR = hdma->DMAmuxRequestGenStatusMask;
 698:Drivers/STM32G4xx_HAL_Driver/Src/stm32g4xx_hal_dma.c **** 
 699:Drivers/STM32G4xx_HAL_Driver/Src/stm32g4xx_hal_dma.c ****       /* Update error code */
 700:Drivers/STM32G4xx_HAL_Driver/Src/stm32g4xx_hal_dma.c ****       hdma->ErrorCode |= HAL_DMA_ERROR_REQGEN;
 701:Drivers/STM32G4xx_HAL_Driver/Src/stm32g4xx_hal_dma.c ****     }
 702:Drivers/STM32G4xx_HAL_Driver/Src/stm32g4xx_hal_dma.c ****   }
 703:Drivers/STM32G4xx_HAL_Driver/Src/stm32g4xx_hal_dma.c **** 
 704:Drivers/STM32G4xx_HAL_Driver/Src/stm32g4xx_hal_dma.c ****   /* Check for DMAMUX Synchronization overrun */
 705:Drivers/STM32G4xx_HAL_Driver/Src/stm32g4xx_hal_dma.c ****   if ((hdma->DMAmuxChannelStatus->CSR & hdma->DMAmuxChannelStatusMask) != 0U)
 706:Drivers/STM32G4xx_HAL_Driver/Src/stm32g4xx_hal_dma.c ****   {
 707:Drivers/STM32G4xx_HAL_Driver/Src/stm32g4xx_hal_dma.c ****     /* Clear the DMAMUX synchro overrun flag */
 708:Drivers/STM32G4xx_HAL_Driver/Src/stm32g4xx_hal_dma.c ****     hdma->DMAmuxChannelStatus->CFR = hdma->DMAmuxChannelStatusMask;
 709:Drivers/STM32G4xx_HAL_Driver/Src/stm32g4xx_hal_dma.c **** 
 710:Drivers/STM32G4xx_HAL_Driver/Src/stm32g4xx_hal_dma.c ****     /* Update error code */
 711:Drivers/STM32G4xx_HAL_Driver/Src/stm32g4xx_hal_dma.c ****     hdma->ErrorCode |= HAL_DMA_ERROR_SYNC;
 712:Drivers/STM32G4xx_HAL_Driver/Src/stm32g4xx_hal_dma.c ****   }
 713:Drivers/STM32G4xx_HAL_Driver/Src/stm32g4xx_hal_dma.c **** 
 714:Drivers/STM32G4xx_HAL_Driver/Src/stm32g4xx_hal_dma.c ****   if (HAL_DMA_FULL_TRANSFER == CompleteLevel)
 715:Drivers/STM32G4xx_HAL_Driver/Src/stm32g4xx_hal_dma.c ****   {
 716:Drivers/STM32G4xx_HAL_Driver/Src/stm32g4xx_hal_dma.c ****     /* Clear the transfer complete flag */
 717:Drivers/STM32G4xx_HAL_Driver/Src/stm32g4xx_hal_dma.c ****     hdma->DmaBaseAddress->IFCR = ((uint32_t)DMA_FLAG_TC1 << (hdma->ChannelIndex & 0x1FU));
 718:Drivers/STM32G4xx_HAL_Driver/Src/stm32g4xx_hal_dma.c **** 
 719:Drivers/STM32G4xx_HAL_Driver/Src/stm32g4xx_hal_dma.c ****     /* The selected Channelx EN bit is cleared (DMA is disabled and
 720:Drivers/STM32G4xx_HAL_Driver/Src/stm32g4xx_hal_dma.c ****     all transfers are complete) */
 721:Drivers/STM32G4xx_HAL_Driver/Src/stm32g4xx_hal_dma.c ****     hdma->State = HAL_DMA_STATE_READY;
 722:Drivers/STM32G4xx_HAL_Driver/Src/stm32g4xx_hal_dma.c ****   }
 723:Drivers/STM32G4xx_HAL_Driver/Src/stm32g4xx_hal_dma.c ****   else
 724:Drivers/STM32G4xx_HAL_Driver/Src/stm32g4xx_hal_dma.c ****   {
 725:Drivers/STM32G4xx_HAL_Driver/Src/stm32g4xx_hal_dma.c ****     /* Clear the half transfer complete flag */
 726:Drivers/STM32G4xx_HAL_Driver/Src/stm32g4xx_hal_dma.c ****     hdma->DmaBaseAddress->IFCR = ((uint32_t)DMA_FLAG_HT1 << (hdma->ChannelIndex & 0x1FU));
 727:Drivers/STM32G4xx_HAL_Driver/Src/stm32g4xx_hal_dma.c ****   }
 728:Drivers/STM32G4xx_HAL_Driver/Src/stm32g4xx_hal_dma.c **** 
 729:Drivers/STM32G4xx_HAL_Driver/Src/stm32g4xx_hal_dma.c ****   /* Process unlocked */
 730:Drivers/STM32G4xx_HAL_Driver/Src/stm32g4xx_hal_dma.c ****   __HAL_UNLOCK(hdma);
 731:Drivers/STM32G4xx_HAL_Driver/Src/stm32g4xx_hal_dma.c **** 
 732:Drivers/STM32G4xx_HAL_Driver/Src/stm32g4xx_hal_dma.c ****   return HAL_OK;
 733:Drivers/STM32G4xx_HAL_Driver/Src/stm32g4xx_hal_dma.c **** }
 734:Drivers/STM32G4xx_HAL_Driver/Src/stm32g4xx_hal_dma.c **** 
 735:Drivers/STM32G4xx_HAL_Driver/Src/stm32g4xx_hal_dma.c **** /**
 736:Drivers/STM32G4xx_HAL_Driver/Src/stm32g4xx_hal_dma.c ****   * @brief  Handle DMA interrupt request.
 737:Drivers/STM32G4xx_HAL_Driver/Src/stm32g4xx_hal_dma.c ****   * @param  hdma pointer to a DMA_HandleTypeDef structure that contains
 738:Drivers/STM32G4xx_HAL_Driver/Src/stm32g4xx_hal_dma.c ****   *               the configuration information for the specified DMA Channel.
 739:Drivers/STM32G4xx_HAL_Driver/Src/stm32g4xx_hal_dma.c ****   * @retval None
 740:Drivers/STM32G4xx_HAL_Driver/Src/stm32g4xx_hal_dma.c ****   */
 741:Drivers/STM32G4xx_HAL_Driver/Src/stm32g4xx_hal_dma.c **** void HAL_DMA_IRQHandler(DMA_HandleTypeDef *hdma)
 742:Drivers/STM32G4xx_HAL_Driver/Src/stm32g4xx_hal_dma.c **** {
 743:Drivers/STM32G4xx_HAL_Driver/Src/stm32g4xx_hal_dma.c ****   uint32_t flag_it = hdma->DmaBaseAddress->ISR;
 744:Drivers/STM32G4xx_HAL_Driver/Src/stm32g4xx_hal_dma.c ****   uint32_t source_it = hdma->Instance->CCR;
 745:Drivers/STM32G4xx_HAL_Driver/Src/stm32g4xx_hal_dma.c **** 
 746:Drivers/STM32G4xx_HAL_Driver/Src/stm32g4xx_hal_dma.c ****   /* Half Transfer Complete Interrupt management ******************************/
 747:Drivers/STM32G4xx_HAL_Driver/Src/stm32g4xx_hal_dma.c ****   if ((0U != (flag_it & ((uint32_t)DMA_FLAG_HT1 << (hdma->ChannelIndex & 0x1FU)))) && (0U != (sourc
 748:Drivers/STM32G4xx_HAL_Driver/Src/stm32g4xx_hal_dma.c ****   {
 749:Drivers/STM32G4xx_HAL_Driver/Src/stm32g4xx_hal_dma.c ****     /* Disable the half transfer interrupt if the DMA mode is not CIRCULAR */
 750:Drivers/STM32G4xx_HAL_Driver/Src/stm32g4xx_hal_dma.c ****     if ((hdma->Instance->CCR & DMA_CCR_CIRC) == 0U)
 751:Drivers/STM32G4xx_HAL_Driver/Src/stm32g4xx_hal_dma.c ****     {
ARM GAS   			page 16


 752:Drivers/STM32G4xx_HAL_Driver/Src/stm32g4xx_hal_dma.c ****       /* Disable the half transfer interrupt */
 753:Drivers/STM32G4xx_HAL_Driver/Src/stm32g4xx_hal_dma.c ****       __HAL_DMA_DISABLE_IT(hdma, DMA_IT_HT);
 754:Drivers/STM32G4xx_HAL_Driver/Src/stm32g4xx_hal_dma.c ****     }
 755:Drivers/STM32G4xx_HAL_Driver/Src/stm32g4xx_hal_dma.c ****     /* Clear the half transfer complete flag */
 756:Drivers/STM32G4xx_HAL_Driver/Src/stm32g4xx_hal_dma.c ****     hdma->DmaBaseAddress->IFCR = ((uint32_t)DMA_ISR_HTIF1 << (hdma->ChannelIndex & 0x1FU));
 757:Drivers/STM32G4xx_HAL_Driver/Src/stm32g4xx_hal_dma.c **** 
 758:Drivers/STM32G4xx_HAL_Driver/Src/stm32g4xx_hal_dma.c ****     /* DMA peripheral state is not updated in Half Transfer */
 759:Drivers/STM32G4xx_HAL_Driver/Src/stm32g4xx_hal_dma.c ****     /* but in Transfer Complete case */
 760:Drivers/STM32G4xx_HAL_Driver/Src/stm32g4xx_hal_dma.c **** 
 761:Drivers/STM32G4xx_HAL_Driver/Src/stm32g4xx_hal_dma.c ****     if (hdma->XferHalfCpltCallback != NULL)
 762:Drivers/STM32G4xx_HAL_Driver/Src/stm32g4xx_hal_dma.c ****     {
 763:Drivers/STM32G4xx_HAL_Driver/Src/stm32g4xx_hal_dma.c ****       /* Half transfer callback */
 764:Drivers/STM32G4xx_HAL_Driver/Src/stm32g4xx_hal_dma.c ****       hdma->XferHalfCpltCallback(hdma);
 765:Drivers/STM32G4xx_HAL_Driver/Src/stm32g4xx_hal_dma.c ****     }
 766:Drivers/STM32G4xx_HAL_Driver/Src/stm32g4xx_hal_dma.c ****   }
 767:Drivers/STM32G4xx_HAL_Driver/Src/stm32g4xx_hal_dma.c ****   /* Transfer Complete Interrupt management ***********************************/
 768:Drivers/STM32G4xx_HAL_Driver/Src/stm32g4xx_hal_dma.c ****   else if ((0U != (flag_it & ((uint32_t)DMA_FLAG_TC1 << (hdma->ChannelIndex & 0x1FU))))
 769:Drivers/STM32G4xx_HAL_Driver/Src/stm32g4xx_hal_dma.c ****            && (0U != (source_it & DMA_IT_TC)))
 770:Drivers/STM32G4xx_HAL_Driver/Src/stm32g4xx_hal_dma.c ****   {
 771:Drivers/STM32G4xx_HAL_Driver/Src/stm32g4xx_hal_dma.c ****     if ((hdma->Instance->CCR & DMA_CCR_CIRC) == 0U)
 772:Drivers/STM32G4xx_HAL_Driver/Src/stm32g4xx_hal_dma.c ****     {
 773:Drivers/STM32G4xx_HAL_Driver/Src/stm32g4xx_hal_dma.c ****       /* Disable the transfer complete and error interrupt */
 774:Drivers/STM32G4xx_HAL_Driver/Src/stm32g4xx_hal_dma.c ****       __HAL_DMA_DISABLE_IT(hdma, DMA_IT_TE | DMA_IT_TC);
 775:Drivers/STM32G4xx_HAL_Driver/Src/stm32g4xx_hal_dma.c **** 
 776:Drivers/STM32G4xx_HAL_Driver/Src/stm32g4xx_hal_dma.c ****       /* Change the DMA state */
 777:Drivers/STM32G4xx_HAL_Driver/Src/stm32g4xx_hal_dma.c ****       hdma->State = HAL_DMA_STATE_READY;
 778:Drivers/STM32G4xx_HAL_Driver/Src/stm32g4xx_hal_dma.c ****     }
 779:Drivers/STM32G4xx_HAL_Driver/Src/stm32g4xx_hal_dma.c ****     /* Clear the transfer complete flag */
 780:Drivers/STM32G4xx_HAL_Driver/Src/stm32g4xx_hal_dma.c ****     hdma->DmaBaseAddress->IFCR = ((uint32_t)DMA_ISR_TCIF1 << (hdma->ChannelIndex & 0x1FU));
 781:Drivers/STM32G4xx_HAL_Driver/Src/stm32g4xx_hal_dma.c **** 
 782:Drivers/STM32G4xx_HAL_Driver/Src/stm32g4xx_hal_dma.c ****     /* Process Unlocked */
 783:Drivers/STM32G4xx_HAL_Driver/Src/stm32g4xx_hal_dma.c ****     __HAL_UNLOCK(hdma);
 784:Drivers/STM32G4xx_HAL_Driver/Src/stm32g4xx_hal_dma.c **** 
 785:Drivers/STM32G4xx_HAL_Driver/Src/stm32g4xx_hal_dma.c ****     if (hdma->XferCpltCallback != NULL)
 786:Drivers/STM32G4xx_HAL_Driver/Src/stm32g4xx_hal_dma.c ****     {
 787:Drivers/STM32G4xx_HAL_Driver/Src/stm32g4xx_hal_dma.c ****       /* Transfer complete callback */
 788:Drivers/STM32G4xx_HAL_Driver/Src/stm32g4xx_hal_dma.c ****       hdma->XferCpltCallback(hdma);
 789:Drivers/STM32G4xx_HAL_Driver/Src/stm32g4xx_hal_dma.c ****     }
 790:Drivers/STM32G4xx_HAL_Driver/Src/stm32g4xx_hal_dma.c ****   }
 791:Drivers/STM32G4xx_HAL_Driver/Src/stm32g4xx_hal_dma.c ****   /* Transfer Error Interrupt management **************************************/
 792:Drivers/STM32G4xx_HAL_Driver/Src/stm32g4xx_hal_dma.c ****   else if ((0U != (flag_it & ((uint32_t)DMA_FLAG_TE1 << (hdma->ChannelIndex & 0x1FU))))
 793:Drivers/STM32G4xx_HAL_Driver/Src/stm32g4xx_hal_dma.c ****            && (0U != (source_it & DMA_IT_TE)))
 794:Drivers/STM32G4xx_HAL_Driver/Src/stm32g4xx_hal_dma.c ****   {
 795:Drivers/STM32G4xx_HAL_Driver/Src/stm32g4xx_hal_dma.c ****     /* When a DMA transfer error occurs */
 796:Drivers/STM32G4xx_HAL_Driver/Src/stm32g4xx_hal_dma.c ****     /* A hardware clear of its EN bits is performed */
 797:Drivers/STM32G4xx_HAL_Driver/Src/stm32g4xx_hal_dma.c ****     /* Disable ALL DMA IT */
 798:Drivers/STM32G4xx_HAL_Driver/Src/stm32g4xx_hal_dma.c ****     __HAL_DMA_DISABLE_IT(hdma, (DMA_IT_TC | DMA_IT_HT | DMA_IT_TE));
 799:Drivers/STM32G4xx_HAL_Driver/Src/stm32g4xx_hal_dma.c **** 
 800:Drivers/STM32G4xx_HAL_Driver/Src/stm32g4xx_hal_dma.c ****     /* Clear all flags */
 801:Drivers/STM32G4xx_HAL_Driver/Src/stm32g4xx_hal_dma.c ****     hdma->DmaBaseAddress->IFCR = ((uint32_t)DMA_ISR_GIF1 << (hdma->ChannelIndex & 0x1FU));
 802:Drivers/STM32G4xx_HAL_Driver/Src/stm32g4xx_hal_dma.c **** 
 803:Drivers/STM32G4xx_HAL_Driver/Src/stm32g4xx_hal_dma.c ****     /* Update error code */
 804:Drivers/STM32G4xx_HAL_Driver/Src/stm32g4xx_hal_dma.c ****     hdma->ErrorCode = HAL_DMA_ERROR_TE;
 805:Drivers/STM32G4xx_HAL_Driver/Src/stm32g4xx_hal_dma.c **** 
 806:Drivers/STM32G4xx_HAL_Driver/Src/stm32g4xx_hal_dma.c ****     /* Change the DMA state */
 807:Drivers/STM32G4xx_HAL_Driver/Src/stm32g4xx_hal_dma.c ****     hdma->State = HAL_DMA_STATE_READY;
 808:Drivers/STM32G4xx_HAL_Driver/Src/stm32g4xx_hal_dma.c **** 
ARM GAS   			page 17


 809:Drivers/STM32G4xx_HAL_Driver/Src/stm32g4xx_hal_dma.c ****     /* Process Unlocked */
 810:Drivers/STM32G4xx_HAL_Driver/Src/stm32g4xx_hal_dma.c ****     __HAL_UNLOCK(hdma);
 811:Drivers/STM32G4xx_HAL_Driver/Src/stm32g4xx_hal_dma.c **** 
 812:Drivers/STM32G4xx_HAL_Driver/Src/stm32g4xx_hal_dma.c ****     if (hdma->XferErrorCallback != NULL)
 813:Drivers/STM32G4xx_HAL_Driver/Src/stm32g4xx_hal_dma.c ****     {
 814:Drivers/STM32G4xx_HAL_Driver/Src/stm32g4xx_hal_dma.c ****       /* Transfer error callback */
 815:Drivers/STM32G4xx_HAL_Driver/Src/stm32g4xx_hal_dma.c ****       hdma->XferErrorCallback(hdma);
 816:Drivers/STM32G4xx_HAL_Driver/Src/stm32g4xx_hal_dma.c ****     }
 817:Drivers/STM32G4xx_HAL_Driver/Src/stm32g4xx_hal_dma.c ****   }
 818:Drivers/STM32G4xx_HAL_Driver/Src/stm32g4xx_hal_dma.c ****   else
 819:Drivers/STM32G4xx_HAL_Driver/Src/stm32g4xx_hal_dma.c ****   {
 820:Drivers/STM32G4xx_HAL_Driver/Src/stm32g4xx_hal_dma.c ****     /* Nothing To Do */
 821:Drivers/STM32G4xx_HAL_Driver/Src/stm32g4xx_hal_dma.c ****   }
 822:Drivers/STM32G4xx_HAL_Driver/Src/stm32g4xx_hal_dma.c ****   return;
 823:Drivers/STM32G4xx_HAL_Driver/Src/stm32g4xx_hal_dma.c **** }
 824:Drivers/STM32G4xx_HAL_Driver/Src/stm32g4xx_hal_dma.c **** 
 825:Drivers/STM32G4xx_HAL_Driver/Src/stm32g4xx_hal_dma.c **** /**
 826:Drivers/STM32G4xx_HAL_Driver/Src/stm32g4xx_hal_dma.c ****   * @brief  Register callbacks
 827:Drivers/STM32G4xx_HAL_Driver/Src/stm32g4xx_hal_dma.c ****   * @param  hdma                 pointer to a DMA_HandleTypeDef structure that contains
 828:Drivers/STM32G4xx_HAL_Driver/Src/stm32g4xx_hal_dma.c ****   *                               the configuration information for the specified DMA Channel.
 829:Drivers/STM32G4xx_HAL_Driver/Src/stm32g4xx_hal_dma.c ****   * @param  CallbackID           User Callback identifier
 830:Drivers/STM32G4xx_HAL_Driver/Src/stm32g4xx_hal_dma.c ****   *                               a HAL_DMA_CallbackIDTypeDef ENUM as parameter.
 831:Drivers/STM32G4xx_HAL_Driver/Src/stm32g4xx_hal_dma.c ****   * @param  pCallback            pointer to private callbacsk function which has pointer to
 832:Drivers/STM32G4xx_HAL_Driver/Src/stm32g4xx_hal_dma.c ****   *                               a DMA_HandleTypeDef structure as parameter.
 833:Drivers/STM32G4xx_HAL_Driver/Src/stm32g4xx_hal_dma.c ****   * @retval HAL status
 834:Drivers/STM32G4xx_HAL_Driver/Src/stm32g4xx_hal_dma.c ****   */
 835:Drivers/STM32G4xx_HAL_Driver/Src/stm32g4xx_hal_dma.c **** HAL_StatusTypeDef HAL_DMA_RegisterCallback(DMA_HandleTypeDef *hdma, HAL_DMA_CallbackIDTypeDef Callb
 836:Drivers/STM32G4xx_HAL_Driver/Src/stm32g4xx_hal_dma.c **** {
 837:Drivers/STM32G4xx_HAL_Driver/Src/stm32g4xx_hal_dma.c ****   HAL_StatusTypeDef status = HAL_OK;
 838:Drivers/STM32G4xx_HAL_Driver/Src/stm32g4xx_hal_dma.c **** 
 839:Drivers/STM32G4xx_HAL_Driver/Src/stm32g4xx_hal_dma.c ****   /* Process locked */
 840:Drivers/STM32G4xx_HAL_Driver/Src/stm32g4xx_hal_dma.c ****   __HAL_LOCK(hdma);
 841:Drivers/STM32G4xx_HAL_Driver/Src/stm32g4xx_hal_dma.c **** 
 842:Drivers/STM32G4xx_HAL_Driver/Src/stm32g4xx_hal_dma.c ****   if (HAL_DMA_STATE_READY == hdma->State)
 843:Drivers/STM32G4xx_HAL_Driver/Src/stm32g4xx_hal_dma.c ****   {
 844:Drivers/STM32G4xx_HAL_Driver/Src/stm32g4xx_hal_dma.c ****     switch (CallbackID)
 845:Drivers/STM32G4xx_HAL_Driver/Src/stm32g4xx_hal_dma.c ****     {
 846:Drivers/STM32G4xx_HAL_Driver/Src/stm32g4xx_hal_dma.c ****       case  HAL_DMA_XFER_CPLT_CB_ID:
 847:Drivers/STM32G4xx_HAL_Driver/Src/stm32g4xx_hal_dma.c ****         hdma->XferCpltCallback = pCallback;
 848:Drivers/STM32G4xx_HAL_Driver/Src/stm32g4xx_hal_dma.c ****         break;
 849:Drivers/STM32G4xx_HAL_Driver/Src/stm32g4xx_hal_dma.c **** 
 850:Drivers/STM32G4xx_HAL_Driver/Src/stm32g4xx_hal_dma.c ****       case  HAL_DMA_XFER_HALFCPLT_CB_ID:
 851:Drivers/STM32G4xx_HAL_Driver/Src/stm32g4xx_hal_dma.c ****         hdma->XferHalfCpltCallback = pCallback;
 852:Drivers/STM32G4xx_HAL_Driver/Src/stm32g4xx_hal_dma.c ****         break;
 853:Drivers/STM32G4xx_HAL_Driver/Src/stm32g4xx_hal_dma.c **** 
 854:Drivers/STM32G4xx_HAL_Driver/Src/stm32g4xx_hal_dma.c ****       case  HAL_DMA_XFER_ERROR_CB_ID:
 855:Drivers/STM32G4xx_HAL_Driver/Src/stm32g4xx_hal_dma.c ****         hdma->XferErrorCallback = pCallback;
 856:Drivers/STM32G4xx_HAL_Driver/Src/stm32g4xx_hal_dma.c ****         break;
 857:Drivers/STM32G4xx_HAL_Driver/Src/stm32g4xx_hal_dma.c **** 
 858:Drivers/STM32G4xx_HAL_Driver/Src/stm32g4xx_hal_dma.c ****       case  HAL_DMA_XFER_ABORT_CB_ID:
 859:Drivers/STM32G4xx_HAL_Driver/Src/stm32g4xx_hal_dma.c ****         hdma->XferAbortCallback = pCallback;
 860:Drivers/STM32G4xx_HAL_Driver/Src/stm32g4xx_hal_dma.c ****         break;
 861:Drivers/STM32G4xx_HAL_Driver/Src/stm32g4xx_hal_dma.c **** 
 862:Drivers/STM32G4xx_HAL_Driver/Src/stm32g4xx_hal_dma.c ****       default:
 863:Drivers/STM32G4xx_HAL_Driver/Src/stm32g4xx_hal_dma.c ****         status = HAL_ERROR;
 864:Drivers/STM32G4xx_HAL_Driver/Src/stm32g4xx_hal_dma.c ****         break;
 865:Drivers/STM32G4xx_HAL_Driver/Src/stm32g4xx_hal_dma.c ****     }
ARM GAS   			page 18


 866:Drivers/STM32G4xx_HAL_Driver/Src/stm32g4xx_hal_dma.c ****   }
 867:Drivers/STM32G4xx_HAL_Driver/Src/stm32g4xx_hal_dma.c ****   else
 868:Drivers/STM32G4xx_HAL_Driver/Src/stm32g4xx_hal_dma.c ****   {
 869:Drivers/STM32G4xx_HAL_Driver/Src/stm32g4xx_hal_dma.c ****     status = HAL_ERROR;
 870:Drivers/STM32G4xx_HAL_Driver/Src/stm32g4xx_hal_dma.c ****   }
 871:Drivers/STM32G4xx_HAL_Driver/Src/stm32g4xx_hal_dma.c **** 
 872:Drivers/STM32G4xx_HAL_Driver/Src/stm32g4xx_hal_dma.c ****   /* Release Lock */
 873:Drivers/STM32G4xx_HAL_Driver/Src/stm32g4xx_hal_dma.c ****   __HAL_UNLOCK(hdma);
 874:Drivers/STM32G4xx_HAL_Driver/Src/stm32g4xx_hal_dma.c **** 
 875:Drivers/STM32G4xx_HAL_Driver/Src/stm32g4xx_hal_dma.c ****   return status;
 876:Drivers/STM32G4xx_HAL_Driver/Src/stm32g4xx_hal_dma.c **** }
 877:Drivers/STM32G4xx_HAL_Driver/Src/stm32g4xx_hal_dma.c **** 
 878:Drivers/STM32G4xx_HAL_Driver/Src/stm32g4xx_hal_dma.c **** /**
 879:Drivers/STM32G4xx_HAL_Driver/Src/stm32g4xx_hal_dma.c ****   * @brief  UnRegister callbacks
 880:Drivers/STM32G4xx_HAL_Driver/Src/stm32g4xx_hal_dma.c ****   * @param  hdma                 pointer to a DMA_HandleTypeDef structure that contains
 881:Drivers/STM32G4xx_HAL_Driver/Src/stm32g4xx_hal_dma.c ****   *                               the configuration information for the specified DMA Channel.
 882:Drivers/STM32G4xx_HAL_Driver/Src/stm32g4xx_hal_dma.c ****   * @param  CallbackID           User Callback identifier
 883:Drivers/STM32G4xx_HAL_Driver/Src/stm32g4xx_hal_dma.c ****   *                               a HAL_DMA_CallbackIDTypeDef ENUM as parameter.
 884:Drivers/STM32G4xx_HAL_Driver/Src/stm32g4xx_hal_dma.c ****   * @retval HAL status
 885:Drivers/STM32G4xx_HAL_Driver/Src/stm32g4xx_hal_dma.c ****   */
 886:Drivers/STM32G4xx_HAL_Driver/Src/stm32g4xx_hal_dma.c **** HAL_StatusTypeDef HAL_DMA_UnRegisterCallback(DMA_HandleTypeDef *hdma, HAL_DMA_CallbackIDTypeDef Cal
 887:Drivers/STM32G4xx_HAL_Driver/Src/stm32g4xx_hal_dma.c **** {
 888:Drivers/STM32G4xx_HAL_Driver/Src/stm32g4xx_hal_dma.c ****   HAL_StatusTypeDef status = HAL_OK;
 889:Drivers/STM32G4xx_HAL_Driver/Src/stm32g4xx_hal_dma.c **** 
 890:Drivers/STM32G4xx_HAL_Driver/Src/stm32g4xx_hal_dma.c ****   /* Process locked */
 891:Drivers/STM32G4xx_HAL_Driver/Src/stm32g4xx_hal_dma.c ****   __HAL_LOCK(hdma);
 892:Drivers/STM32G4xx_HAL_Driver/Src/stm32g4xx_hal_dma.c **** 
 893:Drivers/STM32G4xx_HAL_Driver/Src/stm32g4xx_hal_dma.c ****   if (HAL_DMA_STATE_READY == hdma->State)
 894:Drivers/STM32G4xx_HAL_Driver/Src/stm32g4xx_hal_dma.c ****   {
 895:Drivers/STM32G4xx_HAL_Driver/Src/stm32g4xx_hal_dma.c ****     switch (CallbackID)
 896:Drivers/STM32G4xx_HAL_Driver/Src/stm32g4xx_hal_dma.c ****     {
 897:Drivers/STM32G4xx_HAL_Driver/Src/stm32g4xx_hal_dma.c ****       case  HAL_DMA_XFER_CPLT_CB_ID:
 898:Drivers/STM32G4xx_HAL_Driver/Src/stm32g4xx_hal_dma.c ****         hdma->XferCpltCallback = NULL;
 899:Drivers/STM32G4xx_HAL_Driver/Src/stm32g4xx_hal_dma.c ****         break;
 900:Drivers/STM32G4xx_HAL_Driver/Src/stm32g4xx_hal_dma.c **** 
 901:Drivers/STM32G4xx_HAL_Driver/Src/stm32g4xx_hal_dma.c ****       case  HAL_DMA_XFER_HALFCPLT_CB_ID:
 902:Drivers/STM32G4xx_HAL_Driver/Src/stm32g4xx_hal_dma.c ****         hdma->XferHalfCpltCallback = NULL;
 903:Drivers/STM32G4xx_HAL_Driver/Src/stm32g4xx_hal_dma.c ****         break;
 904:Drivers/STM32G4xx_HAL_Driver/Src/stm32g4xx_hal_dma.c **** 
 905:Drivers/STM32G4xx_HAL_Driver/Src/stm32g4xx_hal_dma.c ****       case  HAL_DMA_XFER_ERROR_CB_ID:
 906:Drivers/STM32G4xx_HAL_Driver/Src/stm32g4xx_hal_dma.c ****         hdma->XferErrorCallback = NULL;
 907:Drivers/STM32G4xx_HAL_Driver/Src/stm32g4xx_hal_dma.c ****         break;
 908:Drivers/STM32G4xx_HAL_Driver/Src/stm32g4xx_hal_dma.c **** 
 909:Drivers/STM32G4xx_HAL_Driver/Src/stm32g4xx_hal_dma.c ****       case  HAL_DMA_XFER_ABORT_CB_ID:
 910:Drivers/STM32G4xx_HAL_Driver/Src/stm32g4xx_hal_dma.c ****         hdma->XferAbortCallback = NULL;
 911:Drivers/STM32G4xx_HAL_Driver/Src/stm32g4xx_hal_dma.c ****         break;
 912:Drivers/STM32G4xx_HAL_Driver/Src/stm32g4xx_hal_dma.c **** 
 913:Drivers/STM32G4xx_HAL_Driver/Src/stm32g4xx_hal_dma.c ****       case   HAL_DMA_XFER_ALL_CB_ID:
 914:Drivers/STM32G4xx_HAL_Driver/Src/stm32g4xx_hal_dma.c ****         hdma->XferCpltCallback = NULL;
 915:Drivers/STM32G4xx_HAL_Driver/Src/stm32g4xx_hal_dma.c ****         hdma->XferHalfCpltCallback = NULL;
 916:Drivers/STM32G4xx_HAL_Driver/Src/stm32g4xx_hal_dma.c ****         hdma->XferErrorCallback = NULL;
 917:Drivers/STM32G4xx_HAL_Driver/Src/stm32g4xx_hal_dma.c ****         hdma->XferAbortCallback = NULL;
 918:Drivers/STM32G4xx_HAL_Driver/Src/stm32g4xx_hal_dma.c ****         break;
 919:Drivers/STM32G4xx_HAL_Driver/Src/stm32g4xx_hal_dma.c **** 
 920:Drivers/STM32G4xx_HAL_Driver/Src/stm32g4xx_hal_dma.c ****       default:
 921:Drivers/STM32G4xx_HAL_Driver/Src/stm32g4xx_hal_dma.c ****         status = HAL_ERROR;
 922:Drivers/STM32G4xx_HAL_Driver/Src/stm32g4xx_hal_dma.c ****         break;
ARM GAS   			page 19


 923:Drivers/STM32G4xx_HAL_Driver/Src/stm32g4xx_hal_dma.c ****     }
 924:Drivers/STM32G4xx_HAL_Driver/Src/stm32g4xx_hal_dma.c ****   }
 925:Drivers/STM32G4xx_HAL_Driver/Src/stm32g4xx_hal_dma.c ****   else
 926:Drivers/STM32G4xx_HAL_Driver/Src/stm32g4xx_hal_dma.c ****   {
 927:Drivers/STM32G4xx_HAL_Driver/Src/stm32g4xx_hal_dma.c ****     status = HAL_ERROR;
 928:Drivers/STM32G4xx_HAL_Driver/Src/stm32g4xx_hal_dma.c ****   }
 929:Drivers/STM32G4xx_HAL_Driver/Src/stm32g4xx_hal_dma.c **** 
 930:Drivers/STM32G4xx_HAL_Driver/Src/stm32g4xx_hal_dma.c ****   /* Release Lock */
 931:Drivers/STM32G4xx_HAL_Driver/Src/stm32g4xx_hal_dma.c ****   __HAL_UNLOCK(hdma);
 932:Drivers/STM32G4xx_HAL_Driver/Src/stm32g4xx_hal_dma.c **** 
 933:Drivers/STM32G4xx_HAL_Driver/Src/stm32g4xx_hal_dma.c ****   return status;
 934:Drivers/STM32G4xx_HAL_Driver/Src/stm32g4xx_hal_dma.c **** }
 935:Drivers/STM32G4xx_HAL_Driver/Src/stm32g4xx_hal_dma.c **** 
 936:Drivers/STM32G4xx_HAL_Driver/Src/stm32g4xx_hal_dma.c **** /**
 937:Drivers/STM32G4xx_HAL_Driver/Src/stm32g4xx_hal_dma.c ****   * @}
 938:Drivers/STM32G4xx_HAL_Driver/Src/stm32g4xx_hal_dma.c ****   */
 939:Drivers/STM32G4xx_HAL_Driver/Src/stm32g4xx_hal_dma.c **** 
 940:Drivers/STM32G4xx_HAL_Driver/Src/stm32g4xx_hal_dma.c **** 
 941:Drivers/STM32G4xx_HAL_Driver/Src/stm32g4xx_hal_dma.c **** 
 942:Drivers/STM32G4xx_HAL_Driver/Src/stm32g4xx_hal_dma.c **** /** @defgroup DMA_Exported_Functions_Group3 Peripheral State and Errors functions
 943:Drivers/STM32G4xx_HAL_Driver/Src/stm32g4xx_hal_dma.c ****   *  @brief    Peripheral State and Errors functions
 944:Drivers/STM32G4xx_HAL_Driver/Src/stm32g4xx_hal_dma.c ****   *
 945:Drivers/STM32G4xx_HAL_Driver/Src/stm32g4xx_hal_dma.c **** @verbatim
 946:Drivers/STM32G4xx_HAL_Driver/Src/stm32g4xx_hal_dma.c ****  ===============================================================================
 947:Drivers/STM32G4xx_HAL_Driver/Src/stm32g4xx_hal_dma.c ****             ##### Peripheral State and Errors functions #####
 948:Drivers/STM32G4xx_HAL_Driver/Src/stm32g4xx_hal_dma.c ****  ===============================================================================
 949:Drivers/STM32G4xx_HAL_Driver/Src/stm32g4xx_hal_dma.c ****     [..]
 950:Drivers/STM32G4xx_HAL_Driver/Src/stm32g4xx_hal_dma.c ****     This subsection provides functions allowing to
 951:Drivers/STM32G4xx_HAL_Driver/Src/stm32g4xx_hal_dma.c ****       (+) Check the DMA state
 952:Drivers/STM32G4xx_HAL_Driver/Src/stm32g4xx_hal_dma.c ****       (+) Get error code
 953:Drivers/STM32G4xx_HAL_Driver/Src/stm32g4xx_hal_dma.c **** 
 954:Drivers/STM32G4xx_HAL_Driver/Src/stm32g4xx_hal_dma.c **** @endverbatim
 955:Drivers/STM32G4xx_HAL_Driver/Src/stm32g4xx_hal_dma.c ****   * @{
 956:Drivers/STM32G4xx_HAL_Driver/Src/stm32g4xx_hal_dma.c ****   */
 957:Drivers/STM32G4xx_HAL_Driver/Src/stm32g4xx_hal_dma.c **** 
 958:Drivers/STM32G4xx_HAL_Driver/Src/stm32g4xx_hal_dma.c **** /**
 959:Drivers/STM32G4xx_HAL_Driver/Src/stm32g4xx_hal_dma.c ****   * @brief  Return the DMA hande state.
 960:Drivers/STM32G4xx_HAL_Driver/Src/stm32g4xx_hal_dma.c ****   * @param  hdma pointer to a DMA_HandleTypeDef structure that contains
 961:Drivers/STM32G4xx_HAL_Driver/Src/stm32g4xx_hal_dma.c ****   *               the configuration information for the specified DMA Channel.
 962:Drivers/STM32G4xx_HAL_Driver/Src/stm32g4xx_hal_dma.c ****   * @retval HAL state
 963:Drivers/STM32G4xx_HAL_Driver/Src/stm32g4xx_hal_dma.c ****   */
 964:Drivers/STM32G4xx_HAL_Driver/Src/stm32g4xx_hal_dma.c **** HAL_DMA_StateTypeDef HAL_DMA_GetState(DMA_HandleTypeDef *hdma)
 965:Drivers/STM32G4xx_HAL_Driver/Src/stm32g4xx_hal_dma.c **** {
 966:Drivers/STM32G4xx_HAL_Driver/Src/stm32g4xx_hal_dma.c ****   /* Return DMA handle state */
 967:Drivers/STM32G4xx_HAL_Driver/Src/stm32g4xx_hal_dma.c ****   return hdma->State;
 968:Drivers/STM32G4xx_HAL_Driver/Src/stm32g4xx_hal_dma.c **** }
 969:Drivers/STM32G4xx_HAL_Driver/Src/stm32g4xx_hal_dma.c **** 
 970:Drivers/STM32G4xx_HAL_Driver/Src/stm32g4xx_hal_dma.c **** /**
 971:Drivers/STM32G4xx_HAL_Driver/Src/stm32g4xx_hal_dma.c ****   * @brief  Return the DMA error code.
 972:Drivers/STM32G4xx_HAL_Driver/Src/stm32g4xx_hal_dma.c ****   * @param  hdma : pointer to a DMA_HandleTypeDef structure that contains
 973:Drivers/STM32G4xx_HAL_Driver/Src/stm32g4xx_hal_dma.c ****   *              the configuration information for the specified DMA Channel.
 974:Drivers/STM32G4xx_HAL_Driver/Src/stm32g4xx_hal_dma.c ****   * @retval DMA Error Code
 975:Drivers/STM32G4xx_HAL_Driver/Src/stm32g4xx_hal_dma.c ****   */
 976:Drivers/STM32G4xx_HAL_Driver/Src/stm32g4xx_hal_dma.c **** uint32_t HAL_DMA_GetError(DMA_HandleTypeDef *hdma)
 977:Drivers/STM32G4xx_HAL_Driver/Src/stm32g4xx_hal_dma.c **** {
 978:Drivers/STM32G4xx_HAL_Driver/Src/stm32g4xx_hal_dma.c ****   return hdma->ErrorCode;
 979:Drivers/STM32G4xx_HAL_Driver/Src/stm32g4xx_hal_dma.c **** }
ARM GAS   			page 20


 980:Drivers/STM32G4xx_HAL_Driver/Src/stm32g4xx_hal_dma.c **** 
 981:Drivers/STM32G4xx_HAL_Driver/Src/stm32g4xx_hal_dma.c **** /**
 982:Drivers/STM32G4xx_HAL_Driver/Src/stm32g4xx_hal_dma.c ****   * @}
 983:Drivers/STM32G4xx_HAL_Driver/Src/stm32g4xx_hal_dma.c ****   */
 984:Drivers/STM32G4xx_HAL_Driver/Src/stm32g4xx_hal_dma.c **** 
 985:Drivers/STM32G4xx_HAL_Driver/Src/stm32g4xx_hal_dma.c **** /**
 986:Drivers/STM32G4xx_HAL_Driver/Src/stm32g4xx_hal_dma.c ****   * @}
 987:Drivers/STM32G4xx_HAL_Driver/Src/stm32g4xx_hal_dma.c ****   */
 988:Drivers/STM32G4xx_HAL_Driver/Src/stm32g4xx_hal_dma.c **** 
 989:Drivers/STM32G4xx_HAL_Driver/Src/stm32g4xx_hal_dma.c **** /** @addtogroup DMA_Private_Functions
 990:Drivers/STM32G4xx_HAL_Driver/Src/stm32g4xx_hal_dma.c ****   * @{
 991:Drivers/STM32G4xx_HAL_Driver/Src/stm32g4xx_hal_dma.c ****   */
 992:Drivers/STM32G4xx_HAL_Driver/Src/stm32g4xx_hal_dma.c **** 
 993:Drivers/STM32G4xx_HAL_Driver/Src/stm32g4xx_hal_dma.c **** /**
 994:Drivers/STM32G4xx_HAL_Driver/Src/stm32g4xx_hal_dma.c ****   * @brief  Sets the DMA Transfer parameter.
 995:Drivers/STM32G4xx_HAL_Driver/Src/stm32g4xx_hal_dma.c ****   * @param  hdma       pointer to a DMA_HandleTypeDef structure that contains
 996:Drivers/STM32G4xx_HAL_Driver/Src/stm32g4xx_hal_dma.c ****   *                     the configuration information for the specified DMA Channel.
 997:Drivers/STM32G4xx_HAL_Driver/Src/stm32g4xx_hal_dma.c ****   * @param  SrcAddress The source memory Buffer address
 998:Drivers/STM32G4xx_HAL_Driver/Src/stm32g4xx_hal_dma.c ****   * @param  DstAddress The destination memory Buffer address
 999:Drivers/STM32G4xx_HAL_Driver/Src/stm32g4xx_hal_dma.c ****   * @param  DataLength The length of data to be transferred from source to destination
1000:Drivers/STM32G4xx_HAL_Driver/Src/stm32g4xx_hal_dma.c ****   * @retval HAL status
1001:Drivers/STM32G4xx_HAL_Driver/Src/stm32g4xx_hal_dma.c ****   */
1002:Drivers/STM32G4xx_HAL_Driver/Src/stm32g4xx_hal_dma.c **** static void DMA_SetConfig(DMA_HandleTypeDef *hdma, uint32_t SrcAddress, uint32_t DstAddress, uint32
1003:Drivers/STM32G4xx_HAL_Driver/Src/stm32g4xx_hal_dma.c **** {
1004:Drivers/STM32G4xx_HAL_Driver/Src/stm32g4xx_hal_dma.c ****   /* Clear the DMAMUX synchro overrun flag */
1005:Drivers/STM32G4xx_HAL_Driver/Src/stm32g4xx_hal_dma.c ****   hdma->DMAmuxChannelStatus->CFR = hdma->DMAmuxChannelStatusMask;
1006:Drivers/STM32G4xx_HAL_Driver/Src/stm32g4xx_hal_dma.c **** 
1007:Drivers/STM32G4xx_HAL_Driver/Src/stm32g4xx_hal_dma.c ****   if (hdma->DMAmuxRequestGen != 0U)
1008:Drivers/STM32G4xx_HAL_Driver/Src/stm32g4xx_hal_dma.c ****   {
1009:Drivers/STM32G4xx_HAL_Driver/Src/stm32g4xx_hal_dma.c ****     /* Clear the DMAMUX request generator overrun flag */
1010:Drivers/STM32G4xx_HAL_Driver/Src/stm32g4xx_hal_dma.c ****     hdma->DMAmuxRequestGenStatus->RGCFR = hdma->DMAmuxRequestGenStatusMask;
1011:Drivers/STM32G4xx_HAL_Driver/Src/stm32g4xx_hal_dma.c ****   }
1012:Drivers/STM32G4xx_HAL_Driver/Src/stm32g4xx_hal_dma.c **** 
1013:Drivers/STM32G4xx_HAL_Driver/Src/stm32g4xx_hal_dma.c ****   /* Clear all flags */
1014:Drivers/STM32G4xx_HAL_Driver/Src/stm32g4xx_hal_dma.c ****   hdma->DmaBaseAddress->IFCR = (DMA_ISR_GIF1 << (hdma->ChannelIndex & 0x1FU));
1015:Drivers/STM32G4xx_HAL_Driver/Src/stm32g4xx_hal_dma.c **** 
1016:Drivers/STM32G4xx_HAL_Driver/Src/stm32g4xx_hal_dma.c ****   /* Configure DMA Channel data length */
1017:Drivers/STM32G4xx_HAL_Driver/Src/stm32g4xx_hal_dma.c ****   hdma->Instance->CNDTR = DataLength;
1018:Drivers/STM32G4xx_HAL_Driver/Src/stm32g4xx_hal_dma.c **** 
1019:Drivers/STM32G4xx_HAL_Driver/Src/stm32g4xx_hal_dma.c ****   /* Memory to Peripheral */
1020:Drivers/STM32G4xx_HAL_Driver/Src/stm32g4xx_hal_dma.c ****   if ((hdma->Init.Direction) == DMA_MEMORY_TO_PERIPH)
1021:Drivers/STM32G4xx_HAL_Driver/Src/stm32g4xx_hal_dma.c ****   {
1022:Drivers/STM32G4xx_HAL_Driver/Src/stm32g4xx_hal_dma.c ****     /* Configure DMA Channel destination address */
1023:Drivers/STM32G4xx_HAL_Driver/Src/stm32g4xx_hal_dma.c ****     hdma->Instance->CPAR = DstAddress;
1024:Drivers/STM32G4xx_HAL_Driver/Src/stm32g4xx_hal_dma.c **** 
1025:Drivers/STM32G4xx_HAL_Driver/Src/stm32g4xx_hal_dma.c ****     /* Configure DMA Channel source address */
1026:Drivers/STM32G4xx_HAL_Driver/Src/stm32g4xx_hal_dma.c ****     hdma->Instance->CMAR = SrcAddress;
1027:Drivers/STM32G4xx_HAL_Driver/Src/stm32g4xx_hal_dma.c ****   }
1028:Drivers/STM32G4xx_HAL_Driver/Src/stm32g4xx_hal_dma.c ****   /* Peripheral to Memory */
1029:Drivers/STM32G4xx_HAL_Driver/Src/stm32g4xx_hal_dma.c ****   else
1030:Drivers/STM32G4xx_HAL_Driver/Src/stm32g4xx_hal_dma.c ****   {
1031:Drivers/STM32G4xx_HAL_Driver/Src/stm32g4xx_hal_dma.c ****     /* Configure DMA Channel source address */
1032:Drivers/STM32G4xx_HAL_Driver/Src/stm32g4xx_hal_dma.c ****     hdma->Instance->CPAR = SrcAddress;
1033:Drivers/STM32G4xx_HAL_Driver/Src/stm32g4xx_hal_dma.c **** 
1034:Drivers/STM32G4xx_HAL_Driver/Src/stm32g4xx_hal_dma.c ****     /* Configure DMA Channel destination address */
1035:Drivers/STM32G4xx_HAL_Driver/Src/stm32g4xx_hal_dma.c ****     hdma->Instance->CMAR = DstAddress;
1036:Drivers/STM32G4xx_HAL_Driver/Src/stm32g4xx_hal_dma.c ****   }
ARM GAS   			page 21


1037:Drivers/STM32G4xx_HAL_Driver/Src/stm32g4xx_hal_dma.c **** }
1038:Drivers/STM32G4xx_HAL_Driver/Src/stm32g4xx_hal_dma.c **** 
1039:Drivers/STM32G4xx_HAL_Driver/Src/stm32g4xx_hal_dma.c **** /**
1040:Drivers/STM32G4xx_HAL_Driver/Src/stm32g4xx_hal_dma.c ****   * @brief  Updates the DMA handle with the DMAMUX  channel and status mask depending on stream num
1041:Drivers/STM32G4xx_HAL_Driver/Src/stm32g4xx_hal_dma.c ****   * @param  hdma        pointer to a DMA_HandleTypeDef structure that contains
1042:Drivers/STM32G4xx_HAL_Driver/Src/stm32g4xx_hal_dma.c ****   *                     the configuration information for the specified DMA Stream.
1043:Drivers/STM32G4xx_HAL_Driver/Src/stm32g4xx_hal_dma.c ****   * @retval None
1044:Drivers/STM32G4xx_HAL_Driver/Src/stm32g4xx_hal_dma.c ****   */
1045:Drivers/STM32G4xx_HAL_Driver/Src/stm32g4xx_hal_dma.c **** static void DMA_CalcDMAMUXChannelBaseAndMask(DMA_HandleTypeDef *hdma)
1046:Drivers/STM32G4xx_HAL_Driver/Src/stm32g4xx_hal_dma.c **** {
1047:Drivers/STM32G4xx_HAL_Driver/Src/stm32g4xx_hal_dma.c ****   uint32_t dmamux_base_addr;
1048:Drivers/STM32G4xx_HAL_Driver/Src/stm32g4xx_hal_dma.c ****   uint32_t channel_number;
1049:Drivers/STM32G4xx_HAL_Driver/Src/stm32g4xx_hal_dma.c ****   DMAMUX_Channel_TypeDef *DMAMUX1_ChannelBase;
1050:Drivers/STM32G4xx_HAL_Driver/Src/stm32g4xx_hal_dma.c **** 
1051:Drivers/STM32G4xx_HAL_Driver/Src/stm32g4xx_hal_dma.c ****   /* check if instance is not outside the DMA channel range */
1052:Drivers/STM32G4xx_HAL_Driver/Src/stm32g4xx_hal_dma.c ****   if ((uint32_t)hdma->Instance < (uint32_t)DMA2_Channel1)
1053:Drivers/STM32G4xx_HAL_Driver/Src/stm32g4xx_hal_dma.c ****   {
1054:Drivers/STM32G4xx_HAL_Driver/Src/stm32g4xx_hal_dma.c ****     /* DMA1 */
1055:Drivers/STM32G4xx_HAL_Driver/Src/stm32g4xx_hal_dma.c ****     DMAMUX1_ChannelBase = DMAMUX1_Channel0;
1056:Drivers/STM32G4xx_HAL_Driver/Src/stm32g4xx_hal_dma.c ****   }
1057:Drivers/STM32G4xx_HAL_Driver/Src/stm32g4xx_hal_dma.c ****   else
1058:Drivers/STM32G4xx_HAL_Driver/Src/stm32g4xx_hal_dma.c ****   {
1059:Drivers/STM32G4xx_HAL_Driver/Src/stm32g4xx_hal_dma.c ****     /* DMA2 */
1060:Drivers/STM32G4xx_HAL_Driver/Src/stm32g4xx_hal_dma.c **** #if defined (STM32G471xx) || defined (STM32G473xx) || defined (STM32G474xx) || defined (STM32G414xx
1061:Drivers/STM32G4xx_HAL_Driver/Src/stm32g4xx_hal_dma.c ****     DMAMUX1_ChannelBase = DMAMUX1_Channel8;
1062:Drivers/STM32G4xx_HAL_Driver/Src/stm32g4xx_hal_dma.c **** #elif defined (STM32G411xB) || defined (STM32G431xx) || defined (STM32G441xx) || defined (STM32GBK1
1063:Drivers/STM32G4xx_HAL_Driver/Src/stm32g4xx_hal_dma.c ****     DMAMUX1_ChannelBase = DMAMUX1_Channel6;
1064:Drivers/STM32G4xx_HAL_Driver/Src/stm32g4xx_hal_dma.c **** #else
1065:Drivers/STM32G4xx_HAL_Driver/Src/stm32g4xx_hal_dma.c ****     DMAMUX1_ChannelBase = DMAMUX1_Channel7;
1066:Drivers/STM32G4xx_HAL_Driver/Src/stm32g4xx_hal_dma.c **** #endif /* STM32G4x1xx) */
1067:Drivers/STM32G4xx_HAL_Driver/Src/stm32g4xx_hal_dma.c ****   }
1068:Drivers/STM32G4xx_HAL_Driver/Src/stm32g4xx_hal_dma.c ****   dmamux_base_addr = (uint32_t)DMAMUX1_ChannelBase;
1069:Drivers/STM32G4xx_HAL_Driver/Src/stm32g4xx_hal_dma.c ****   channel_number = (((uint32_t)hdma->Instance & 0xFFU) - 8U) / 20U;
  92              	 .loc 1 1069 18 view .LVU31
  93 002a 354E     	 ldr r6,.L18+8
1052:Drivers/STM32G4xx_HAL_Driver/Src/stm32g4xx_hal_dma.c ****   {
  94              	 .loc 1 1052 6 view .LVU32
  95 002c 364F     	 ldr r7,.L18+16
  96 002e C3E91001 	 strd r0,r1,[r3,#64]
  97              	.LBE15:
  98              	.LBE14:
 189:Drivers/STM32G4xx_HAL_Driver/Src/stm32g4xx_hal_dma.c **** 
  99              	 .loc 1 189 3 is_stmt 1 view .LVU33
 192:Drivers/STM32G4xx_HAL_Driver/Src/stm32g4xx_hal_dma.c **** 
 100              	 .loc 1 192 3 view .LVU34
 201:Drivers/STM32G4xx_HAL_Driver/Src/stm32g4xx_hal_dma.c ****           hdma->Init.PeriphInc           | hdma->Init.MemInc           |
 101              	 .loc 1 201 42 is_stmt 0 view .LVU35
 102 0032 1869     	 ldr r0,[r3,#16]
 200:Drivers/STM32G4xx_HAL_Driver/Src/stm32g4xx_hal_dma.c ****           hdma->Init.PeriphInc           | hdma->Init.MemInc           |
 103              	 .loc 1 200 39 view .LVU36
 104 0034 2A43     	 orrs r2,r2,r5
 201:Drivers/STM32G4xx_HAL_Driver/Src/stm32g4xx_hal_dma.c ****           hdma->Init.PeriphDataAlignment | hdma->Init.MemDataAlignment |
 105              	 .loc 1 201 42 view .LVU37
 106 0036 0243     	 orrs r2,r2,r0
 201:Drivers/STM32G4xx_HAL_Driver/Src/stm32g4xx_hal_dma.c ****           hdma->Init.PeriphDataAlignment | hdma->Init.MemDataAlignment |
 107              	 .loc 1 201 72 view .LVU38
 108 0038 5869     	 ldr r0,[r3,#20]
ARM GAS   			page 22


 109 003a 0243     	 orrs r2,r2,r0
 202:Drivers/STM32G4xx_HAL_Driver/Src/stm32g4xx_hal_dma.c ****           hdma->Init.Mode                | hdma->Init.Priority;
 110              	 .loc 1 202 42 view .LVU39
 111 003c 9869     	 ldr r0,[r3,#24]
 112 003e 0243     	 orrs r2,r2,r0
 202:Drivers/STM32G4xx_HAL_Driver/Src/stm32g4xx_hal_dma.c ****           hdma->Init.Mode                | hdma->Init.Priority;
 113              	 .loc 1 202 72 view .LVU40
 114 0040 D869     	 ldr r0,[r3,#28]
 115 0042 0243     	 orrs r2,r2,r0
 116              	.LBB20:
 117              	.LBB16:
 118              	 .loc 1 1069 47 view .LVU41
 119 0044 E0B2     	 uxtb r0,r4
 120              	 .loc 1 1069 56 view .LVU42
 121 0046 0838     	 subs r0,r0,#8
 122              	 .loc 1 1069 18 view .LVU43
 123 0048 A6FB0060 	 umull r6,r0,r6,r0
 124              	.LBE16:
 125              	.LBE20:
 192:Drivers/STM32G4xx_HAL_Driver/Src/stm32g4xx_hal_dma.c **** 
 126              	 .loc 1 192 7 view .LVU44
 127 004c 2668     	 ldr r6,[r4]
 128              	.LVL2:
 195:Drivers/STM32G4xx_HAL_Driver/Src/stm32g4xx_hal_dma.c ****                       DMA_CCR_MINC  | DMA_CCR_PINC   | DMA_CCR_CIRC   |
 129              	 .loc 1 195 3 is_stmt 1 view .LVU45
 195:Drivers/STM32G4xx_HAL_Driver/Src/stm32g4xx_hal_dma.c ****                       DMA_CCR_MINC  | DMA_CCR_PINC   | DMA_CCR_CIRC   |
 130              	 .loc 1 195 7 is_stmt 0 view .LVU46
 131 004e 26F4FF4C 	 bic ip,r6,#32640
 203:Drivers/STM32G4xx_HAL_Driver/Src/stm32g4xx_hal_dma.c **** 
 132              	 .loc 1 203 42 view .LVU47
 133 0052 1E6A     	 ldr r6,[r3,#32]
 134              	.LVL3:
 195:Drivers/STM32G4xx_HAL_Driver/Src/stm32g4xx_hal_dma.c ****                       DMA_CCR_MINC  | DMA_CCR_PINC   | DMA_CCR_CIRC   |
 135              	 .loc 1 195 7 view .LVU48
 136 0054 2CF0700C 	 bic ip,ip,#112
 137              	.LVL4:
 200:Drivers/STM32G4xx_HAL_Driver/Src/stm32g4xx_hal_dma.c ****           hdma->Init.PeriphInc           | hdma->Init.MemInc           |
 138              	 .loc 1 200 3 is_stmt 1 view .LVU49
 203:Drivers/STM32G4xx_HAL_Driver/Src/stm32g4xx_hal_dma.c **** 
 139              	 .loc 1 203 42 is_stmt 0 view .LVU50
 140 0058 3243     	 orrs r2,r2,r6
 200:Drivers/STM32G4xx_HAL_Driver/Src/stm32g4xx_hal_dma.c ****           hdma->Init.PeriphInc           | hdma->Init.MemInc           |
 141              	 .loc 1 200 7 view .LVU51
 142 005a 42EA0C02 	 orr r2,r2,ip
 143              	.LVL5:
 206:Drivers/STM32G4xx_HAL_Driver/Src/stm32g4xx_hal_dma.c **** 
 144              	 .loc 1 206 3 is_stmt 1 view .LVU52
 206:Drivers/STM32G4xx_HAL_Driver/Src/stm32g4xx_hal_dma.c **** 
 145              	 .loc 1 206 23 is_stmt 0 view .LVU53
 146 005e 2260     	 str r2,[r4]
 211:Drivers/STM32G4xx_HAL_Driver/Src/stm32g4xx_hal_dma.c **** 
 147              	 .loc 1 211 3 is_stmt 1 view .LVU54
 148              	.LVL6:
 149              	.LBB21:
 150              	.LBI14:
1045:Drivers/STM32G4xx_HAL_Driver/Src/stm32g4xx_hal_dma.c **** {
 151              	 .loc 1 1045 13 view .LVU55
ARM GAS   			page 23


 152              	.LBB17:
1047:Drivers/STM32G4xx_HAL_Driver/Src/stm32g4xx_hal_dma.c ****   uint32_t channel_number;
 153              	 .loc 1 1047 3 view .LVU56
1048:Drivers/STM32G4xx_HAL_Driver/Src/stm32g4xx_hal_dma.c ****   DMAMUX_Channel_TypeDef *DMAMUX1_ChannelBase;
 154              	 .loc 1 1048 3 view .LVU57
1049:Drivers/STM32G4xx_HAL_Driver/Src/stm32g4xx_hal_dma.c **** 
 155              	 .loc 1 1049 3 view .LVU58
1052:Drivers/STM32G4xx_HAL_Driver/Src/stm32g4xx_hal_dma.c ****   {
 156              	 .loc 1 1052 3 view .LVU59
1052:Drivers/STM32G4xx_HAL_Driver/Src/stm32g4xx_hal_dma.c ****   {
 157              	 .loc 1 1052 6 is_stmt 0 view .LVU60
 158 0060 254E     	 ldr r6,.L18
 159 0062 2A4A     	 ldr r2,.L18+20
 160              	.LVL7:
1070:Drivers/STM32G4xx_HAL_Driver/Src/stm32g4xx_hal_dma.c ****   hdma->DMAmuxChannel = (DMAMUX_Channel_TypeDef *)(uint32_t)(dmamux_base_addr + ((hdma->ChannelInde
1071:Drivers/STM32G4xx_HAL_Driver/Src/stm32g4xx_hal_dma.c ****   hdma->DMAmuxChannelStatus = DMAMUX1_ChannelStatus;
1072:Drivers/STM32G4xx_HAL_Driver/Src/stm32g4xx_hal_dma.c ****   hdma->DMAmuxChannelStatusMask = 1UL << (channel_number & 0x1FU);
 161              	 .loc 1 1072 58 view .LVU61
 162 0064 C0F30410 	 ubfx r0,r0,#4,#5
1052:Drivers/STM32G4xx_HAL_Driver/Src/stm32g4xx_hal_dma.c ****   {
 163              	 .loc 1 1052 6 view .LVU62
 164 0068 B442     	 cmp r4,r6
 165 006a 98BF     	 it ls
 166 006c 3A46     	 movls r2,r7
1068:Drivers/STM32G4xx_HAL_Driver/Src/stm32g4xx_hal_dma.c ****   channel_number = (((uint32_t)hdma->Instance & 0xFFU) - 8U) / 20U;
 167              	 .loc 1 1068 3 is_stmt 1 view .LVU63
1069:Drivers/STM32G4xx_HAL_Driver/Src/stm32g4xx_hal_dma.c ****   hdma->DMAmuxChannel = (DMAMUX_Channel_TypeDef *)(uint32_t)(dmamux_base_addr + ((hdma->ChannelInde
 168              	 .loc 1 1069 3 view .LVU64
 169              	.LVL8:
1070:Drivers/STM32G4xx_HAL_Driver/Src/stm32g4xx_hal_dma.c ****   hdma->DMAmuxChannel = (DMAMUX_Channel_TypeDef *)(uint32_t)(dmamux_base_addr + ((hdma->ChannelInde
 170              	 .loc 1 1070 3 view .LVU65
1071:Drivers/STM32G4xx_HAL_Driver/Src/stm32g4xx_hal_dma.c ****   hdma->DMAmuxChannelStatusMask = 1UL << (channel_number & 0x1FU);
 171              	 .loc 1 1071 29 is_stmt 0 view .LVU66
 172 006e 06F27946 	 addw r6,r6,#1145
 173              	 .loc 1 1072 39 view .LVU67
 174 0072 0124     	 movs r4,#1
 175              	.LVL9:
 176              	 .loc 1 1072 39 view .LVU68
 177 0074 04FA00F0 	 lsl r0,r4,r0
1071:Drivers/STM32G4xx_HAL_Driver/Src/stm32g4xx_hal_dma.c ****   hdma->DMAmuxChannelStatusMask = 1UL << (channel_number & 0x1FU);
 178              	 .loc 1 1071 29 view .LVU69
 179 0078 DE64     	 str r6,[r3,#76]
 180              	.LBE17:
 181              	.LBE21:
 213:Drivers/STM32G4xx_HAL_Driver/Src/stm32g4xx_hal_dma.c ****   {
 182              	 .loc 1 213 6 view .LVU70
 183 007a B5F5804F 	 cmp r5,#16384
 184              	.LBB22:
 185              	.LBB18:
1070:Drivers/STM32G4xx_HAL_Driver/Src/stm32g4xx_hal_dma.c ****   hdma->DMAmuxChannelStatus = DMAMUX1_ChannelStatus;
 186              	 .loc 1 1070 51 view .LVU71
 187 007e 01EB0206 	 add r6,r1,r2
 188              	 .loc 1 1072 33 view .LVU72
 189 0082 1865     	 str r0,[r3,#80]
1070:Drivers/STM32G4xx_HAL_Driver/Src/stm32g4xx_hal_dma.c ****   hdma->DMAmuxChannelStatus = DMAMUX1_ChannelStatus;
 190              	 .loc 1 1070 23 view .LVU73
 191 0084 9E64     	 str r6,[r3,#72]
ARM GAS   			page 24


1071:Drivers/STM32G4xx_HAL_Driver/Src/stm32g4xx_hal_dma.c ****   hdma->DMAmuxChannelStatusMask = 1UL << (channel_number & 0x1FU);
 192              	 .loc 1 1071 3 is_stmt 1 view .LVU74
 193              	 .loc 1 1072 3 view .LVU75
 194              	.LVL10:
 195              	 .loc 1 1072 3 is_stmt 0 view .LVU76
 196              	.LBE18:
 197              	.LBE22:
 213:Drivers/STM32G4xx_HAL_Driver/Src/stm32g4xx_hal_dma.c ****   {
 198              	 .loc 1 213 3 is_stmt 1 view .LVU77
 199              	.LBB23:
 200              	.LBB19:
1070:Drivers/STM32G4xx_HAL_Driver/Src/stm32g4xx_hal_dma.c ****   hdma->DMAmuxChannelStatus = DMAMUX1_ChannelStatus;
 201              	 .loc 1 1070 102 is_stmt 0 view .LVU78
 202 0086 4FEA9101 	 lsr r1,r1,#2
 203              	.LBE19:
 204              	.LBE23:
 213:Drivers/STM32G4xx_HAL_Driver/Src/stm32g4xx_hal_dma.c ****   {
 205              	 .loc 1 213 6 view .LVU79
 206 008a 27D0     	 beq .L17
 220:Drivers/STM32G4xx_HAL_Driver/Src/stm32g4xx_hal_dma.c **** 
 207              	 .loc 1 220 3 is_stmt 1 view .LVU80
 220:Drivers/STM32G4xx_HAL_Driver/Src/stm32g4xx_hal_dma.c **** 
 208              	 .loc 1 220 41 is_stmt 0 view .LVU81
 209 008c 5E68     	 ldr r6,[r3,#4]
 220:Drivers/STM32G4xx_HAL_Driver/Src/stm32g4xx_hal_dma.c **** 
 210              	 .loc 1 220 50 view .LVU82
 211 008e F5B2     	 uxtb r5,r6
 225:Drivers/STM32G4xx_HAL_Driver/Src/stm32g4xx_hal_dma.c ****   {
 212              	 .loc 1 225 35 view .LVU83
 213 0090 013E     	 subs r6,r6,#1
 225:Drivers/STM32G4xx_HAL_Driver/Src/stm32g4xx_hal_dma.c ****   {
 214              	 .loc 1 225 6 view .LVU84
 215 0092 032E     	 cmp r6,#3
 220:Drivers/STM32G4xx_HAL_Driver/Src/stm32g4xx_hal_dma.c **** 
 216              	 .loc 1 220 28 view .LVU85
 217 0094 42F82150 	 str r5,[r2,r1,lsl#2]
 218              	.LVL11:
 223:Drivers/STM32G4xx_HAL_Driver/Src/stm32g4xx_hal_dma.c **** 
 219              	 .loc 1 223 3 is_stmt 1 view .LVU86
 223:Drivers/STM32G4xx_HAL_Driver/Src/stm32g4xx_hal_dma.c **** 
 220              	 .loc 1 223 34 is_stmt 0 view .LVU87
 221 0098 C7F88400 	 str r0,[r7,#132]
 222              	.LVL12:
 225:Drivers/STM32G4xx_HAL_Driver/Src/stm32g4xx_hal_dma.c ****   {
 223              	 .loc 1 225 3 is_stmt 1 view .LVU88
 225:Drivers/STM32G4xx_HAL_Driver/Src/stm32g4xx_hal_dma.c ****   {
 224              	 .loc 1 225 6 is_stmt 0 view .LVU89
 225 009c 24D8     	 bhi .L7
 230:Drivers/STM32G4xx_HAL_Driver/Src/stm32g4xx_hal_dma.c **** 
 226              	 .loc 1 230 5 is_stmt 1 view .LVU90
 227              	.LVL13:
 228              	.LBB24:
 229              	.LBI24:
1073:Drivers/STM32G4xx_HAL_Driver/Src/stm32g4xx_hal_dma.c **** }
1074:Drivers/STM32G4xx_HAL_Driver/Src/stm32g4xx_hal_dma.c **** 
1075:Drivers/STM32G4xx_HAL_Driver/Src/stm32g4xx_hal_dma.c **** /**
1076:Drivers/STM32G4xx_HAL_Driver/Src/stm32g4xx_hal_dma.c ****   * @brief  Updates the DMA handle with the DMAMUX  request generator params
ARM GAS   			page 25


1077:Drivers/STM32G4xx_HAL_Driver/Src/stm32g4xx_hal_dma.c ****   * @param  hdma        pointer to a DMA_HandleTypeDef structure that contains
1078:Drivers/STM32G4xx_HAL_Driver/Src/stm32g4xx_hal_dma.c ****   *                     the configuration information for the specified DMA Channel.
1079:Drivers/STM32G4xx_HAL_Driver/Src/stm32g4xx_hal_dma.c ****   * @retval None
1080:Drivers/STM32G4xx_HAL_Driver/Src/stm32g4xx_hal_dma.c ****   */
1081:Drivers/STM32G4xx_HAL_Driver/Src/stm32g4xx_hal_dma.c **** 
1082:Drivers/STM32G4xx_HAL_Driver/Src/stm32g4xx_hal_dma.c **** static void DMA_CalcDMAMUXRequestGenBaseAndMask(DMA_HandleTypeDef *hdma)
 230              	 .loc 1 1082 13 view .LVU91
 231              	.LBB25:
1083:Drivers/STM32G4xx_HAL_Driver/Src/stm32g4xx_hal_dma.c **** {
1084:Drivers/STM32G4xx_HAL_Driver/Src/stm32g4xx_hal_dma.c ****   uint32_t request =  hdma->Init.Request & DMAMUX_CxCR_DMAREQ_ID;
 232              	 .loc 1 1084 3 view .LVU92
1085:Drivers/STM32G4xx_HAL_Driver/Src/stm32g4xx_hal_dma.c **** 
1086:Drivers/STM32G4xx_HAL_Driver/Src/stm32g4xx_hal_dma.c ****   /* DMA Channels are connected to DMAMUX1 request generator blocks*/
1087:Drivers/STM32G4xx_HAL_Driver/Src/stm32g4xx_hal_dma.c ****   hdma->DMAmuxRequestGen = (DMAMUX_RequestGen_TypeDef *)((uint32_t)(((uint32_t)DMAMUX1_RequestGener
 233              	 .loc 1 1087 3 view .LVU93
 234              	 .loc 1 1087 58 is_stmt 0 view .LVU94
 235 009e 1C4A     	 ldr r2,.L18+24
1088:Drivers/STM32G4xx_HAL_Driver/Src/stm32g4xx_hal_dma.c **** 
1089:Drivers/STM32G4xx_HAL_Driver/Src/stm32g4xx_hal_dma.c ****   hdma->DMAmuxRequestGenStatus = DMAMUX1_RequestGenStatus;
 236              	 .loc 1 1089 32 view .LVU95
 237 00a0 1C48     	 ldr r0,.L18+28
1087:Drivers/STM32G4xx_HAL_Driver/Src/stm32g4xx_hal_dma.c **** 
 238              	 .loc 1 1087 58 view .LVU96
 239 00a2 2A44     	 add r2,r2,r5
 240 00a4 9200     	 lsls r2,r2,#2
1090:Drivers/STM32G4xx_HAL_Driver/Src/stm32g4xx_hal_dma.c **** 
1091:Drivers/STM32G4xx_HAL_Driver/Src/stm32g4xx_hal_dma.c ****   hdma->DMAmuxRequestGenStatusMask = 1UL << ((request - 1U) & 0x1FU);
 241              	 .loc 1 1091 55 view .LVU97
 242 00a6 013D     	 subs r5,r5,#1
 243              	.LVL14:
 244              	 .loc 1 1091 42 view .LVU98
 245 00a8 AC40     	 lsls r4,r4,r5
 246              	.LBE25:
 247              	.LBE24:
 233:Drivers/STM32G4xx_HAL_Driver/Src/stm32g4xx_hal_dma.c **** 
 248              	 .loc 1 233 34 view .LVU99
 249 00aa 0021     	 movs r1,#0
 250              	.LBB27:
 251              	.LBB26:
1089:Drivers/STM32G4xx_HAL_Driver/Src/stm32g4xx_hal_dma.c **** 
 252              	 .loc 1 1089 32 view .LVU100
 253 00ac C3E91520 	 strd r2,r0,[r3,#84]
 254              	 .loc 1 1091 3 is_stmt 1 view .LVU101
 255              	 .loc 1 1091 36 is_stmt 0 view .LVU102
 256 00b0 DC65     	 str r4,[r3,#92]
 257              	.LVL15:
 258              	 .loc 1 1091 36 view .LVU103
 259              	.LBE26:
 260              	.LBE27:
 233:Drivers/STM32G4xx_HAL_Driver/Src/stm32g4xx_hal_dma.c **** 
 261              	 .loc 1 233 5 is_stmt 1 view .LVU104
 233:Drivers/STM32G4xx_HAL_Driver/Src/stm32g4xx_hal_dma.c **** 
 262              	 .loc 1 233 34 is_stmt 0 view .LVU105
 263 00b2 1160     	 str r1,[r2]
 236:Drivers/STM32G4xx_HAL_Driver/Src/stm32g4xx_hal_dma.c ****   }
 264              	 .loc 1 236 5 is_stmt 1 view .LVU106
 236:Drivers/STM32G4xx_HAL_Driver/Src/stm32g4xx_hal_dma.c ****   }
ARM GAS   			page 26


 265              	 .loc 1 236 41 is_stmt 0 view .LVU107
 266 00b4 184A     	 ldr r2,.L18+32
 267 00b6 5464     	 str r4,[r2,#68]
 268              	.L8:
 246:Drivers/STM32G4xx_HAL_Driver/Src/stm32g4xx_hal_dma.c **** 
 269              	 .loc 1 246 3 is_stmt 1 view .LVU108
 246:Drivers/STM32G4xx_HAL_Driver/Src/stm32g4xx_hal_dma.c **** 
 270              	 .loc 1 246 19 is_stmt 0 view .LVU109
 271 00b8 0020     	 movs r0,#0
 249:Drivers/STM32G4xx_HAL_Driver/Src/stm32g4xx_hal_dma.c **** 
 272              	 .loc 1 249 16 view .LVU110
 273 00ba 0122     	 movs r2,#1
 246:Drivers/STM32G4xx_HAL_Driver/Src/stm32g4xx_hal_dma.c **** 
 274              	 .loc 1 246 19 view .LVU111
 275 00bc D863     	 str r0,[r3,#60]
 249:Drivers/STM32G4xx_HAL_Driver/Src/stm32g4xx_hal_dma.c **** 
 276              	 .loc 1 249 3 is_stmt 1 view .LVU112
 252:Drivers/STM32G4xx_HAL_Driver/Src/stm32g4xx_hal_dma.c **** 
 277              	 .loc 1 252 14 is_stmt 0 view .LVU113
 278 00be 83F82400 	 strb r0,[r3,#36]
 249:Drivers/STM32G4xx_HAL_Driver/Src/stm32g4xx_hal_dma.c **** 
 279              	 .loc 1 249 16 view .LVU114
 280 00c2 83F82520 	 strb r2,[r3,#37]
 252:Drivers/STM32G4xx_HAL_Driver/Src/stm32g4xx_hal_dma.c **** 
 281              	 .loc 1 252 3 is_stmt 1 view .LVU115
 254:Drivers/STM32G4xx_HAL_Driver/Src/stm32g4xx_hal_dma.c **** }
 282              	 .loc 1 254 3 view .LVU116
 255:Drivers/STM32G4xx_HAL_Driver/Src/stm32g4xx_hal_dma.c **** 
 283              	 .loc 1 255 1 is_stmt 0 view .LVU117
 284 00c6 F0BC     	 pop {r4,r5,r6,r7}
 285              	 .cfi_remember_state
 286              	 .cfi_restore 7
 287              	 .cfi_restore 6
 288              	 .cfi_restore 5
 289              	 .cfi_restore 4
 290              	 .cfi_def_cfa_offset 0
 291 00c8 7047     	 bx lr
 292              	.LVL16:
 293              	.L16:
 294              	 .cfi_restore_state
 178:Drivers/STM32G4xx_HAL_Driver/Src/stm32g4xx_hal_dma.c ****     hdma->DmaBaseAddress = DMA1;
 295              	 .loc 1 178 5 is_stmt 1 view .LVU118
 178:Drivers/STM32G4xx_HAL_Driver/Src/stm32g4xx_hal_dma.c ****     hdma->DmaBaseAddress = DMA1;
 296              	 .loc 1 178 53 is_stmt 0 view .LVU119
 297 00ca 1449     	 ldr r1,.L18+36
 178:Drivers/STM32G4xx_HAL_Driver/Src/stm32g4xx_hal_dma.c ****     hdma->DmaBaseAddress = DMA1;
 298              	 .loc 1 178 80 view .LVU120
 299 00cc 0C4A     	 ldr r2,.L18+8
 179:Drivers/STM32G4xx_HAL_Driver/Src/stm32g4xx_hal_dma.c ****   }
 300              	 .loc 1 179 26 view .LVU121
 301 00ce 1448     	 ldr r0,.L18+40
 302              	.LVL17:
 178:Drivers/STM32G4xx_HAL_Driver/Src/stm32g4xx_hal_dma.c ****     hdma->DmaBaseAddress = DMA1;
 303              	 .loc 1 178 53 view .LVU122
 304 00d0 2144     	 add r1,r1,r4
 178:Drivers/STM32G4xx_HAL_Driver/Src/stm32g4xx_hal_dma.c ****     hdma->DmaBaseAddress = DMA1;
 305              	 .loc 1 178 80 view .LVU123
ARM GAS   			page 27


 306 00d2 A2FB0121 	 umull r2,r1,r2,r1
 307 00d6 0909     	 lsrs r1,r1,#4
 178:Drivers/STM32G4xx_HAL_Driver/Src/stm32g4xx_hal_dma.c ****     hdma->DmaBaseAddress = DMA1;
 308              	 .loc 1 178 135 view .LVU124
 309 00d8 8900     	 lsls r1,r1,#2
 179:Drivers/STM32G4xx_HAL_Driver/Src/stm32g4xx_hal_dma.c ****   }
 310              	 .loc 1 179 5 is_stmt 1 view .LVU125
 311 00da A1E7     	 b .L4
 312              	.LVL18:
 313              	.L17:
 216:Drivers/STM32G4xx_HAL_Driver/Src/stm32g4xx_hal_dma.c ****   }
 314              	 .loc 1 216 5 view .LVU126
 216:Drivers/STM32G4xx_HAL_Driver/Src/stm32g4xx_hal_dma.c ****   }
 315              	 .loc 1 216 24 is_stmt 0 view .LVU127
 316 00dc 0024     	 movs r4,#0
 317 00de 5C60     	 str r4,[r3,#4]
 220:Drivers/STM32G4xx_HAL_Driver/Src/stm32g4xx_hal_dma.c **** 
 318              	 .loc 1 220 3 is_stmt 1 view .LVU128
 220:Drivers/STM32G4xx_HAL_Driver/Src/stm32g4xx_hal_dma.c **** 
 319              	 .loc 1 220 28 is_stmt 0 view .LVU129
 320 00e0 42F82140 	 str r4,[r2,r1,lsl#2]
 321              	.LVL19:
 223:Drivers/STM32G4xx_HAL_Driver/Src/stm32g4xx_hal_dma.c **** 
 322              	 .loc 1 223 3 is_stmt 1 view .LVU130
 223:Drivers/STM32G4xx_HAL_Driver/Src/stm32g4xx_hal_dma.c **** 
 323              	 .loc 1 223 34 is_stmt 0 view .LVU131
 324 00e4 C7F88400 	 str r0,[r7,#132]
 325              	.LVL20:
 225:Drivers/STM32G4xx_HAL_Driver/Src/stm32g4xx_hal_dma.c ****   {
 326              	 .loc 1 225 3 is_stmt 1 view .LVU132
 327              	.L7:
 240:Drivers/STM32G4xx_HAL_Driver/Src/stm32g4xx_hal_dma.c ****     hdma->DMAmuxRequestGenStatus = 0U;
 328              	 .loc 1 240 5 view .LVU133
 241:Drivers/STM32G4xx_HAL_Driver/Src/stm32g4xx_hal_dma.c ****     hdma->DMAmuxRequestGenStatusMask = 0U;
 329              	 .loc 1 241 5 view .LVU134
 240:Drivers/STM32G4xx_HAL_Driver/Src/stm32g4xx_hal_dma.c ****     hdma->DMAmuxRequestGenStatus = 0U;
 330              	 .loc 1 240 28 is_stmt 0 view .LVU135
 331 00e8 0022     	 movs r2,#0
 332 00ea C3E91522 	 strd r2,r2,[r3,#84]
 242:Drivers/STM32G4xx_HAL_Driver/Src/stm32g4xx_hal_dma.c ****   }
 333              	 .loc 1 242 5 is_stmt 1 view .LVU136
 242:Drivers/STM32G4xx_HAL_Driver/Src/stm32g4xx_hal_dma.c ****   }
 334              	 .loc 1 242 38 is_stmt 0 view .LVU137
 335 00ee DA65     	 str r2,[r3,#92]
 336 00f0 E2E7     	 b .L8
 337              	.LVL21:
 338              	.L9:
 339              	 .cfi_def_cfa_offset 0
 340              	 .cfi_restore 4
 341              	 .cfi_restore 5
 342              	 .cfi_restore 6
 343              	 .cfi_restore 7
 159:Drivers/STM32G4xx_HAL_Driver/Src/stm32g4xx_hal_dma.c ****   }
 344              	 .loc 1 159 12 view .LVU138
 345 00f2 0120     	 movs r0,#1
 346              	.LVL22:
 255:Drivers/STM32G4xx_HAL_Driver/Src/stm32g4xx_hal_dma.c **** 
ARM GAS   			page 28


 347              	 .loc 1 255 1 view .LVU139
 348 00f4 7047     	 bx lr
 349              	.L19:
 350 00f6 00BF     	 .align 2
 351              	.L18:
 352 00f8 07040240 	 .word 1073873927
 353 00fc F8FBFDBF 	 .word -1073873928
 354 0100 CDCCCCCC 	 .word -858993459
 355 0104 00040240 	 .word 1073873920
 356 0108 00080240 	 .word 1073874944
 357 010c 20080240 	 .word 1073874976
 358 0110 3F820010 	 .word 268468799
 359 0114 40090240 	 .word 1073875264
 360 0118 00090240 	 .word 1073875200
 361 011c F8FFFDBF 	 .word -1073872904
 362 0120 00000240 	 .word 1073872896
 363              	 .cfi_endproc
 364              	.LFE361:
 366              	 .section .text.HAL_DMA_DeInit,"ax",%progbits
 367              	 .align 1
 368              	 .p2align 2,,3
 369              	 .global HAL_DMA_DeInit
 370              	 .syntax unified
 371              	 .thumb
 372              	 .thumb_func
 374              	HAL_DMA_DeInit:
 375              	.LVL23:
 376              	.LFB362:
 264:Drivers/STM32G4xx_HAL_Driver/Src/stm32g4xx_hal_dma.c **** 
 377              	 .loc 1 264 1 is_stmt 1 view-0
 378              	 .cfi_startproc
 379              	 
 380              	 
 381              	 
 267:Drivers/STM32G4xx_HAL_Driver/Src/stm32g4xx_hal_dma.c ****   {
 382              	 .loc 1 267 3 view .LVU141
 267:Drivers/STM32G4xx_HAL_Driver/Src/stm32g4xx_hal_dma.c ****   {
 383              	 .loc 1 267 6 is_stmt 0 view .LVU142
 384 0000 0028     	 cmp r0,#0
 385 0002 5FD0     	 beq .L25
 276:Drivers/STM32G4xx_HAL_Driver/Src/stm32g4xx_hal_dma.c **** 
 386              	 .loc 1 276 3 view .LVU143
 387 0004 0268     	 ldr r2,[r0]
 388 0006 0346     	 mov r3,r0
 273:Drivers/STM32G4xx_HAL_Driver/Src/stm32g4xx_hal_dma.c **** 
 389              	 .loc 1 273 3 is_stmt 1 view .LVU144
 276:Drivers/STM32G4xx_HAL_Driver/Src/stm32g4xx_hal_dma.c **** 
 390              	 .loc 1 276 3 view .LVU145
 391 0008 1168     	 ldr r1,[r2]
 279:Drivers/STM32G4xx_HAL_Driver/Src/stm32g4xx_hal_dma.c ****   {
 392              	 .loc 1 279 6 is_stmt 0 view .LVU146
 393 000a 2F48     	 ldr r0,.L31
 394              	.LVL24:
 276:Drivers/STM32G4xx_HAL_Driver/Src/stm32g4xx_hal_dma.c **** 
 395              	 .loc 1 276 3 view .LVU147
 396 000c 21F00101 	 bic r1,r1,#1
 279:Drivers/STM32G4xx_HAL_Driver/Src/stm32g4xx_hal_dma.c ****   {
ARM GAS   			page 29


 397              	 .loc 1 279 6 view .LVU148
 398 0010 8242     	 cmp r2,r0
 264:Drivers/STM32G4xx_HAL_Driver/Src/stm32g4xx_hal_dma.c **** 
 399              	 .loc 1 264 1 view .LVU149
 400 0012 30B4     	 push {r4,r5}
 401              	 .cfi_def_cfa_offset 8
 402              	 .cfi_offset 4,-8
 403              	 .cfi_offset 5,-4
 276:Drivers/STM32G4xx_HAL_Driver/Src/stm32g4xx_hal_dma.c **** 
 404              	 .loc 1 276 3 view .LVU150
 405 0014 1160     	 str r1,[r2]
 279:Drivers/STM32G4xx_HAL_Driver/Src/stm32g4xx_hal_dma.c ****   {
 406              	 .loc 1 279 3 is_stmt 1 view .LVU151
 279:Drivers/STM32G4xx_HAL_Driver/Src/stm32g4xx_hal_dma.c ****   {
 407              	 .loc 1 279 6 is_stmt 0 view .LVU152
 408 0016 42D9     	 bls .L30
 288:Drivers/STM32G4xx_HAL_Driver/Src/stm32g4xx_hal_dma.c ****     hdma->DmaBaseAddress = DMA2;
 409              	 .loc 1 288 5 is_stmt 1 view .LVU153
 288:Drivers/STM32G4xx_HAL_Driver/Src/stm32g4xx_hal_dma.c ****     hdma->DmaBaseAddress = DMA2;
 410              	 .loc 1 288 53 is_stmt 0 view .LVU154
 411 0018 2C49     	 ldr r1,.L31+4
 288:Drivers/STM32G4xx_HAL_Driver/Src/stm32g4xx_hal_dma.c ****     hdma->DmaBaseAddress = DMA2;
 412              	 .loc 1 288 80 view .LVU155
 413 001a 2D48     	 ldr r0,.L31+8
 289:Drivers/STM32G4xx_HAL_Driver/Src/stm32g4xx_hal_dma.c ****   }
 414              	 .loc 1 289 26 view .LVU156
 415 001c 2D4C     	 ldr r4,.L31+12
 288:Drivers/STM32G4xx_HAL_Driver/Src/stm32g4xx_hal_dma.c ****     hdma->DmaBaseAddress = DMA2;
 416              	 .loc 1 288 53 view .LVU157
 417 001e 1144     	 add r1,r1,r2
 288:Drivers/STM32G4xx_HAL_Driver/Src/stm32g4xx_hal_dma.c ****     hdma->DmaBaseAddress = DMA2;
 418              	 .loc 1 288 80 view .LVU158
 419 0020 A0FB0101 	 umull r0,r1,r0,r1
 420 0024 0909     	 lsrs r1,r1,#4
 288:Drivers/STM32G4xx_HAL_Driver/Src/stm32g4xx_hal_dma.c ****     hdma->DmaBaseAddress = DMA2;
 421              	 .loc 1 288 135 view .LVU159
 422 0026 8900     	 lsls r1,r1,#2
 293:Drivers/STM32G4xx_HAL_Driver/Src/stm32g4xx_hal_dma.c **** 
 423              	 .loc 1 293 24 view .LVU160
 424 0028 0020     	 movs r0,#0
 289:Drivers/STM32G4xx_HAL_Driver/Src/stm32g4xx_hal_dma.c ****   }
 425              	 .loc 1 289 26 view .LVU161
 426 002a C3E91041 	 strd r4,r1,[r3,#64]
 293:Drivers/STM32G4xx_HAL_Driver/Src/stm32g4xx_hal_dma.c **** 
 427              	 .loc 1 293 3 is_stmt 1 view .LVU162
 296:Drivers/STM32G4xx_HAL_Driver/Src/stm32g4xx_hal_dma.c **** 
 428              	 .loc 1 296 69 is_stmt 0 view .LVU163
 429 002e 01F01F05 	 and r5,r1,#31
 293:Drivers/STM32G4xx_HAL_Driver/Src/stm32g4xx_hal_dma.c **** 
 430              	 .loc 1 293 24 view .LVU164
 431 0032 1060     	 str r0,[r2]
 296:Drivers/STM32G4xx_HAL_Driver/Src/stm32g4xx_hal_dma.c **** 
 432              	 .loc 1 296 3 is_stmt 1 view .LVU165
 296:Drivers/STM32G4xx_HAL_Driver/Src/stm32g4xx_hal_dma.c **** 
 433              	 .loc 1 296 46 is_stmt 0 view .LVU166
 434 0034 0120     	 movs r0,#1
 435 0036 A840     	 lsls r0,r0,r5
ARM GAS   			page 30


 296:Drivers/STM32G4xx_HAL_Driver/Src/stm32g4xx_hal_dma.c **** 
 436              	 .loc 1 296 30 view .LVU167
 437 0038 6060     	 str r0,[r4,#4]
 301:Drivers/STM32G4xx_HAL_Driver/Src/stm32g4xx_hal_dma.c **** 
 438              	 .loc 1 301 3 is_stmt 1 view .LVU168
 439              	.LVL25:
 440              	.LBB28:
 441              	.LBI28:
1045:Drivers/STM32G4xx_HAL_Driver/Src/stm32g4xx_hal_dma.c **** {
 442              	 .loc 1 1045 13 view .LVU169
 443              	.LBB29:
1047:Drivers/STM32G4xx_HAL_Driver/Src/stm32g4xx_hal_dma.c ****   uint32_t channel_number;
 444              	 .loc 1 1047 3 view .LVU170
1048:Drivers/STM32G4xx_HAL_Driver/Src/stm32g4xx_hal_dma.c ****   DMAMUX_Channel_TypeDef *DMAMUX1_ChannelBase;
 445              	 .loc 1 1048 3 view .LVU171
1049:Drivers/STM32G4xx_HAL_Driver/Src/stm32g4xx_hal_dma.c **** 
 446              	 .loc 1 1049 3 view .LVU172
1052:Drivers/STM32G4xx_HAL_Driver/Src/stm32g4xx_hal_dma.c ****   {
 447              	 .loc 1 1052 3 view .LVU173
1061:Drivers/STM32G4xx_HAL_Driver/Src/stm32g4xx_hal_dma.c **** #elif defined (STM32G411xB) || defined (STM32G431xx) || defined (STM32G441xx) || defined (STM32GBK1
 448              	 .loc 1 1061 5 view .LVU174
1061:Drivers/STM32G4xx_HAL_Driver/Src/stm32g4xx_hal_dma.c **** #elif defined (STM32G411xB) || defined (STM32G431xx) || defined (STM32G441xx) || defined (STM32GBK1
 449              	 .loc 1 1061 5 is_stmt 0 view .LVU175
 450              	.LBE29:
 451              	.LBE28:
 296:Drivers/STM32G4xx_HAL_Driver/Src/stm32g4xx_hal_dma.c **** 
 452              	 .loc 1 296 30 view .LVU176
 453 003a 2748     	 ldr r0,.L31+16
 454              	.LVL26:
 455              	.L23:
 456              	.LBB34:
 457              	.LBB30:
1068:Drivers/STM32G4xx_HAL_Driver/Src/stm32g4xx_hal_dma.c ****   channel_number = (((uint32_t)hdma->Instance & 0xFFU) - 8U) / 20U;
 458              	 .loc 1 1068 3 is_stmt 1 view .LVU177
1069:Drivers/STM32G4xx_HAL_Driver/Src/stm32g4xx_hal_dma.c ****   hdma->DMAmuxChannel = (DMAMUX_Channel_TypeDef *)(uint32_t)(dmamux_base_addr + ((hdma->ChannelInde
 459              	 .loc 1 1069 3 view .LVU178
1070:Drivers/STM32G4xx_HAL_Driver/Src/stm32g4xx_hal_dma.c ****   hdma->DMAmuxChannelStatus = DMAMUX1_ChannelStatus;
 460              	 .loc 1 1070 3 view .LVU179
 461              	.LBE30:
 462              	.LBE34:
 307:Drivers/STM32G4xx_HAL_Driver/Src/stm32g4xx_hal_dma.c **** 
 463              	 .loc 1 307 34 is_stmt 0 view .LVU180
 464 003c 274D     	 ldr r5,.L31+20
 465              	.LBB35:
 466              	.LBB31:
1070:Drivers/STM32G4xx_HAL_Driver/Src/stm32g4xx_hal_dma.c ****   hdma->DMAmuxChannelStatus = DMAMUX1_ChannelStatus;
 467              	 .loc 1 1070 102 view .LVU181
 468 003e 4FEA910C 	 lsr ip,r1,#2
1070:Drivers/STM32G4xx_HAL_Driver/Src/stm32g4xx_hal_dma.c ****   hdma->DMAmuxChannelStatus = DMAMUX1_ChannelStatus;
 469              	 .loc 1 1070 51 view .LVU182
 470 0042 0144     	 add r1,r1,r0
1070:Drivers/STM32G4xx_HAL_Driver/Src/stm32g4xx_hal_dma.c ****   hdma->DMAmuxChannelStatus = DMAMUX1_ChannelStatus;
 471              	 .loc 1 1070 23 view .LVU183
 472 0044 9964     	 str r1,[r3,#72]
1071:Drivers/STM32G4xx_HAL_Driver/Src/stm32g4xx_hal_dma.c ****   hdma->DMAmuxChannelStatusMask = 1UL << (channel_number & 0x1FU);
 473              	 .loc 1 1071 3 is_stmt 1 view .LVU184
1071:Drivers/STM32G4xx_HAL_Driver/Src/stm32g4xx_hal_dma.c ****   hdma->DMAmuxChannelStatusMask = 1UL << (channel_number & 0x1FU);
ARM GAS   			page 31


 474              	 .loc 1 1071 29 is_stmt 0 view .LVU185
 475 0046 2649     	 ldr r1,.L31+24
 476 0048 D964     	 str r1,[r3,#76]
1072:Drivers/STM32G4xx_HAL_Driver/Src/stm32g4xx_hal_dma.c **** }
 477              	 .loc 1 1072 3 is_stmt 1 view .LVU186
1069:Drivers/STM32G4xx_HAL_Driver/Src/stm32g4xx_hal_dma.c ****   hdma->DMAmuxChannel = (DMAMUX_Channel_TypeDef *)(uint32_t)(dmamux_base_addr + ((hdma->ChannelInde
 478              	 .loc 1 1069 47 is_stmt 0 view .LVU187
 479 004a D2B2     	 uxtb r2,r2
 480              	.LVL27:
1069:Drivers/STM32G4xx_HAL_Driver/Src/stm32g4xx_hal_dma.c ****   hdma->DMAmuxChannel = (DMAMUX_Channel_TypeDef *)(uint32_t)(dmamux_base_addr + ((hdma->ChannelInde
 481              	 .loc 1 1069 18 view .LVU188
 482 004c 2049     	 ldr r1,.L31+8
1069:Drivers/STM32G4xx_HAL_Driver/Src/stm32g4xx_hal_dma.c ****   hdma->DMAmuxChannel = (DMAMUX_Channel_TypeDef *)(uint32_t)(dmamux_base_addr + ((hdma->ChannelInde
 483              	 .loc 1 1069 56 view .LVU189
 484 004e 083A     	 subs r2,r2,#8
1069:Drivers/STM32G4xx_HAL_Driver/Src/stm32g4xx_hal_dma.c ****   hdma->DMAmuxChannel = (DMAMUX_Channel_TypeDef *)(uint32_t)(dmamux_base_addr + ((hdma->ChannelInde
 485              	 .loc 1 1069 18 view .LVU190
 486 0050 A1FB0212 	 umull r1,r2,r1,r2
1072:Drivers/STM32G4xx_HAL_Driver/Src/stm32g4xx_hal_dma.c **** }
 487              	 .loc 1 1072 58 view .LVU191
 488 0054 C2F30412 	 ubfx r2,r2,#4,#5
1072:Drivers/STM32G4xx_HAL_Driver/Src/stm32g4xx_hal_dma.c **** }
 489              	 .loc 1 1072 39 view .LVU192
 490 0058 0121     	 movs r1,#1
 491 005a 01FA02F2 	 lsl r2,r1,r2
 492              	.LBE31:
 493              	.LBE35:
 304:Drivers/STM32G4xx_HAL_Driver/Src/stm32g4xx_hal_dma.c **** 
 494              	 .loc 1 304 28 view .LVU193
 495 005e 0024     	 movs r4,#0
 496              	.LBB36:
 497              	.LBB32:
1072:Drivers/STM32G4xx_HAL_Driver/Src/stm32g4xx_hal_dma.c **** }
 498              	 .loc 1 1072 33 view .LVU194
 499 0060 1A65     	 str r2,[r3,#80]
 500              	.LVL28:
1072:Drivers/STM32G4xx_HAL_Driver/Src/stm32g4xx_hal_dma.c **** }
 501              	 .loc 1 1072 33 view .LVU195
 502              	.LBE32:
 503              	.LBE36:
 304:Drivers/STM32G4xx_HAL_Driver/Src/stm32g4xx_hal_dma.c **** 
 504              	 .loc 1 304 3 is_stmt 1 view .LVU196
 304:Drivers/STM32G4xx_HAL_Driver/Src/stm32g4xx_hal_dma.c **** 
 505              	 .loc 1 304 28 is_stmt 0 view .LVU197
 506 0062 40F82C40 	 str r4,[r0,ip,lsl#2]
 307:Drivers/STM32G4xx_HAL_Driver/Src/stm32g4xx_hal_dma.c **** 
 507              	 .loc 1 307 3 is_stmt 1 view .LVU198
 307:Drivers/STM32G4xx_HAL_Driver/Src/stm32g4xx_hal_dma.c **** 
 508              	 .loc 1 307 34 is_stmt 0 view .LVU199
 509 0066 C5F88420 	 str r2,[r5,#132]
 310:Drivers/STM32G4xx_HAL_Driver/Src/stm32g4xx_hal_dma.c ****   {
 510              	 .loc 1 310 3 is_stmt 1 view .LVU200
 310:Drivers/STM32G4xx_HAL_Driver/Src/stm32g4xx_hal_dma.c ****   {
 511              	 .loc 1 310 19 is_stmt 0 view .LVU201
 512 006a 5868     	 ldr r0,[r3,#4]
 310:Drivers/STM32G4xx_HAL_Driver/Src/stm32g4xx_hal_dma.c ****   {
 513              	 .loc 1 310 35 view .LVU202
ARM GAS   			page 32


 514 006c 421E     	 subs r2,r0,#1
 310:Drivers/STM32G4xx_HAL_Driver/Src/stm32g4xx_hal_dma.c ****   {
 515              	 .loc 1 310 6 view .LVU203
 516 006e 032A     	 cmp r2,#3
 517 0070 06D8     	 bhi .L24
 315:Drivers/STM32G4xx_HAL_Driver/Src/stm32g4xx_hal_dma.c **** 
 518              	 .loc 1 315 5 is_stmt 1 view .LVU204
 519              	.LVL29:
 520              	.LBB37:
 521              	.LBI37:
1082:Drivers/STM32G4xx_HAL_Driver/Src/stm32g4xx_hal_dma.c **** {
 522              	 .loc 1 1082 13 view .LVU205
 523              	.LBB38:
1084:Drivers/STM32G4xx_HAL_Driver/Src/stm32g4xx_hal_dma.c **** 
 524              	 .loc 1 1084 3 view .LVU206
1087:Drivers/STM32G4xx_HAL_Driver/Src/stm32g4xx_hal_dma.c **** 
 525              	 .loc 1 1087 3 view .LVU207
 526              	 .loc 1 1091 42 is_stmt 0 view .LVU208
 527 0072 9140     	 lsls r1,r1,r2
1087:Drivers/STM32G4xx_HAL_Driver/Src/stm32g4xx_hal_dma.c **** 
 528              	 .loc 1 1087 58 view .LVU209
 529 0074 1B4A     	 ldr r2,.L31+28
 530 0076 0244     	 add r2,r2,r0
 531 0078 9200     	 lsls r2,r2,#2
1089:Drivers/STM32G4xx_HAL_Driver/Src/stm32g4xx_hal_dma.c **** 
 532              	 .loc 1 1089 3 is_stmt 1 view .LVU210
 533              	 .loc 1 1091 3 view .LVU211
 534              	.LVL30:
 535              	 .loc 1 1091 3 is_stmt 0 view .LVU212
 536              	.LBE38:
 537              	.LBE37:
 318:Drivers/STM32G4xx_HAL_Driver/Src/stm32g4xx_hal_dma.c **** 
 538              	 .loc 1 318 5 is_stmt 1 view .LVU213
 318:Drivers/STM32G4xx_HAL_Driver/Src/stm32g4xx_hal_dma.c **** 
 539              	 .loc 1 318 34 is_stmt 0 view .LVU214
 540 007a 1460     	 str r4,[r2]
 321:Drivers/STM32G4xx_HAL_Driver/Src/stm32g4xx_hal_dma.c ****   }
 541              	 .loc 1 321 5 is_stmt 1 view .LVU215
 321:Drivers/STM32G4xx_HAL_Driver/Src/stm32g4xx_hal_dma.c ****   }
 542              	 .loc 1 321 41 is_stmt 0 view .LVU216
 543 007c C5F84411 	 str r1,[r5,#324]
 544              	.L24:
 324:Drivers/STM32G4xx_HAL_Driver/Src/stm32g4xx_hal_dma.c ****   hdma->DMAmuxRequestGenStatus = 0U;
 545              	 .loc 1 324 3 is_stmt 1 view .LVU217
 325:Drivers/STM32G4xx_HAL_Driver/Src/stm32g4xx_hal_dma.c ****   hdma->DMAmuxRequestGenStatusMask = 0U;
 546              	 .loc 1 325 3 view .LVU218
 324:Drivers/STM32G4xx_HAL_Driver/Src/stm32g4xx_hal_dma.c ****   hdma->DMAmuxRequestGenStatus = 0U;
 547              	 .loc 1 324 26 is_stmt 0 view .LVU219
 548 0080 0020     	 movs r0,#0
 549 0082 C3E91500 	 strd r0,r0,[r3,#84]
 326:Drivers/STM32G4xx_HAL_Driver/Src/stm32g4xx_hal_dma.c **** 
 550              	 .loc 1 326 3 is_stmt 1 view .LVU220
 335:Drivers/STM32G4xx_HAL_Driver/Src/stm32g4xx_hal_dma.c **** 
 551              	 .loc 1 335 19 is_stmt 0 view .LVU221
 552 0086 D863     	 str r0,[r3,#60]
 341:Drivers/STM32G4xx_HAL_Driver/Src/stm32g4xx_hal_dma.c **** 
 553              	 .loc 1 341 3 view .LVU222
ARM GAS   			page 33


 554 0088 83F82400 	 strb r0,[r3,#36]
 338:Drivers/STM32G4xx_HAL_Driver/Src/stm32g4xx_hal_dma.c **** 
 555              	 .loc 1 338 15 view .LVU223
 556 008c 83F82500 	 strb r0,[r3,#37]
 344:Drivers/STM32G4xx_HAL_Driver/Src/stm32g4xx_hal_dma.c **** 
 557              	 .loc 1 344 1 view .LVU224
 558 0090 30BC     	 pop {r4,r5}
 559              	 .cfi_remember_state
 560              	 .cfi_restore 5
 561              	 .cfi_restore 4
 562              	 .cfi_def_cfa_offset 0
 330:Drivers/STM32G4xx_HAL_Driver/Src/stm32g4xx_hal_dma.c ****   hdma->XferErrorCallback = NULL;
 563              	 .loc 1 330 30 view .LVU225
 564 0092 C3E90B00 	 strd r0,r0,[r3,#44]
 332:Drivers/STM32G4xx_HAL_Driver/Src/stm32g4xx_hal_dma.c **** 
 565              	 .loc 1 332 27 view .LVU226
 566 0096 C3E90D00 	 strd r0,r0,[r3,#52]
 326:Drivers/STM32G4xx_HAL_Driver/Src/stm32g4xx_hal_dma.c **** 
 567              	 .loc 1 326 36 view .LVU227
 568 009a D865     	 str r0,[r3,#92]
 329:Drivers/STM32G4xx_HAL_Driver/Src/stm32g4xx_hal_dma.c ****   hdma->XferHalfCpltCallback = NULL;
 569              	 .loc 1 329 3 is_stmt 1 view .LVU228
 331:Drivers/STM32G4xx_HAL_Driver/Src/stm32g4xx_hal_dma.c ****   hdma->XferAbortCallback = NULL;
 570              	 .loc 1 331 3 view .LVU229
 335:Drivers/STM32G4xx_HAL_Driver/Src/stm32g4xx_hal_dma.c **** 
 571              	 .loc 1 335 3 view .LVU230
 338:Drivers/STM32G4xx_HAL_Driver/Src/stm32g4xx_hal_dma.c **** 
 572              	 .loc 1 338 3 view .LVU231
 341:Drivers/STM32G4xx_HAL_Driver/Src/stm32g4xx_hal_dma.c **** 
 573              	 .loc 1 341 3 view .LVU232
 341:Drivers/STM32G4xx_HAL_Driver/Src/stm32g4xx_hal_dma.c **** 
 574              	 .loc 1 341 3 view .LVU233
 341:Drivers/STM32G4xx_HAL_Driver/Src/stm32g4xx_hal_dma.c **** 
 575              	 .loc 1 341 3 view .LVU234
 343:Drivers/STM32G4xx_HAL_Driver/Src/stm32g4xx_hal_dma.c **** }
 576              	 .loc 1 343 3 view .LVU235
 344:Drivers/STM32G4xx_HAL_Driver/Src/stm32g4xx_hal_dma.c **** 
 577              	 .loc 1 344 1 is_stmt 0 view .LVU236
 578 009c 7047     	 bx lr
 579              	.L30:
 580              	 .cfi_restore_state
 282:Drivers/STM32G4xx_HAL_Driver/Src/stm32g4xx_hal_dma.c ****     hdma->DmaBaseAddress = DMA1;
 581              	 .loc 1 282 5 is_stmt 1 view .LVU237
 282:Drivers/STM32G4xx_HAL_Driver/Src/stm32g4xx_hal_dma.c ****     hdma->DmaBaseAddress = DMA1;
 582              	 .loc 1 282 53 is_stmt 0 view .LVU238
 583 009e 1249     	 ldr r1,.L31+32
 282:Drivers/STM32G4xx_HAL_Driver/Src/stm32g4xx_hal_dma.c ****     hdma->DmaBaseAddress = DMA1;
 584              	 .loc 1 282 80 view .LVU239
 585 00a0 0B48     	 ldr r0,.L31+8
 283:Drivers/STM32G4xx_HAL_Driver/Src/stm32g4xx_hal_dma.c ****   }
 586              	 .loc 1 283 26 view .LVU240
 587 00a2 124C     	 ldr r4,.L31+36
 282:Drivers/STM32G4xx_HAL_Driver/Src/stm32g4xx_hal_dma.c ****     hdma->DmaBaseAddress = DMA1;
 588              	 .loc 1 282 53 view .LVU241
 589 00a4 1144     	 add r1,r1,r2
 282:Drivers/STM32G4xx_HAL_Driver/Src/stm32g4xx_hal_dma.c ****     hdma->DmaBaseAddress = DMA1;
 590              	 .loc 1 282 80 view .LVU242
ARM GAS   			page 34


 591 00a6 A0FB0101 	 umull r0,r1,r0,r1
 592 00aa 0909     	 lsrs r1,r1,#4
 282:Drivers/STM32G4xx_HAL_Driver/Src/stm32g4xx_hal_dma.c ****     hdma->DmaBaseAddress = DMA1;
 593              	 .loc 1 282 135 view .LVU243
 594 00ac 8900     	 lsls r1,r1,#2
 293:Drivers/STM32G4xx_HAL_Driver/Src/stm32g4xx_hal_dma.c **** 
 595              	 .loc 1 293 24 view .LVU244
 596 00ae 0020     	 movs r0,#0
 283:Drivers/STM32G4xx_HAL_Driver/Src/stm32g4xx_hal_dma.c ****   }
 597              	 .loc 1 283 26 view .LVU245
 598 00b0 C3E91041 	 strd r4,r1,[r3,#64]
 293:Drivers/STM32G4xx_HAL_Driver/Src/stm32g4xx_hal_dma.c **** 
 599              	 .loc 1 293 3 is_stmt 1 view .LVU246
 296:Drivers/STM32G4xx_HAL_Driver/Src/stm32g4xx_hal_dma.c **** 
 600              	 .loc 1 296 69 is_stmt 0 view .LVU247
 601 00b4 01F01F05 	 and r5,r1,#31
 293:Drivers/STM32G4xx_HAL_Driver/Src/stm32g4xx_hal_dma.c **** 
 602              	 .loc 1 293 24 view .LVU248
 603 00b8 1060     	 str r0,[r2]
 296:Drivers/STM32G4xx_HAL_Driver/Src/stm32g4xx_hal_dma.c **** 
 604              	 .loc 1 296 3 is_stmt 1 view .LVU249
 296:Drivers/STM32G4xx_HAL_Driver/Src/stm32g4xx_hal_dma.c **** 
 605              	 .loc 1 296 46 is_stmt 0 view .LVU250
 606 00ba 0120     	 movs r0,#1
 607 00bc A840     	 lsls r0,r0,r5
 296:Drivers/STM32G4xx_HAL_Driver/Src/stm32g4xx_hal_dma.c **** 
 608              	 .loc 1 296 30 view .LVU251
 609 00be 6060     	 str r0,[r4,#4]
 301:Drivers/STM32G4xx_HAL_Driver/Src/stm32g4xx_hal_dma.c **** 
 610              	 .loc 1 301 3 is_stmt 1 view .LVU252
 611              	.LVL31:
 612              	.LBB39:
1045:Drivers/STM32G4xx_HAL_Driver/Src/stm32g4xx_hal_dma.c **** {
 613              	 .loc 1 1045 13 view .LVU253
 614              	.LBB33:
1047:Drivers/STM32G4xx_HAL_Driver/Src/stm32g4xx_hal_dma.c ****   uint32_t channel_number;
 615              	 .loc 1 1047 3 view .LVU254
1048:Drivers/STM32G4xx_HAL_Driver/Src/stm32g4xx_hal_dma.c ****   DMAMUX_Channel_TypeDef *DMAMUX1_ChannelBase;
 616              	 .loc 1 1048 3 view .LVU255
1049:Drivers/STM32G4xx_HAL_Driver/Src/stm32g4xx_hal_dma.c **** 
 617              	 .loc 1 1049 3 view .LVU256
1052:Drivers/STM32G4xx_HAL_Driver/Src/stm32g4xx_hal_dma.c ****   {
 618              	 .loc 1 1052 3 view .LVU257
 619              	.LBE33:
 620              	.LBE39:
 296:Drivers/STM32G4xx_HAL_Driver/Src/stm32g4xx_hal_dma.c **** 
 621              	 .loc 1 296 30 is_stmt 0 view .LVU258
 622 00c0 0648     	 ldr r0,.L31+20
 623 00c2 BBE7     	 b .L23
 624              	.LVL32:
 625              	.L25:
 626              	 .cfi_def_cfa_offset 0
 627              	 .cfi_restore 4
 628              	 .cfi_restore 5
 269:Drivers/STM32G4xx_HAL_Driver/Src/stm32g4xx_hal_dma.c ****   }
 629              	 .loc 1 269 12 view .LVU259
 630 00c4 0120     	 movs r0,#1
ARM GAS   			page 35


 631              	.LVL33:
 344:Drivers/STM32G4xx_HAL_Driver/Src/stm32g4xx_hal_dma.c **** 
 632              	 .loc 1 344 1 view .LVU260
 633 00c6 7047     	 bx lr
 634              	.L32:
 635              	 .align 2
 636              	.L31:
 637 00c8 07040240 	 .word 1073873927
 638 00cc F8FBFDBF 	 .word -1073873928
 639 00d0 CDCCCCCC 	 .word -858993459
 640 00d4 00040240 	 .word 1073873920
 641 00d8 20080240 	 .word 1073874976
 642 00dc 00080240 	 .word 1073874944
 643 00e0 80080240 	 .word 1073875072
 644 00e4 3F820010 	 .word 268468799
 645 00e8 F8FFFDBF 	 .word -1073872904
 646 00ec 00000240 	 .word 1073872896
 647              	 .cfi_endproc
 648              	.LFE362:
 650              	 .section .text.HAL_DMA_Start,"ax",%progbits
 651              	 .align 1
 652              	 .p2align 2,,3
 653              	 .global HAL_DMA_Start
 654              	 .syntax unified
 655              	 .thumb
 656              	 .thumb_func
 658              	HAL_DMA_Start:
 659              	.LVL34:
 660              	.LFB363:
 379:Drivers/STM32G4xx_HAL_Driver/Src/stm32g4xx_hal_dma.c ****   HAL_StatusTypeDef status = HAL_OK;
 661              	 .loc 1 379 1 is_stmt 1 view-0
 662              	 .cfi_startproc
 663              	 
 664              	 
 665              	 
 380:Drivers/STM32G4xx_HAL_Driver/Src/stm32g4xx_hal_dma.c **** 
 666              	 .loc 1 380 3 view .LVU262
 383:Drivers/STM32G4xx_HAL_Driver/Src/stm32g4xx_hal_dma.c **** 
 667              	 .loc 1 383 3 view .LVU263
 386:Drivers/STM32G4xx_HAL_Driver/Src/stm32g4xx_hal_dma.c **** 
 668              	 .loc 1 386 3 view .LVU264
 386:Drivers/STM32G4xx_HAL_Driver/Src/stm32g4xx_hal_dma.c **** 
 669              	 .loc 1 386 3 view .LVU265
 379:Drivers/STM32G4xx_HAL_Driver/Src/stm32g4xx_hal_dma.c ****   HAL_StatusTypeDef status = HAL_OK;
 670              	 .loc 1 379 1 is_stmt 0 view .LVU266
 671 0000 F0B4     	 push {r4,r5,r6,r7}
 672              	 .cfi_def_cfa_offset 16
 673              	 .cfi_offset 4,-16
 674              	 .cfi_offset 5,-12
 675              	 .cfi_offset 6,-8
 676              	 .cfi_offset 7,-4
 386:Drivers/STM32G4xx_HAL_Driver/Src/stm32g4xx_hal_dma.c **** 
 677              	 .loc 1 386 3 view .LVU267
 678 0002 90F82440 	 ldrb r4,[r0,#36]
 679 0006 012C     	 cmp r4,#1
 680 0008 09D0     	 beq .L34
 386:Drivers/STM32G4xx_HAL_Driver/Src/stm32g4xx_hal_dma.c **** 
ARM GAS   			page 36


 681              	 .loc 1 386 3 is_stmt 1 discriminator 2 view .LVU268
 682 000a 0124     	 movs r4,#1
 683 000c 80F82440 	 strb r4,[r0,#36]
 386:Drivers/STM32G4xx_HAL_Driver/Src/stm32g4xx_hal_dma.c **** 
 684              	 .loc 1 386 3 discriminator 2 view .LVU269
 388:Drivers/STM32G4xx_HAL_Driver/Src/stm32g4xx_hal_dma.c ****   {
 685              	 .loc 1 388 3 view .LVU270
 388:Drivers/STM32G4xx_HAL_Driver/Src/stm32g4xx_hal_dma.c ****   {
 686              	 .loc 1 388 34 is_stmt 0 view .LVU271
 687 0010 90F82540 	 ldrb r4,[r0,#37]
 388:Drivers/STM32G4xx_HAL_Driver/Src/stm32g4xx_hal_dma.c ****   {
 688              	 .loc 1 388 6 view .LVU272
 689 0014 012C     	 cmp r4,#1
 690 0016 05D0     	 beq .L47
 406:Drivers/STM32G4xx_HAL_Driver/Src/stm32g4xx_hal_dma.c ****     status = HAL_BUSY;
 691              	 .loc 1 406 5 is_stmt 1 view .LVU273
 406:Drivers/STM32G4xx_HAL_Driver/Src/stm32g4xx_hal_dma.c ****     status = HAL_BUSY;
 692              	 .loc 1 406 5 view .LVU274
 693 0018 0023     	 movs r3,#0
 694              	.LVL35:
 406:Drivers/STM32G4xx_HAL_Driver/Src/stm32g4xx_hal_dma.c ****     status = HAL_BUSY;
 695              	 .loc 1 406 5 is_stmt 0 view .LVU275
 696 001a 80F82430 	 strb r3,[r0,#36]
 406:Drivers/STM32G4xx_HAL_Driver/Src/stm32g4xx_hal_dma.c ****     status = HAL_BUSY;
 697              	 .loc 1 406 5 is_stmt 1 view .LVU276
 407:Drivers/STM32G4xx_HAL_Driver/Src/stm32g4xx_hal_dma.c ****   }
 698              	 .loc 1 407 5 view .LVU277
 699              	.LVL36:
 700              	.L34:
 386:Drivers/STM32G4xx_HAL_Driver/Src/stm32g4xx_hal_dma.c **** 
 701              	 .loc 1 386 3 is_stmt 0 discriminator 1 view .LVU278
 702 001e 0220     	 movs r0,#2
 703              	.LVL37:
 410:Drivers/STM32G4xx_HAL_Driver/Src/stm32g4xx_hal_dma.c **** 
 704              	 .loc 1 410 1 view .LVU279
 705 0020 F0BC     	 pop {r4,r5,r6,r7}
 706              	 .cfi_remember_state
 707              	 .cfi_restore 7
 708              	 .cfi_restore 6
 709              	 .cfi_restore 5
 710              	 .cfi_restore 4
 711              	 .cfi_def_cfa_offset 0
 712 0022 7047     	 bx lr
 713              	.LVL38:
 714              	.L47:
 715              	 .cfi_restore_state
 391:Drivers/STM32G4xx_HAL_Driver/Src/stm32g4xx_hal_dma.c ****     hdma->ErrorCode = HAL_DMA_ERROR_NONE;
 716              	 .loc 1 391 5 is_stmt 1 view .LVU280
 391:Drivers/STM32G4xx_HAL_Driver/Src/stm32g4xx_hal_dma.c ****     hdma->ErrorCode = HAL_DMA_ERROR_NONE;
 717              	 .loc 1 391 17 is_stmt 0 view .LVU281
 718 0024 0224     	 movs r4,#2
 719 0026 80F82540 	 strb r4,[r0,#37]
 392:Drivers/STM32G4xx_HAL_Driver/Src/stm32g4xx_hal_dma.c **** 
 720              	 .loc 1 392 5 is_stmt 1 view .LVU282
 392:Drivers/STM32G4xx_HAL_Driver/Src/stm32g4xx_hal_dma.c **** 
 721              	 .loc 1 392 21 is_stmt 0 view .LVU283
 722 002a 0024     	 movs r4,#0
ARM GAS   			page 37


 723 002c C463     	 str r4,[r0,#60]
 395:Drivers/STM32G4xx_HAL_Driver/Src/stm32g4xx_hal_dma.c **** 
 724              	 .loc 1 395 5 is_stmt 1 view .LVU284
 725 002e 0468     	 ldr r4,[r0]
 726              	.LBB40:
 727              	.LBB41:
1005:Drivers/STM32G4xx_HAL_Driver/Src/stm32g4xx_hal_dma.c **** 
 728              	 .loc 1 1005 7 is_stmt 0 view .LVU285
 729 0030 C66C     	 ldr r6,[r0,#76]
 730              	.LBE41:
 731              	.LBE40:
 395:Drivers/STM32G4xx_HAL_Driver/Src/stm32g4xx_hal_dma.c **** 
 732              	 .loc 1 395 5 view .LVU286
 733 0032 2568     	 ldr r5,[r4]
 734 0034 25F00105 	 bic r5,r5,#1
 735 0038 2560     	 str r5,[r4]
 398:Drivers/STM32G4xx_HAL_Driver/Src/stm32g4xx_hal_dma.c **** 
 736              	 .loc 1 398 5 is_stmt 1 view .LVU287
 737              	.LVL39:
 738              	.LBB43:
 739              	.LBI40:
1002:Drivers/STM32G4xx_HAL_Driver/Src/stm32g4xx_hal_dma.c **** {
 740              	 .loc 1 1002 13 view .LVU288
 741              	.LBB42:
1005:Drivers/STM32G4xx_HAL_Driver/Src/stm32g4xx_hal_dma.c **** 
 742              	 .loc 1 1005 3 view .LVU289
1005:Drivers/STM32G4xx_HAL_Driver/Src/stm32g4xx_hal_dma.c **** 
 743              	 .loc 1 1005 34 is_stmt 0 view .LVU290
 744 003a D0E91475 	 ldrd r7,r5,[r0,#80]
 745 003e 7760     	 str r7,[r6,#4]
1007:Drivers/STM32G4xx_HAL_Driver/Src/stm32g4xx_hal_dma.c ****   {
 746              	 .loc 1 1007 3 is_stmt 1 view .LVU291
1007:Drivers/STM32G4xx_HAL_Driver/Src/stm32g4xx_hal_dma.c ****   {
 747              	 .loc 1 1007 6 is_stmt 0 view .LVU292
 748 0040 15B1     	 cbz r5,.L36
1010:Drivers/STM32G4xx_HAL_Driver/Src/stm32g4xx_hal_dma.c ****   }
 749              	 .loc 1 1010 5 is_stmt 1 view .LVU293
1010:Drivers/STM32G4xx_HAL_Driver/Src/stm32g4xx_hal_dma.c ****   }
 750              	 .loc 1 1010 47 is_stmt 0 view .LVU294
 751 0042 D0E91656 	 ldrd r5,r6,[r0,#88]
1010:Drivers/STM32G4xx_HAL_Driver/Src/stm32g4xx_hal_dma.c ****   }
 752              	 .loc 1 1010 41 view .LVU295
 753 0046 6E60     	 str r6,[r5,#4]
 754              	.L36:
1014:Drivers/STM32G4xx_HAL_Driver/Src/stm32g4xx_hal_dma.c **** 
 755              	 .loc 1 1014 3 is_stmt 1 view .LVU296
1014:Drivers/STM32G4xx_HAL_Driver/Src/stm32g4xx_hal_dma.c **** 
 756              	 .loc 1 1014 69 is_stmt 0 view .LVU297
 757 0048 456C     	 ldr r5,[r0,#68]
1014:Drivers/STM32G4xx_HAL_Driver/Src/stm32g4xx_hal_dma.c **** 
 758              	 .loc 1 1014 7 view .LVU298
 759 004a 066C     	 ldr r6,[r0,#64]
1014:Drivers/STM32G4xx_HAL_Driver/Src/stm32g4xx_hal_dma.c **** 
 760              	 .loc 1 1014 69 view .LVU299
 761 004c 05F01F0C 	 and ip,r5,#31
1020:Drivers/STM32G4xx_HAL_Driver/Src/stm32g4xx_hal_dma.c ****   {
 762              	 .loc 1 1020 6 view .LVU300
ARM GAS   			page 38


 763 0050 8568     	 ldr r5,[r0,#8]
1014:Drivers/STM32G4xx_HAL_Driver/Src/stm32g4xx_hal_dma.c **** 
 764              	 .loc 1 1014 46 view .LVU301
 765 0052 0120     	 movs r0,#1
 766              	.LVL40:
1020:Drivers/STM32G4xx_HAL_Driver/Src/stm32g4xx_hal_dma.c ****   {
 767              	 .loc 1 1020 6 view .LVU302
 768 0054 102D     	 cmp r5,#16
1014:Drivers/STM32G4xx_HAL_Driver/Src/stm32g4xx_hal_dma.c **** 
 769              	 .loc 1 1014 46 view .LVU303
 770 0056 00FA0CF0 	 lsl r0,r0,ip
1014:Drivers/STM32G4xx_HAL_Driver/Src/stm32g4xx_hal_dma.c **** 
 771              	 .loc 1 1014 30 view .LVU304
 772 005a 7060     	 str r0,[r6,#4]
1017:Drivers/STM32G4xx_HAL_Driver/Src/stm32g4xx_hal_dma.c **** 
 773              	 .loc 1 1017 3 is_stmt 1 view .LVU305
1017:Drivers/STM32G4xx_HAL_Driver/Src/stm32g4xx_hal_dma.c **** 
 774              	 .loc 1 1017 25 is_stmt 0 view .LVU306
 775 005c 6360     	 str r3,[r4,#4]
1020:Drivers/STM32G4xx_HAL_Driver/Src/stm32g4xx_hal_dma.c ****   {
 776              	 .loc 1 1020 3 is_stmt 1 view .LVU307
1023:Drivers/STM32G4xx_HAL_Driver/Src/stm32g4xx_hal_dma.c **** 
 777              	 .loc 1 1023 5 view .LVU308
1023:Drivers/STM32G4xx_HAL_Driver/Src/stm32g4xx_hal_dma.c **** 
 778              	 .loc 1 1023 26 is_stmt 0 view .LVU309
 779 005e 0BBF     	 itete eq
 780 0060 A260     	 streq r2,[r4,#8]
1026:Drivers/STM32G4xx_HAL_Driver/Src/stm32g4xx_hal_dma.c ****   }
 781              	 .loc 1 1026 5 is_stmt 1 view .LVU310
1032:Drivers/STM32G4xx_HAL_Driver/Src/stm32g4xx_hal_dma.c **** 
 782              	 .loc 1 1032 26 is_stmt 0 view .LVU311
 783 0062 A160     	 strne r1,[r4,#8]
1026:Drivers/STM32G4xx_HAL_Driver/Src/stm32g4xx_hal_dma.c ****   }
 784              	 .loc 1 1026 26 view .LVU312
 785 0064 E160     	 streq r1,[r4,#12]
1032:Drivers/STM32G4xx_HAL_Driver/Src/stm32g4xx_hal_dma.c **** 
 786              	 .loc 1 1032 5 is_stmt 1 view .LVU313
1035:Drivers/STM32G4xx_HAL_Driver/Src/stm32g4xx_hal_dma.c ****   }
 787              	 .loc 1 1035 5 view .LVU314
1035:Drivers/STM32G4xx_HAL_Driver/Src/stm32g4xx_hal_dma.c ****   }
 788              	 .loc 1 1035 26 is_stmt 0 view .LVU315
 789 0066 E260     	 strne r2,[r4,#12]
 790              	.LVL41:
1035:Drivers/STM32G4xx_HAL_Driver/Src/stm32g4xx_hal_dma.c ****   }
 791              	 .loc 1 1035 26 view .LVU316
 792              	.LBE42:
 793              	.LBE43:
 401:Drivers/STM32G4xx_HAL_Driver/Src/stm32g4xx_hal_dma.c ****   }
 794              	 .loc 1 401 5 is_stmt 1 view .LVU317
 795 0068 2368     	 ldr r3,[r4]
 796              	.LVL42:
 401:Drivers/STM32G4xx_HAL_Driver/Src/stm32g4xx_hal_dma.c ****   }
 797              	 .loc 1 401 5 is_stmt 0 view .LVU318
 798 006a 43F00103 	 orr r3,r3,#1
 380:Drivers/STM32G4xx_HAL_Driver/Src/stm32g4xx_hal_dma.c **** 
 799              	 .loc 1 380 21 view .LVU319
 800 006e 0020     	 movs r0,#0
ARM GAS   			page 39


 401:Drivers/STM32G4xx_HAL_Driver/Src/stm32g4xx_hal_dma.c ****   }
 801              	 .loc 1 401 5 view .LVU320
 802 0070 2360     	 str r3,[r4]
 803              	.LVL43:
 410:Drivers/STM32G4xx_HAL_Driver/Src/stm32g4xx_hal_dma.c **** 
 804              	 .loc 1 410 1 view .LVU321
 805 0072 F0BC     	 pop {r4,r5,r6,r7}
 806              	 .cfi_restore 7
 807              	 .cfi_restore 6
 808              	 .cfi_restore 5
 809              	 .cfi_restore 4
 810              	 .cfi_def_cfa_offset 0
 811 0074 7047     	 bx lr
 812              	 .cfi_endproc
 813              	.LFE363:
 815 0076 00BF     	 .section .text.HAL_DMA_Start_IT,"ax",%progbits
 816              	 .align 1
 817              	 .p2align 2,,3
 818              	 .global HAL_DMA_Start_IT
 819              	 .syntax unified
 820              	 .thumb
 821              	 .thumb_func
 823              	HAL_DMA_Start_IT:
 824              	.LVL44:
 825              	.LFB364:
 423:Drivers/STM32G4xx_HAL_Driver/Src/stm32g4xx_hal_dma.c ****   HAL_StatusTypeDef status = HAL_OK;
 826              	 .loc 1 423 1 is_stmt 1 view-0
 827              	 .cfi_startproc
 828              	 
 829              	 
 830              	 
 424:Drivers/STM32G4xx_HAL_Driver/Src/stm32g4xx_hal_dma.c **** 
 831              	 .loc 1 424 3 view .LVU323
 427:Drivers/STM32G4xx_HAL_Driver/Src/stm32g4xx_hal_dma.c **** 
 832              	 .loc 1 427 3 view .LVU324
 430:Drivers/STM32G4xx_HAL_Driver/Src/stm32g4xx_hal_dma.c **** 
 833              	 .loc 1 430 3 view .LVU325
 430:Drivers/STM32G4xx_HAL_Driver/Src/stm32g4xx_hal_dma.c **** 
 834              	 .loc 1 430 3 view .LVU326
 423:Drivers/STM32G4xx_HAL_Driver/Src/stm32g4xx_hal_dma.c ****   HAL_StatusTypeDef status = HAL_OK;
 835              	 .loc 1 423 1 is_stmt 0 view .LVU327
 836 0000 F0B4     	 push {r4,r5,r6,r7}
 837              	 .cfi_def_cfa_offset 16
 838              	 .cfi_offset 4,-16
 839              	 .cfi_offset 5,-12
 840              	 .cfi_offset 6,-8
 841              	 .cfi_offset 7,-4
 430:Drivers/STM32G4xx_HAL_Driver/Src/stm32g4xx_hal_dma.c **** 
 842              	 .loc 1 430 3 view .LVU328
 843 0002 90F82440 	 ldrb r4,[r0,#36]
 844 0006 012C     	 cmp r4,#1
 845 0008 09D0     	 beq .L49
 430:Drivers/STM32G4xx_HAL_Driver/Src/stm32g4xx_hal_dma.c **** 
 846              	 .loc 1 430 3 is_stmt 1 discriminator 2 view .LVU329
 847 000a 0124     	 movs r4,#1
 848 000c 80F82440 	 strb r4,[r0,#36]
 430:Drivers/STM32G4xx_HAL_Driver/Src/stm32g4xx_hal_dma.c **** 
ARM GAS   			page 40


 849              	 .loc 1 430 3 discriminator 2 view .LVU330
 432:Drivers/STM32G4xx_HAL_Driver/Src/stm32g4xx_hal_dma.c ****   {
 850              	 .loc 1 432 3 view .LVU331
 432:Drivers/STM32G4xx_HAL_Driver/Src/stm32g4xx_hal_dma.c ****   {
 851              	 .loc 1 432 34 is_stmt 0 view .LVU332
 852 0010 90F82540 	 ldrb r4,[r0,#37]
 432:Drivers/STM32G4xx_HAL_Driver/Src/stm32g4xx_hal_dma.c ****   {
 853              	 .loc 1 432 6 view .LVU333
 854 0014 012C     	 cmp r4,#1
 855 0016 05D0     	 beq .L72
 477:Drivers/STM32G4xx_HAL_Driver/Src/stm32g4xx_hal_dma.c **** 
 856              	 .loc 1 477 5 is_stmt 1 view .LVU334
 477:Drivers/STM32G4xx_HAL_Driver/Src/stm32g4xx_hal_dma.c **** 
 857              	 .loc 1 477 5 view .LVU335
 858 0018 0023     	 movs r3,#0
 859              	.LVL45:
 477:Drivers/STM32G4xx_HAL_Driver/Src/stm32g4xx_hal_dma.c **** 
 860              	 .loc 1 477 5 is_stmt 0 view .LVU336
 861 001a 80F82430 	 strb r3,[r0,#36]
 477:Drivers/STM32G4xx_HAL_Driver/Src/stm32g4xx_hal_dma.c **** 
 862              	 .loc 1 477 5 is_stmt 1 view .LVU337
 480:Drivers/STM32G4xx_HAL_Driver/Src/stm32g4xx_hal_dma.c ****   }
 863              	 .loc 1 480 5 view .LVU338
 864              	.LVL46:
 865              	.L49:
 430:Drivers/STM32G4xx_HAL_Driver/Src/stm32g4xx_hal_dma.c **** 
 866              	 .loc 1 430 3 is_stmt 0 discriminator 1 view .LVU339
 867 001e 0220     	 movs r0,#2
 868              	.LVL47:
 483:Drivers/STM32G4xx_HAL_Driver/Src/stm32g4xx_hal_dma.c **** 
 869              	 .loc 1 483 1 view .LVU340
 870 0020 F0BC     	 pop {r4,r5,r6,r7}
 871              	 .cfi_remember_state
 872              	 .cfi_restore 7
 873              	 .cfi_restore 6
 874              	 .cfi_restore 5
 875              	 .cfi_restore 4
 876              	 .cfi_def_cfa_offset 0
 877 0022 7047     	 bx lr
 878              	.LVL48:
 879              	.L72:
 880              	 .cfi_restore_state
 435:Drivers/STM32G4xx_HAL_Driver/Src/stm32g4xx_hal_dma.c ****     hdma->ErrorCode = HAL_DMA_ERROR_NONE;
 881              	 .loc 1 435 5 is_stmt 1 view .LVU341
 435:Drivers/STM32G4xx_HAL_Driver/Src/stm32g4xx_hal_dma.c ****     hdma->ErrorCode = HAL_DMA_ERROR_NONE;
 882              	 .loc 1 435 17 is_stmt 0 view .LVU342
 883 0024 0224     	 movs r4,#2
 884 0026 80F82540 	 strb r4,[r0,#37]
 436:Drivers/STM32G4xx_HAL_Driver/Src/stm32g4xx_hal_dma.c **** 
 885              	 .loc 1 436 5 is_stmt 1 view .LVU343
 436:Drivers/STM32G4xx_HAL_Driver/Src/stm32g4xx_hal_dma.c **** 
 886              	 .loc 1 436 21 is_stmt 0 view .LVU344
 887 002a 0024     	 movs r4,#0
 888 002c C463     	 str r4,[r0,#60]
 439:Drivers/STM32G4xx_HAL_Driver/Src/stm32g4xx_hal_dma.c **** 
 889              	 .loc 1 439 5 is_stmt 1 view .LVU345
 890 002e 0468     	 ldr r4,[r0]
ARM GAS   			page 41


 891              	.LBB44:
 892              	.LBB45:
1005:Drivers/STM32G4xx_HAL_Driver/Src/stm32g4xx_hal_dma.c **** 
 893              	 .loc 1 1005 7 is_stmt 0 view .LVU346
 894 0030 C66C     	 ldr r6,[r0,#76]
 895              	.LBE45:
 896              	.LBE44:
 439:Drivers/STM32G4xx_HAL_Driver/Src/stm32g4xx_hal_dma.c **** 
 897              	 .loc 1 439 5 view .LVU347
 898 0032 2568     	 ldr r5,[r4]
 899 0034 25F00105 	 bic r5,r5,#1
 900 0038 2560     	 str r5,[r4]
 442:Drivers/STM32G4xx_HAL_Driver/Src/stm32g4xx_hal_dma.c **** 
 901              	 .loc 1 442 5 is_stmt 1 view .LVU348
 902              	.LVL49:
 903              	.LBB49:
 904              	.LBI44:
1002:Drivers/STM32G4xx_HAL_Driver/Src/stm32g4xx_hal_dma.c **** {
 905              	 .loc 1 1002 13 view .LVU349
 906              	.LBB46:
1005:Drivers/STM32G4xx_HAL_Driver/Src/stm32g4xx_hal_dma.c **** 
 907              	 .loc 1 1005 3 view .LVU350
1005:Drivers/STM32G4xx_HAL_Driver/Src/stm32g4xx_hal_dma.c **** 
 908              	 .loc 1 1005 34 is_stmt 0 view .LVU351
 909 003a D0E91475 	 ldrd r7,r5,[r0,#80]
 910 003e 7760     	 str r7,[r6,#4]
1007:Drivers/STM32G4xx_HAL_Driver/Src/stm32g4xx_hal_dma.c ****   {
 911              	 .loc 1 1007 3 is_stmt 1 view .LVU352
1007:Drivers/STM32G4xx_HAL_Driver/Src/stm32g4xx_hal_dma.c ****   {
 912              	 .loc 1 1007 6 is_stmt 0 view .LVU353
 913 0040 15B1     	 cbz r5,.L51
1010:Drivers/STM32G4xx_HAL_Driver/Src/stm32g4xx_hal_dma.c ****   }
 914              	 .loc 1 1010 5 is_stmt 1 view .LVU354
1010:Drivers/STM32G4xx_HAL_Driver/Src/stm32g4xx_hal_dma.c ****   }
 915              	 .loc 1 1010 41 is_stmt 0 view .LVU355
 916 0042 D0E91667 	 ldrd r6,r7,[r0,#88]
 917 0046 7760     	 str r7,[r6,#4]
 918              	.L51:
1014:Drivers/STM32G4xx_HAL_Driver/Src/stm32g4xx_hal_dma.c **** 
 919              	 .loc 1 1014 3 is_stmt 1 view .LVU356
1014:Drivers/STM32G4xx_HAL_Driver/Src/stm32g4xx_hal_dma.c **** 
 920              	 .loc 1 1014 69 is_stmt 0 view .LVU357
 921 0048 466C     	 ldr r6,[r0,#68]
1014:Drivers/STM32G4xx_HAL_Driver/Src/stm32g4xx_hal_dma.c **** 
 922              	 .loc 1 1014 30 view .LVU358
 923 004a 076C     	 ldr r7,[r0,#64]
1014:Drivers/STM32G4xx_HAL_Driver/Src/stm32g4xx_hal_dma.c **** 
 924              	 .loc 1 1014 69 view .LVU359
 925 004c 06F01F0C 	 and ip,r6,#31
1014:Drivers/STM32G4xx_HAL_Driver/Src/stm32g4xx_hal_dma.c **** 
 926              	 .loc 1 1014 46 view .LVU360
 927 0050 0126     	 movs r6,#1
 928 0052 06FA0CF6 	 lsl r6,r6,ip
1014:Drivers/STM32G4xx_HAL_Driver/Src/stm32g4xx_hal_dma.c **** 
 929              	 .loc 1 1014 30 view .LVU361
 930 0056 7E60     	 str r6,[r7,#4]
1017:Drivers/STM32G4xx_HAL_Driver/Src/stm32g4xx_hal_dma.c **** 
ARM GAS   			page 42


 931              	 .loc 1 1017 3 is_stmt 1 view .LVU362
1017:Drivers/STM32G4xx_HAL_Driver/Src/stm32g4xx_hal_dma.c **** 
 932              	 .loc 1 1017 25 is_stmt 0 view .LVU363
 933 0058 6360     	 str r3,[r4,#4]
1020:Drivers/STM32G4xx_HAL_Driver/Src/stm32g4xx_hal_dma.c ****   {
 934              	 .loc 1 1020 3 is_stmt 1 view .LVU364
1020:Drivers/STM32G4xx_HAL_Driver/Src/stm32g4xx_hal_dma.c ****   {
 935              	 .loc 1 1020 6 is_stmt 0 view .LVU365
 936 005a 8368     	 ldr r3,[r0,#8]
 937              	.LVL50:
1020:Drivers/STM32G4xx_HAL_Driver/Src/stm32g4xx_hal_dma.c ****   {
 938              	 .loc 1 1020 6 view .LVU366
 939 005c 102B     	 cmp r3,#16
1023:Drivers/STM32G4xx_HAL_Driver/Src/stm32g4xx_hal_dma.c **** 
 940              	 .loc 1 1023 5 is_stmt 1 view .LVU367
 941              	.LBE46:
 942              	.LBE49:
 446:Drivers/STM32G4xx_HAL_Driver/Src/stm32g4xx_hal_dma.c ****     {
 943              	 .loc 1 446 8 is_stmt 0 view .LVU368
 944 005e 036B     	 ldr r3,[r0,#48]
 945              	.LBB50:
 946              	.LBB47:
1023:Drivers/STM32G4xx_HAL_Driver/Src/stm32g4xx_hal_dma.c **** 
 947              	 .loc 1 1023 26 view .LVU369
 948 0060 0BBF     	 itete eq
 949 0062 A260     	 streq r2,[r4,#8]
1026:Drivers/STM32G4xx_HAL_Driver/Src/stm32g4xx_hal_dma.c ****   }
 950              	 .loc 1 1026 5 is_stmt 1 view .LVU370
1032:Drivers/STM32G4xx_HAL_Driver/Src/stm32g4xx_hal_dma.c **** 
 951              	 .loc 1 1032 26 is_stmt 0 view .LVU371
 952 0064 A160     	 strne r1,[r4,#8]
1026:Drivers/STM32G4xx_HAL_Driver/Src/stm32g4xx_hal_dma.c ****   }
 953              	 .loc 1 1026 26 view .LVU372
 954 0066 E160     	 streq r1,[r4,#12]
1032:Drivers/STM32G4xx_HAL_Driver/Src/stm32g4xx_hal_dma.c **** 
 955              	 .loc 1 1032 5 is_stmt 1 view .LVU373
1035:Drivers/STM32G4xx_HAL_Driver/Src/stm32g4xx_hal_dma.c ****   }
 956              	 .loc 1 1035 5 view .LVU374
 957              	.LVL51:
1035:Drivers/STM32G4xx_HAL_Driver/Src/stm32g4xx_hal_dma.c ****   }
 958              	 .loc 1 1035 5 is_stmt 0 view .LVU375
 959              	.LBE47:
 960              	.LBE50:
 446:Drivers/STM32G4xx_HAL_Driver/Src/stm32g4xx_hal_dma.c ****     {
 961              	 .loc 1 446 5 is_stmt 1 view .LVU376
 962              	.LBB51:
 963              	.LBB48:
1035:Drivers/STM32G4xx_HAL_Driver/Src/stm32g4xx_hal_dma.c ****   }
 964              	 .loc 1 1035 26 is_stmt 0 view .LVU377
 965 0068 E260     	 strne r2,[r4,#12]
 966              	.LBE48:
 967              	.LBE51:
 446:Drivers/STM32G4xx_HAL_Driver/Src/stm32g4xx_hal_dma.c ****     {
 968              	 .loc 1 446 8 view .LVU378
 969 006a BBB1     	 cbz r3,.L54
 449:Drivers/STM32G4xx_HAL_Driver/Src/stm32g4xx_hal_dma.c ****     }
 970              	 .loc 1 449 7 is_stmt 1 view .LVU379
ARM GAS   			page 43


 971 006c 2368     	 ldr r3,[r4]
 972 006e 43F00E03 	 orr r3,r3,#14
 973 0072 2360     	 str r3,[r4]
 974              	.LVL52:
 975              	.L55:
 458:Drivers/STM32G4xx_HAL_Driver/Src/stm32g4xx_hal_dma.c ****     {
 976              	 .loc 1 458 5 view .LVU380
 458:Drivers/STM32G4xx_HAL_Driver/Src/stm32g4xx_hal_dma.c ****     {
 977              	 .loc 1 458 14 is_stmt 0 view .LVU381
 978 0074 836C     	 ldr r3,[r0,#72]
 458:Drivers/STM32G4xx_HAL_Driver/Src/stm32g4xx_hal_dma.c ****     {
 979              	 .loc 1 458 29 view .LVU382
 980 0076 1A68     	 ldr r2,[r3]
 981              	.LVL53:
 458:Drivers/STM32G4xx_HAL_Driver/Src/stm32g4xx_hal_dma.c ****     {
 982              	 .loc 1 458 8 view .LVU383
 983 0078 D203     	 lsls r2,r2,#15
 984 007a 03D5     	 bpl .L56
 461:Drivers/STM32G4xx_HAL_Driver/Src/stm32g4xx_hal_dma.c ****     }
 985              	 .loc 1 461 7 is_stmt 1 view .LVU384
 461:Drivers/STM32G4xx_HAL_Driver/Src/stm32g4xx_hal_dma.c ****     }
 986              	 .loc 1 461 26 is_stmt 0 view .LVU385
 987 007c 1A68     	 ldr r2,[r3]
 461:Drivers/STM32G4xx_HAL_Driver/Src/stm32g4xx_hal_dma.c ****     }
 988              	 .loc 1 461 32 view .LVU386
 989 007e 42F48072 	 orr r2,r2,#256
 990 0082 1A60     	 str r2,[r3]
 991              	.L56:
 464:Drivers/STM32G4xx_HAL_Driver/Src/stm32g4xx_hal_dma.c ****     {
 992              	 .loc 1 464 5 is_stmt 1 view .LVU387
 464:Drivers/STM32G4xx_HAL_Driver/Src/stm32g4xx_hal_dma.c ****     {
 993              	 .loc 1 464 8 is_stmt 0 view .LVU388
 994 0084 1DB1     	 cbz r5,.L57
 468:Drivers/STM32G4xx_HAL_Driver/Src/stm32g4xx_hal_dma.c ****     }
 995              	 .loc 1 468 7 is_stmt 1 view .LVU389
 468:Drivers/STM32G4xx_HAL_Driver/Src/stm32g4xx_hal_dma.c ****     }
 996              	 .loc 1 468 29 is_stmt 0 view .LVU390
 997 0086 2B68     	 ldr r3,[r5]
 468:Drivers/STM32G4xx_HAL_Driver/Src/stm32g4xx_hal_dma.c ****     }
 998              	 .loc 1 468 36 view .LVU391
 999 0088 43F48073 	 orr r3,r3,#256
 1000 008c 2B60     	 str r3,[r5]
 1001              	.L57:
 472:Drivers/STM32G4xx_HAL_Driver/Src/stm32g4xx_hal_dma.c ****   }
 1002              	 .loc 1 472 5 is_stmt 1 view .LVU392
 1003 008e 2368     	 ldr r3,[r4]
 1004 0090 43F00103 	 orr r3,r3,#1
 424:Drivers/STM32G4xx_HAL_Driver/Src/stm32g4xx_hal_dma.c **** 
 1005              	 .loc 1 424 21 is_stmt 0 view .LVU393
 1006 0094 0020     	 movs r0,#0
 1007              	.LVL54:
 472:Drivers/STM32G4xx_HAL_Driver/Src/stm32g4xx_hal_dma.c ****   }
 1008              	 .loc 1 472 5 view .LVU394
 1009 0096 2360     	 str r3,[r4]
 1010              	.LVL55:
 483:Drivers/STM32G4xx_HAL_Driver/Src/stm32g4xx_hal_dma.c **** 
 1011              	 .loc 1 483 1 view .LVU395
ARM GAS   			page 44


 1012 0098 F0BC     	 pop {r4,r5,r6,r7}
 1013              	 .cfi_remember_state
 1014              	 .cfi_restore 7
 1015              	 .cfi_restore 6
 1016              	 .cfi_restore 5
 1017              	 .cfi_restore 4
 1018              	 .cfi_def_cfa_offset 0
 1019 009a 7047     	 bx lr
 1020              	.LVL56:
 1021              	.L54:
 1022              	 .cfi_restore_state
 453:Drivers/STM32G4xx_HAL_Driver/Src/stm32g4xx_hal_dma.c ****       __HAL_DMA_ENABLE_IT(hdma, (DMA_IT_TC | DMA_IT_TE));
 1023              	 .loc 1 453 7 is_stmt 1 view .LVU396
 1024 009c 2368     	 ldr r3,[r4]
 1025 009e 23F00403 	 bic r3,r3,#4
 1026 00a2 2360     	 str r3,[r4]
 1027              	.LVL57:
 454:Drivers/STM32G4xx_HAL_Driver/Src/stm32g4xx_hal_dma.c ****     }
 1028              	 .loc 1 454 7 view .LVU397
 1029 00a4 2368     	 ldr r3,[r4]
 1030 00a6 43F00A03 	 orr r3,r3,#10
 1031 00aa 2360     	 str r3,[r4]
 1032 00ac E2E7     	 b .L55
 1033              	 .cfi_endproc
 1034              	.LFE364:
 1036 00ae 00BF     	 .section .text.HAL_DMA_Abort,"ax",%progbits
 1037              	 .align 1
 1038              	 .p2align 2,,3
 1039              	 .global HAL_DMA_Abort
 1040              	 .syntax unified
 1041              	 .thumb
 1042              	 .thumb_func
 1044              	HAL_DMA_Abort:
 1045              	.LVL58:
 1046              	.LFB365:
 492:Drivers/STM32G4xx_HAL_Driver/Src/stm32g4xx_hal_dma.c ****   HAL_StatusTypeDef status = HAL_OK;
 1047              	 .loc 1 492 1 view-0
 1048              	 .cfi_startproc
 1049              	 
 1050              	 
 1051              	 
 493:Drivers/STM32G4xx_HAL_Driver/Src/stm32g4xx_hal_dma.c **** 
 1052              	 .loc 1 493 3 view .LVU399
 495:Drivers/STM32G4xx_HAL_Driver/Src/stm32g4xx_hal_dma.c ****   {
 1053              	 .loc 1 495 3 view .LVU400
 495:Drivers/STM32G4xx_HAL_Driver/Src/stm32g4xx_hal_dma.c ****   {
 1054              	 .loc 1 495 10 is_stmt 0 view .LVU401
 1055 0000 90F82520 	 ldrb r2,[r0,#37]
 495:Drivers/STM32G4xx_HAL_Driver/Src/stm32g4xx_hal_dma.c ****   {
 1056              	 .loc 1 495 5 view .LVU402
 1057 0004 022A     	 cmp r2,#2
 492:Drivers/STM32G4xx_HAL_Driver/Src/stm32g4xx_hal_dma.c ****   HAL_StatusTypeDef status = HAL_OK;
 1058              	 .loc 1 492 1 view .LVU403
 1059 0006 0346     	 mov r3,r0
 495:Drivers/STM32G4xx_HAL_Driver/Src/stm32g4xx_hal_dma.c ****   {
 1060              	 .loc 1 495 5 view .LVU404
 1061 0008 09D0     	 beq .L74
ARM GAS   			page 45


 498:Drivers/STM32G4xx_HAL_Driver/Src/stm32g4xx_hal_dma.c **** 
 1062              	 .loc 1 498 5 is_stmt 1 view .LVU405
 498:Drivers/STM32G4xx_HAL_Driver/Src/stm32g4xx_hal_dma.c **** 
 1063              	 .loc 1 498 21 is_stmt 0 view .LVU406
 1064 000a 0422     	 movs r2,#4
 1065 000c C263     	 str r2,[r0,#60]
 500:Drivers/STM32G4xx_HAL_Driver/Src/stm32g4xx_hal_dma.c ****   }
 1066              	 .loc 1 500 5 is_stmt 1 view .LVU407
 1067              	.LVL59:
 530:Drivers/STM32G4xx_HAL_Driver/Src/stm32g4xx_hal_dma.c **** 
 1068              	 .loc 1 530 15 is_stmt 0 view .LVU408
 1069 000e 0121     	 movs r1,#1
 533:Drivers/STM32G4xx_HAL_Driver/Src/stm32g4xx_hal_dma.c **** 
 1070              	 .loc 1 533 3 view .LVU409
 1071 0010 0022     	 movs r2,#0
 500:Drivers/STM32G4xx_HAL_Driver/Src/stm32g4xx_hal_dma.c ****   }
 1072              	 .loc 1 500 12 view .LVU410
 1073 0012 0120     	 movs r0,#1
 1074              	.LVL60:
 530:Drivers/STM32G4xx_HAL_Driver/Src/stm32g4xx_hal_dma.c **** 
 1075              	 .loc 1 530 3 is_stmt 1 view .LVU411
 530:Drivers/STM32G4xx_HAL_Driver/Src/stm32g4xx_hal_dma.c **** 
 1076              	 .loc 1 530 15 is_stmt 0 view .LVU412
 1077 0014 83F82510 	 strb r1,[r3,#37]
 533:Drivers/STM32G4xx_HAL_Driver/Src/stm32g4xx_hal_dma.c **** 
 1078              	 .loc 1 533 3 is_stmt 1 view .LVU413
 533:Drivers/STM32G4xx_HAL_Driver/Src/stm32g4xx_hal_dma.c **** 
 1079              	 .loc 1 533 3 view .LVU414
 1080 0018 83F82420 	 strb r2,[r3,#36]
 533:Drivers/STM32G4xx_HAL_Driver/Src/stm32g4xx_hal_dma.c **** 
 1081              	 .loc 1 533 3 view .LVU415
 535:Drivers/STM32G4xx_HAL_Driver/Src/stm32g4xx_hal_dma.c **** }
 1082              	 .loc 1 535 3 view .LVU416
 536:Drivers/STM32G4xx_HAL_Driver/Src/stm32g4xx_hal_dma.c **** 
 1083              	 .loc 1 536 1 is_stmt 0 view .LVU417
 1084 001c 7047     	 bx lr
 1085              	.LVL61:
 1086              	.L74:
 505:Drivers/STM32G4xx_HAL_Driver/Src/stm32g4xx_hal_dma.c ****      
 1087              	 .loc 1 505 6 is_stmt 1 view .LVU418
 1088 001e 0268     	 ldr r2,[r0]
 514:Drivers/STM32G4xx_HAL_Driver/Src/stm32g4xx_hal_dma.c ****      
 1089              	 .loc 1 514 72 is_stmt 0 view .LVU419
 1090 0020 596C     	 ldr r1,[r3,#68]
 492:Drivers/STM32G4xx_HAL_Driver/Src/stm32g4xx_hal_dma.c ****   HAL_StatusTypeDef status = HAL_OK;
 1091              	 .loc 1 492 1 view .LVU420
 1092 0022 30B4     	 push {r4,r5}
 1093              	 .cfi_def_cfa_offset 8
 1094              	 .cfi_offset 4,-8
 1095              	 .cfi_offset 5,-4
 508:Drivers/STM32G4xx_HAL_Driver/Src/stm32g4xx_hal_dma.c ****      
 1096              	 .loc 1 508 10 view .LVU421
 1097 0024 846C     	 ldr r4,[r0,#72]
 505:Drivers/STM32G4xx_HAL_Driver/Src/stm32g4xx_hal_dma.c ****      
 1098              	 .loc 1 505 6 view .LVU422
 1099 0026 1068     	 ldr r0,[r2]
 1100              	.LVL62:
ARM GAS   			page 46


 514:Drivers/STM32G4xx_HAL_Driver/Src/stm32g4xx_hal_dma.c ****      
 1101              	 .loc 1 514 10 view .LVU423
 1102 0028 1D6C     	 ldr r5,[r3,#64]
 505:Drivers/STM32G4xx_HAL_Driver/Src/stm32g4xx_hal_dma.c ****      
 1103              	 .loc 1 505 6 view .LVU424
 1104 002a 20F00E00 	 bic r0,r0,#14
 1105 002e 1060     	 str r0,[r2]
 508:Drivers/STM32G4xx_HAL_Driver/Src/stm32g4xx_hal_dma.c ****      
 1106              	 .loc 1 508 6 is_stmt 1 view .LVU425
 508:Drivers/STM32G4xx_HAL_Driver/Src/stm32g4xx_hal_dma.c ****      
 1107              	 .loc 1 508 25 is_stmt 0 view .LVU426
 1108 0030 2068     	 ldr r0,[r4]
 508:Drivers/STM32G4xx_HAL_Driver/Src/stm32g4xx_hal_dma.c ****      
 1109              	 .loc 1 508 31 view .LVU427
 1110 0032 20F48070 	 bic r0,r0,#256
 1111 0036 2060     	 str r0,[r4]
 511:Drivers/STM32G4xx_HAL_Driver/Src/stm32g4xx_hal_dma.c ****      
 1112              	 .loc 1 511 6 is_stmt 1 view .LVU428
 1113 0038 1068     	 ldr r0,[r2]
 1114 003a 20F00100 	 bic r0,r0,#1
 1115 003e 1060     	 str r0,[r2]
 514:Drivers/STM32G4xx_HAL_Driver/Src/stm32g4xx_hal_dma.c ****      
 1116              	 .loc 1 514 6 view .LVU429
 514:Drivers/STM32G4xx_HAL_Driver/Src/stm32g4xx_hal_dma.c ****      
 1117              	 .loc 1 514 72 is_stmt 0 view .LVU430
 1118 0040 01F01F01 	 and r1,r1,#31
 514:Drivers/STM32G4xx_HAL_Driver/Src/stm32g4xx_hal_dma.c ****      
 1119              	 .loc 1 514 49 view .LVU431
 1120 0044 0122     	 movs r2,#1
 1121 0046 8A40     	 lsls r2,r2,r1
 517:Drivers/STM32G4xx_HAL_Driver/Src/stm32g4xx_hal_dma.c ****      
 1122              	 .loc 1 517 43 view .LVU432
 1123 0048 D3E91441 	 ldrd r4,r1,[r3,#80]
 517:Drivers/STM32G4xx_HAL_Driver/Src/stm32g4xx_hal_dma.c ****      
 1124              	 .loc 1 517 10 view .LVU433
 1125 004c D86C     	 ldr r0,[r3,#76]
 514:Drivers/STM32G4xx_HAL_Driver/Src/stm32g4xx_hal_dma.c ****      
 1126              	 .loc 1 514 33 view .LVU434
 1127 004e 6A60     	 str r2,[r5,#4]
 517:Drivers/STM32G4xx_HAL_Driver/Src/stm32g4xx_hal_dma.c ****      
 1128              	 .loc 1 517 6 is_stmt 1 view .LVU435
 517:Drivers/STM32G4xx_HAL_Driver/Src/stm32g4xx_hal_dma.c ****      
 1129              	 .loc 1 517 37 is_stmt 0 view .LVU436
 1130 0050 4460     	 str r4,[r0,#4]
 519:Drivers/STM32G4xx_HAL_Driver/Src/stm32g4xx_hal_dma.c ****      {
 1131              	 .loc 1 519 6 is_stmt 1 view .LVU437
 519:Drivers/STM32G4xx_HAL_Driver/Src/stm32g4xx_hal_dma.c ****      {
 1132              	 .loc 1 519 9 is_stmt 0 view .LVU438
 1133 0052 31B1     	 cbz r1,.L76
 523:Drivers/STM32G4xx_HAL_Driver/Src/stm32g4xx_hal_dma.c ****      
 1134              	 .loc 1 523 8 is_stmt 1 view .LVU439
 523:Drivers/STM32G4xx_HAL_Driver/Src/stm32g4xx_hal_dma.c ****      
 1135              	 .loc 1 523 30 is_stmt 0 view .LVU440
 1136 0054 0A68     	 ldr r2,[r1]
 526:Drivers/STM32G4xx_HAL_Driver/Src/stm32g4xx_hal_dma.c ****      }
 1137              	 .loc 1 526 50 view .LVU441
 1138 0056 D3E91604 	 ldrd r0,r4,[r3,#88]
ARM GAS   			page 47


 523:Drivers/STM32G4xx_HAL_Driver/Src/stm32g4xx_hal_dma.c ****      
 1139              	 .loc 1 523 37 view .LVU442
 1140 005a 22F48072 	 bic r2,r2,#256
 1141 005e 0A60     	 str r2,[r1]
 526:Drivers/STM32G4xx_HAL_Driver/Src/stm32g4xx_hal_dma.c ****      }
 1142              	 .loc 1 526 8 is_stmt 1 view .LVU443
 526:Drivers/STM32G4xx_HAL_Driver/Src/stm32g4xx_hal_dma.c ****      }
 1143              	 .loc 1 526 44 is_stmt 0 view .LVU444
 1144 0060 4460     	 str r4,[r0,#4]
 1145              	.L76:
 530:Drivers/STM32G4xx_HAL_Driver/Src/stm32g4xx_hal_dma.c **** 
 1146              	 .loc 1 530 15 view .LVU445
 1147 0062 0121     	 movs r1,#1
 533:Drivers/STM32G4xx_HAL_Driver/Src/stm32g4xx_hal_dma.c **** 
 1148              	 .loc 1 533 3 view .LVU446
 1149 0064 0022     	 movs r2,#0
 530:Drivers/STM32G4xx_HAL_Driver/Src/stm32g4xx_hal_dma.c **** 
 1150              	 .loc 1 530 15 view .LVU447
 1151 0066 83F82510 	 strb r1,[r3,#37]
 533:Drivers/STM32G4xx_HAL_Driver/Src/stm32g4xx_hal_dma.c **** 
 1152              	 .loc 1 533 3 view .LVU448
 1153 006a 83F82420 	 strb r2,[r3,#36]
 493:Drivers/STM32G4xx_HAL_Driver/Src/stm32g4xx_hal_dma.c **** 
 1154              	 .loc 1 493 21 view .LVU449
 1155 006e 0020     	 movs r0,#0
 1156              	.LVL63:
 530:Drivers/STM32G4xx_HAL_Driver/Src/stm32g4xx_hal_dma.c **** 
 1157              	 .loc 1 530 3 is_stmt 1 view .LVU450
 533:Drivers/STM32G4xx_HAL_Driver/Src/stm32g4xx_hal_dma.c **** 
 1158              	 .loc 1 533 3 view .LVU451
 533:Drivers/STM32G4xx_HAL_Driver/Src/stm32g4xx_hal_dma.c **** 
 1159              	 .loc 1 533 3 view .LVU452
 533:Drivers/STM32G4xx_HAL_Driver/Src/stm32g4xx_hal_dma.c **** 
 1160              	 .loc 1 533 3 view .LVU453
 535:Drivers/STM32G4xx_HAL_Driver/Src/stm32g4xx_hal_dma.c **** }
 1161              	 .loc 1 535 3 view .LVU454
 536:Drivers/STM32G4xx_HAL_Driver/Src/stm32g4xx_hal_dma.c **** 
 1162              	 .loc 1 536 1 is_stmt 0 view .LVU455
 1163 0070 30BC     	 pop {r4,r5}
 1164              	 .cfi_restore 5
 1165              	 .cfi_restore 4
 1166              	 .cfi_def_cfa_offset 0
 1167 0072 7047     	 bx lr
 1168              	 .cfi_endproc
 1169              	.LFE365:
 1171              	 .section .text.HAL_DMA_Abort_IT,"ax",%progbits
 1172              	 .align 1
 1173              	 .p2align 2,,3
 1174              	 .global HAL_DMA_Abort_IT
 1175              	 .syntax unified
 1176              	 .thumb
 1177              	 .thumb_func
 1179              	HAL_DMA_Abort_IT:
 1180              	.LVL64:
 1181              	.LFB366:
 545:Drivers/STM32G4xx_HAL_Driver/Src/stm32g4xx_hal_dma.c ****   HAL_StatusTypeDef status = HAL_OK;
 1182              	 .loc 1 545 1 is_stmt 1 view-0
ARM GAS   			page 48


 1183              	 .cfi_startproc
 1184              	 
 1185              	 
 546:Drivers/STM32G4xx_HAL_Driver/Src/stm32g4xx_hal_dma.c **** 
 1186              	 .loc 1 546 3 view .LVU457
 548:Drivers/STM32G4xx_HAL_Driver/Src/stm32g4xx_hal_dma.c ****   {
 1187              	 .loc 1 548 3 view .LVU458
 545:Drivers/STM32G4xx_HAL_Driver/Src/stm32g4xx_hal_dma.c ****   HAL_StatusTypeDef status = HAL_OK;
 1188              	 .loc 1 545 1 is_stmt 0 view .LVU459
 1189 0000 38B5     	 push {r3,r4,r5,lr}
 1190              	 .cfi_def_cfa_offset 16
 1191              	 .cfi_offset 3,-16
 1192              	 .cfi_offset 4,-12
 1193              	 .cfi_offset 5,-8
 1194              	 .cfi_offset 14,-4
 548:Drivers/STM32G4xx_HAL_Driver/Src/stm32g4xx_hal_dma.c ****   {
 1195              	 .loc 1 548 33 view .LVU460
 1196 0002 90F82530 	 ldrb r3,[r0,#37]
 548:Drivers/STM32G4xx_HAL_Driver/Src/stm32g4xx_hal_dma.c ****   {
 1197              	 .loc 1 548 6 view .LVU461
 1198 0006 022B     	 cmp r3,#2
 1199 0008 09D0     	 beq .L84
 551:Drivers/STM32G4xx_HAL_Driver/Src/stm32g4xx_hal_dma.c **** 
 1200              	 .loc 1 551 5 is_stmt 1 view .LVU462
 554:Drivers/STM32G4xx_HAL_Driver/Src/stm32g4xx_hal_dma.c **** 
 1201              	 .loc 1 554 17 is_stmt 0 view .LVU463
 1202 000a 0123     	 movs r3,#1
 551:Drivers/STM32G4xx_HAL_Driver/Src/stm32g4xx_hal_dma.c **** 
 1203              	 .loc 1 551 21 view .LVU464
 1204 000c 0421     	 movs r1,#4
 557:Drivers/STM32G4xx_HAL_Driver/Src/stm32g4xx_hal_dma.c **** 
 1205              	 .loc 1 557 5 view .LVU465
 1206 000e 0022     	 movs r2,#0
 551:Drivers/STM32G4xx_HAL_Driver/Src/stm32g4xx_hal_dma.c **** 
 1207              	 .loc 1 551 21 view .LVU466
 1208 0010 C163     	 str r1,[r0,#60]
 554:Drivers/STM32G4xx_HAL_Driver/Src/stm32g4xx_hal_dma.c **** 
 1209              	 .loc 1 554 5 is_stmt 1 view .LVU467
 557:Drivers/STM32G4xx_HAL_Driver/Src/stm32g4xx_hal_dma.c **** 
 1210              	 .loc 1 557 5 is_stmt 0 view .LVU468
 1211 0012 80F82420 	 strb r2,[r0,#36]
 554:Drivers/STM32G4xx_HAL_Driver/Src/stm32g4xx_hal_dma.c **** 
 1212              	 .loc 1 554 17 view .LVU469
 1213 0016 80F82530 	 strb r3,[r0,#37]
 557:Drivers/STM32G4xx_HAL_Driver/Src/stm32g4xx_hal_dma.c **** 
 1214              	 .loc 1 557 5 is_stmt 1 view .LVU470
 557:Drivers/STM32G4xx_HAL_Driver/Src/stm32g4xx_hal_dma.c **** 
 1215              	 .loc 1 557 5 view .LVU471
 557:Drivers/STM32G4xx_HAL_Driver/Src/stm32g4xx_hal_dma.c **** 
 1216              	 .loc 1 557 5 view .LVU472
 559:Drivers/STM32G4xx_HAL_Driver/Src/stm32g4xx_hal_dma.c ****   }
 1217              	 .loc 1 559 5 view .LVU473
 1218              	.LVL65:
 559:Drivers/STM32G4xx_HAL_Driver/Src/stm32g4xx_hal_dma.c ****   }
 1219              	 .loc 1 559 12 is_stmt 0 view .LVU474
 1220 001a 1846     	 mov r0,r3
 1221              	.LVL66:
ARM GAS   			page 49


 600:Drivers/STM32G4xx_HAL_Driver/Src/stm32g4xx_hal_dma.c **** }
 1222              	 .loc 1 600 3 is_stmt 1 view .LVU475
 601:Drivers/STM32G4xx_HAL_Driver/Src/stm32g4xx_hal_dma.c **** 
 1223              	 .loc 1 601 1 is_stmt 0 view .LVU476
 1224 001c 38BD     	 pop {r3,r4,r5,pc}
 1225              	.LVL67:
 1226              	.L84:
 564:Drivers/STM32G4xx_HAL_Driver/Src/stm32g4xx_hal_dma.c **** 
 1227              	 .loc 1 564 5 is_stmt 1 view .LVU477
 1228 001e 0368     	 ldr r3,[r0]
 570:Drivers/STM32G4xx_HAL_Driver/Src/stm32g4xx_hal_dma.c **** 
 1229              	 .loc 1 570 9 is_stmt 0 view .LVU478
 1230 0020 846C     	 ldr r4,[r0,#72]
 564:Drivers/STM32G4xx_HAL_Driver/Src/stm32g4xx_hal_dma.c **** 
 1231              	 .loc 1 564 5 view .LVU479
 1232 0022 1968     	 ldr r1,[r3]
 573:Drivers/STM32G4xx_HAL_Driver/Src/stm32g4xx_hal_dma.c **** 
 1233              	 .loc 1 573 71 view .LVU480
 1234 0024 426C     	 ldr r2,[r0,#68]
 573:Drivers/STM32G4xx_HAL_Driver/Src/stm32g4xx_hal_dma.c **** 
 1235              	 .loc 1 573 9 view .LVU481
 1236 0026 056C     	 ldr r5,[r0,#64]
 564:Drivers/STM32G4xx_HAL_Driver/Src/stm32g4xx_hal_dma.c **** 
 1237              	 .loc 1 564 5 view .LVU482
 1238 0028 21F00E01 	 bic r1,r1,#14
 1239 002c 1960     	 str r1,[r3]
 567:Drivers/STM32G4xx_HAL_Driver/Src/stm32g4xx_hal_dma.c **** 
 1240              	 .loc 1 567 5 is_stmt 1 view .LVU483
 1241 002e 1968     	 ldr r1,[r3]
 1242 0030 21F00101 	 bic r1,r1,#1
 1243 0034 1960     	 str r1,[r3]
 570:Drivers/STM32G4xx_HAL_Driver/Src/stm32g4xx_hal_dma.c **** 
 1244              	 .loc 1 570 5 view .LVU484
 570:Drivers/STM32G4xx_HAL_Driver/Src/stm32g4xx_hal_dma.c **** 
 1245              	 .loc 1 570 24 is_stmt 0 view .LVU485
 1246 0036 2368     	 ldr r3,[r4]
 576:Drivers/STM32G4xx_HAL_Driver/Src/stm32g4xx_hal_dma.c **** 
 1247              	 .loc 1 576 9 view .LVU486
 1248 0038 C16C     	 ldr r1,[r0,#76]
 570:Drivers/STM32G4xx_HAL_Driver/Src/stm32g4xx_hal_dma.c **** 
 1249              	 .loc 1 570 30 view .LVU487
 1250 003a 23F48073 	 bic r3,r3,#256
 1251 003e 2360     	 str r3,[r4]
 573:Drivers/STM32G4xx_HAL_Driver/Src/stm32g4xx_hal_dma.c **** 
 1252              	 .loc 1 573 5 is_stmt 1 view .LVU488
 573:Drivers/STM32G4xx_HAL_Driver/Src/stm32g4xx_hal_dma.c **** 
 1253              	 .loc 1 573 71 is_stmt 0 view .LVU489
 1254 0040 02F01F02 	 and r2,r2,#31
 573:Drivers/STM32G4xx_HAL_Driver/Src/stm32g4xx_hal_dma.c **** 
 1255              	 .loc 1 573 48 view .LVU490
 1256 0044 0123     	 movs r3,#1
 1257 0046 9340     	 lsls r3,r3,r2
 576:Drivers/STM32G4xx_HAL_Driver/Src/stm32g4xx_hal_dma.c **** 
 1258              	 .loc 1 576 42 view .LVU491
 1259 0048 D0E91442 	 ldrd r4,r2,[r0,#80]
 573:Drivers/STM32G4xx_HAL_Driver/Src/stm32g4xx_hal_dma.c **** 
 1260              	 .loc 1 573 32 view .LVU492
ARM GAS   			page 50


 1261 004c 6B60     	 str r3,[r5,#4]
 576:Drivers/STM32G4xx_HAL_Driver/Src/stm32g4xx_hal_dma.c **** 
 1262              	 .loc 1 576 5 is_stmt 1 view .LVU493
 576:Drivers/STM32G4xx_HAL_Driver/Src/stm32g4xx_hal_dma.c **** 
 1263              	 .loc 1 576 36 is_stmt 0 view .LVU494
 1264 004e 4C60     	 str r4,[r1,#4]
 578:Drivers/STM32G4xx_HAL_Driver/Src/stm32g4xx_hal_dma.c ****     {
 1265              	 .loc 1 578 5 is_stmt 1 view .LVU495
 578:Drivers/STM32G4xx_HAL_Driver/Src/stm32g4xx_hal_dma.c ****     {
 1266              	 .loc 1 578 8 is_stmt 0 view .LVU496
 1267 0050 32B1     	 cbz r2,.L86
 582:Drivers/STM32G4xx_HAL_Driver/Src/stm32g4xx_hal_dma.c **** 
 1268              	 .loc 1 582 7 is_stmt 1 view .LVU497
 582:Drivers/STM32G4xx_HAL_Driver/Src/stm32g4xx_hal_dma.c **** 
 1269              	 .loc 1 582 29 is_stmt 0 view .LVU498
 1270 0052 1368     	 ldr r3,[r2]
 585:Drivers/STM32G4xx_HAL_Driver/Src/stm32g4xx_hal_dma.c ****     }
 1271              	 .loc 1 585 49 view .LVU499
 1272 0054 D0E91614 	 ldrd r1,r4,[r0,#88]
 582:Drivers/STM32G4xx_HAL_Driver/Src/stm32g4xx_hal_dma.c **** 
 1273              	 .loc 1 582 36 view .LVU500
 1274 0058 23F48073 	 bic r3,r3,#256
 1275 005c 1360     	 str r3,[r2]
 585:Drivers/STM32G4xx_HAL_Driver/Src/stm32g4xx_hal_dma.c ****     }
 1276              	 .loc 1 585 7 is_stmt 1 view .LVU501
 585:Drivers/STM32G4xx_HAL_Driver/Src/stm32g4xx_hal_dma.c ****     }
 1277              	 .loc 1 585 43 is_stmt 0 view .LVU502
 1278 005e 4C60     	 str r4,[r1,#4]
 1279              	.L86:
 589:Drivers/STM32G4xx_HAL_Driver/Src/stm32g4xx_hal_dma.c **** 
 1280              	 .loc 1 589 5 is_stmt 1 view .LVU503
 595:Drivers/STM32G4xx_HAL_Driver/Src/stm32g4xx_hal_dma.c ****     {
 1281              	 .loc 1 595 13 is_stmt 0 view .LVU504
 1282 0060 836B     	 ldr r3,[r0,#56]
 589:Drivers/STM32G4xx_HAL_Driver/Src/stm32g4xx_hal_dma.c **** 
 1283              	 .loc 1 589 17 view .LVU505
 1284 0062 0121     	 movs r1,#1
 592:Drivers/STM32G4xx_HAL_Driver/Src/stm32g4xx_hal_dma.c **** 
 1285              	 .loc 1 592 5 view .LVU506
 1286 0064 0022     	 movs r2,#0
 589:Drivers/STM32G4xx_HAL_Driver/Src/stm32g4xx_hal_dma.c **** 
 1287              	 .loc 1 589 17 view .LVU507
 1288 0066 80F82510 	 strb r1,[r0,#37]
 592:Drivers/STM32G4xx_HAL_Driver/Src/stm32g4xx_hal_dma.c **** 
 1289              	 .loc 1 592 5 is_stmt 1 view .LVU508
 592:Drivers/STM32G4xx_HAL_Driver/Src/stm32g4xx_hal_dma.c **** 
 1290              	 .loc 1 592 5 view .LVU509
 1291 006a 80F82420 	 strb r2,[r0,#36]
 592:Drivers/STM32G4xx_HAL_Driver/Src/stm32g4xx_hal_dma.c **** 
 1292              	 .loc 1 592 5 view .LVU510
 595:Drivers/STM32G4xx_HAL_Driver/Src/stm32g4xx_hal_dma.c ****     {
 1293              	 .loc 1 595 5 view .LVU511
 595:Drivers/STM32G4xx_HAL_Driver/Src/stm32g4xx_hal_dma.c ****     {
 1294              	 .loc 1 595 8 is_stmt 0 view .LVU512
 1295 006e 03B1     	 cbz r3,.L87
 597:Drivers/STM32G4xx_HAL_Driver/Src/stm32g4xx_hal_dma.c ****     }
 1296              	 .loc 1 597 7 is_stmt 1 view .LVU513
ARM GAS   			page 51


 1297 0070 9847     	 blx r3
 1298              	.LVL68:
 1299              	.L87:
 546:Drivers/STM32G4xx_HAL_Driver/Src/stm32g4xx_hal_dma.c **** 
 1300              	 .loc 1 546 21 is_stmt 0 view .LVU514
 1301 0072 0020     	 movs r0,#0
 1302              	.LVL69:
 600:Drivers/STM32G4xx_HAL_Driver/Src/stm32g4xx_hal_dma.c **** }
 1303              	 .loc 1 600 3 is_stmt 1 view .LVU515
 601:Drivers/STM32G4xx_HAL_Driver/Src/stm32g4xx_hal_dma.c **** 
 1304              	 .loc 1 601 1 is_stmt 0 view .LVU516
 1305 0074 38BD     	 pop {r3,r4,r5,pc}
 1306              	 .cfi_endproc
 1307              	.LFE366:
 1309 0076 00BF     	 .section .text.HAL_DMA_PollForTransfer,"ax",%progbits
 1310              	 .align 1
 1311              	 .p2align 2,,3
 1312              	 .global HAL_DMA_PollForTransfer
 1313              	 .syntax unified
 1314              	 .thumb
 1315              	 .thumb_func
 1317              	HAL_DMA_PollForTransfer:
 1318              	.LVL70:
 1319              	.LFB367:
 613:Drivers/STM32G4xx_HAL_Driver/Src/stm32g4xx_hal_dma.c ****   uint32_t temp;
 1320              	 .loc 1 613 1 is_stmt 1 view-0
 1321              	 .cfi_startproc
 1322              	 
 1323              	 
 614:Drivers/STM32G4xx_HAL_Driver/Src/stm32g4xx_hal_dma.c ****   uint32_t tickstart;
 1324              	 .loc 1 614 3 view .LVU518
 615:Drivers/STM32G4xx_HAL_Driver/Src/stm32g4xx_hal_dma.c **** 
 1325              	 .loc 1 615 3 view .LVU519
 617:Drivers/STM32G4xx_HAL_Driver/Src/stm32g4xx_hal_dma.c ****   {
 1326              	 .loc 1 617 3 view .LVU520
 613:Drivers/STM32G4xx_HAL_Driver/Src/stm32g4xx_hal_dma.c ****   uint32_t temp;
 1327              	 .loc 1 613 1 is_stmt 0 view .LVU521
 1328 0000 2DE9F843 	 push {r3,r4,r5,r6,r7,r8,r9,lr}
 1329              	 .cfi_def_cfa_offset 32
 1330              	 .cfi_offset 3,-32
 1331              	 .cfi_offset 4,-28
 1332              	 .cfi_offset 5,-24
 1333              	 .cfi_offset 6,-20
 1334              	 .cfi_offset 7,-16
 1335              	 .cfi_offset 8,-12
 1336              	 .cfi_offset 9,-8
 1337              	 .cfi_offset 14,-4
 617:Drivers/STM32G4xx_HAL_Driver/Src/stm32g4xx_hal_dma.c ****   {
 1338              	 .loc 1 617 33 view .LVU522
 1339 0004 90F82530 	 ldrb r3,[r0,#37]
 617:Drivers/STM32G4xx_HAL_Driver/Src/stm32g4xx_hal_dma.c ****   {
 1340              	 .loc 1 617 6 view .LVU523
 1341 0008 022B     	 cmp r3,#2
 613:Drivers/STM32G4xx_HAL_Driver/Src/stm32g4xx_hal_dma.c ****   uint32_t temp;
 1342              	 .loc 1 613 1 view .LVU524
 1343 000a 0446     	 mov r4,r0
 617:Drivers/STM32G4xx_HAL_Driver/Src/stm32g4xx_hal_dma.c ****   {
ARM GAS   			page 52


 1344              	 .loc 1 617 6 view .LVU525
 1345 000c 07D0     	 beq .L96
 620:Drivers/STM32G4xx_HAL_Driver/Src/stm32g4xx_hal_dma.c ****     __HAL_UNLOCK(hdma);
 1346              	 .loc 1 620 5 is_stmt 1 view .LVU526
 620:Drivers/STM32G4xx_HAL_Driver/Src/stm32g4xx_hal_dma.c ****     __HAL_UNLOCK(hdma);
 1347              	 .loc 1 620 21 is_stmt 0 view .LVU527
 1348 000e 0422     	 movs r2,#4
 1349              	.LVL71:
 621:Drivers/STM32G4xx_HAL_Driver/Src/stm32g4xx_hal_dma.c ****     return HAL_ERROR;
 1350              	 .loc 1 621 5 view .LVU528
 1351 0010 0023     	 movs r3,#0
 620:Drivers/STM32G4xx_HAL_Driver/Src/stm32g4xx_hal_dma.c ****     __HAL_UNLOCK(hdma);
 1352              	 .loc 1 620 21 view .LVU529
 1353 0012 C263     	 str r2,[r0,#60]
 621:Drivers/STM32G4xx_HAL_Driver/Src/stm32g4xx_hal_dma.c ****     return HAL_ERROR;
 1354              	 .loc 1 621 5 is_stmt 1 view .LVU530
 621:Drivers/STM32G4xx_HAL_Driver/Src/stm32g4xx_hal_dma.c ****     return HAL_ERROR;
 1355              	 .loc 1 621 5 view .LVU531
 1356 0014 80F82430 	 strb r3,[r0,#36]
 621:Drivers/STM32G4xx_HAL_Driver/Src/stm32g4xx_hal_dma.c ****     return HAL_ERROR;
 1357              	 .loc 1 621 5 view .LVU532
 622:Drivers/STM32G4xx_HAL_Driver/Src/stm32g4xx_hal_dma.c ****   }
 1358              	 .loc 1 622 5 view .LVU533
 1359              	.LVL72:
 1360              	.L97:
 622:Drivers/STM32G4xx_HAL_Driver/Src/stm32g4xx_hal_dma.c ****   }
 1361              	 .loc 1 622 12 is_stmt 0 view .LVU534
 1362 0018 0120     	 movs r0,#1
 733:Drivers/STM32G4xx_HAL_Driver/Src/stm32g4xx_hal_dma.c **** 
 1363              	 .loc 1 733 1 view .LVU535
 1364 001a BDE8F883 	 pop {r3,r4,r5,r6,r7,r8,r9,pc}
 1365              	.LVL73:
 1366              	.L96:
 626:Drivers/STM32G4xx_HAL_Driver/Src/stm32g4xx_hal_dma.c ****   {
 1367              	 .loc 1 626 3 is_stmt 1 view .LVU536
 1368 001e 1746     	 mov r7,r2
 1369 0020 DAB2     	 uxtb r2,r3
 1370              	.LVL74:
 626:Drivers/STM32G4xx_HAL_Driver/Src/stm32g4xx_hal_dma.c ****   {
 1371              	 .loc 1 626 18 is_stmt 0 view .LVU537
 1372 0022 0368     	 ldr r3,[r0]
 626:Drivers/STM32G4xx_HAL_Driver/Src/stm32g4xx_hal_dma.c ****   {
 1373              	 .loc 1 626 28 view .LVU538
 1374 0024 1B68     	 ldr r3,[r3]
 626:Drivers/STM32G4xx_HAL_Driver/Src/stm32g4xx_hal_dma.c ****   {
 1375              	 .loc 1 626 6 view .LVU539
 1376 0026 9806     	 lsls r0,r3,#26
 1377              	.LVL75:
 626:Drivers/STM32G4xx_HAL_Driver/Src/stm32g4xx_hal_dma.c ****   {
 1378              	 .loc 1 626 6 view .LVU540
 1379 0028 45D4     	 bmi .L126
 633:Drivers/STM32G4xx_HAL_Driver/Src/stm32g4xx_hal_dma.c ****   {
 1380              	 .loc 1 633 3 is_stmt 1 view .LVU541
 637:Drivers/STM32G4xx_HAL_Driver/Src/stm32g4xx_hal_dma.c ****   }
 1381              	 .loc 1 637 58 is_stmt 0 view .LVU542
 1382 002a 656C     	 ldr r5,[r4,#68]
 1383 002c 0E46     	 mov r6,r1
ARM GAS   			page 53


 1384 002e 05F01F05 	 and r5,r5,#31
 633:Drivers/STM32G4xx_HAL_Driver/Src/stm32g4xx_hal_dma.c ****   {
 1385              	 .loc 1 633 6 view .LVU543
 1386 0032 0029     	 cmp r1,#0
 1387 0034 43D0     	 beq .L127
 642:Drivers/STM32G4xx_HAL_Driver/Src/stm32g4xx_hal_dma.c ****   }
 1388              	 .loc 1 642 5 is_stmt 1 view .LVU544
 642:Drivers/STM32G4xx_HAL_Driver/Src/stm32g4xx_hal_dma.c ****   }
 1389              	 .loc 1 642 10 is_stmt 0 view .LVU545
 1390 0036 0423     	 movs r3,#4
 1391 0038 03FA05F5 	 lsl r5,r3,r5
 1392              	.LVL76:
 1393              	.L101:
 646:Drivers/STM32G4xx_HAL_Driver/Src/stm32g4xx_hal_dma.c **** 
 1394              	 .loc 1 646 3 is_stmt 1 view .LVU546
 646:Drivers/STM32G4xx_HAL_Driver/Src/stm32g4xx_hal_dma.c **** 
 1395              	 .loc 1 646 15 is_stmt 0 view .LVU547
 1396 003c FFF7FEFF 	 bl HAL_GetTick
 1397              	.LVL77:
 646:Drivers/STM32G4xx_HAL_Driver/Src/stm32g4xx_hal_dma.c **** 
 1398              	 .loc 1 646 15 view .LVU548
 1399 0040 7B1C     	 adds r3,r7,#1
 1400 0042 8046     	 mov r8,r0
 1401              	.LVL78:
 648:Drivers/STM32G4xx_HAL_Driver/Src/stm32g4xx_hal_dma.c ****   {
 1402              	 .loc 1 648 3 is_stmt 1 view .LVU549
 650:Drivers/STM32G4xx_HAL_Driver/Src/stm32g4xx_hal_dma.c ****     {
 1403              	 .loc 1 650 69 is_stmt 0 view .LVU550
 1404 0044 18BF     	 it ne
 1405 0046 4FF00809 	 movne r9,#8
 1406 004a 4BD1     	 bne .L102
 650:Drivers/STM32G4xx_HAL_Driver/Src/stm32g4xx_hal_dma.c ****     {
 1407              	 .loc 1 650 92 view .LVU551
 1408 004c 636C     	 ldr r3,[r4,#68]
 650:Drivers/STM32G4xx_HAL_Driver/Src/stm32g4xx_hal_dma.c ****     {
 1409              	 .loc 1 650 69 view .LVU552
 1410 004e 0820     	 movs r0,#8
 1411              	.LVL79:
 650:Drivers/STM32G4xx_HAL_Driver/Src/stm32g4xx_hal_dma.c ****     {
 1412              	 .loc 1 650 92 view .LVU553
 1413 0050 03F01F0C 	 and ip,r3,#31
 650:Drivers/STM32G4xx_HAL_Driver/Src/stm32g4xx_hal_dma.c ****     {
 1414              	 .loc 1 650 69 view .LVU554
 1415 0054 00FA0CF0 	 lsl r0,r0,ip
 648:Drivers/STM32G4xx_HAL_Driver/Src/stm32g4xx_hal_dma.c ****   {
 1416              	 .loc 1 648 21 view .LVU555
 1417 0058 236C     	 ldr r3,[r4,#64]
 1418 005a 02E0     	 b .L105
 1419              	.L128:
 650:Drivers/STM32G4xx_HAL_Driver/Src/stm32g4xx_hal_dma.c ****     {
 1420              	 .loc 1 650 37 view .LVU556
 1421 005c 1A68     	 ldr r2,[r3]
 650:Drivers/STM32G4xx_HAL_Driver/Src/stm32g4xx_hal_dma.c ****     {
 1422              	 .loc 1 650 8 view .LVU557
 1423 005e 0242     	 tst r2,r0
 1424 0060 30D1     	 bne .L104
 1425              	.L105:
ARM GAS   			page 54


 648:Drivers/STM32G4xx_HAL_Driver/Src/stm32g4xx_hal_dma.c ****   {
 1426              	 .loc 1 648 13 is_stmt 1 view .LVU558
 650:Drivers/STM32G4xx_HAL_Driver/Src/stm32g4xx_hal_dma.c ****     {
 1427              	 .loc 1 650 5 view .LVU559
 648:Drivers/STM32G4xx_HAL_Driver/Src/stm32g4xx_hal_dma.c ****   {
 1428              	 .loc 1 648 37 is_stmt 0 view .LVU560
 1429 0062 1A68     	 ldr r2,[r3]
 648:Drivers/STM32G4xx_HAL_Driver/Src/stm32g4xx_hal_dma.c ****   {
 1430              	 .loc 1 648 13 view .LVU561
 1431 0064 2A42     	 tst r2,r5
 1432 0066 F9D0     	 beq .L128
 1433              	.L103:
 688:Drivers/STM32G4xx_HAL_Driver/Src/stm32g4xx_hal_dma.c ****   {
 1434              	 .loc 1 688 3 is_stmt 1 view .LVU562
 688:Drivers/STM32G4xx_HAL_Driver/Src/stm32g4xx_hal_dma.c ****   {
 1435              	 .loc 1 688 11 is_stmt 0 view .LVU563
 1436 0068 626D     	 ldr r2,[r4,#84]
 688:Drivers/STM32G4xx_HAL_Driver/Src/stm32g4xx_hal_dma.c ****   {
 1437              	 .loc 1 688 6 view .LVU564
 1438 006a 6AB1     	 cbz r2,.L109
 691:Drivers/STM32G4xx_HAL_Driver/Src/stm32g4xx_hal_dma.c ****     {
 1439              	 .loc 1 691 5 is_stmt 1 view .LVU565
 691:Drivers/STM32G4xx_HAL_Driver/Src/stm32g4xx_hal_dma.c ****     {
 1440              	 .loc 1 691 51 is_stmt 0 view .LVU566
 1441 006c D4E91610 	 ldrd r1,r0,[r4,#88]
 691:Drivers/STM32G4xx_HAL_Driver/Src/stm32g4xx_hal_dma.c ****     {
 1442              	 .loc 1 691 38 view .LVU567
 1443 0070 0D68     	 ldr r5,[r1]
 1444              	.LVL80:
 691:Drivers/STM32G4xx_HAL_Driver/Src/stm32g4xx_hal_dma.c ****     {
 1445              	 .loc 1 691 8 view .LVU568
 1446 0072 0542     	 tst r5,r0
 1447 0074 08D0     	 beq .L109
 694:Drivers/STM32G4xx_HAL_Driver/Src/stm32g4xx_hal_dma.c **** 
 1448              	 .loc 1 694 7 is_stmt 1 view .LVU569
 694:Drivers/STM32G4xx_HAL_Driver/Src/stm32g4xx_hal_dma.c **** 
 1449              	 .loc 1 694 29 is_stmt 0 view .LVU570
 1450 0076 1568     	 ldr r5,[r2]
 694:Drivers/STM32G4xx_HAL_Driver/Src/stm32g4xx_hal_dma.c **** 
 1451              	 .loc 1 694 36 view .LVU571
 1452 0078 45F48075 	 orr r5,r5,#256
 1453 007c 1560     	 str r5,[r2]
 697:Drivers/STM32G4xx_HAL_Driver/Src/stm32g4xx_hal_dma.c **** 
 1454              	 .loc 1 697 7 is_stmt 1 view .LVU572
 697:Drivers/STM32G4xx_HAL_Driver/Src/stm32g4xx_hal_dma.c **** 
 1455              	 .loc 1 697 43 is_stmt 0 view .LVU573
 1456 007e 4860     	 str r0,[r1,#4]
 700:Drivers/STM32G4xx_HAL_Driver/Src/stm32g4xx_hal_dma.c ****     }
 1457              	 .loc 1 700 7 is_stmt 1 view .LVU574
 700:Drivers/STM32G4xx_HAL_Driver/Src/stm32g4xx_hal_dma.c ****     }
 1458              	 .loc 1 700 11 is_stmt 0 view .LVU575
 1459 0080 E26B     	 ldr r2,[r4,#60]
 700:Drivers/STM32G4xx_HAL_Driver/Src/stm32g4xx_hal_dma.c ****     }
 1460              	 .loc 1 700 23 view .LVU576
 1461 0082 42F48062 	 orr r2,r2,#1024
 1462 0086 E263     	 str r2,[r4,#60]
 1463              	.L109:
ARM GAS   			page 55


 705:Drivers/STM32G4xx_HAL_Driver/Src/stm32g4xx_hal_dma.c ****   {
 1464              	 .loc 1 705 3 is_stmt 1 view .LVU577
 705:Drivers/STM32G4xx_HAL_Driver/Src/stm32g4xx_hal_dma.c ****   {
 1465              	 .loc 1 705 45 is_stmt 0 view .LVU578
 1466 0088 D4E91321 	 ldrd r2,r1,[r4,#76]
 705:Drivers/STM32G4xx_HAL_Driver/Src/stm32g4xx_hal_dma.c ****   {
 1467              	 .loc 1 705 33 view .LVU579
 1468 008c 1068     	 ldr r0,[r2]
 705:Drivers/STM32G4xx_HAL_Driver/Src/stm32g4xx_hal_dma.c ****   {
 1469              	 .loc 1 705 6 view .LVU580
 1470 008e 0842     	 tst r0,r1
 1471 0090 04D0     	 beq .L110
 708:Drivers/STM32G4xx_HAL_Driver/Src/stm32g4xx_hal_dma.c **** 
 1472              	 .loc 1 708 5 is_stmt 1 view .LVU581
 708:Drivers/STM32G4xx_HAL_Driver/Src/stm32g4xx_hal_dma.c **** 
 1473              	 .loc 1 708 36 is_stmt 0 view .LVU582
 1474 0092 5160     	 str r1,[r2,#4]
 711:Drivers/STM32G4xx_HAL_Driver/Src/stm32g4xx_hal_dma.c ****   }
 1475              	 .loc 1 711 5 is_stmt 1 view .LVU583
 711:Drivers/STM32G4xx_HAL_Driver/Src/stm32g4xx_hal_dma.c ****   }
 1476              	 .loc 1 711 9 is_stmt 0 view .LVU584
 1477 0094 E26B     	 ldr r2,[r4,#60]
 711:Drivers/STM32G4xx_HAL_Driver/Src/stm32g4xx_hal_dma.c ****   }
 1478              	 .loc 1 711 21 view .LVU585
 1479 0096 42F40072 	 orr r2,r2,#512
 1480 009a E263     	 str r2,[r4,#60]
 1481              	.L110:
 714:Drivers/STM32G4xx_HAL_Driver/Src/stm32g4xx_hal_dma.c ****   {
 1482              	 .loc 1 714 3 is_stmt 1 view .LVU586
 714:Drivers/STM32G4xx_HAL_Driver/Src/stm32g4xx_hal_dma.c ****   {
 1483              	 .loc 1 714 6 is_stmt 0 view .LVU587
 1484 009c EEB9     	 cbnz r6,.L111
 717:Drivers/STM32G4xx_HAL_Driver/Src/stm32g4xx_hal_dma.c **** 
 1485              	 .loc 1 717 5 is_stmt 1 view .LVU588
 717:Drivers/STM32G4xx_HAL_Driver/Src/stm32g4xx_hal_dma.c **** 
 1486              	 .loc 1 717 58 is_stmt 0 view .LVU589
 1487 009e 0222     	 movs r2,#2
 1488 00a0 02FA0CF2 	 lsl r2,r2,ip
 721:Drivers/STM32G4xx_HAL_Driver/Src/stm32g4xx_hal_dma.c ****   }
 1489              	 .loc 1 721 17 view .LVU590
 1490 00a4 0121     	 movs r1,#1
 717:Drivers/STM32G4xx_HAL_Driver/Src/stm32g4xx_hal_dma.c **** 
 1491              	 .loc 1 717 32 view .LVU591
 1492 00a6 5A60     	 str r2,[r3,#4]
 721:Drivers/STM32G4xx_HAL_Driver/Src/stm32g4xx_hal_dma.c ****   }
 1493              	 .loc 1 721 5 is_stmt 1 view .LVU592
 721:Drivers/STM32G4xx_HAL_Driver/Src/stm32g4xx_hal_dma.c ****   }
 1494              	 .loc 1 721 17 is_stmt 0 view .LVU593
 1495 00a8 84F82510 	 strb r1,[r4,#37]
 1496              	.L112:
 730:Drivers/STM32G4xx_HAL_Driver/Src/stm32g4xx_hal_dma.c **** 
 1497              	 .loc 1 730 3 is_stmt 1 view .LVU594
 730:Drivers/STM32G4xx_HAL_Driver/Src/stm32g4xx_hal_dma.c **** 
 1498              	 .loc 1 730 3 view .LVU595
 1499 00ac 0020     	 movs r0,#0
 1500 00ae 84F82400 	 strb r0,[r4,#36]
 730:Drivers/STM32G4xx_HAL_Driver/Src/stm32g4xx_hal_dma.c **** 
ARM GAS   			page 56


 1501              	 .loc 1 730 3 view .LVU596
 732:Drivers/STM32G4xx_HAL_Driver/Src/stm32g4xx_hal_dma.c **** }
 1502              	 .loc 1 732 3 view .LVU597
 733:Drivers/STM32G4xx_HAL_Driver/Src/stm32g4xx_hal_dma.c **** 
 1503              	 .loc 1 733 1 is_stmt 0 view .LVU598
 1504 00b2 BDE8F883 	 pop {r3,r4,r5,r6,r7,r8,r9,pc}
 1505              	.LVL81:
 1506              	.L126:
 628:Drivers/STM32G4xx_HAL_Driver/Src/stm32g4xx_hal_dma.c ****     return HAL_ERROR;
 1507              	 .loc 1 628 5 is_stmt 1 view .LVU599
 628:Drivers/STM32G4xx_HAL_Driver/Src/stm32g4xx_hal_dma.c ****     return HAL_ERROR;
 1508              	 .loc 1 628 21 is_stmt 0 view .LVU600
 1509 00b6 4FF48073 	 mov r3,#256
 1510 00ba E363     	 str r3,[r4,#60]
 629:Drivers/STM32G4xx_HAL_Driver/Src/stm32g4xx_hal_dma.c ****   }
 1511              	 .loc 1 629 5 is_stmt 1 view .LVU601
 629:Drivers/STM32G4xx_HAL_Driver/Src/stm32g4xx_hal_dma.c ****   }
 1512              	 .loc 1 629 12 is_stmt 0 view .LVU602
 1513 00bc ACE7     	 b .L97
 1514              	.L127:
 637:Drivers/STM32G4xx_HAL_Driver/Src/stm32g4xx_hal_dma.c ****   }
 1515              	 .loc 1 637 5 is_stmt 1 view .LVU603
 637:Drivers/STM32G4xx_HAL_Driver/Src/stm32g4xx_hal_dma.c ****   }
 1516              	 .loc 1 637 10 is_stmt 0 view .LVU604
 1517 00be 02FA05F5 	 lsl r5,r2,r5
 1518              	.LVL82:
 637:Drivers/STM32G4xx_HAL_Driver/Src/stm32g4xx_hal_dma.c ****   }
 1519              	 .loc 1 637 10 view .LVU605
 1520 00c2 BBE7     	 b .L101
 1521              	.LVL83:
 1522              	.L104:
 655:Drivers/STM32G4xx_HAL_Driver/Src/stm32g4xx_hal_dma.c **** 
 1523              	 .loc 1 655 7 is_stmt 1 view .LVU606
 655:Drivers/STM32G4xx_HAL_Driver/Src/stm32g4xx_hal_dma.c **** 
 1524              	 .loc 1 655 60 is_stmt 0 view .LVU607
 1525 00c4 0122     	 movs r2,#1
 1526 00c6 02FA0CF0 	 lsl r0,r2,ip
 664:Drivers/STM32G4xx_HAL_Driver/Src/stm32g4xx_hal_dma.c **** 
 1527              	 .loc 1 664 7 view .LVU608
 1528 00ca 0021     	 movs r1,#0
 655:Drivers/STM32G4xx_HAL_Driver/Src/stm32g4xx_hal_dma.c **** 
 1529              	 .loc 1 655 34 view .LVU609
 1530 00cc 5860     	 str r0,[r3,#4]
 658:Drivers/STM32G4xx_HAL_Driver/Src/stm32g4xx_hal_dma.c **** 
 1531              	 .loc 1 658 7 is_stmt 1 view .LVU610
 658:Drivers/STM32G4xx_HAL_Driver/Src/stm32g4xx_hal_dma.c **** 
 1532              	 .loc 1 658 23 is_stmt 0 view .LVU611
 1533 00ce E263     	 str r2,[r4,#60]
 661:Drivers/STM32G4xx_HAL_Driver/Src/stm32g4xx_hal_dma.c **** 
 1534              	 .loc 1 661 7 is_stmt 1 view .LVU612
 664:Drivers/STM32G4xx_HAL_Driver/Src/stm32g4xx_hal_dma.c **** 
 1535              	 .loc 1 664 7 is_stmt 0 view .LVU613
 1536 00d0 84F82410 	 strb r1,[r4,#36]
 661:Drivers/STM32G4xx_HAL_Driver/Src/stm32g4xx_hal_dma.c **** 
 1537              	 .loc 1 661 19 view .LVU614
 1538 00d4 84F82520 	 strb r2,[r4,#37]
 664:Drivers/STM32G4xx_HAL_Driver/Src/stm32g4xx_hal_dma.c **** 
ARM GAS   			page 57


 1539              	 .loc 1 664 7 is_stmt 1 view .LVU615
 664:Drivers/STM32G4xx_HAL_Driver/Src/stm32g4xx_hal_dma.c **** 
 1540              	 .loc 1 664 7 view .LVU616
 664:Drivers/STM32G4xx_HAL_Driver/Src/stm32g4xx_hal_dma.c **** 
 1541              	 .loc 1 664 7 view .LVU617
 666:Drivers/STM32G4xx_HAL_Driver/Src/stm32g4xx_hal_dma.c ****     }
 1542              	 .loc 1 666 7 view .LVU618
 666:Drivers/STM32G4xx_HAL_Driver/Src/stm32g4xx_hal_dma.c ****     }
 1543              	 .loc 1 666 14 is_stmt 0 view .LVU619
 1544 00d8 9EE7     	 b .L97
 1545              	.LVL84:
 1546              	.L111:
 726:Drivers/STM32G4xx_HAL_Driver/Src/stm32g4xx_hal_dma.c ****   }
 1547              	 .loc 1 726 5 is_stmt 1 view .LVU620
 726:Drivers/STM32G4xx_HAL_Driver/Src/stm32g4xx_hal_dma.c ****   }
 1548              	 .loc 1 726 58 is_stmt 0 view .LVU621
 1549 00da 0422     	 movs r2,#4
 1550 00dc 02FA0CF2 	 lsl r2,r2,ip
 726:Drivers/STM32G4xx_HAL_Driver/Src/stm32g4xx_hal_dma.c ****   }
 1551              	 .loc 1 726 32 view .LVU622
 1552 00e0 5A60     	 str r2,[r3,#4]
 1553 00e2 E3E7     	 b .L112
 1554              	.LVL85:
 1555              	.L102:
 650:Drivers/STM32G4xx_HAL_Driver/Src/stm32g4xx_hal_dma.c ****     {
 1556              	 .loc 1 650 5 is_stmt 1 view .LVU623
 669:Drivers/STM32G4xx_HAL_Driver/Src/stm32g4xx_hal_dma.c ****     {
 1557              	 .loc 1 669 5 view .LVU624
 671:Drivers/STM32G4xx_HAL_Driver/Src/stm32g4xx_hal_dma.c ****       {
 1558              	 .loc 1 671 7 view .LVU625
 650:Drivers/STM32G4xx_HAL_Driver/Src/stm32g4xx_hal_dma.c ****     {
 1559              	 .loc 1 650 92 is_stmt 0 view .LVU626
 1560 00e4 D4E91032 	 ldrd r3,r2,[r4,#64]
 1561 00e8 02F01F0C 	 and ip,r2,#31
 648:Drivers/STM32G4xx_HAL_Driver/Src/stm32g4xx_hal_dma.c ****   {
 1562              	 .loc 1 648 13 is_stmt 1 view .LVU627
 648:Drivers/STM32G4xx_HAL_Driver/Src/stm32g4xx_hal_dma.c ****   {
 1563              	 .loc 1 648 37 is_stmt 0 view .LVU628
 1564 00ec 1A68     	 ldr r2,[r3]
 648:Drivers/STM32G4xx_HAL_Driver/Src/stm32g4xx_hal_dma.c ****   {
 1565              	 .loc 1 648 13 view .LVU629
 1566 00ee 2A42     	 tst r2,r5
 1567 00f0 BAD1     	 bne .L103
 650:Drivers/STM32G4xx_HAL_Driver/Src/stm32g4xx_hal_dma.c ****     {
 1568              	 .loc 1 650 37 view .LVU630
 1569 00f2 1A68     	 ldr r2,[r3]
 650:Drivers/STM32G4xx_HAL_Driver/Src/stm32g4xx_hal_dma.c ****     {
 1570              	 .loc 1 650 69 view .LVU631
 1571 00f4 09FA0CF1 	 lsl r1,r9,ip
 650:Drivers/STM32G4xx_HAL_Driver/Src/stm32g4xx_hal_dma.c ****     {
 1572              	 .loc 1 650 8 view .LVU632
 1573 00f8 1142     	 tst r1,r2
 1574 00fa E3D1     	 bne .L104
 671:Drivers/STM32G4xx_HAL_Driver/Src/stm32g4xx_hal_dma.c ****       {
 1575              	 .loc 1 671 13 view .LVU633
 1576 00fc FFF7FEFF 	 bl HAL_GetTick
 1577              	.LVL86:
ARM GAS   			page 58


 671:Drivers/STM32G4xx_HAL_Driver/Src/stm32g4xx_hal_dma.c ****       {
 1578              	 .loc 1 671 27 discriminator 1 view .LVU634
 1579 0100 A0EB0803 	 sub r3,r0,r8
 671:Drivers/STM32G4xx_HAL_Driver/Src/stm32g4xx_hal_dma.c ****       {
 1580              	 .loc 1 671 10 discriminator 1 view .LVU635
 1581 0104 BB42     	 cmp r3,r7
 1582 0106 01D8     	 bhi .L107
 671:Drivers/STM32G4xx_HAL_Driver/Src/stm32g4xx_hal_dma.c ****       {
 1583              	 .loc 1 671 51 discriminator 1 view .LVU636
 1584 0108 002F     	 cmp r7,#0
 1585 010a EBD1     	 bne .L102
 1586              	.L107:
 674:Drivers/STM32G4xx_HAL_Driver/Src/stm32g4xx_hal_dma.c **** 
 1587              	 .loc 1 674 9 is_stmt 1 view .LVU637
 674:Drivers/STM32G4xx_HAL_Driver/Src/stm32g4xx_hal_dma.c **** 
 1588              	 .loc 1 674 25 is_stmt 0 view .LVU638
 1589 010c 2021     	 movs r1,#32
 677:Drivers/STM32G4xx_HAL_Driver/Src/stm32g4xx_hal_dma.c **** 
 1590              	 .loc 1 677 21 view .LVU639
 1591 010e 0123     	 movs r3,#1
 680:Drivers/STM32G4xx_HAL_Driver/Src/stm32g4xx_hal_dma.c **** 
 1592              	 .loc 1 680 9 view .LVU640
 1593 0110 0022     	 movs r2,#0
 674:Drivers/STM32G4xx_HAL_Driver/Src/stm32g4xx_hal_dma.c **** 
 1594              	 .loc 1 674 25 view .LVU641
 1595 0112 E163     	 str r1,[r4,#60]
 677:Drivers/STM32G4xx_HAL_Driver/Src/stm32g4xx_hal_dma.c **** 
 1596              	 .loc 1 677 9 is_stmt 1 view .LVU642
 680:Drivers/STM32G4xx_HAL_Driver/Src/stm32g4xx_hal_dma.c **** 
 1597              	 .loc 1 680 9 is_stmt 0 view .LVU643
 1598 0114 84F82420 	 strb r2,[r4,#36]
 677:Drivers/STM32G4xx_HAL_Driver/Src/stm32g4xx_hal_dma.c **** 
 1599              	 .loc 1 677 21 view .LVU644
 1600 0118 84F82530 	 strb r3,[r4,#37]
 680:Drivers/STM32G4xx_HAL_Driver/Src/stm32g4xx_hal_dma.c **** 
 1601              	 .loc 1 680 9 is_stmt 1 view .LVU645
 680:Drivers/STM32G4xx_HAL_Driver/Src/stm32g4xx_hal_dma.c **** 
 1602              	 .loc 1 680 9 view .LVU646
 680:Drivers/STM32G4xx_HAL_Driver/Src/stm32g4xx_hal_dma.c **** 
 1603              	 .loc 1 680 9 view .LVU647
 682:Drivers/STM32G4xx_HAL_Driver/Src/stm32g4xx_hal_dma.c ****       }
 1604              	 .loc 1 682 9 view .LVU648
 682:Drivers/STM32G4xx_HAL_Driver/Src/stm32g4xx_hal_dma.c ****       }
 1605              	 .loc 1 682 16 is_stmt 0 view .LVU649
 1606 011c 7CE7     	 b .L97
 1607              	 .cfi_endproc
 1608              	.LFE367:
 1610 011e 00BF     	 .section .text.HAL_DMA_IRQHandler,"ax",%progbits
 1611              	 .align 1
 1612              	 .p2align 2,,3
 1613              	 .global HAL_DMA_IRQHandler
 1614              	 .syntax unified
 1615              	 .thumb
 1616              	 .thumb_func
 1618              	HAL_DMA_IRQHandler:
 1619              	.LVL87:
 1620              	.LFB368:
ARM GAS   			page 59


 742:Drivers/STM32G4xx_HAL_Driver/Src/stm32g4xx_hal_dma.c ****   uint32_t flag_it = hdma->DmaBaseAddress->ISR;
 1621              	 .loc 1 742 1 is_stmt 1 view-0
 1622              	 .cfi_startproc
 1623              	 
 1624              	 
 1625              	 
 743:Drivers/STM32G4xx_HAL_Driver/Src/stm32g4xx_hal_dma.c ****   uint32_t source_it = hdma->Instance->CCR;
 1626              	 .loc 1 743 3 view .LVU651
 742:Drivers/STM32G4xx_HAL_Driver/Src/stm32g4xx_hal_dma.c ****   uint32_t flag_it = hdma->DmaBaseAddress->ISR;
 1627              	 .loc 1 742 1 is_stmt 0 view .LVU652
 1628 0000 70B4     	 push {r4,r5,r6}
 1629              	 .cfi_def_cfa_offset 12
 1630              	 .cfi_offset 4,-12
 1631              	 .cfi_offset 5,-8
 1632              	 .cfi_offset 6,-4
 747:Drivers/STM32G4xx_HAL_Driver/Src/stm32g4xx_hal_dma.c ****   {
 1633              	 .loc 1 747 72 view .LVU653
 1634 0002 436C     	 ldr r3,[r0,#68]
 743:Drivers/STM32G4xx_HAL_Driver/Src/stm32g4xx_hal_dma.c ****   uint32_t source_it = hdma->Instance->CCR;
 1635              	 .loc 1 743 26 view .LVU654
 1636 0004 066C     	 ldr r6,[r0,#64]
 744:Drivers/STM32G4xx_HAL_Driver/Src/stm32g4xx_hal_dma.c **** 
 1637              	 .loc 1 744 28 view .LVU655
 1638 0006 0568     	 ldr r5,[r0]
 743:Drivers/STM32G4xx_HAL_Driver/Src/stm32g4xx_hal_dma.c ****   uint32_t source_it = hdma->Instance->CCR;
 1639              	 .loc 1 743 12 view .LVU656
 1640 0008 3168     	 ldr r1,[r6]
 1641              	.LVL88:
 744:Drivers/STM32G4xx_HAL_Driver/Src/stm32g4xx_hal_dma.c **** 
 1642              	 .loc 1 744 3 is_stmt 1 view .LVU657
 744:Drivers/STM32G4xx_HAL_Driver/Src/stm32g4xx_hal_dma.c **** 
 1643              	 .loc 1 744 12 is_stmt 0 view .LVU658
 1644 000a 2C68     	 ldr r4,[r5]
 1645              	.LVL89:
 747:Drivers/STM32G4xx_HAL_Driver/Src/stm32g4xx_hal_dma.c ****   {
 1646              	 .loc 1 747 3 is_stmt 1 view .LVU659
 747:Drivers/STM32G4xx_HAL_Driver/Src/stm32g4xx_hal_dma.c ****   {
 1647              	 .loc 1 747 72 is_stmt 0 view .LVU660
 1648 000c 03F01F03 	 and r3,r3,#31
 747:Drivers/STM32G4xx_HAL_Driver/Src/stm32g4xx_hal_dma.c ****   {
 1649              	 .loc 1 747 49 view .LVU661
 1650 0010 0422     	 movs r2,#4
 1651 0012 9A40     	 lsls r2,r2,r3
 747:Drivers/STM32G4xx_HAL_Driver/Src/stm32g4xx_hal_dma.c ****   {
 1652              	 .loc 1 747 6 view .LVU662
 1653 0014 0A42     	 tst r2,r1
 1654 0016 0ED0     	 beq .L130
 747:Drivers/STM32G4xx_HAL_Driver/Src/stm32g4xx_hal_dma.c ****   {
 1655              	 .loc 1 747 84 discriminator 1 view .LVU663
 1656 0018 14F0040F 	 tst r4,#4
 1657 001c 0BD0     	 beq .L130
 750:Drivers/STM32G4xx_HAL_Driver/Src/stm32g4xx_hal_dma.c ****     {
 1658              	 .loc 1 750 5 is_stmt 1 view .LVU664
 750:Drivers/STM32G4xx_HAL_Driver/Src/stm32g4xx_hal_dma.c ****     {
 1659              	 .loc 1 750 24 is_stmt 0 view .LVU665
 1660 001e 2B68     	 ldr r3,[r5]
 750:Drivers/STM32G4xx_HAL_Driver/Src/stm32g4xx_hal_dma.c ****     {
ARM GAS   			page 60


 1661              	 .loc 1 750 8 view .LVU666
 1662 0020 9B06     	 lsls r3,r3,#26
 1663 0022 03D4     	 bmi .L131
 753:Drivers/STM32G4xx_HAL_Driver/Src/stm32g4xx_hal_dma.c ****     }
 1664              	 .loc 1 753 7 is_stmt 1 view .LVU667
 1665 0024 2B68     	 ldr r3,[r5]
 1666 0026 23F00403 	 bic r3,r3,#4
 1667 002a 2B60     	 str r3,[r5]
 1668              	.L131:
 756:Drivers/STM32G4xx_HAL_Driver/Src/stm32g4xx_hal_dma.c **** 
 1669              	 .loc 1 756 5 view .LVU668
 761:Drivers/STM32G4xx_HAL_Driver/Src/stm32g4xx_hal_dma.c ****     {
 1670              	 .loc 1 761 13 is_stmt 0 view .LVU669
 1671 002c 036B     	 ldr r3,[r0,#48]
 756:Drivers/STM32G4xx_HAL_Driver/Src/stm32g4xx_hal_dma.c **** 
 1672              	 .loc 1 756 32 view .LVU670
 1673 002e 7260     	 str r2,[r6,#4]
 761:Drivers/STM32G4xx_HAL_Driver/Src/stm32g4xx_hal_dma.c ****     {
 1674              	 .loc 1 761 5 is_stmt 1 view .LVU671
 761:Drivers/STM32G4xx_HAL_Driver/Src/stm32g4xx_hal_dma.c ****     {
 1675              	 .loc 1 761 8 is_stmt 0 view .LVU672
 1676 0030 CBB1     	 cbz r3,.L129
 1677              	.LVL90:
 1678              	.L162:
 788:Drivers/STM32G4xx_HAL_Driver/Src/stm32g4xx_hal_dma.c ****     }
 1679              	 .loc 1 788 7 is_stmt 1 view .LVU673
 823:Drivers/STM32G4xx_HAL_Driver/Src/stm32g4xx_hal_dma.c **** 
 1680              	 .loc 1 823 1 is_stmt 0 view .LVU674
 1681 0032 70BC     	 pop {r4,r5,r6}
 1682              	 .cfi_remember_state
 1683              	 .cfi_restore 6
 1684              	 .cfi_restore 5
 1685              	 .cfi_restore 4
 1686              	 .cfi_def_cfa_offset 0
 1687              	.LVL91:
 788:Drivers/STM32G4xx_HAL_Driver/Src/stm32g4xx_hal_dma.c ****     }
 1688              	 .loc 1 788 7 view .LVU675
 1689 0034 1847     	 bx r3
 1690              	.LVL92:
 1691              	.L130:
 1692              	 .cfi_restore_state
 768:Drivers/STM32G4xx_HAL_Driver/Src/stm32g4xx_hal_dma.c ****            && (0U != (source_it & DMA_IT_TC)))
 1693              	 .loc 1 768 8 is_stmt 1 view .LVU676
 768:Drivers/STM32G4xx_HAL_Driver/Src/stm32g4xx_hal_dma.c ****            && (0U != (source_it & DMA_IT_TC)))
 1694              	 .loc 1 768 54 is_stmt 0 view .LVU677
 1695 0036 0222     	 movs r2,#2
 1696 0038 9A40     	 lsls r2,r2,r3
 768:Drivers/STM32G4xx_HAL_Driver/Src/stm32g4xx_hal_dma.c ****            && (0U != (source_it & DMA_IT_TC)))
 1697              	 .loc 1 768 11 view .LVU678
 1698 003a 0A42     	 tst r2,r1
 1699 003c 15D0     	 beq .L134
 769:Drivers/STM32G4xx_HAL_Driver/Src/stm32g4xx_hal_dma.c ****   {
 1700              	 .loc 1 769 12 view .LVU679
 1701 003e 14F0020F 	 tst r4,#2
 1702 0042 12D0     	 beq .L134
 771:Drivers/STM32G4xx_HAL_Driver/Src/stm32g4xx_hal_dma.c ****     {
 1703              	 .loc 1 771 5 is_stmt 1 view .LVU680
ARM GAS   			page 61


 771:Drivers/STM32G4xx_HAL_Driver/Src/stm32g4xx_hal_dma.c ****     {
 1704              	 .loc 1 771 24 is_stmt 0 view .LVU681
 1705 0044 2B68     	 ldr r3,[r5]
 771:Drivers/STM32G4xx_HAL_Driver/Src/stm32g4xx_hal_dma.c ****     {
 1706              	 .loc 1 771 8 view .LVU682
 1707 0046 9906     	 lsls r1,r3,#26
 1708              	.LVL93:
 771:Drivers/STM32G4xx_HAL_Driver/Src/stm32g4xx_hal_dma.c ****     {
 1709              	 .loc 1 771 8 view .LVU683
 1710 0048 06D4     	 bmi .L135
 774:Drivers/STM32G4xx_HAL_Driver/Src/stm32g4xx_hal_dma.c **** 
 1711              	 .loc 1 774 7 is_stmt 1 view .LVU684
 1712 004a 2B68     	 ldr r3,[r5]
 1713 004c 23F00A03 	 bic r3,r3,#10
 1714 0050 2B60     	 str r3,[r5]
 777:Drivers/STM32G4xx_HAL_Driver/Src/stm32g4xx_hal_dma.c ****     }
 1715              	 .loc 1 777 7 view .LVU685
 777:Drivers/STM32G4xx_HAL_Driver/Src/stm32g4xx_hal_dma.c ****     }
 1716              	 .loc 1 777 19 is_stmt 0 view .LVU686
 1717 0052 0123     	 movs r3,#1
 1718 0054 80F82530 	 strb r3,[r0,#37]
 1719              	.L135:
 780:Drivers/STM32G4xx_HAL_Driver/Src/stm32g4xx_hal_dma.c **** 
 1720              	 .loc 1 780 5 is_stmt 1 view .LVU687
 785:Drivers/STM32G4xx_HAL_Driver/Src/stm32g4xx_hal_dma.c ****     {
 1721              	 .loc 1 785 13 is_stmt 0 view .LVU688
 1722 0058 C36A     	 ldr r3,[r0,#44]
 780:Drivers/STM32G4xx_HAL_Driver/Src/stm32g4xx_hal_dma.c **** 
 1723              	 .loc 1 780 32 view .LVU689
 1724 005a 7260     	 str r2,[r6,#4]
 783:Drivers/STM32G4xx_HAL_Driver/Src/stm32g4xx_hal_dma.c **** 
 1725              	 .loc 1 783 5 is_stmt 1 view .LVU690
 783:Drivers/STM32G4xx_HAL_Driver/Src/stm32g4xx_hal_dma.c **** 
 1726              	 .loc 1 783 5 view .LVU691
 1727 005c 0021     	 movs r1,#0
 1728 005e 80F82410 	 strb r1,[r0,#36]
 783:Drivers/STM32G4xx_HAL_Driver/Src/stm32g4xx_hal_dma.c **** 
 1729              	 .loc 1 783 5 view .LVU692
 785:Drivers/STM32G4xx_HAL_Driver/Src/stm32g4xx_hal_dma.c ****     {
 1730              	 .loc 1 785 5 view .LVU693
 785:Drivers/STM32G4xx_HAL_Driver/Src/stm32g4xx_hal_dma.c ****     {
 1731              	 .loc 1 785 8 is_stmt 0 view .LVU694
 1732 0062 002B     	 cmp r3,#0
 1733 0064 E5D1     	 bne .L162
 1734              	.LVL94:
 1735              	.L129:
 823:Drivers/STM32G4xx_HAL_Driver/Src/stm32g4xx_hal_dma.c **** 
 1736              	 .loc 1 823 1 view .LVU695
 1737 0066 70BC     	 pop {r4,r5,r6}
 1738              	 .cfi_remember_state
 1739              	 .cfi_restore 6
 1740              	 .cfi_restore 5
 1741              	 .cfi_restore 4
 1742              	 .cfi_def_cfa_offset 0
 1743 0068 7047     	 bx lr
 1744              	.LVL95:
 1745              	.L134:
ARM GAS   			page 62


 1746              	 .cfi_restore_state
 792:Drivers/STM32G4xx_HAL_Driver/Src/stm32g4xx_hal_dma.c ****            && (0U != (source_it & DMA_IT_TE)))
 1747              	 .loc 1 792 8 is_stmt 1 view .LVU696
 792:Drivers/STM32G4xx_HAL_Driver/Src/stm32g4xx_hal_dma.c ****            && (0U != (source_it & DMA_IT_TE)))
 1748              	 .loc 1 792 54 is_stmt 0 view .LVU697
 1749 006a 0822     	 movs r2,#8
 1750 006c 9A40     	 lsls r2,r2,r3
 792:Drivers/STM32G4xx_HAL_Driver/Src/stm32g4xx_hal_dma.c ****            && (0U != (source_it & DMA_IT_TE)))
 1751              	 .loc 1 792 11 view .LVU698
 1752 006e 0A42     	 tst r2,r1
 1753 0070 F9D0     	 beq .L129
 793:Drivers/STM32G4xx_HAL_Driver/Src/stm32g4xx_hal_dma.c ****   {
 1754              	 .loc 1 793 12 view .LVU699
 1755 0072 2207     	 lsls r2,r4,#28
 1756 0074 F7D5     	 bpl .L129
 798:Drivers/STM32G4xx_HAL_Driver/Src/stm32g4xx_hal_dma.c **** 
 1757              	 .loc 1 798 5 is_stmt 1 view .LVU700
 1758 0076 2A68     	 ldr r2,[r5]
 812:Drivers/STM32G4xx_HAL_Driver/Src/stm32g4xx_hal_dma.c ****     {
 1759              	 .loc 1 812 13 is_stmt 0 view .LVU701
 1760 0078 416B     	 ldr r1,[r0,#52]
 1761              	.LVL96:
 798:Drivers/STM32G4xx_HAL_Driver/Src/stm32g4xx_hal_dma.c **** 
 1762              	 .loc 1 798 5 view .LVU702
 1763 007a 22F00E02 	 bic r2,r2,#14
 1764 007e 2A60     	 str r2,[r5]
 801:Drivers/STM32G4xx_HAL_Driver/Src/stm32g4xx_hal_dma.c **** 
 1765              	 .loc 1 801 5 is_stmt 1 view .LVU703
 801:Drivers/STM32G4xx_HAL_Driver/Src/stm32g4xx_hal_dma.c **** 
 1766              	 .loc 1 801 58 is_stmt 0 view .LVU704
 1767 0080 0122     	 movs r2,#1
 1768 0082 02FA03F3 	 lsl r3,r2,r3
 810:Drivers/STM32G4xx_HAL_Driver/Src/stm32g4xx_hal_dma.c **** 
 1769              	 .loc 1 810 5 view .LVU705
 1770 0086 0024     	 movs r4,#0
 1771              	.LVL97:
 801:Drivers/STM32G4xx_HAL_Driver/Src/stm32g4xx_hal_dma.c **** 
 1772              	 .loc 1 801 32 view .LVU706
 1773 0088 7360     	 str r3,[r6,#4]
 804:Drivers/STM32G4xx_HAL_Driver/Src/stm32g4xx_hal_dma.c **** 
 1774              	 .loc 1 804 5 is_stmt 1 view .LVU707
 804:Drivers/STM32G4xx_HAL_Driver/Src/stm32g4xx_hal_dma.c **** 
 1775              	 .loc 1 804 21 is_stmt 0 view .LVU708
 1776 008a C263     	 str r2,[r0,#60]
 807:Drivers/STM32G4xx_HAL_Driver/Src/stm32g4xx_hal_dma.c **** 
 1777              	 .loc 1 807 5 is_stmt 1 view .LVU709
 810:Drivers/STM32G4xx_HAL_Driver/Src/stm32g4xx_hal_dma.c **** 
 1778              	 .loc 1 810 5 is_stmt 0 view .LVU710
 1779 008c 80F82440 	 strb r4,[r0,#36]
 807:Drivers/STM32G4xx_HAL_Driver/Src/stm32g4xx_hal_dma.c **** 
 1780              	 .loc 1 807 17 view .LVU711
 1781 0090 80F82520 	 strb r2,[r0,#37]
 810:Drivers/STM32G4xx_HAL_Driver/Src/stm32g4xx_hal_dma.c **** 
 1782              	 .loc 1 810 5 is_stmt 1 view .LVU712
 810:Drivers/STM32G4xx_HAL_Driver/Src/stm32g4xx_hal_dma.c **** 
 1783              	 .loc 1 810 5 view .LVU713
 810:Drivers/STM32G4xx_HAL_Driver/Src/stm32g4xx_hal_dma.c **** 
ARM GAS   			page 63


 1784              	 .loc 1 810 5 view .LVU714
 812:Drivers/STM32G4xx_HAL_Driver/Src/stm32g4xx_hal_dma.c ****     {
 1785              	 .loc 1 812 5 view .LVU715
 812:Drivers/STM32G4xx_HAL_Driver/Src/stm32g4xx_hal_dma.c ****     {
 1786              	 .loc 1 812 8 is_stmt 0 view .LVU716
 1787 0094 0029     	 cmp r1,#0
 1788 0096 E6D0     	 beq .L129
 815:Drivers/STM32G4xx_HAL_Driver/Src/stm32g4xx_hal_dma.c ****     }
 1789              	 .loc 1 815 7 is_stmt 1 view .LVU717
 823:Drivers/STM32G4xx_HAL_Driver/Src/stm32g4xx_hal_dma.c **** 
 1790              	 .loc 1 823 1 is_stmt 0 view .LVU718
 1791 0098 70BC     	 pop {r4,r5,r6}
 1792              	 .cfi_restore 6
 1793              	 .cfi_restore 5
 1794              	 .cfi_restore 4
 1795              	 .cfi_def_cfa_offset 0
 815:Drivers/STM32G4xx_HAL_Driver/Src/stm32g4xx_hal_dma.c ****     }
 1796              	 .loc 1 815 7 view .LVU719
 1797 009a 0847     	 bx r1
 1798              	.LVL98:
 815:Drivers/STM32G4xx_HAL_Driver/Src/stm32g4xx_hal_dma.c ****     }
 1799              	 .loc 1 815 7 view .LVU720
 1800              	 .cfi_endproc
 1801              	.LFE368:
 1803              	 .section .text.HAL_DMA_RegisterCallback,"ax",%progbits
 1804              	 .align 1
 1805              	 .p2align 2,,3
 1806              	 .global HAL_DMA_RegisterCallback
 1807              	 .syntax unified
 1808              	 .thumb
 1809              	 .thumb_func
 1811              	HAL_DMA_RegisterCallback:
 1812              	.LVL99:
 1813              	.LFB369:
 836:Drivers/STM32G4xx_HAL_Driver/Src/stm32g4xx_hal_dma.c ****   HAL_StatusTypeDef status = HAL_OK;
 1814              	 .loc 1 836 1 is_stmt 1 view-0
 1815              	 .cfi_startproc
 1816              	 
 1817              	 
 1818              	 
 837:Drivers/STM32G4xx_HAL_Driver/Src/stm32g4xx_hal_dma.c **** 
 1819              	 .loc 1 837 3 view .LVU722
 840:Drivers/STM32G4xx_HAL_Driver/Src/stm32g4xx_hal_dma.c **** 
 1820              	 .loc 1 840 3 view .LVU723
 840:Drivers/STM32G4xx_HAL_Driver/Src/stm32g4xx_hal_dma.c **** 
 1821              	 .loc 1 840 3 view .LVU724
 836:Drivers/STM32G4xx_HAL_Driver/Src/stm32g4xx_hal_dma.c ****   HAL_StatusTypeDef status = HAL_OK;
 1822              	 .loc 1 836 1 is_stmt 0 view .LVU725
 1823 0000 0346     	 mov r3,r0
 840:Drivers/STM32G4xx_HAL_Driver/Src/stm32g4xx_hal_dma.c **** 
 1824              	 .loc 1 840 3 view .LVU726
 1825 0002 90F82400 	 ldrb r0,[r0,#36]
 1826              	.LVL100:
 840:Drivers/STM32G4xx_HAL_Driver/Src/stm32g4xx_hal_dma.c **** 
 1827              	 .loc 1 840 3 view .LVU727
 1828 0006 0128     	 cmp r0,#1
 1829 0008 1AD0     	 beq .L172
ARM GAS   			page 64


 840:Drivers/STM32G4xx_HAL_Driver/Src/stm32g4xx_hal_dma.c **** 
 1830              	 .loc 1 840 3 is_stmt 1 discriminator 2 view .LVU728
 840:Drivers/STM32G4xx_HAL_Driver/Src/stm32g4xx_hal_dma.c **** 
 1831              	 .loc 1 840 3 discriminator 2 view .LVU729
 842:Drivers/STM32G4xx_HAL_Driver/Src/stm32g4xx_hal_dma.c ****   {
 1832              	 .loc 1 842 3 view .LVU730
 842:Drivers/STM32G4xx_HAL_Driver/Src/stm32g4xx_hal_dma.c ****   {
 1833              	 .loc 1 842 34 is_stmt 0 view .LVU731
 1834 000a 93F825C0 	 ldrb ip,[r3,#37]
 842:Drivers/STM32G4xx_HAL_Driver/Src/stm32g4xx_hal_dma.c ****   {
 1835              	 .loc 1 842 6 view .LVU732
 1836 000e BCF1010F 	 cmp ip,#1
 842:Drivers/STM32G4xx_HAL_Driver/Src/stm32g4xx_hal_dma.c ****   {
 1837              	 .loc 1 842 34 view .LVU733
 1838 0012 5FFA8CF0 	 uxtb r0,ip
 842:Drivers/STM32G4xx_HAL_Driver/Src/stm32g4xx_hal_dma.c ****   {
 1839              	 .loc 1 842 6 view .LVU734
 1840 0016 04D0     	 beq .L175
 1841 0018 0120     	 movs r0,#1
 1842              	.L165:
 1843              	.LVL101:
 873:Drivers/STM32G4xx_HAL_Driver/Src/stm32g4xx_hal_dma.c **** 
 1844              	 .loc 1 873 3 is_stmt 1 view .LVU735
 873:Drivers/STM32G4xx_HAL_Driver/Src/stm32g4xx_hal_dma.c **** 
 1845              	 .loc 1 873 3 view .LVU736
 1846 001a 0022     	 movs r2,#0
 1847              	.LVL102:
 873:Drivers/STM32G4xx_HAL_Driver/Src/stm32g4xx_hal_dma.c **** 
 1848              	 .loc 1 873 3 is_stmt 0 view .LVU737
 1849 001c 83F82420 	 strb r2,[r3,#36]
 873:Drivers/STM32G4xx_HAL_Driver/Src/stm32g4xx_hal_dma.c **** 
 1850              	 .loc 1 873 3 is_stmt 1 view .LVU738
 875:Drivers/STM32G4xx_HAL_Driver/Src/stm32g4xx_hal_dma.c **** }
 1851              	 .loc 1 875 3 view .LVU739
 875:Drivers/STM32G4xx_HAL_Driver/Src/stm32g4xx_hal_dma.c **** }
 1852              	 .loc 1 875 10 is_stmt 0 view .LVU740
 1853 0020 7047     	 bx lr
 1854              	.LVL103:
 1855              	.L175:
 844:Drivers/STM32G4xx_HAL_Driver/Src/stm32g4xx_hal_dma.c ****     {
 1856              	 .loc 1 844 5 is_stmt 1 view .LVU741
 1857 0022 0329     	 cmp r1,#3
 1858 0024 F9D8     	 bhi .L165
 1859 0026 DFE801F0 	 tbb [pc,r1]
 1860              	.L167:
 1861 002a 09       	 .byte (.L170-.L167)/2
 1862 002b 07       	 .byte (.L169-.L167)/2
 1863 002c 05       	 .byte (.L168-.L167)/2
 1864 002d 02       	 .byte (.L166-.L167)/2
 1865              	 .p2align 1
 1866              	.L166:
 859:Drivers/STM32G4xx_HAL_Driver/Src/stm32g4xx_hal_dma.c ****         break;
 1867              	 .loc 1 859 9 view .LVU742
 859:Drivers/STM32G4xx_HAL_Driver/Src/stm32g4xx_hal_dma.c ****         break;
 1868              	 .loc 1 859 33 is_stmt 0 view .LVU743
 1869 002e 9A63     	 str r2,[r3,#56]
 860:Drivers/STM32G4xx_HAL_Driver/Src/stm32g4xx_hal_dma.c **** 
ARM GAS   			page 65


 1870              	 .loc 1 860 9 is_stmt 1 view .LVU744
 1871              	.L171:
 837:Drivers/STM32G4xx_HAL_Driver/Src/stm32g4xx_hal_dma.c **** 
 1872              	 .loc 1 837 21 is_stmt 0 view .LVU745
 1873 0030 0020     	 movs r0,#0
 1874 0032 F2E7     	 b .L165
 1875              	.L168:
 855:Drivers/STM32G4xx_HAL_Driver/Src/stm32g4xx_hal_dma.c ****         break;
 1876              	 .loc 1 855 9 is_stmt 1 view .LVU746
 855:Drivers/STM32G4xx_HAL_Driver/Src/stm32g4xx_hal_dma.c ****         break;
 1877              	 .loc 1 855 33 is_stmt 0 view .LVU747
 1878 0034 5A63     	 str r2,[r3,#52]
 856:Drivers/STM32G4xx_HAL_Driver/Src/stm32g4xx_hal_dma.c **** 
 1879              	 .loc 1 856 9 is_stmt 1 view .LVU748
 1880 0036 FBE7     	 b .L171
 1881              	.L169:
 851:Drivers/STM32G4xx_HAL_Driver/Src/stm32g4xx_hal_dma.c ****         break;
 1882              	 .loc 1 851 9 view .LVU749
 851:Drivers/STM32G4xx_HAL_Driver/Src/stm32g4xx_hal_dma.c ****         break;
 1883              	 .loc 1 851 36 is_stmt 0 view .LVU750
 1884 0038 1A63     	 str r2,[r3,#48]
 852:Drivers/STM32G4xx_HAL_Driver/Src/stm32g4xx_hal_dma.c **** 
 1885              	 .loc 1 852 9 is_stmt 1 view .LVU751
 1886 003a F9E7     	 b .L171
 1887              	.L170:
 847:Drivers/STM32G4xx_HAL_Driver/Src/stm32g4xx_hal_dma.c ****         break;
 1888              	 .loc 1 847 9 view .LVU752
 847:Drivers/STM32G4xx_HAL_Driver/Src/stm32g4xx_hal_dma.c ****         break;
 1889              	 .loc 1 847 32 is_stmt 0 view .LVU753
 1890 003c DA62     	 str r2,[r3,#44]
 848:Drivers/STM32G4xx_HAL_Driver/Src/stm32g4xx_hal_dma.c **** 
 1891              	 .loc 1 848 9 is_stmt 1 view .LVU754
 1892 003e F7E7     	 b .L171
 1893              	.L172:
 840:Drivers/STM32G4xx_HAL_Driver/Src/stm32g4xx_hal_dma.c **** 
 1894              	 .loc 1 840 3 is_stmt 0 discriminator 1 view .LVU755
 1895 0040 0220     	 movs r0,#2
 876:Drivers/STM32G4xx_HAL_Driver/Src/stm32g4xx_hal_dma.c **** 
 1896              	 .loc 1 876 1 view .LVU756
 1897 0042 7047     	 bx lr
 1898              	 .cfi_endproc
 1899              	.LFE369:
 1901              	 .section .text.HAL_DMA_UnRegisterCallback,"ax",%progbits
 1902              	 .align 1
 1903              	 .p2align 2,,3
 1904              	 .global HAL_DMA_UnRegisterCallback
 1905              	 .syntax unified
 1906              	 .thumb
 1907              	 .thumb_func
 1909              	HAL_DMA_UnRegisterCallback:
 1910              	.LVL104:
 1911              	.LFB370:
 887:Drivers/STM32G4xx_HAL_Driver/Src/stm32g4xx_hal_dma.c ****   HAL_StatusTypeDef status = HAL_OK;
 1912              	 .loc 1 887 1 is_stmt 1 view-0
 1913              	 .cfi_startproc
 1914              	 
 1915              	 
ARM GAS   			page 66


 1916              	 
 888:Drivers/STM32G4xx_HAL_Driver/Src/stm32g4xx_hal_dma.c **** 
 1917              	 .loc 1 888 3 view .LVU758
 891:Drivers/STM32G4xx_HAL_Driver/Src/stm32g4xx_hal_dma.c **** 
 1918              	 .loc 1 891 3 view .LVU759
 891:Drivers/STM32G4xx_HAL_Driver/Src/stm32g4xx_hal_dma.c **** 
 1919              	 .loc 1 891 3 view .LVU760
 1920 0000 90F82420 	 ldrb r2,[r0,#36]
 1921 0004 012A     	 cmp r2,#1
 887:Drivers/STM32G4xx_HAL_Driver/Src/stm32g4xx_hal_dma.c ****   HAL_StatusTypeDef status = HAL_OK;
 1922              	 .loc 1 887 1 is_stmt 0 view .LVU761
 1923 0006 0346     	 mov r3,r0
 891:Drivers/STM32G4xx_HAL_Driver/Src/stm32g4xx_hal_dma.c **** 
 1924              	 .loc 1 891 3 view .LVU762
 1925 0008 14D0     	 beq .L186
 891:Drivers/STM32G4xx_HAL_Driver/Src/stm32g4xx_hal_dma.c **** 
 1926              	 .loc 1 891 3 is_stmt 1 discriminator 2 view .LVU763
 893:Drivers/STM32G4xx_HAL_Driver/Src/stm32g4xx_hal_dma.c ****   {
 1927              	 .loc 1 893 34 is_stmt 0 view .LVU764
 1928 000a 90F82520 	 ldrb r2,[r0,#37]
 891:Drivers/STM32G4xx_HAL_Driver/Src/stm32g4xx_hal_dma.c **** 
 1929              	 .loc 1 891 3 discriminator 2 view .LVU765
 1930 000e 4FF0010C 	 mov ip,#1
 893:Drivers/STM32G4xx_HAL_Driver/Src/stm32g4xx_hal_dma.c ****   {
 1931              	 .loc 1 893 6 view .LVU766
 1932 0012 6245     	 cmp r2,ip
 891:Drivers/STM32G4xx_HAL_Driver/Src/stm32g4xx_hal_dma.c **** 
 1933              	 .loc 1 891 3 discriminator 2 view .LVU767
 1934 0014 80F824C0 	 strb ip,[r0,#36]
 891:Drivers/STM32G4xx_HAL_Driver/Src/stm32g4xx_hal_dma.c **** 
 1935              	 .loc 1 891 3 is_stmt 1 discriminator 2 view .LVU768
 893:Drivers/STM32G4xx_HAL_Driver/Src/stm32g4xx_hal_dma.c ****   {
 1936              	 .loc 1 893 3 view .LVU769
 893:Drivers/STM32G4xx_HAL_Driver/Src/stm32g4xx_hal_dma.c ****   {
 1937              	 .loc 1 893 34 is_stmt 0 view .LVU770
 1938 0018 D0B2     	 uxtb r0,r2
 1939              	.LVL105:
 893:Drivers/STM32G4xx_HAL_Driver/Src/stm32g4xx_hal_dma.c ****   {
 1940              	 .loc 1 893 6 view .LVU771
 1941 001a 04D0     	 beq .L189
 1942 001c 6046     	 mov r0,ip
 1943              	.L178:
 1944              	.LVL106:
 931:Drivers/STM32G4xx_HAL_Driver/Src/stm32g4xx_hal_dma.c **** 
 1945              	 .loc 1 931 3 is_stmt 1 view .LVU772
 931:Drivers/STM32G4xx_HAL_Driver/Src/stm32g4xx_hal_dma.c **** 
 1946              	 .loc 1 931 3 view .LVU773
 1947 001e 0022     	 movs r2,#0
 1948 0020 83F82420 	 strb r2,[r3,#36]
 931:Drivers/STM32G4xx_HAL_Driver/Src/stm32g4xx_hal_dma.c **** 
 1949              	 .loc 1 931 3 view .LVU774
 933:Drivers/STM32G4xx_HAL_Driver/Src/stm32g4xx_hal_dma.c **** }
 1950              	 .loc 1 933 3 view .LVU775
 933:Drivers/STM32G4xx_HAL_Driver/Src/stm32g4xx_hal_dma.c **** }
 1951              	 .loc 1 933 10 is_stmt 0 view .LVU776
 1952 0024 7047     	 bx lr
 1953              	.LVL107:
ARM GAS   			page 67


 1954              	.L189:
 895:Drivers/STM32G4xx_HAL_Driver/Src/stm32g4xx_hal_dma.c ****     {
 1955              	 .loc 1 895 5 is_stmt 1 view .LVU777
 1956 0026 0429     	 cmp r1,#4
 1957 0028 F9D8     	 bhi .L178
 1958 002a DFE801F0 	 tbb [pc,r1]
 1959              	.L180:
 1960 002e 0C       	 .byte (.L184-.L180)/2
 1961 002f 0F       	 .byte (.L183-.L180)/2
 1962 0030 12       	 .byte (.L182-.L180)/2
 1963 0031 15       	 .byte (.L181-.L180)/2
 1964 0032 05       	 .byte (.L179-.L180)/2
 1965              	.LVL108:
 1966 0033 00       	 .p2align 1
 1967              	.L186:
 891:Drivers/STM32G4xx_HAL_Driver/Src/stm32g4xx_hal_dma.c **** 
 1968              	 .loc 1 891 3 is_stmt 0 discriminator 1 view .LVU778
 1969 0034 0220     	 movs r0,#2
 1970              	.LVL109:
 934:Drivers/STM32G4xx_HAL_Driver/Src/stm32g4xx_hal_dma.c **** 
 1971              	 .loc 1 934 1 view .LVU779
 1972 0036 7047     	 bx lr
 1973              	.L179:
 914:Drivers/STM32G4xx_HAL_Driver/Src/stm32g4xx_hal_dma.c ****         hdma->XferHalfCpltCallback = NULL;
 1974              	 .loc 1 914 9 is_stmt 1 view .LVU780
 915:Drivers/STM32G4xx_HAL_Driver/Src/stm32g4xx_hal_dma.c ****         hdma->XferErrorCallback = NULL;
 1975              	 .loc 1 915 9 view .LVU781
 916:Drivers/STM32G4xx_HAL_Driver/Src/stm32g4xx_hal_dma.c ****         hdma->XferAbortCallback = NULL;
 1976              	 .loc 1 916 9 view .LVU782
 917:Drivers/STM32G4xx_HAL_Driver/Src/stm32g4xx_hal_dma.c ****         break;
 1977              	 .loc 1 917 9 view .LVU783
 914:Drivers/STM32G4xx_HAL_Driver/Src/stm32g4xx_hal_dma.c ****         hdma->XferHalfCpltCallback = NULL;
 1978              	 .loc 1 914 32 is_stmt 0 view .LVU784
 1979 0038 0022     	 movs r2,#0
 1980 003a C3E90B22 	 strd r2,r2,[r3,#44]
 1981 003e C3E90D22 	 strd r2,r2,[r3,#52]
 918:Drivers/STM32G4xx_HAL_Driver/Src/stm32g4xx_hal_dma.c **** 
 1982              	 .loc 1 918 9 is_stmt 1 view .LVU785
 1983              	.L185:
 888:Drivers/STM32G4xx_HAL_Driver/Src/stm32g4xx_hal_dma.c **** 
 1984              	 .loc 1 888 21 is_stmt 0 view .LVU786
 1985 0042 0020     	 movs r0,#0
 1986 0044 EBE7     	 b .L178
 1987              	.L184:
 898:Drivers/STM32G4xx_HAL_Driver/Src/stm32g4xx_hal_dma.c ****         break;
 1988              	 .loc 1 898 9 is_stmt 1 view .LVU787
 898:Drivers/STM32G4xx_HAL_Driver/Src/stm32g4xx_hal_dma.c ****         break;
 1989              	 .loc 1 898 32 is_stmt 0 view .LVU788
 1990 0046 0022     	 movs r2,#0
 1991 0048 DA62     	 str r2,[r3,#44]
 899:Drivers/STM32G4xx_HAL_Driver/Src/stm32g4xx_hal_dma.c **** 
 1992              	 .loc 1 899 9 is_stmt 1 view .LVU789
 1993 004a FAE7     	 b .L185
 1994              	.L183:
 902:Drivers/STM32G4xx_HAL_Driver/Src/stm32g4xx_hal_dma.c ****         break;
 1995              	 .loc 1 902 9 view .LVU790
 902:Drivers/STM32G4xx_HAL_Driver/Src/stm32g4xx_hal_dma.c ****         break;
ARM GAS   			page 68


 1996              	 .loc 1 902 36 is_stmt 0 view .LVU791
 1997 004c 0022     	 movs r2,#0
 1998 004e 1A63     	 str r2,[r3,#48]
 903:Drivers/STM32G4xx_HAL_Driver/Src/stm32g4xx_hal_dma.c **** 
 1999              	 .loc 1 903 9 is_stmt 1 view .LVU792
 2000 0050 F7E7     	 b .L185
 2001              	.L182:
 906:Drivers/STM32G4xx_HAL_Driver/Src/stm32g4xx_hal_dma.c ****         break;
 2002              	 .loc 1 906 9 view .LVU793
 906:Drivers/STM32G4xx_HAL_Driver/Src/stm32g4xx_hal_dma.c ****         break;
 2003              	 .loc 1 906 33 is_stmt 0 view .LVU794
 2004 0052 0022     	 movs r2,#0
 2005 0054 5A63     	 str r2,[r3,#52]
 907:Drivers/STM32G4xx_HAL_Driver/Src/stm32g4xx_hal_dma.c **** 
 2006              	 .loc 1 907 9 is_stmt 1 view .LVU795
 2007 0056 F4E7     	 b .L185
 2008              	.L181:
 910:Drivers/STM32G4xx_HAL_Driver/Src/stm32g4xx_hal_dma.c ****         break;
 2009              	 .loc 1 910 9 view .LVU796
 910:Drivers/STM32G4xx_HAL_Driver/Src/stm32g4xx_hal_dma.c ****         break;
 2010              	 .loc 1 910 33 is_stmt 0 view .LVU797
 2011 0058 0022     	 movs r2,#0
 2012 005a 9A63     	 str r2,[r3,#56]
 911:Drivers/STM32G4xx_HAL_Driver/Src/stm32g4xx_hal_dma.c **** 
 2013              	 .loc 1 911 9 is_stmt 1 view .LVU798
 2014 005c F1E7     	 b .L185
 2015              	 .cfi_endproc
 2016              	.LFE370:
 2018 005e 00BF     	 .section .text.HAL_DMA_GetState,"ax",%progbits
 2019              	 .align 1
 2020              	 .p2align 2,,3
 2021              	 .global HAL_DMA_GetState
 2022              	 .syntax unified
 2023              	 .thumb
 2024              	 .thumb_func
 2026              	HAL_DMA_GetState:
 2027              	.LVL110:
 2028              	.LFB371:
 965:Drivers/STM32G4xx_HAL_Driver/Src/stm32g4xx_hal_dma.c ****   /* Return DMA handle state */
 2029              	 .loc 1 965 1 view-0
 2030              	 .cfi_startproc
 2031              	 
 2032              	 
 2033              	 
 967:Drivers/STM32G4xx_HAL_Driver/Src/stm32g4xx_hal_dma.c **** }
 2034              	 .loc 1 967 3 view .LVU800
 967:Drivers/STM32G4xx_HAL_Driver/Src/stm32g4xx_hal_dma.c **** }
 2035              	 .loc 1 967 14 is_stmt 0 view .LVU801
 2036 0000 90F82500 	 ldrb r0,[r0,#37]
 2037              	.LVL111:
 968:Drivers/STM32G4xx_HAL_Driver/Src/stm32g4xx_hal_dma.c **** 
 2038              	 .loc 1 968 1 view .LVU802
 2039 0004 7047     	 bx lr
 2040              	 .cfi_endproc
 2041              	.LFE371:
 2043 0006 00BF     	 .section .text.HAL_DMA_GetError,"ax",%progbits
 2044              	 .align 1
ARM GAS   			page 69


 2045              	 .p2align 2,,3
 2046              	 .global HAL_DMA_GetError
 2047              	 .syntax unified
 2048              	 .thumb
 2049              	 .thumb_func
 2051              	HAL_DMA_GetError:
 2052              	.LVL112:
 2053              	.LFB372:
 977:Drivers/STM32G4xx_HAL_Driver/Src/stm32g4xx_hal_dma.c ****   return hdma->ErrorCode;
 2054              	 .loc 1 977 1 is_stmt 1 view-0
 2055              	 .cfi_startproc
 2056              	 
 2057              	 
 2058              	 
 978:Drivers/STM32G4xx_HAL_Driver/Src/stm32g4xx_hal_dma.c **** }
 2059              	 .loc 1 978 3 view .LVU804
 978:Drivers/STM32G4xx_HAL_Driver/Src/stm32g4xx_hal_dma.c **** }
 2060              	 .loc 1 978 14 is_stmt 0 view .LVU805
 2061 0000 C06B     	 ldr r0,[r0,#60]
 2062              	.LVL113:
 979:Drivers/STM32G4xx_HAL_Driver/Src/stm32g4xx_hal_dma.c **** 
 2063              	 .loc 1 979 1 view .LVU806
 2064 0002 7047     	 bx lr
 2065              	 .cfi_endproc
 2066              	.LFE372:
 2068              	 .text
 2069              	.Letext0:
 2070              	 .file 2 "D:/msys2/mingw64/arm-none-eabi/include/machine/_default_types.h"
 2071              	 .file 3 "D:/msys2/mingw64/arm-none-eabi/include/sys/_stdint.h"
 2072              	 .file 4 "Drivers/CMSIS/Device/ST/STM32G4xx/Include/stm32g474xx.h"
 2073              	 .file 5 "Drivers/STM32G4xx_HAL_Driver/Inc/stm32g4xx_hal_def.h"
 2074              	 .file 6 "Drivers/STM32G4xx_HAL_Driver/Inc/stm32g4xx_hal_dma.h"
 2075              	 .file 7 "Drivers/STM32G4xx_HAL_Driver/Inc/stm32g4xx_hal.h"
ARM GAS   			page 70

