ARM GAS   			page 1


   1              	 .cpu cortex-m4
   2              	 .arch armv7e-m
   3              	 .fpu fpv4-sp-d16
   4              	 .eabi_attribute 27,1
   5              	 .eabi_attribute 28,1
   6              	 .eabi_attribute 23,1
   7              	 .eabi_attribute 24,1
   8              	 .eabi_attribute 25,1
   9              	 .eabi_attribute 26,1
  10              	 .eabi_attribute 30,2
  11              	 .eabi_attribute 34,1
  12              	 .eabi_attribute 18,4
  13              	 .file "stm32g4xx_hal_pwr_ex.c"
  14              	 .text
  15              	.Ltext0:
  16              	 .cfi_sections .debug_frame
  17              	 .file 1 "Drivers/STM32G4xx_HAL_Driver/Src/stm32g4xx_hal_pwr_ex.c"
  18              	 .section .text.HAL_PWREx_GetVoltageRange,"ax",%progbits
  19              	 .align 1
  20              	 .p2align 2,,3
  21              	 .global HAL_PWREx_GetVoltageRange
  22              	 .syntax unified
  23              	 .thumb
  24              	 .thumb_func
  26              	HAL_PWREx_GetVoltageRange:
  27              	.LFB361:
   1:Drivers/STM32G4xx_HAL_Driver/Src/stm32g4xx_hal_pwr_ex.c **** /**
   2:Drivers/STM32G4xx_HAL_Driver/Src/stm32g4xx_hal_pwr_ex.c ****   ******************************************************************************
   3:Drivers/STM32G4xx_HAL_Driver/Src/stm32g4xx_hal_pwr_ex.c ****   * @file    stm32g4xx_hal_pwr_ex.c
   4:Drivers/STM32G4xx_HAL_Driver/Src/stm32g4xx_hal_pwr_ex.c ****   * @author  MCD Application Team
   5:Drivers/STM32G4xx_HAL_Driver/Src/stm32g4xx_hal_pwr_ex.c ****   * @brief   Extended PWR HAL module driver.
   6:Drivers/STM32G4xx_HAL_Driver/Src/stm32g4xx_hal_pwr_ex.c ****   *          This file provides firmware functions to manage the following
   7:Drivers/STM32G4xx_HAL_Driver/Src/stm32g4xx_hal_pwr_ex.c ****   *          functionalities of the Power Controller (PWR) peripheral:
   8:Drivers/STM32G4xx_HAL_Driver/Src/stm32g4xx_hal_pwr_ex.c ****   *           + Extended Initialization and de-initialization functions
   9:Drivers/STM32G4xx_HAL_Driver/Src/stm32g4xx_hal_pwr_ex.c ****   *           + Extended Peripheral Control functions
  10:Drivers/STM32G4xx_HAL_Driver/Src/stm32g4xx_hal_pwr_ex.c ****   *
  11:Drivers/STM32G4xx_HAL_Driver/Src/stm32g4xx_hal_pwr_ex.c ****   ******************************************************************************
  12:Drivers/STM32G4xx_HAL_Driver/Src/stm32g4xx_hal_pwr_ex.c ****   * @attention
  13:Drivers/STM32G4xx_HAL_Driver/Src/stm32g4xx_hal_pwr_ex.c ****   *
  14:Drivers/STM32G4xx_HAL_Driver/Src/stm32g4xx_hal_pwr_ex.c ****   * Copyright (c) 2019 STMicroelectronics.
  15:Drivers/STM32G4xx_HAL_Driver/Src/stm32g4xx_hal_pwr_ex.c ****   * All rights reserved.
  16:Drivers/STM32G4xx_HAL_Driver/Src/stm32g4xx_hal_pwr_ex.c ****   *
  17:Drivers/STM32G4xx_HAL_Driver/Src/stm32g4xx_hal_pwr_ex.c ****   * This software is licensed under terms that can be found in the LICENSE file
  18:Drivers/STM32G4xx_HAL_Driver/Src/stm32g4xx_hal_pwr_ex.c ****   * in the root directory of this software component.
  19:Drivers/STM32G4xx_HAL_Driver/Src/stm32g4xx_hal_pwr_ex.c ****   * If no LICENSE file comes with this software, it is provided AS-IS.
  20:Drivers/STM32G4xx_HAL_Driver/Src/stm32g4xx_hal_pwr_ex.c ****   *
  21:Drivers/STM32G4xx_HAL_Driver/Src/stm32g4xx_hal_pwr_ex.c ****   ******************************************************************************
  22:Drivers/STM32G4xx_HAL_Driver/Src/stm32g4xx_hal_pwr_ex.c ****   */
  23:Drivers/STM32G4xx_HAL_Driver/Src/stm32g4xx_hal_pwr_ex.c **** 
  24:Drivers/STM32G4xx_HAL_Driver/Src/stm32g4xx_hal_pwr_ex.c **** /* Includes ------------------------------------------------------------------*/
  25:Drivers/STM32G4xx_HAL_Driver/Src/stm32g4xx_hal_pwr_ex.c **** #include "stm32g4xx_hal.h"
  26:Drivers/STM32G4xx_HAL_Driver/Src/stm32g4xx_hal_pwr_ex.c **** 
  27:Drivers/STM32G4xx_HAL_Driver/Src/stm32g4xx_hal_pwr_ex.c **** /** @addtogroup STM32G4xx_HAL_Driver
  28:Drivers/STM32G4xx_HAL_Driver/Src/stm32g4xx_hal_pwr_ex.c ****   * @{
  29:Drivers/STM32G4xx_HAL_Driver/Src/stm32g4xx_hal_pwr_ex.c ****   */
  30:Drivers/STM32G4xx_HAL_Driver/Src/stm32g4xx_hal_pwr_ex.c **** 
  31:Drivers/STM32G4xx_HAL_Driver/Src/stm32g4xx_hal_pwr_ex.c **** /** @defgroup PWREx PWREx
ARM GAS   			page 2


  32:Drivers/STM32G4xx_HAL_Driver/Src/stm32g4xx_hal_pwr_ex.c ****   * @brief PWR Extended HAL module driver
  33:Drivers/STM32G4xx_HAL_Driver/Src/stm32g4xx_hal_pwr_ex.c ****   * @{
  34:Drivers/STM32G4xx_HAL_Driver/Src/stm32g4xx_hal_pwr_ex.c ****   */
  35:Drivers/STM32G4xx_HAL_Driver/Src/stm32g4xx_hal_pwr_ex.c **** 
  36:Drivers/STM32G4xx_HAL_Driver/Src/stm32g4xx_hal_pwr_ex.c **** #ifdef HAL_PWR_MODULE_ENABLED
  37:Drivers/STM32G4xx_HAL_Driver/Src/stm32g4xx_hal_pwr_ex.c **** 
  38:Drivers/STM32G4xx_HAL_Driver/Src/stm32g4xx_hal_pwr_ex.c **** /* Private typedef -----------------------------------------------------------*/
  39:Drivers/STM32G4xx_HAL_Driver/Src/stm32g4xx_hal_pwr_ex.c **** /* Private define ------------------------------------------------------------*/
  40:Drivers/STM32G4xx_HAL_Driver/Src/stm32g4xx_hal_pwr_ex.c **** 
  41:Drivers/STM32G4xx_HAL_Driver/Src/stm32g4xx_hal_pwr_ex.c **** 
  42:Drivers/STM32G4xx_HAL_Driver/Src/stm32g4xx_hal_pwr_ex.c **** #if defined (STM32G471xx) || defined (STM32G473xx) || defined (STM32G414xx) || defined (STM32G474xx
  43:Drivers/STM32G4xx_HAL_Driver/Src/stm32g4xx_hal_pwr_ex.c **** #define PWR_PORTF_AVAILABLE_PINS   0x0000FFFFU /* PF0..PF15 */
  44:Drivers/STM32G4xx_HAL_Driver/Src/stm32g4xx_hal_pwr_ex.c **** #define PWR_PORTG_AVAILABLE_PINS   0x000007FFU /* PG0..PG10 */
  45:Drivers/STM32G4xx_HAL_Driver/Src/stm32g4xx_hal_pwr_ex.c **** #elif defined (STM32G411xB) || defined (STM32G411xC) || defined (STM32G431xx) || defined (STM32G441
  46:Drivers/STM32G4xx_HAL_Driver/Src/stm32g4xx_hal_pwr_ex.c **** #define PWR_PORTF_AVAILABLE_PINS   0x00000607U /* PF0..PF2 and PF9 and PF10 */
  47:Drivers/STM32G4xx_HAL_Driver/Src/stm32g4xx_hal_pwr_ex.c **** #define PWR_PORTG_AVAILABLE_PINS   0x00000400U /* PG10 */
  48:Drivers/STM32G4xx_HAL_Driver/Src/stm32g4xx_hal_pwr_ex.c **** #endif /* STM32G471xx || STM32G473xx || STM32G414xx || STM32G474xx || STM32G483xx || STM32G484xx */
  49:Drivers/STM32G4xx_HAL_Driver/Src/stm32g4xx_hal_pwr_ex.c **** 
  50:Drivers/STM32G4xx_HAL_Driver/Src/stm32g4xx_hal_pwr_ex.c **** /** @defgroup PWR_Extended_Private_Defines PWR Extended Private Defines
  51:Drivers/STM32G4xx_HAL_Driver/Src/stm32g4xx_hal_pwr_ex.c ****   * @{
  52:Drivers/STM32G4xx_HAL_Driver/Src/stm32g4xx_hal_pwr_ex.c ****   */
  53:Drivers/STM32G4xx_HAL_Driver/Src/stm32g4xx_hal_pwr_ex.c **** 
  54:Drivers/STM32G4xx_HAL_Driver/Src/stm32g4xx_hal_pwr_ex.c **** /** @defgroup PWREx_PVM_Mode_Mask PWR PVM Mode Mask
  55:Drivers/STM32G4xx_HAL_Driver/Src/stm32g4xx_hal_pwr_ex.c ****   * @{
  56:Drivers/STM32G4xx_HAL_Driver/Src/stm32g4xx_hal_pwr_ex.c ****   */
  57:Drivers/STM32G4xx_HAL_Driver/Src/stm32g4xx_hal_pwr_ex.c **** #define PVM_MODE_IT               0x00010000U    /*!< Mask for interruption yielded by PVM threshol
  58:Drivers/STM32G4xx_HAL_Driver/Src/stm32g4xx_hal_pwr_ex.c **** #define PVM_MODE_EVT              0x00020000U    /*!< Mask for event yielded by PVM threshold cross
  59:Drivers/STM32G4xx_HAL_Driver/Src/stm32g4xx_hal_pwr_ex.c **** #define PVM_RISING_EDGE           0x00000001U    /*!< Mask for rising edge set as PVM trigger      
  60:Drivers/STM32G4xx_HAL_Driver/Src/stm32g4xx_hal_pwr_ex.c **** #define PVM_FALLING_EDGE          0x00000002U    /*!< Mask for falling edge set as PVM trigger     
  61:Drivers/STM32G4xx_HAL_Driver/Src/stm32g4xx_hal_pwr_ex.c **** /**
  62:Drivers/STM32G4xx_HAL_Driver/Src/stm32g4xx_hal_pwr_ex.c ****   * @}
  63:Drivers/STM32G4xx_HAL_Driver/Src/stm32g4xx_hal_pwr_ex.c ****   */
  64:Drivers/STM32G4xx_HAL_Driver/Src/stm32g4xx_hal_pwr_ex.c **** 
  65:Drivers/STM32G4xx_HAL_Driver/Src/stm32g4xx_hal_pwr_ex.c **** /** @defgroup PWREx_TimeOut_Value PWR Extended Flag Setting Time Out Value
  66:Drivers/STM32G4xx_HAL_Driver/Src/stm32g4xx_hal_pwr_ex.c ****   * @{
  67:Drivers/STM32G4xx_HAL_Driver/Src/stm32g4xx_hal_pwr_ex.c ****   */
  68:Drivers/STM32G4xx_HAL_Driver/Src/stm32g4xx_hal_pwr_ex.c **** #define PWR_FLAG_SETTING_DELAY_US                      50UL   /*!< Time out value for REGLPF and VO
  69:Drivers/STM32G4xx_HAL_Driver/Src/stm32g4xx_hal_pwr_ex.c **** /**
  70:Drivers/STM32G4xx_HAL_Driver/Src/stm32g4xx_hal_pwr_ex.c ****   * @}
  71:Drivers/STM32G4xx_HAL_Driver/Src/stm32g4xx_hal_pwr_ex.c ****   */
  72:Drivers/STM32G4xx_HAL_Driver/Src/stm32g4xx_hal_pwr_ex.c **** 
  73:Drivers/STM32G4xx_HAL_Driver/Src/stm32g4xx_hal_pwr_ex.c **** 
  74:Drivers/STM32G4xx_HAL_Driver/Src/stm32g4xx_hal_pwr_ex.c **** 
  75:Drivers/STM32G4xx_HAL_Driver/Src/stm32g4xx_hal_pwr_ex.c **** /**
  76:Drivers/STM32G4xx_HAL_Driver/Src/stm32g4xx_hal_pwr_ex.c ****   * @}
  77:Drivers/STM32G4xx_HAL_Driver/Src/stm32g4xx_hal_pwr_ex.c ****   */
  78:Drivers/STM32G4xx_HAL_Driver/Src/stm32g4xx_hal_pwr_ex.c **** 
  79:Drivers/STM32G4xx_HAL_Driver/Src/stm32g4xx_hal_pwr_ex.c **** 
  80:Drivers/STM32G4xx_HAL_Driver/Src/stm32g4xx_hal_pwr_ex.c **** 
  81:Drivers/STM32G4xx_HAL_Driver/Src/stm32g4xx_hal_pwr_ex.c **** /* Private macro -------------------------------------------------------------*/
  82:Drivers/STM32G4xx_HAL_Driver/Src/stm32g4xx_hal_pwr_ex.c **** /* Private variables ---------------------------------------------------------*/
  83:Drivers/STM32G4xx_HAL_Driver/Src/stm32g4xx_hal_pwr_ex.c **** /* Private function prototypes -----------------------------------------------*/
  84:Drivers/STM32G4xx_HAL_Driver/Src/stm32g4xx_hal_pwr_ex.c **** /* Exported functions --------------------------------------------------------*/
  85:Drivers/STM32G4xx_HAL_Driver/Src/stm32g4xx_hal_pwr_ex.c **** 
  86:Drivers/STM32G4xx_HAL_Driver/Src/stm32g4xx_hal_pwr_ex.c **** /** @defgroup PWREx_Exported_Functions PWR Extended Exported Functions
  87:Drivers/STM32G4xx_HAL_Driver/Src/stm32g4xx_hal_pwr_ex.c ****   * @{
  88:Drivers/STM32G4xx_HAL_Driver/Src/stm32g4xx_hal_pwr_ex.c ****   */
ARM GAS   			page 3


  89:Drivers/STM32G4xx_HAL_Driver/Src/stm32g4xx_hal_pwr_ex.c **** 
  90:Drivers/STM32G4xx_HAL_Driver/Src/stm32g4xx_hal_pwr_ex.c **** /** @defgroup PWREx_Exported_Functions_Group1 Extended Peripheral Control functions
  91:Drivers/STM32G4xx_HAL_Driver/Src/stm32g4xx_hal_pwr_ex.c ****   *  @brief   Extended Peripheral Control functions
  92:Drivers/STM32G4xx_HAL_Driver/Src/stm32g4xx_hal_pwr_ex.c ****   *
  93:Drivers/STM32G4xx_HAL_Driver/Src/stm32g4xx_hal_pwr_ex.c **** @verbatim
  94:Drivers/STM32G4xx_HAL_Driver/Src/stm32g4xx_hal_pwr_ex.c ****  ===============================================================================
  95:Drivers/STM32G4xx_HAL_Driver/Src/stm32g4xx_hal_pwr_ex.c ****               ##### Extended Peripheral Initialization and de-initialization functions #####
  96:Drivers/STM32G4xx_HAL_Driver/Src/stm32g4xx_hal_pwr_ex.c ****  ===============================================================================
  97:Drivers/STM32G4xx_HAL_Driver/Src/stm32g4xx_hal_pwr_ex.c ****     [..]
  98:Drivers/STM32G4xx_HAL_Driver/Src/stm32g4xx_hal_pwr_ex.c **** 
  99:Drivers/STM32G4xx_HAL_Driver/Src/stm32g4xx_hal_pwr_ex.c **** @endverbatim
 100:Drivers/STM32G4xx_HAL_Driver/Src/stm32g4xx_hal_pwr_ex.c ****   * @{
 101:Drivers/STM32G4xx_HAL_Driver/Src/stm32g4xx_hal_pwr_ex.c ****   */
 102:Drivers/STM32G4xx_HAL_Driver/Src/stm32g4xx_hal_pwr_ex.c **** 
 103:Drivers/STM32G4xx_HAL_Driver/Src/stm32g4xx_hal_pwr_ex.c **** 
 104:Drivers/STM32G4xx_HAL_Driver/Src/stm32g4xx_hal_pwr_ex.c **** /**
 105:Drivers/STM32G4xx_HAL_Driver/Src/stm32g4xx_hal_pwr_ex.c ****   * @brief Return Voltage Scaling Range.
 106:Drivers/STM32G4xx_HAL_Driver/Src/stm32g4xx_hal_pwr_ex.c ****   * @retval VOS bit field (PWR_REGULATOR_VOLTAGE_SCALE1 or PWR_REGULATOR_VOLTAGE_SCALE2
 107:Drivers/STM32G4xx_HAL_Driver/Src/stm32g4xx_hal_pwr_ex.c ****   *         or PWR_REGULATOR_VOLTAGE_SCALE1_BOOST when applicable)
 108:Drivers/STM32G4xx_HAL_Driver/Src/stm32g4xx_hal_pwr_ex.c ****   */
 109:Drivers/STM32G4xx_HAL_Driver/Src/stm32g4xx_hal_pwr_ex.c **** uint32_t HAL_PWREx_GetVoltageRange(void)
 110:Drivers/STM32G4xx_HAL_Driver/Src/stm32g4xx_hal_pwr_ex.c **** {
  28              	 .loc 1 110 1 view-0
  29              	 .cfi_startproc
  30              	 
  31              	 
  32              	 
 111:Drivers/STM32G4xx_HAL_Driver/Src/stm32g4xx_hal_pwr_ex.c ****   if (READ_BIT(PWR->CR1, PWR_CR1_VOS) == PWR_REGULATOR_VOLTAGE_SCALE2)
  33              	 .loc 1 111 3 view .LVU1
  34              	 .loc 1 111 7 is_stmt 0 view .LVU2
  35 0000 064B     	 ldr r3,.L7
  36 0002 1868     	 ldr r0,[r3]
  37 0004 00F4C060 	 and r0,r0,#1536
  38              	 .loc 1 111 6 view .LVU3
  39 0008 B0F5806F 	 cmp r0,#1024
  40 000c 04D0     	 beq .L1
 112:Drivers/STM32G4xx_HAL_Driver/Src/stm32g4xx_hal_pwr_ex.c ****   {
 113:Drivers/STM32G4xx_HAL_Driver/Src/stm32g4xx_hal_pwr_ex.c ****     return PWR_REGULATOR_VOLTAGE_SCALE2;
 114:Drivers/STM32G4xx_HAL_Driver/Src/stm32g4xx_hal_pwr_ex.c ****   }
 115:Drivers/STM32G4xx_HAL_Driver/Src/stm32g4xx_hal_pwr_ex.c ****   else if (READ_BIT(PWR->CR5, PWR_CR5_R1MODE) == PWR_CR5_R1MODE)
  41              	 .loc 1 115 8 is_stmt 1 view .LVU4
  42              	 .loc 1 115 12 is_stmt 0 view .LVU5
  43 000e D3F88000 	 ldr r0,[r3,#128]
  44              	 .loc 1 115 11 view .LVU6
  45 0012 C0F30020 	 ubfx r0,r0,#8,#1
  46 0016 4002     	 lsls r0,r0,#9
  47              	.L1:
 116:Drivers/STM32G4xx_HAL_Driver/Src/stm32g4xx_hal_pwr_ex.c ****   {
 117:Drivers/STM32G4xx_HAL_Driver/Src/stm32g4xx_hal_pwr_ex.c ****     /* PWR_CR5_R1MODE bit set means that Range 1 Boost is disabled */
 118:Drivers/STM32G4xx_HAL_Driver/Src/stm32g4xx_hal_pwr_ex.c ****     return PWR_REGULATOR_VOLTAGE_SCALE1;
 119:Drivers/STM32G4xx_HAL_Driver/Src/stm32g4xx_hal_pwr_ex.c ****   }
 120:Drivers/STM32G4xx_HAL_Driver/Src/stm32g4xx_hal_pwr_ex.c ****   else
 121:Drivers/STM32G4xx_HAL_Driver/Src/stm32g4xx_hal_pwr_ex.c ****   {
 122:Drivers/STM32G4xx_HAL_Driver/Src/stm32g4xx_hal_pwr_ex.c ****     return PWR_REGULATOR_VOLTAGE_SCALE1_BOOST;
 123:Drivers/STM32G4xx_HAL_Driver/Src/stm32g4xx_hal_pwr_ex.c ****   }
 124:Drivers/STM32G4xx_HAL_Driver/Src/stm32g4xx_hal_pwr_ex.c **** }
  48              	 .loc 1 124 1 view .LVU7
ARM GAS   			page 4


  49 0018 7047     	 bx lr
  50              	.L8:
  51 001a 00BF     	 .align 2
  52              	.L7:
  53 001c 00700040 	 .word 1073770496
  54              	 .cfi_endproc
  55              	.LFE361:
  57              	 .section .text.HAL_PWREx_ControlVoltageScaling,"ax",%progbits
  58              	 .align 1
  59              	 .p2align 2,,3
  60              	 .global HAL_PWREx_ControlVoltageScaling
  61              	 .syntax unified
  62              	 .thumb
  63              	 .thumb_func
  65              	HAL_PWREx_ControlVoltageScaling:
  66              	.LVL0:
  67              	.LFB362:
 125:Drivers/STM32G4xx_HAL_Driver/Src/stm32g4xx_hal_pwr_ex.c **** 
 126:Drivers/STM32G4xx_HAL_Driver/Src/stm32g4xx_hal_pwr_ex.c **** 
 127:Drivers/STM32G4xx_HAL_Driver/Src/stm32g4xx_hal_pwr_ex.c **** 
 128:Drivers/STM32G4xx_HAL_Driver/Src/stm32g4xx_hal_pwr_ex.c **** /**
 129:Drivers/STM32G4xx_HAL_Driver/Src/stm32g4xx_hal_pwr_ex.c ****   * @brief Configure the main internal regulator output voltage.
 130:Drivers/STM32G4xx_HAL_Driver/Src/stm32g4xx_hal_pwr_ex.c ****   * @param  VoltageScaling: specifies the regulator output voltage to achieve
 131:Drivers/STM32G4xx_HAL_Driver/Src/stm32g4xx_hal_pwr_ex.c ****   *         a tradeoff between performance and power consumption.
 132:Drivers/STM32G4xx_HAL_Driver/Src/stm32g4xx_hal_pwr_ex.c ****   *          This parameter can be one of the following values:
 133:Drivers/STM32G4xx_HAL_Driver/Src/stm32g4xx_hal_pwr_ex.c ****   *            @arg @ref PWR_REGULATOR_VOLTAGE_SCALE1_BOOST when available, Regulator voltage outpu
 134:Drivers/STM32G4xx_HAL_Driver/Src/stm32g4xx_hal_pwr_ex.c ****   *                                                typical output voltage at 1.28 V,
 135:Drivers/STM32G4xx_HAL_Driver/Src/stm32g4xx_hal_pwr_ex.c ****   *                                                system frequency up to 170 MHz.
 136:Drivers/STM32G4xx_HAL_Driver/Src/stm32g4xx_hal_pwr_ex.c ****   *            @arg @ref PWR_REGULATOR_VOLTAGE_SCALE1 Regulator voltage output range 1 mode,
 137:Drivers/STM32G4xx_HAL_Driver/Src/stm32g4xx_hal_pwr_ex.c ****   *                                                typical output voltage at 1.2 V,
 138:Drivers/STM32G4xx_HAL_Driver/Src/stm32g4xx_hal_pwr_ex.c ****   *                                                system frequency up to 150 MHz.
 139:Drivers/STM32G4xx_HAL_Driver/Src/stm32g4xx_hal_pwr_ex.c ****   *            @arg @ref PWR_REGULATOR_VOLTAGE_SCALE2 Regulator voltage output range 2 mode,
 140:Drivers/STM32G4xx_HAL_Driver/Src/stm32g4xx_hal_pwr_ex.c ****   *                                                typical output voltage at 1.0 V,
 141:Drivers/STM32G4xx_HAL_Driver/Src/stm32g4xx_hal_pwr_ex.c ****   *                                                system frequency up to 26 MHz.
 142:Drivers/STM32G4xx_HAL_Driver/Src/stm32g4xx_hal_pwr_ex.c ****   * @note  When moving from Range 1 to Range 2, the system frequency must be decreased to
 143:Drivers/STM32G4xx_HAL_Driver/Src/stm32g4xx_hal_pwr_ex.c ****   *        a value below 26 MHz before calling HAL_PWREx_ControlVoltageScaling() API.
 144:Drivers/STM32G4xx_HAL_Driver/Src/stm32g4xx_hal_pwr_ex.c ****   *        When moving from Range 2 to Range 1, the system frequency can be increased to
 145:Drivers/STM32G4xx_HAL_Driver/Src/stm32g4xx_hal_pwr_ex.c ****   *        a value up to 150 MHz after calling HAL_PWREx_ControlVoltageScaling() API.
 146:Drivers/STM32G4xx_HAL_Driver/Src/stm32g4xx_hal_pwr_ex.c ****   *        When moving from Range 1 to Boost Mode Range 1, the system frequency can be increased to
 147:Drivers/STM32G4xx_HAL_Driver/Src/stm32g4xx_hal_pwr_ex.c ****   *        a value up to 170 MHz after calling HAL_PWREx_ControlVoltageScaling() API.
 148:Drivers/STM32G4xx_HAL_Driver/Src/stm32g4xx_hal_pwr_ex.c ****   * @note  When moving from Range 2 to Range 1, the API waits for VOSF flag to be
 149:Drivers/STM32G4xx_HAL_Driver/Src/stm32g4xx_hal_pwr_ex.c ****   *        cleared before returning the status. If the flag is not cleared within
 150:Drivers/STM32G4xx_HAL_Driver/Src/stm32g4xx_hal_pwr_ex.c ****   *        50 microseconds, HAL_TIMEOUT status is reported.
 151:Drivers/STM32G4xx_HAL_Driver/Src/stm32g4xx_hal_pwr_ex.c ****   * @retval HAL Status
 152:Drivers/STM32G4xx_HAL_Driver/Src/stm32g4xx_hal_pwr_ex.c ****   */
 153:Drivers/STM32G4xx_HAL_Driver/Src/stm32g4xx_hal_pwr_ex.c **** HAL_StatusTypeDef HAL_PWREx_ControlVoltageScaling(uint32_t VoltageScaling)
 154:Drivers/STM32G4xx_HAL_Driver/Src/stm32g4xx_hal_pwr_ex.c **** {
  68              	 .loc 1 154 1 is_stmt 1 view-0
  69              	 .cfi_startproc
  70              	 
  71              	 
  72              	 
 155:Drivers/STM32G4xx_HAL_Driver/Src/stm32g4xx_hal_pwr_ex.c ****   uint32_t wait_loop_index;
  73              	 .loc 1 155 3 view .LVU9
 156:Drivers/STM32G4xx_HAL_Driver/Src/stm32g4xx_hal_pwr_ex.c **** 
 157:Drivers/STM32G4xx_HAL_Driver/Src/stm32g4xx_hal_pwr_ex.c ****   assert_param(IS_PWR_VOLTAGE_SCALING_RANGE(VoltageScaling));
  74              	 .loc 1 157 3 view .LVU10
ARM GAS   			page 5


 158:Drivers/STM32G4xx_HAL_Driver/Src/stm32g4xx_hal_pwr_ex.c **** 
 159:Drivers/STM32G4xx_HAL_Driver/Src/stm32g4xx_hal_pwr_ex.c ****   if (VoltageScaling == PWR_REGULATOR_VOLTAGE_SCALE1_BOOST)
  75              	 .loc 1 159 3 view .LVU11
 160:Drivers/STM32G4xx_HAL_Driver/Src/stm32g4xx_hal_pwr_ex.c ****   {
 161:Drivers/STM32G4xx_HAL_Driver/Src/stm32g4xx_hal_pwr_ex.c ****     /* If current range is range 2 */
 162:Drivers/STM32G4xx_HAL_Driver/Src/stm32g4xx_hal_pwr_ex.c ****     if (READ_BIT(PWR->CR1, PWR_CR1_VOS) == PWR_REGULATOR_VOLTAGE_SCALE2)
  76              	 .loc 1 162 9 is_stmt 0 view .LVU12
  77 0000 354A     	 ldr r2,.L45
  78 0002 1368     	 ldr r3,[r2]
 159:Drivers/STM32G4xx_HAL_Driver/Src/stm32g4xx_hal_pwr_ex.c ****   {
  79              	 .loc 1 159 6 view .LVU13
  80 0004 60B9     	 cbnz r0,.L10
  81              	 .loc 1 162 5 is_stmt 1 view .LVU14
  82              	 .loc 1 162 9 is_stmt 0 view .LVU15
  83 0006 03F4C063 	 and r3,r3,#1536
  84              	 .loc 1 162 8 view .LVU16
  85 000a B3F5806F 	 cmp r3,#1024
 163:Drivers/STM32G4xx_HAL_Driver/Src/stm32g4xx_hal_pwr_ex.c ****     {
 164:Drivers/STM32G4xx_HAL_Driver/Src/stm32g4xx_hal_pwr_ex.c ****       /* Make sure Range 1 Boost is enabled */
 165:Drivers/STM32G4xx_HAL_Driver/Src/stm32g4xx_hal_pwr_ex.c ****       CLEAR_BIT(PWR->CR5, PWR_CR5_R1MODE);
  86              	 .loc 1 165 7 view .LVU17
  87 000e D2F88030 	 ldr r3,[r2,#128]
 162:Drivers/STM32G4xx_HAL_Driver/Src/stm32g4xx_hal_pwr_ex.c ****     {
  88              	 .loc 1 162 8 view .LVU18
  89 0012 1BD0     	 beq .L40
 166:Drivers/STM32G4xx_HAL_Driver/Src/stm32g4xx_hal_pwr_ex.c **** 
 167:Drivers/STM32G4xx_HAL_Driver/Src/stm32g4xx_hal_pwr_ex.c ****       /* Set Range 1 */
 168:Drivers/STM32G4xx_HAL_Driver/Src/stm32g4xx_hal_pwr_ex.c ****       MODIFY_REG(PWR->CR1, PWR_CR1_VOS, PWR_REGULATOR_VOLTAGE_SCALE1);
 169:Drivers/STM32G4xx_HAL_Driver/Src/stm32g4xx_hal_pwr_ex.c **** 
 170:Drivers/STM32G4xx_HAL_Driver/Src/stm32g4xx_hal_pwr_ex.c ****       /* Wait until VOSF is cleared */
 171:Drivers/STM32G4xx_HAL_Driver/Src/stm32g4xx_hal_pwr_ex.c ****       wait_loop_index = ((PWR_FLAG_SETTING_DELAY_US * SystemCoreClock) / 1000000U) + 1U;
 172:Drivers/STM32G4xx_HAL_Driver/Src/stm32g4xx_hal_pwr_ex.c ****       while ((HAL_IS_BIT_SET(PWR->SR2, PWR_SR2_VOSF)) && (wait_loop_index != 0U))
 173:Drivers/STM32G4xx_HAL_Driver/Src/stm32g4xx_hal_pwr_ex.c ****       {
 174:Drivers/STM32G4xx_HAL_Driver/Src/stm32g4xx_hal_pwr_ex.c ****         wait_loop_index--;
 175:Drivers/STM32G4xx_HAL_Driver/Src/stm32g4xx_hal_pwr_ex.c ****       }
 176:Drivers/STM32G4xx_HAL_Driver/Src/stm32g4xx_hal_pwr_ex.c ****       if (HAL_IS_BIT_SET(PWR->SR2, PWR_SR2_VOSF))
 177:Drivers/STM32G4xx_HAL_Driver/Src/stm32g4xx_hal_pwr_ex.c ****       {
 178:Drivers/STM32G4xx_HAL_Driver/Src/stm32g4xx_hal_pwr_ex.c ****         return HAL_TIMEOUT;
 179:Drivers/STM32G4xx_HAL_Driver/Src/stm32g4xx_hal_pwr_ex.c ****       }
 180:Drivers/STM32G4xx_HAL_Driver/Src/stm32g4xx_hal_pwr_ex.c ****     }
 181:Drivers/STM32G4xx_HAL_Driver/Src/stm32g4xx_hal_pwr_ex.c ****     /* If current range is range 1 normal or boost mode */
 182:Drivers/STM32G4xx_HAL_Driver/Src/stm32g4xx_hal_pwr_ex.c ****     else
 183:Drivers/STM32G4xx_HAL_Driver/Src/stm32g4xx_hal_pwr_ex.c ****     {
 184:Drivers/STM32G4xx_HAL_Driver/Src/stm32g4xx_hal_pwr_ex.c ****       /* Enable Range 1 Boost (no issue if bit already reset) */
 185:Drivers/STM32G4xx_HAL_Driver/Src/stm32g4xx_hal_pwr_ex.c ****       CLEAR_BIT(PWR->CR5, PWR_CR5_R1MODE);
  90              	 .loc 1 185 7 is_stmt 1 view .LVU19
  91 0014 23F48073 	 bic r3,r3,#256
  92 0018 C2F88030 	 str r3,[r2,#128]
 186:Drivers/STM32G4xx_HAL_Driver/Src/stm32g4xx_hal_pwr_ex.c ****     }
 187:Drivers/STM32G4xx_HAL_Driver/Src/stm32g4xx_hal_pwr_ex.c ****   }
 188:Drivers/STM32G4xx_HAL_Driver/Src/stm32g4xx_hal_pwr_ex.c ****   else if (VoltageScaling == PWR_REGULATOR_VOLTAGE_SCALE1)
 189:Drivers/STM32G4xx_HAL_Driver/Src/stm32g4xx_hal_pwr_ex.c ****   {
 190:Drivers/STM32G4xx_HAL_Driver/Src/stm32g4xx_hal_pwr_ex.c ****     /* If current range is range 2 */
 191:Drivers/STM32G4xx_HAL_Driver/Src/stm32g4xx_hal_pwr_ex.c ****     if (READ_BIT(PWR->CR1, PWR_CR1_VOS) == PWR_REGULATOR_VOLTAGE_SCALE2)
 192:Drivers/STM32G4xx_HAL_Driver/Src/stm32g4xx_hal_pwr_ex.c ****     {
 193:Drivers/STM32G4xx_HAL_Driver/Src/stm32g4xx_hal_pwr_ex.c ****       /* Make sure Range 1 Boost is disabled */
 194:Drivers/STM32G4xx_HAL_Driver/Src/stm32g4xx_hal_pwr_ex.c ****       SET_BIT(PWR->CR5, PWR_CR5_R1MODE);
ARM GAS   			page 6


 195:Drivers/STM32G4xx_HAL_Driver/Src/stm32g4xx_hal_pwr_ex.c **** 
 196:Drivers/STM32G4xx_HAL_Driver/Src/stm32g4xx_hal_pwr_ex.c ****       /* Set Range 1 */
 197:Drivers/STM32G4xx_HAL_Driver/Src/stm32g4xx_hal_pwr_ex.c ****       MODIFY_REG(PWR->CR1, PWR_CR1_VOS, PWR_REGULATOR_VOLTAGE_SCALE1);
 198:Drivers/STM32G4xx_HAL_Driver/Src/stm32g4xx_hal_pwr_ex.c **** 
 199:Drivers/STM32G4xx_HAL_Driver/Src/stm32g4xx_hal_pwr_ex.c ****       /* Wait until VOSF is cleared */
 200:Drivers/STM32G4xx_HAL_Driver/Src/stm32g4xx_hal_pwr_ex.c ****       wait_loop_index = ((PWR_FLAG_SETTING_DELAY_US * SystemCoreClock) / 1000000U) + 1U;
 201:Drivers/STM32G4xx_HAL_Driver/Src/stm32g4xx_hal_pwr_ex.c ****       while ((HAL_IS_BIT_SET(PWR->SR2, PWR_SR2_VOSF)) && (wait_loop_index != 0U))
 202:Drivers/STM32G4xx_HAL_Driver/Src/stm32g4xx_hal_pwr_ex.c ****       {
 203:Drivers/STM32G4xx_HAL_Driver/Src/stm32g4xx_hal_pwr_ex.c ****         wait_loop_index--;
 204:Drivers/STM32G4xx_HAL_Driver/Src/stm32g4xx_hal_pwr_ex.c ****       }
 205:Drivers/STM32G4xx_HAL_Driver/Src/stm32g4xx_hal_pwr_ex.c ****       if (HAL_IS_BIT_SET(PWR->SR2, PWR_SR2_VOSF))
 206:Drivers/STM32G4xx_HAL_Driver/Src/stm32g4xx_hal_pwr_ex.c ****       {
 207:Drivers/STM32G4xx_HAL_Driver/Src/stm32g4xx_hal_pwr_ex.c ****         return HAL_TIMEOUT;
 208:Drivers/STM32G4xx_HAL_Driver/Src/stm32g4xx_hal_pwr_ex.c ****       }
 209:Drivers/STM32G4xx_HAL_Driver/Src/stm32g4xx_hal_pwr_ex.c ****     }
 210:Drivers/STM32G4xx_HAL_Driver/Src/stm32g4xx_hal_pwr_ex.c ****      /* If current range is range 1 normal or boost mode */
 211:Drivers/STM32G4xx_HAL_Driver/Src/stm32g4xx_hal_pwr_ex.c ****     else
 212:Drivers/STM32G4xx_HAL_Driver/Src/stm32g4xx_hal_pwr_ex.c ****     {
 213:Drivers/STM32G4xx_HAL_Driver/Src/stm32g4xx_hal_pwr_ex.c ****       /* Disable Range 1 Boost (no issue if bit already set) */
 214:Drivers/STM32G4xx_HAL_Driver/Src/stm32g4xx_hal_pwr_ex.c ****       SET_BIT(PWR->CR5, PWR_CR5_R1MODE);
 215:Drivers/STM32G4xx_HAL_Driver/Src/stm32g4xx_hal_pwr_ex.c ****     }
 216:Drivers/STM32G4xx_HAL_Driver/Src/stm32g4xx_hal_pwr_ex.c ****   }
 217:Drivers/STM32G4xx_HAL_Driver/Src/stm32g4xx_hal_pwr_ex.c ****   else
 218:Drivers/STM32G4xx_HAL_Driver/Src/stm32g4xx_hal_pwr_ex.c ****   {
 219:Drivers/STM32G4xx_HAL_Driver/Src/stm32g4xx_hal_pwr_ex.c ****     /* Set Range 2 */
 220:Drivers/STM32G4xx_HAL_Driver/Src/stm32g4xx_hal_pwr_ex.c ****     MODIFY_REG(PWR->CR1, PWR_CR1_VOS, PWR_REGULATOR_VOLTAGE_SCALE2);
 221:Drivers/STM32G4xx_HAL_Driver/Src/stm32g4xx_hal_pwr_ex.c ****     /* No need to wait for VOSF to be cleared for this transition */
 222:Drivers/STM32G4xx_HAL_Driver/Src/stm32g4xx_hal_pwr_ex.c ****     /* PWR_CR5_R1MODE bit setting has no effect in Range 2        */
 223:Drivers/STM32G4xx_HAL_Driver/Src/stm32g4xx_hal_pwr_ex.c ****   }
 224:Drivers/STM32G4xx_HAL_Driver/Src/stm32g4xx_hal_pwr_ex.c **** 
 225:Drivers/STM32G4xx_HAL_Driver/Src/stm32g4xx_hal_pwr_ex.c ****   return HAL_OK;
  93              	 .loc 1 225 10 is_stmt 0 view .LVU20
  94 001c 0020     	 movs r0,#0
  95              	.LVL1:
 226:Drivers/STM32G4xx_HAL_Driver/Src/stm32g4xx_hal_pwr_ex.c **** }
  96              	 .loc 1 226 1 view .LVU21
  97 001e 7047     	 bx lr
  98              	.LVL2:
  99              	.L10:
 188:Drivers/STM32G4xx_HAL_Driver/Src/stm32g4xx_hal_pwr_ex.c ****   {
 100              	 .loc 1 188 8 is_stmt 1 view .LVU22
 188:Drivers/STM32G4xx_HAL_Driver/Src/stm32g4xx_hal_pwr_ex.c ****   {
 101              	 .loc 1 188 11 is_stmt 0 view .LVU23
 102 0020 B0F5007F 	 cmp r0,#512
 103 0024 06D0     	 beq .L41
 220:Drivers/STM32G4xx_HAL_Driver/Src/stm32g4xx_hal_pwr_ex.c ****     /* No need to wait for VOSF to be cleared for this transition */
 104              	 .loc 1 220 5 is_stmt 1 view .LVU24
 105 0026 23F4C063 	 bic r3,r3,#1536
 106 002a 43F48063 	 orr r3,r3,#1024
 107 002e 1360     	 str r3,[r2]
 108              	.LVL3:
 109              	.L16:
 225:Drivers/STM32G4xx_HAL_Driver/Src/stm32g4xx_hal_pwr_ex.c **** }
 110              	 .loc 1 225 10 is_stmt 0 view .LVU25
 111 0030 0020     	 movs r0,#0
 112              	 .loc 1 226 1 view .LVU26
 113 0032 7047     	 bx lr
ARM GAS   			page 7


 114              	.LVL4:
 115              	.L41:
 191:Drivers/STM32G4xx_HAL_Driver/Src/stm32g4xx_hal_pwr_ex.c ****     {
 116              	 .loc 1 191 5 is_stmt 1 view .LVU27
 191:Drivers/STM32G4xx_HAL_Driver/Src/stm32g4xx_hal_pwr_ex.c ****     {
 117              	 .loc 1 191 9 is_stmt 0 view .LVU28
 118 0034 03F4C063 	 and r3,r3,#1536
 191:Drivers/STM32G4xx_HAL_Driver/Src/stm32g4xx_hal_pwr_ex.c ****     {
 119              	 .loc 1 191 8 view .LVU29
 120 0038 B3F5806F 	 cmp r3,#1024
 194:Drivers/STM32G4xx_HAL_Driver/Src/stm32g4xx_hal_pwr_ex.c **** 
 121              	 .loc 1 194 7 view .LVU30
 122 003c D2F88030 	 ldr r3,[r2,#128]
 191:Drivers/STM32G4xx_HAL_Driver/Src/stm32g4xx_hal_pwr_ex.c ****     {
 123              	 .loc 1 191 8 view .LVU31
 124 0040 29D0     	 beq .L42
 214:Drivers/STM32G4xx_HAL_Driver/Src/stm32g4xx_hal_pwr_ex.c ****     }
 125              	 .loc 1 214 7 is_stmt 1 view .LVU32
 126 0042 43F48073 	 orr r3,r3,#256
 127 0046 C2F88030 	 str r3,[r2,#128]
 128 004a F1E7     	 b .L16
 129              	.L40:
 165:Drivers/STM32G4xx_HAL_Driver/Src/stm32g4xx_hal_pwr_ex.c **** 
 130              	 .loc 1 165 7 view .LVU33
 131 004c 23F48073 	 bic r3,r3,#256
 132 0050 C2F88030 	 str r3,[r2,#128]
 168:Drivers/STM32G4xx_HAL_Driver/Src/stm32g4xx_hal_pwr_ex.c **** 
 133              	 .loc 1 168 7 view .LVU34
 134 0054 1368     	 ldr r3,[r2]
 171:Drivers/STM32G4xx_HAL_Driver/Src/stm32g4xx_hal_pwr_ex.c ****       while ((HAL_IS_BIT_SET(PWR->SR2, PWR_SR2_VOSF)) && (wait_loop_index != 0U))
 135              	 .loc 1 171 53 is_stmt 0 view .LVU35
 136 0056 2148     	 ldr r0,.L45+4
 137              	.LVL5:
 171:Drivers/STM32G4xx_HAL_Driver/Src/stm32g4xx_hal_pwr_ex.c ****       while ((HAL_IS_BIT_SET(PWR->SR2, PWR_SR2_VOSF)) && (wait_loop_index != 0U))
 138              	 .loc 1 171 72 view .LVU36
 139 0058 2149     	 ldr r1,.L45+8
 168:Drivers/STM32G4xx_HAL_Driver/Src/stm32g4xx_hal_pwr_ex.c **** 
 140              	 .loc 1 168 7 view .LVU37
 141 005a 23F4C063 	 bic r3,r3,#1536
 142 005e 43F40073 	 orr r3,r3,#512
 143 0062 1360     	 str r3,[r2]
 171:Drivers/STM32G4xx_HAL_Driver/Src/stm32g4xx_hal_pwr_ex.c ****       while ((HAL_IS_BIT_SET(PWR->SR2, PWR_SR2_VOSF)) && (wait_loop_index != 0U))
 144              	 .loc 1 171 7 is_stmt 1 view .LVU38
 171:Drivers/STM32G4xx_HAL_Driver/Src/stm32g4xx_hal_pwr_ex.c ****       while ((HAL_IS_BIT_SET(PWR->SR2, PWR_SR2_VOSF)) && (wait_loop_index != 0U))
 145              	 .loc 1 171 53 is_stmt 0 view .LVU39
 146 0064 0368     	 ldr r3,[r0]
 147 0066 3220     	 movs r0,#50
 148 0068 00FB03F3 	 mul r3,r0,r3
 172:Drivers/STM32G4xx_HAL_Driver/Src/stm32g4xx_hal_pwr_ex.c ****       {
 149              	 .loc 1 172 15 view .LVU40
 150 006c 5069     	 ldr r0,[r2,#20]
 171:Drivers/STM32G4xx_HAL_Driver/Src/stm32g4xx_hal_pwr_ex.c ****       while ((HAL_IS_BIT_SET(PWR->SR2, PWR_SR2_VOSF)) && (wait_loop_index != 0U))
 151              	 .loc 1 171 72 view .LVU41
 152 006e A1FB0313 	 umull r1,r3,r1,r3
 153 0072 9B0C     	 lsrs r3,r3,#18
 172:Drivers/STM32G4xx_HAL_Driver/Src/stm32g4xx_hal_pwr_ex.c ****       {
 154              	 .loc 1 172 55 view .LVU42
ARM GAS   			page 8


 155 0074 4005     	 lsls r0,r0,#21
 171:Drivers/STM32G4xx_HAL_Driver/Src/stm32g4xx_hal_pwr_ex.c ****       while ((HAL_IS_BIT_SET(PWR->SR2, PWR_SR2_VOSF)) && (wait_loop_index != 0U))
 156              	 .loc 1 171 23 view .LVU43
 157 0076 03F10103 	 add r3,r3,#1
 158              	.LVL6:
 172:Drivers/STM32G4xx_HAL_Driver/Src/stm32g4xx_hal_pwr_ex.c ****       {
 159              	 .loc 1 172 7 is_stmt 1 view .LVU44
 172:Drivers/STM32G4xx_HAL_Driver/Src/stm32g4xx_hal_pwr_ex.c ****       {
 160              	 .loc 1 172 55 view .LVU45
 161 007a 06D5     	 bpl .L12
 162 007c 00E0     	 b .L13
 163              	.L43:
 172:Drivers/STM32G4xx_HAL_Driver/Src/stm32g4xx_hal_pwr_ex.c ****       {
 164              	 .loc 1 172 55 is_stmt 0 discriminator 1 view .LVU46
 165 007e 23B1     	 cbz r3,.L12
 166              	.L13:
 174:Drivers/STM32G4xx_HAL_Driver/Src/stm32g4xx_hal_pwr_ex.c ****       }
 167              	 .loc 1 174 9 is_stmt 1 view .LVU47
 172:Drivers/STM32G4xx_HAL_Driver/Src/stm32g4xx_hal_pwr_ex.c ****       {
 168              	 .loc 1 172 15 is_stmt 0 view .LVU48
 169 0080 5169     	 ldr r1,[r2,#20]
 172:Drivers/STM32G4xx_HAL_Driver/Src/stm32g4xx_hal_pwr_ex.c ****       {
 170              	 .loc 1 172 55 view .LVU49
 171 0082 4905     	 lsls r1,r1,#21
 174:Drivers/STM32G4xx_HAL_Driver/Src/stm32g4xx_hal_pwr_ex.c ****       }
 172              	 .loc 1 174 24 view .LVU50
 173 0084 03F1FF33 	 add r3,r3,#-1
 174              	.LVL7:
 172:Drivers/STM32G4xx_HAL_Driver/Src/stm32g4xx_hal_pwr_ex.c ****       {
 175              	 .loc 1 172 55 is_stmt 1 view .LVU51
 176 0088 F9D4     	 bmi .L43
 177              	.L12:
 176:Drivers/STM32G4xx_HAL_Driver/Src/stm32g4xx_hal_pwr_ex.c ****       {
 178              	 .loc 1 176 7 view .LVU52
 176:Drivers/STM32G4xx_HAL_Driver/Src/stm32g4xx_hal_pwr_ex.c ****       {
 179              	 .loc 1 176 11 is_stmt 0 view .LVU53
 180 008a 134B     	 ldr r3,.L45
 181              	.LVL8:
 176:Drivers/STM32G4xx_HAL_Driver/Src/stm32g4xx_hal_pwr_ex.c ****       {
 182              	 .loc 1 176 11 view .LVU54
 183 008c 5B69     	 ldr r3,[r3,#20]
 176:Drivers/STM32G4xx_HAL_Driver/Src/stm32g4xx_hal_pwr_ex.c ****       {
 184              	 .loc 1 176 10 view .LVU55
 185 008e 5B05     	 lsls r3,r3,#21
 186 0090 CED5     	 bpl .L16
 178:Drivers/STM32G4xx_HAL_Driver/Src/stm32g4xx_hal_pwr_ex.c ****       }
 187              	 .loc 1 178 16 view .LVU56
 188 0092 0320     	 movs r0,#3
 189 0094 7047     	 bx lr
 190              	.LVL9:
 191              	.L42:
 194:Drivers/STM32G4xx_HAL_Driver/Src/stm32g4xx_hal_pwr_ex.c **** 
 192              	 .loc 1 194 7 is_stmt 1 view .LVU57
 193 0096 43F48073 	 orr r3,r3,#256
 194 009a C2F88030 	 str r3,[r2,#128]
 197:Drivers/STM32G4xx_HAL_Driver/Src/stm32g4xx_hal_pwr_ex.c **** 
 195              	 .loc 1 197 7 view .LVU58
ARM GAS   			page 9


 196 009e 1368     	 ldr r3,[r2]
 200:Drivers/STM32G4xx_HAL_Driver/Src/stm32g4xx_hal_pwr_ex.c ****       while ((HAL_IS_BIT_SET(PWR->SR2, PWR_SR2_VOSF)) && (wait_loop_index != 0U))
 197              	 .loc 1 200 53 is_stmt 0 view .LVU59
 198 00a0 0E48     	 ldr r0,.L45+4
 199              	.LVL10:
 200:Drivers/STM32G4xx_HAL_Driver/Src/stm32g4xx_hal_pwr_ex.c ****       while ((HAL_IS_BIT_SET(PWR->SR2, PWR_SR2_VOSF)) && (wait_loop_index != 0U))
 200              	 .loc 1 200 72 view .LVU60
 201 00a2 0F49     	 ldr r1,.L45+8
 197:Drivers/STM32G4xx_HAL_Driver/Src/stm32g4xx_hal_pwr_ex.c **** 
 202              	 .loc 1 197 7 view .LVU61
 203 00a4 23F4C063 	 bic r3,r3,#1536
 204 00a8 43F40073 	 orr r3,r3,#512
 205 00ac 1360     	 str r3,[r2]
 200:Drivers/STM32G4xx_HAL_Driver/Src/stm32g4xx_hal_pwr_ex.c ****       while ((HAL_IS_BIT_SET(PWR->SR2, PWR_SR2_VOSF)) && (wait_loop_index != 0U))
 206              	 .loc 1 200 7 is_stmt 1 view .LVU62
 200:Drivers/STM32G4xx_HAL_Driver/Src/stm32g4xx_hal_pwr_ex.c ****       while ((HAL_IS_BIT_SET(PWR->SR2, PWR_SR2_VOSF)) && (wait_loop_index != 0U))
 207              	 .loc 1 200 53 is_stmt 0 view .LVU63
 208 00ae 0368     	 ldr r3,[r0]
 209 00b0 3220     	 movs r0,#50
 210 00b2 00FB03F3 	 mul r3,r0,r3
 201:Drivers/STM32G4xx_HAL_Driver/Src/stm32g4xx_hal_pwr_ex.c ****       {
 211              	 .loc 1 201 15 view .LVU64
 212 00b6 5069     	 ldr r0,[r2,#20]
 200:Drivers/STM32G4xx_HAL_Driver/Src/stm32g4xx_hal_pwr_ex.c ****       while ((HAL_IS_BIT_SET(PWR->SR2, PWR_SR2_VOSF)) && (wait_loop_index != 0U))
 213              	 .loc 1 200 72 view .LVU65
 214 00b8 A1FB0313 	 umull r1,r3,r1,r3
 215 00bc 9B0C     	 lsrs r3,r3,#18
 201:Drivers/STM32G4xx_HAL_Driver/Src/stm32g4xx_hal_pwr_ex.c ****       {
 216              	 .loc 1 201 55 view .LVU66
 217 00be 4005     	 lsls r0,r0,#21
 200:Drivers/STM32G4xx_HAL_Driver/Src/stm32g4xx_hal_pwr_ex.c ****       while ((HAL_IS_BIT_SET(PWR->SR2, PWR_SR2_VOSF)) && (wait_loop_index != 0U))
 218              	 .loc 1 200 23 view .LVU67
 219 00c0 03F10103 	 add r3,r3,#1
 220              	.LVL11:
 201:Drivers/STM32G4xx_HAL_Driver/Src/stm32g4xx_hal_pwr_ex.c ****       {
 221              	 .loc 1 201 7 is_stmt 1 view .LVU68
 201:Drivers/STM32G4xx_HAL_Driver/Src/stm32g4xx_hal_pwr_ex.c ****       {
 222              	 .loc 1 201 55 view .LVU69
 223 00c4 E1D5     	 bpl .L12
 224 00c6 01E0     	 b .L20
 225              	.L44:
 201:Drivers/STM32G4xx_HAL_Driver/Src/stm32g4xx_hal_pwr_ex.c ****       {
 226              	 .loc 1 201 55 is_stmt 0 discriminator 1 view .LVU70
 227 00c8 002B     	 cmp r3,#0
 228 00ca DED0     	 beq .L12
 229              	.L20:
 203:Drivers/STM32G4xx_HAL_Driver/Src/stm32g4xx_hal_pwr_ex.c ****       }
 230              	 .loc 1 203 9 is_stmt 1 view .LVU71
 201:Drivers/STM32G4xx_HAL_Driver/Src/stm32g4xx_hal_pwr_ex.c ****       {
 231              	 .loc 1 201 15 is_stmt 0 view .LVU72
 232 00cc 5169     	 ldr r1,[r2,#20]
 201:Drivers/STM32G4xx_HAL_Driver/Src/stm32g4xx_hal_pwr_ex.c ****       {
 233              	 .loc 1 201 55 view .LVU73
 234 00ce 4905     	 lsls r1,r1,#21
 203:Drivers/STM32G4xx_HAL_Driver/Src/stm32g4xx_hal_pwr_ex.c ****       }
 235              	 .loc 1 203 24 view .LVU74
 236 00d0 03F1FF33 	 add r3,r3,#-1
ARM GAS   			page 10


 237              	.LVL12:
 201:Drivers/STM32G4xx_HAL_Driver/Src/stm32g4xx_hal_pwr_ex.c ****       {
 238              	 .loc 1 201 55 is_stmt 1 view .LVU75
 239 00d4 D9D5     	 bpl .L12
 240 00d6 F7E7     	 b .L44
 241              	.L46:
 242              	 .align 2
 243              	.L45:
 244 00d8 00700040 	 .word 1073770496
 245 00dc 00000000 	 .word SystemCoreClock
 246 00e0 83DE1B43 	 .word 1125899907
 247              	 .cfi_endproc
 248              	.LFE362:
 250              	 .section .text.HAL_PWREx_EnableBatteryCharging,"ax",%progbits
 251              	 .align 1
 252              	 .p2align 2,,3
 253              	 .global HAL_PWREx_EnableBatteryCharging
 254              	 .syntax unified
 255              	 .thumb
 256              	 .thumb_func
 258              	HAL_PWREx_EnableBatteryCharging:
 259              	.LVL13:
 260              	.LFB363:
 227:Drivers/STM32G4xx_HAL_Driver/Src/stm32g4xx_hal_pwr_ex.c **** 
 228:Drivers/STM32G4xx_HAL_Driver/Src/stm32g4xx_hal_pwr_ex.c **** 
 229:Drivers/STM32G4xx_HAL_Driver/Src/stm32g4xx_hal_pwr_ex.c **** /**
 230:Drivers/STM32G4xx_HAL_Driver/Src/stm32g4xx_hal_pwr_ex.c ****   * @brief Enable battery charging.
 231:Drivers/STM32G4xx_HAL_Driver/Src/stm32g4xx_hal_pwr_ex.c ****   *        When VDD is present, charge the external battery on VBAT through an internal resistor.
 232:Drivers/STM32G4xx_HAL_Driver/Src/stm32g4xx_hal_pwr_ex.c ****   * @param  ResistorSelection: specifies the resistor impedance.
 233:Drivers/STM32G4xx_HAL_Driver/Src/stm32g4xx_hal_pwr_ex.c ****   *          This parameter can be one of the following values:
 234:Drivers/STM32G4xx_HAL_Driver/Src/stm32g4xx_hal_pwr_ex.c ****   *            @arg @ref PWR_BATTERY_CHARGING_RESISTOR_5     5 kOhms resistor
 235:Drivers/STM32G4xx_HAL_Driver/Src/stm32g4xx_hal_pwr_ex.c ****   *            @arg @ref PWR_BATTERY_CHARGING_RESISTOR_1_5 1.5 kOhms resistor
 236:Drivers/STM32G4xx_HAL_Driver/Src/stm32g4xx_hal_pwr_ex.c ****   * @retval None
 237:Drivers/STM32G4xx_HAL_Driver/Src/stm32g4xx_hal_pwr_ex.c ****   */
 238:Drivers/STM32G4xx_HAL_Driver/Src/stm32g4xx_hal_pwr_ex.c **** void HAL_PWREx_EnableBatteryCharging(uint32_t ResistorSelection)
 239:Drivers/STM32G4xx_HAL_Driver/Src/stm32g4xx_hal_pwr_ex.c **** {
 261              	 .loc 1 239 1 view-0
 262              	 .cfi_startproc
 263              	 
 264              	 
 265              	 
 240:Drivers/STM32G4xx_HAL_Driver/Src/stm32g4xx_hal_pwr_ex.c ****   assert_param(IS_PWR_BATTERY_RESISTOR_SELECT(ResistorSelection));
 266              	 .loc 1 240 3 view .LVU77
 241:Drivers/STM32G4xx_HAL_Driver/Src/stm32g4xx_hal_pwr_ex.c **** 
 242:Drivers/STM32G4xx_HAL_Driver/Src/stm32g4xx_hal_pwr_ex.c ****   /* Specify resistor selection */
 243:Drivers/STM32G4xx_HAL_Driver/Src/stm32g4xx_hal_pwr_ex.c ****   MODIFY_REG(PWR->CR4, PWR_CR4_VBRS, ResistorSelection);
 267              	 .loc 1 243 3 view .LVU78
 268 0000 054A     	 ldr r2,.L48
 269 0002 D368     	 ldr r3,[r2,#12]
 270 0004 23F40073 	 bic r3,r3,#512
 271 0008 0343     	 orrs r3,r3,r0
 272 000a D360     	 str r3,[r2,#12]
 244:Drivers/STM32G4xx_HAL_Driver/Src/stm32g4xx_hal_pwr_ex.c **** 
 245:Drivers/STM32G4xx_HAL_Driver/Src/stm32g4xx_hal_pwr_ex.c ****   /* Enable battery charging */
 246:Drivers/STM32G4xx_HAL_Driver/Src/stm32g4xx_hal_pwr_ex.c ****   SET_BIT(PWR->CR4, PWR_CR4_VBE);
 273              	 .loc 1 246 3 view .LVU79
 274 000c D368     	 ldr r3,[r2,#12]
ARM GAS   			page 11


 275 000e 43F48073 	 orr r3,r3,#256
 276 0012 D360     	 str r3,[r2,#12]
 247:Drivers/STM32G4xx_HAL_Driver/Src/stm32g4xx_hal_pwr_ex.c **** }
 277              	 .loc 1 247 1 is_stmt 0 view .LVU80
 278 0014 7047     	 bx lr
 279              	.L49:
 280 0016 00BF     	 .align 2
 281              	.L48:
 282 0018 00700040 	 .word 1073770496
 283              	 .cfi_endproc
 284              	.LFE363:
 286              	 .section .text.HAL_PWREx_DisableBatteryCharging,"ax",%progbits
 287              	 .align 1
 288              	 .p2align 2,,3
 289              	 .global HAL_PWREx_DisableBatteryCharging
 290              	 .syntax unified
 291              	 .thumb
 292              	 .thumb_func
 294              	HAL_PWREx_DisableBatteryCharging:
 295              	.LFB364:
 248:Drivers/STM32G4xx_HAL_Driver/Src/stm32g4xx_hal_pwr_ex.c **** 
 249:Drivers/STM32G4xx_HAL_Driver/Src/stm32g4xx_hal_pwr_ex.c **** 
 250:Drivers/STM32G4xx_HAL_Driver/Src/stm32g4xx_hal_pwr_ex.c **** /**
 251:Drivers/STM32G4xx_HAL_Driver/Src/stm32g4xx_hal_pwr_ex.c ****   * @brief Disable battery charging.
 252:Drivers/STM32G4xx_HAL_Driver/Src/stm32g4xx_hal_pwr_ex.c ****   * @retval None
 253:Drivers/STM32G4xx_HAL_Driver/Src/stm32g4xx_hal_pwr_ex.c ****   */
 254:Drivers/STM32G4xx_HAL_Driver/Src/stm32g4xx_hal_pwr_ex.c **** void HAL_PWREx_DisableBatteryCharging(void)
 255:Drivers/STM32G4xx_HAL_Driver/Src/stm32g4xx_hal_pwr_ex.c **** {
 296              	 .loc 1 255 1 is_stmt 1 view-0
 297              	 .cfi_startproc
 298              	 
 299              	 
 300              	 
 256:Drivers/STM32G4xx_HAL_Driver/Src/stm32g4xx_hal_pwr_ex.c ****   CLEAR_BIT(PWR->CR4, PWR_CR4_VBE);
 301              	 .loc 1 256 3 view .LVU82
 302 0000 024A     	 ldr r2,.L51
 303 0002 D368     	 ldr r3,[r2,#12]
 304 0004 23F48073 	 bic r3,r3,#256
 305 0008 D360     	 str r3,[r2,#12]
 257:Drivers/STM32G4xx_HAL_Driver/Src/stm32g4xx_hal_pwr_ex.c **** }
 306              	 .loc 1 257 1 is_stmt 0 view .LVU83
 307 000a 7047     	 bx lr
 308              	.L52:
 309              	 .align 2
 310              	.L51:
 311 000c 00700040 	 .word 1073770496
 312              	 .cfi_endproc
 313              	.LFE364:
 315              	 .section .text.HAL_PWREx_EnableInternalWakeUpLine,"ax",%progbits
 316              	 .align 1
 317              	 .p2align 2,,3
 318              	 .global HAL_PWREx_EnableInternalWakeUpLine
 319              	 .syntax unified
 320              	 .thumb
 321              	 .thumb_func
 323              	HAL_PWREx_EnableInternalWakeUpLine:
 324              	.LFB365:
ARM GAS   			page 12


 258:Drivers/STM32G4xx_HAL_Driver/Src/stm32g4xx_hal_pwr_ex.c **** 
 259:Drivers/STM32G4xx_HAL_Driver/Src/stm32g4xx_hal_pwr_ex.c **** 
 260:Drivers/STM32G4xx_HAL_Driver/Src/stm32g4xx_hal_pwr_ex.c **** /**
 261:Drivers/STM32G4xx_HAL_Driver/Src/stm32g4xx_hal_pwr_ex.c ****   * @brief Enable Internal Wake-up Line.
 262:Drivers/STM32G4xx_HAL_Driver/Src/stm32g4xx_hal_pwr_ex.c ****   * @retval None
 263:Drivers/STM32G4xx_HAL_Driver/Src/stm32g4xx_hal_pwr_ex.c ****   */
 264:Drivers/STM32G4xx_HAL_Driver/Src/stm32g4xx_hal_pwr_ex.c **** void HAL_PWREx_EnableInternalWakeUpLine(void)
 265:Drivers/STM32G4xx_HAL_Driver/Src/stm32g4xx_hal_pwr_ex.c **** {
 325              	 .loc 1 265 1 is_stmt 1 view-0
 326              	 .cfi_startproc
 327              	 
 328              	 
 329              	 
 266:Drivers/STM32G4xx_HAL_Driver/Src/stm32g4xx_hal_pwr_ex.c ****   SET_BIT(PWR->CR3, PWR_CR3_EIWF);
 330              	 .loc 1 266 3 view .LVU85
 331 0000 024A     	 ldr r2,.L54
 332 0002 9368     	 ldr r3,[r2,#8]
 333 0004 43F40043 	 orr r3,r3,#32768
 334 0008 9360     	 str r3,[r2,#8]
 267:Drivers/STM32G4xx_HAL_Driver/Src/stm32g4xx_hal_pwr_ex.c **** }
 335              	 .loc 1 267 1 is_stmt 0 view .LVU86
 336 000a 7047     	 bx lr
 337              	.L55:
 338              	 .align 2
 339              	.L54:
 340 000c 00700040 	 .word 1073770496
 341              	 .cfi_endproc
 342              	.LFE365:
 344              	 .section .text.HAL_PWREx_DisableInternalWakeUpLine,"ax",%progbits
 345              	 .align 1
 346              	 .p2align 2,,3
 347              	 .global HAL_PWREx_DisableInternalWakeUpLine
 348              	 .syntax unified
 349              	 .thumb
 350              	 .thumb_func
 352              	HAL_PWREx_DisableInternalWakeUpLine:
 353              	.LFB366:
 268:Drivers/STM32G4xx_HAL_Driver/Src/stm32g4xx_hal_pwr_ex.c **** 
 269:Drivers/STM32G4xx_HAL_Driver/Src/stm32g4xx_hal_pwr_ex.c **** 
 270:Drivers/STM32G4xx_HAL_Driver/Src/stm32g4xx_hal_pwr_ex.c **** /**
 271:Drivers/STM32G4xx_HAL_Driver/Src/stm32g4xx_hal_pwr_ex.c ****   * @brief Disable Internal Wake-up Line.
 272:Drivers/STM32G4xx_HAL_Driver/Src/stm32g4xx_hal_pwr_ex.c ****   * @retval None
 273:Drivers/STM32G4xx_HAL_Driver/Src/stm32g4xx_hal_pwr_ex.c ****   */
 274:Drivers/STM32G4xx_HAL_Driver/Src/stm32g4xx_hal_pwr_ex.c **** void HAL_PWREx_DisableInternalWakeUpLine(void)
 275:Drivers/STM32G4xx_HAL_Driver/Src/stm32g4xx_hal_pwr_ex.c **** {
 354              	 .loc 1 275 1 is_stmt 1 view-0
 355              	 .cfi_startproc
 356              	 
 357              	 
 358              	 
 276:Drivers/STM32G4xx_HAL_Driver/Src/stm32g4xx_hal_pwr_ex.c ****   CLEAR_BIT(PWR->CR3, PWR_CR3_EIWF);
 359              	 .loc 1 276 3 view .LVU88
 360 0000 024A     	 ldr r2,.L57
 361 0002 9368     	 ldr r3,[r2,#8]
 362 0004 23F40043 	 bic r3,r3,#32768
 363 0008 9360     	 str r3,[r2,#8]
 277:Drivers/STM32G4xx_HAL_Driver/Src/stm32g4xx_hal_pwr_ex.c **** }
ARM GAS   			page 13


 364              	 .loc 1 277 1 is_stmt 0 view .LVU89
 365 000a 7047     	 bx lr
 366              	.L58:
 367              	 .align 2
 368              	.L57:
 369 000c 00700040 	 .word 1073770496
 370              	 .cfi_endproc
 371              	.LFE366:
 373              	 .section .text.HAL_PWREx_EnableGPIOPullUp,"ax",%progbits
 374              	 .align 1
 375              	 .p2align 2,,3
 376              	 .global HAL_PWREx_EnableGPIOPullUp
 377              	 .syntax unified
 378              	 .thumb
 379              	 .thumb_func
 381              	HAL_PWREx_EnableGPIOPullUp:
 382              	.LVL14:
 383              	.LFB367:
 278:Drivers/STM32G4xx_HAL_Driver/Src/stm32g4xx_hal_pwr_ex.c **** 
 279:Drivers/STM32G4xx_HAL_Driver/Src/stm32g4xx_hal_pwr_ex.c **** 
 280:Drivers/STM32G4xx_HAL_Driver/Src/stm32g4xx_hal_pwr_ex.c **** 
 281:Drivers/STM32G4xx_HAL_Driver/Src/stm32g4xx_hal_pwr_ex.c **** /**
 282:Drivers/STM32G4xx_HAL_Driver/Src/stm32g4xx_hal_pwr_ex.c ****   * @brief Enable GPIO pull-up state in Standby and Shutdown modes.
 283:Drivers/STM32G4xx_HAL_Driver/Src/stm32g4xx_hal_pwr_ex.c ****   * @note  Set the relevant PUy bits of PWR_PUCRx register to configure the I/O in
 284:Drivers/STM32G4xx_HAL_Driver/Src/stm32g4xx_hal_pwr_ex.c ****   *        pull-up state in Standby and Shutdown modes.
 285:Drivers/STM32G4xx_HAL_Driver/Src/stm32g4xx_hal_pwr_ex.c ****   * @note  This state is effective in Standby and Shutdown modes only if APC bit
 286:Drivers/STM32G4xx_HAL_Driver/Src/stm32g4xx_hal_pwr_ex.c ****   *        is set through HAL_PWREx_EnablePullUpPullDownConfig() API.
 287:Drivers/STM32G4xx_HAL_Driver/Src/stm32g4xx_hal_pwr_ex.c ****   * @note  The configuration is lost when exiting the Shutdown mode due to the
 288:Drivers/STM32G4xx_HAL_Driver/Src/stm32g4xx_hal_pwr_ex.c ****   *        power-on reset, maintained when exiting the Standby mode.
 289:Drivers/STM32G4xx_HAL_Driver/Src/stm32g4xx_hal_pwr_ex.c ****   * @note  To avoid any conflict at Standby and Shutdown modes exits, the corresponding
 290:Drivers/STM32G4xx_HAL_Driver/Src/stm32g4xx_hal_pwr_ex.c ****   *        PDy bit of PWR_PDCRx register is cleared unless it is reserved.
 291:Drivers/STM32G4xx_HAL_Driver/Src/stm32g4xx_hal_pwr_ex.c ****   * @note  Even if a PUy bit to set is reserved, the other PUy bits entered as input
 292:Drivers/STM32G4xx_HAL_Driver/Src/stm32g4xx_hal_pwr_ex.c ****   *        parameter at the same time are set.
 293:Drivers/STM32G4xx_HAL_Driver/Src/stm32g4xx_hal_pwr_ex.c ****   * @param  GPIO: Specify the IO port. This parameter can be PWR_GPIO_A, ..., PWR_GPIO_G
 294:Drivers/STM32G4xx_HAL_Driver/Src/stm32g4xx_hal_pwr_ex.c ****   *         (or PWR_GPIO_I depending on the devices) to select the GPIO peripheral.
 295:Drivers/STM32G4xx_HAL_Driver/Src/stm32g4xx_hal_pwr_ex.c ****   * @param  GPIONumber: Specify the I/O pins numbers.
 296:Drivers/STM32G4xx_HAL_Driver/Src/stm32g4xx_hal_pwr_ex.c ****   *         This parameter can be one of the following values:
 297:Drivers/STM32G4xx_HAL_Driver/Src/stm32g4xx_hal_pwr_ex.c ****   *         PWR_GPIO_BIT_0, ..., PWR_GPIO_BIT_15 (except for the port where less
 298:Drivers/STM32G4xx_HAL_Driver/Src/stm32g4xx_hal_pwr_ex.c ****   *         I/O pins are available) or the logical OR of several of them to set
 299:Drivers/STM32G4xx_HAL_Driver/Src/stm32g4xx_hal_pwr_ex.c ****   *         several bits for a given port in a single API call.
 300:Drivers/STM32G4xx_HAL_Driver/Src/stm32g4xx_hal_pwr_ex.c ****   * @retval HAL Status
 301:Drivers/STM32G4xx_HAL_Driver/Src/stm32g4xx_hal_pwr_ex.c ****   */
 302:Drivers/STM32G4xx_HAL_Driver/Src/stm32g4xx_hal_pwr_ex.c **** HAL_StatusTypeDef HAL_PWREx_EnableGPIOPullUp(uint32_t GPIO, uint32_t GPIONumber)
 303:Drivers/STM32G4xx_HAL_Driver/Src/stm32g4xx_hal_pwr_ex.c **** {
 384              	 .loc 1 303 1 is_stmt 1 view-0
 385              	 .cfi_startproc
 386              	 
 387              	 
 388              	 
 304:Drivers/STM32G4xx_HAL_Driver/Src/stm32g4xx_hal_pwr_ex.c ****   HAL_StatusTypeDef status = HAL_OK;
 389              	 .loc 1 304 3 view .LVU91
 305:Drivers/STM32G4xx_HAL_Driver/Src/stm32g4xx_hal_pwr_ex.c **** 
 306:Drivers/STM32G4xx_HAL_Driver/Src/stm32g4xx_hal_pwr_ex.c ****   assert_param(IS_PWR_GPIO(GPIO));
 390              	 .loc 1 306 3 view .LVU92
 307:Drivers/STM32G4xx_HAL_Driver/Src/stm32g4xx_hal_pwr_ex.c ****   assert_param(IS_PWR_GPIO_BIT_NUMBER(GPIONumber));
 391              	 .loc 1 307 3 view .LVU93
 308:Drivers/STM32G4xx_HAL_Driver/Src/stm32g4xx_hal_pwr_ex.c **** 
ARM GAS   			page 14


 309:Drivers/STM32G4xx_HAL_Driver/Src/stm32g4xx_hal_pwr_ex.c ****   switch (GPIO)
 392              	 .loc 1 309 3 view .LVU94
 393 0000 0628     	 cmp r0,#6
 394 0002 51D8     	 bhi .L70
 395 0004 DFE800F0 	 tbb [pc,r0]
 396              	.L62:
 397 0008 12       	 .byte (.L68-.L62)/2
 398 0009 20       	 .byte (.L67-.L62)/2
 399 000a 2B       	 .byte (.L66-.L62)/2
 400 000b 34       	 .byte (.L65-.L62)/2
 401 000c 3D       	 .byte (.L64-.L62)/2
 402 000d 46       	 .byte (.L63-.L62)/2
 403 000e 04       	 .byte (.L61-.L62)/2
 404 000f 00       	 .p2align 1
 405              	.L61:
 310:Drivers/STM32G4xx_HAL_Driver/Src/stm32g4xx_hal_pwr_ex.c ****   {
 311:Drivers/STM32G4xx_HAL_Driver/Src/stm32g4xx_hal_pwr_ex.c ****     case PWR_GPIO_A:
 312:Drivers/STM32G4xx_HAL_Driver/Src/stm32g4xx_hal_pwr_ex.c ****        SET_BIT(PWR->PUCRA, (GPIONumber & (~(PWR_GPIO_BIT_14))));
 313:Drivers/STM32G4xx_HAL_Driver/Src/stm32g4xx_hal_pwr_ex.c ****        CLEAR_BIT(PWR->PDCRA, (GPIONumber & (~(PWR_GPIO_BIT_13|PWR_GPIO_BIT_15))));
 314:Drivers/STM32G4xx_HAL_Driver/Src/stm32g4xx_hal_pwr_ex.c ****        break;
 315:Drivers/STM32G4xx_HAL_Driver/Src/stm32g4xx_hal_pwr_ex.c ****     case PWR_GPIO_B:
 316:Drivers/STM32G4xx_HAL_Driver/Src/stm32g4xx_hal_pwr_ex.c ****        SET_BIT(PWR->PUCRB, GPIONumber);
 317:Drivers/STM32G4xx_HAL_Driver/Src/stm32g4xx_hal_pwr_ex.c ****        CLEAR_BIT(PWR->PDCRB, (GPIONumber & (~(PWR_GPIO_BIT_4))));
 318:Drivers/STM32G4xx_HAL_Driver/Src/stm32g4xx_hal_pwr_ex.c ****        break;
 319:Drivers/STM32G4xx_HAL_Driver/Src/stm32g4xx_hal_pwr_ex.c ****     case PWR_GPIO_C:
 320:Drivers/STM32G4xx_HAL_Driver/Src/stm32g4xx_hal_pwr_ex.c ****        SET_BIT(PWR->PUCRC, GPIONumber);
 321:Drivers/STM32G4xx_HAL_Driver/Src/stm32g4xx_hal_pwr_ex.c ****        CLEAR_BIT(PWR->PDCRC, GPIONumber);
 322:Drivers/STM32G4xx_HAL_Driver/Src/stm32g4xx_hal_pwr_ex.c ****        break;
 323:Drivers/STM32G4xx_HAL_Driver/Src/stm32g4xx_hal_pwr_ex.c ****     case PWR_GPIO_D:
 324:Drivers/STM32G4xx_HAL_Driver/Src/stm32g4xx_hal_pwr_ex.c ****        SET_BIT(PWR->PUCRD, GPIONumber);
 325:Drivers/STM32G4xx_HAL_Driver/Src/stm32g4xx_hal_pwr_ex.c ****        CLEAR_BIT(PWR->PDCRD, GPIONumber);
 326:Drivers/STM32G4xx_HAL_Driver/Src/stm32g4xx_hal_pwr_ex.c ****        break;
 327:Drivers/STM32G4xx_HAL_Driver/Src/stm32g4xx_hal_pwr_ex.c ****     case PWR_GPIO_E:
 328:Drivers/STM32G4xx_HAL_Driver/Src/stm32g4xx_hal_pwr_ex.c ****        SET_BIT(PWR->PUCRE, GPIONumber);
 329:Drivers/STM32G4xx_HAL_Driver/Src/stm32g4xx_hal_pwr_ex.c ****        CLEAR_BIT(PWR->PDCRE, GPIONumber);
 330:Drivers/STM32G4xx_HAL_Driver/Src/stm32g4xx_hal_pwr_ex.c ****        break;
 331:Drivers/STM32G4xx_HAL_Driver/Src/stm32g4xx_hal_pwr_ex.c ****     case PWR_GPIO_F:
 332:Drivers/STM32G4xx_HAL_Driver/Src/stm32g4xx_hal_pwr_ex.c ****        SET_BIT(PWR->PUCRF, (GPIONumber & PWR_PORTF_AVAILABLE_PINS));
 333:Drivers/STM32G4xx_HAL_Driver/Src/stm32g4xx_hal_pwr_ex.c ****        CLEAR_BIT(PWR->PDCRF, (GPIONumber & PWR_PORTF_AVAILABLE_PINS));
 334:Drivers/STM32G4xx_HAL_Driver/Src/stm32g4xx_hal_pwr_ex.c ****        break;
 335:Drivers/STM32G4xx_HAL_Driver/Src/stm32g4xx_hal_pwr_ex.c ****     case PWR_GPIO_G:
 336:Drivers/STM32G4xx_HAL_Driver/Src/stm32g4xx_hal_pwr_ex.c ****        SET_BIT(PWR->PUCRG, (GPIONumber & PWR_PORTG_AVAILABLE_PINS));
 406              	 .loc 1 336 8 view .LVU95
 407 0010 264B     	 ldr r3,.L71
 408 0012 186D     	 ldr r0,[r3,#80]
 409              	.LVL15:
 410              	 .loc 1 336 8 is_stmt 0 view .LVU96
 411 0014 C1F30A02 	 ubfx r2,r1,#0,#11
 412 0018 0243     	 orrs r2,r2,r0
 413 001a 1A65     	 str r2,[r3,#80]
 337:Drivers/STM32G4xx_HAL_Driver/Src/stm32g4xx_hal_pwr_ex.c ****        CLEAR_BIT(PWR->PDCRG, ((GPIONumber & PWR_PORTG_AVAILABLE_PINS) & (~(PWR_GPIO_BIT_10))));
 414              	 .loc 1 337 8 is_stmt 1 view .LVU97
 415 001c 5A6D     	 ldr r2,[r3,#84]
 416 001e C1F30901 	 ubfx r1,r1,#0,#10
 417              	.LVL16:
 418              	 .loc 1 337 8 is_stmt 0 view .LVU98
 419 0022 22EA0102 	 bic r2,r2,r1
ARM GAS   			page 15


 420 0026 5A65     	 str r2,[r3,#84]
 338:Drivers/STM32G4xx_HAL_Driver/Src/stm32g4xx_hal_pwr_ex.c ****        break;
 421              	 .loc 1 338 8 is_stmt 1 view .LVU99
 422              	.L69:
 304:Drivers/STM32G4xx_HAL_Driver/Src/stm32g4xx_hal_pwr_ex.c **** 
 423              	 .loc 1 304 21 is_stmt 0 view .LVU100
 424 0028 0020     	 movs r0,#0
 425 002a 7047     	 bx lr
 426              	.LVL17:
 427              	.L68:
 312:Drivers/STM32G4xx_HAL_Driver/Src/stm32g4xx_hal_pwr_ex.c ****        CLEAR_BIT(PWR->PDCRA, (GPIONumber & (~(PWR_GPIO_BIT_13|PWR_GPIO_BIT_15))));
 428              	 .loc 1 312 8 is_stmt 1 view .LVU101
 429 002c 1F4B     	 ldr r3,.L71
 430 002e 186A     	 ldr r0,[r3,#32]
 431              	.LVL18:
 312:Drivers/STM32G4xx_HAL_Driver/Src/stm32g4xx_hal_pwr_ex.c ****        CLEAR_BIT(PWR->PDCRA, (GPIONumber & (~(PWR_GPIO_BIT_13|PWR_GPIO_BIT_15))));
 432              	 .loc 1 312 8 is_stmt 0 view .LVU102
 433 0030 21F48042 	 bic r2,r1,#16384
 434 0034 0243     	 orrs r2,r2,r0
 435 0036 1A62     	 str r2,[r3,#32]
 313:Drivers/STM32G4xx_HAL_Driver/Src/stm32g4xx_hal_pwr_ex.c ****        break;
 436              	 .loc 1 313 8 is_stmt 1 view .LVU103
 437 0038 5A6A     	 ldr r2,[r3,#36]
 438 003a 21F42041 	 bic r1,r1,#40960
 439              	.LVL19:
 313:Drivers/STM32G4xx_HAL_Driver/Src/stm32g4xx_hal_pwr_ex.c ****        break;
 440              	 .loc 1 313 8 is_stmt 0 view .LVU104
 441 003e 22EA0102 	 bic r2,r2,r1
 442 0042 5A62     	 str r2,[r3,#36]
 314:Drivers/STM32G4xx_HAL_Driver/Src/stm32g4xx_hal_pwr_ex.c ****     case PWR_GPIO_B:
 443              	 .loc 1 314 8 is_stmt 1 view .LVU105
 304:Drivers/STM32G4xx_HAL_Driver/Src/stm32g4xx_hal_pwr_ex.c **** 
 444              	 .loc 1 304 21 is_stmt 0 view .LVU106
 445 0044 0020     	 movs r0,#0
 446 0046 7047     	 bx lr
 447              	.LVL20:
 448              	.L67:
 316:Drivers/STM32G4xx_HAL_Driver/Src/stm32g4xx_hal_pwr_ex.c ****        CLEAR_BIT(PWR->PDCRB, (GPIONumber & (~(PWR_GPIO_BIT_4))));
 449              	 .loc 1 316 8 is_stmt 1 view .LVU107
 450 0048 184B     	 ldr r3,.L71
 451 004a 9A6A     	 ldr r2,[r3,#40]
 452 004c 0A43     	 orrs r2,r2,r1
 453 004e 9A62     	 str r2,[r3,#40]
 317:Drivers/STM32G4xx_HAL_Driver/Src/stm32g4xx_hal_pwr_ex.c ****        break;
 454              	 .loc 1 317 8 view .LVU108
 455 0050 DA6A     	 ldr r2,[r3,#44]
 456 0052 21F01000 	 bic r0,r1,#16
 457              	.LVL21:
 317:Drivers/STM32G4xx_HAL_Driver/Src/stm32g4xx_hal_pwr_ex.c ****        break;
 458              	 .loc 1 317 8 is_stmt 0 view .LVU109
 459 0056 22EA0002 	 bic r2,r2,r0
 460 005a DA62     	 str r2,[r3,#44]
 318:Drivers/STM32G4xx_HAL_Driver/Src/stm32g4xx_hal_pwr_ex.c ****     case PWR_GPIO_C:
 461              	 .loc 1 318 8 is_stmt 1 view .LVU110
 462 005c E4E7     	 b .L69
 463              	.LVL22:
 464              	.L66:
ARM GAS   			page 16


 320:Drivers/STM32G4xx_HAL_Driver/Src/stm32g4xx_hal_pwr_ex.c ****        CLEAR_BIT(PWR->PDCRC, GPIONumber);
 465              	 .loc 1 320 8 view .LVU111
 466 005e 134B     	 ldr r3,.L71
 467 0060 1A6B     	 ldr r2,[r3,#48]
 468 0062 0A43     	 orrs r2,r2,r1
 469 0064 1A63     	 str r2,[r3,#48]
 321:Drivers/STM32G4xx_HAL_Driver/Src/stm32g4xx_hal_pwr_ex.c ****        break;
 470              	 .loc 1 321 8 view .LVU112
 471 0066 5A6B     	 ldr r2,[r3,#52]
 472 0068 22EA0102 	 bic r2,r2,r1
 473 006c 5A63     	 str r2,[r3,#52]
 322:Drivers/STM32G4xx_HAL_Driver/Src/stm32g4xx_hal_pwr_ex.c ****     case PWR_GPIO_D:
 474              	 .loc 1 322 8 view .LVU113
 475 006e DBE7     	 b .L69
 476              	.L65:
 324:Drivers/STM32G4xx_HAL_Driver/Src/stm32g4xx_hal_pwr_ex.c ****        CLEAR_BIT(PWR->PDCRD, GPIONumber);
 477              	 .loc 1 324 8 view .LVU114
 478 0070 0E4B     	 ldr r3,.L71
 479 0072 9A6B     	 ldr r2,[r3,#56]
 480 0074 0A43     	 orrs r2,r2,r1
 481 0076 9A63     	 str r2,[r3,#56]
 325:Drivers/STM32G4xx_HAL_Driver/Src/stm32g4xx_hal_pwr_ex.c ****        break;
 482              	 .loc 1 325 8 view .LVU115
 483 0078 DA6B     	 ldr r2,[r3,#60]
 484 007a 22EA0102 	 bic r2,r2,r1
 485 007e DA63     	 str r2,[r3,#60]
 326:Drivers/STM32G4xx_HAL_Driver/Src/stm32g4xx_hal_pwr_ex.c ****     case PWR_GPIO_E:
 486              	 .loc 1 326 8 view .LVU116
 487 0080 D2E7     	 b .L69
 488              	.L64:
 328:Drivers/STM32G4xx_HAL_Driver/Src/stm32g4xx_hal_pwr_ex.c ****        CLEAR_BIT(PWR->PDCRE, GPIONumber);
 489              	 .loc 1 328 8 view .LVU117
 490 0082 0A4B     	 ldr r3,.L71
 491 0084 1A6C     	 ldr r2,[r3,#64]
 492 0086 0A43     	 orrs r2,r2,r1
 493 0088 1A64     	 str r2,[r3,#64]
 329:Drivers/STM32G4xx_HAL_Driver/Src/stm32g4xx_hal_pwr_ex.c ****        break;
 494              	 .loc 1 329 8 view .LVU118
 495 008a 5A6C     	 ldr r2,[r3,#68]
 496 008c 22EA0102 	 bic r2,r2,r1
 497 0090 5A64     	 str r2,[r3,#68]
 330:Drivers/STM32G4xx_HAL_Driver/Src/stm32g4xx_hal_pwr_ex.c ****     case PWR_GPIO_F:
 498              	 .loc 1 330 8 view .LVU119
 499 0092 C9E7     	 b .L69
 500              	.L63:
 332:Drivers/STM32G4xx_HAL_Driver/Src/stm32g4xx_hal_pwr_ex.c ****        CLEAR_BIT(PWR->PDCRF, (GPIONumber & PWR_PORTF_AVAILABLE_PINS));
 501              	 .loc 1 332 8 view .LVU120
 502 0094 054B     	 ldr r3,.L71
 503 0096 9A6C     	 ldr r2,[r3,#72]
 504 0098 89B2     	 uxth r1,r1
 505              	.LVL23:
 332:Drivers/STM32G4xx_HAL_Driver/Src/stm32g4xx_hal_pwr_ex.c ****        CLEAR_BIT(PWR->PDCRF, (GPIONumber & PWR_PORTF_AVAILABLE_PINS));
 506              	 .loc 1 332 8 is_stmt 0 view .LVU121
 507 009a 0A43     	 orrs r2,r2,r1
 508 009c 9A64     	 str r2,[r3,#72]
 333:Drivers/STM32G4xx_HAL_Driver/Src/stm32g4xx_hal_pwr_ex.c ****        break;
 509              	 .loc 1 333 8 is_stmt 1 view .LVU122
ARM GAS   			page 17


 510 009e DA6C     	 ldr r2,[r3,#76]
 511 00a0 22EA0102 	 bic r2,r2,r1
 512 00a4 DA64     	 str r2,[r3,#76]
 334:Drivers/STM32G4xx_HAL_Driver/Src/stm32g4xx_hal_pwr_ex.c ****     case PWR_GPIO_G:
 513              	 .loc 1 334 8 view .LVU123
 514 00a6 BFE7     	 b .L69
 515              	.LVL24:
 516              	.L70:
 309:Drivers/STM32G4xx_HAL_Driver/Src/stm32g4xx_hal_pwr_ex.c ****   {
 517              	 .loc 1 309 3 is_stmt 0 view .LVU124
 518 00a8 0120     	 movs r0,#1
 519              	.LVL25:
 339:Drivers/STM32G4xx_HAL_Driver/Src/stm32g4xx_hal_pwr_ex.c ****     default:
 340:Drivers/STM32G4xx_HAL_Driver/Src/stm32g4xx_hal_pwr_ex.c ****       status = HAL_ERROR;
 341:Drivers/STM32G4xx_HAL_Driver/Src/stm32g4xx_hal_pwr_ex.c ****       break;
 342:Drivers/STM32G4xx_HAL_Driver/Src/stm32g4xx_hal_pwr_ex.c ****   }
 343:Drivers/STM32G4xx_HAL_Driver/Src/stm32g4xx_hal_pwr_ex.c **** 
 344:Drivers/STM32G4xx_HAL_Driver/Src/stm32g4xx_hal_pwr_ex.c ****   return status;
 520              	 .loc 1 344 3 is_stmt 1 view .LVU125
 345:Drivers/STM32G4xx_HAL_Driver/Src/stm32g4xx_hal_pwr_ex.c **** }
 521              	 .loc 1 345 1 is_stmt 0 view .LVU126
 522 00aa 7047     	 bx lr
 523              	.L72:
 524              	 .align 2
 525              	.L71:
 526 00ac 00700040 	 .word 1073770496
 527              	 .cfi_endproc
 528              	.LFE367:
 530              	 .section .text.HAL_PWREx_DisableGPIOPullUp,"ax",%progbits
 531              	 .align 1
 532              	 .p2align 2,,3
 533              	 .global HAL_PWREx_DisableGPIOPullUp
 534              	 .syntax unified
 535              	 .thumb
 536              	 .thumb_func
 538              	HAL_PWREx_DisableGPIOPullUp:
 539              	.LVL26:
 540              	.LFB368:
 346:Drivers/STM32G4xx_HAL_Driver/Src/stm32g4xx_hal_pwr_ex.c **** 
 347:Drivers/STM32G4xx_HAL_Driver/Src/stm32g4xx_hal_pwr_ex.c **** 
 348:Drivers/STM32G4xx_HAL_Driver/Src/stm32g4xx_hal_pwr_ex.c **** /**
 349:Drivers/STM32G4xx_HAL_Driver/Src/stm32g4xx_hal_pwr_ex.c ****   * @brief Disable GPIO pull-up state in Standby mode and Shutdown modes.
 350:Drivers/STM32G4xx_HAL_Driver/Src/stm32g4xx_hal_pwr_ex.c ****   * @note  Reset the relevant PUy bits of PWR_PUCRx register used to configure the I/O
 351:Drivers/STM32G4xx_HAL_Driver/Src/stm32g4xx_hal_pwr_ex.c ****   *        in pull-up state in Standby and Shutdown modes.
 352:Drivers/STM32G4xx_HAL_Driver/Src/stm32g4xx_hal_pwr_ex.c ****   * @note  Even if a PUy bit to reset is reserved, the other PUy bits entered as input
 353:Drivers/STM32G4xx_HAL_Driver/Src/stm32g4xx_hal_pwr_ex.c ****   *        parameter at the same time are reset.
 354:Drivers/STM32G4xx_HAL_Driver/Src/stm32g4xx_hal_pwr_ex.c ****   * @param  GPIO: Specifies the IO port. This parameter can be PWR_GPIO_A, ..., PWR_GPIO_G
 355:Drivers/STM32G4xx_HAL_Driver/Src/stm32g4xx_hal_pwr_ex.c ****   *          (or PWR_GPIO_I depending on the devices) to select the GPIO peripheral.
 356:Drivers/STM32G4xx_HAL_Driver/Src/stm32g4xx_hal_pwr_ex.c ****   * @param  GPIONumber: Specify the I/O pins numbers.
 357:Drivers/STM32G4xx_HAL_Driver/Src/stm32g4xx_hal_pwr_ex.c ****   *         This parameter can be one of the following values:
 358:Drivers/STM32G4xx_HAL_Driver/Src/stm32g4xx_hal_pwr_ex.c ****   *         PWR_GPIO_BIT_0, ..., PWR_GPIO_BIT_15 (except for the port where less
 359:Drivers/STM32G4xx_HAL_Driver/Src/stm32g4xx_hal_pwr_ex.c ****   *         I/O pins are available) or the logical OR of several of them to reset
 360:Drivers/STM32G4xx_HAL_Driver/Src/stm32g4xx_hal_pwr_ex.c ****   *         several bits for a given port in a single API call.
 361:Drivers/STM32G4xx_HAL_Driver/Src/stm32g4xx_hal_pwr_ex.c ****   * @retval HAL Status
 362:Drivers/STM32G4xx_HAL_Driver/Src/stm32g4xx_hal_pwr_ex.c ****   */
 363:Drivers/STM32G4xx_HAL_Driver/Src/stm32g4xx_hal_pwr_ex.c **** HAL_StatusTypeDef HAL_PWREx_DisableGPIOPullUp(uint32_t GPIO, uint32_t GPIONumber)
 364:Drivers/STM32G4xx_HAL_Driver/Src/stm32g4xx_hal_pwr_ex.c **** {
ARM GAS   			page 18


 541              	 .loc 1 364 1 is_stmt 1 view-0
 542              	 .cfi_startproc
 543              	 
 544              	 
 545              	 
 365:Drivers/STM32G4xx_HAL_Driver/Src/stm32g4xx_hal_pwr_ex.c ****   HAL_StatusTypeDef status = HAL_OK;
 546              	 .loc 1 365 3 view .LVU128
 366:Drivers/STM32G4xx_HAL_Driver/Src/stm32g4xx_hal_pwr_ex.c **** 
 367:Drivers/STM32G4xx_HAL_Driver/Src/stm32g4xx_hal_pwr_ex.c ****   assert_param(IS_PWR_GPIO(GPIO));
 547              	 .loc 1 367 3 view .LVU129
 368:Drivers/STM32G4xx_HAL_Driver/Src/stm32g4xx_hal_pwr_ex.c ****   assert_param(IS_PWR_GPIO_BIT_NUMBER(GPIONumber));
 548              	 .loc 1 368 3 view .LVU130
 369:Drivers/STM32G4xx_HAL_Driver/Src/stm32g4xx_hal_pwr_ex.c **** 
 370:Drivers/STM32G4xx_HAL_Driver/Src/stm32g4xx_hal_pwr_ex.c ****   switch (GPIO)
 549              	 .loc 1 370 3 view .LVU131
 550 0000 0628     	 cmp r0,#6
 551 0002 36D8     	 bhi .L84
 552 0004 DFE800F0 	 tbb [pc,r0]
 553              	.L76:
 554 0008 0D       	 .byte (.L82-.L76)/2
 555 0009 16       	 .byte (.L81-.L76)/2
 556 000a 1C       	 .byte (.L80-.L76)/2
 557 000b 22       	 .byte (.L79-.L76)/2
 558 000c 28       	 .byte (.L78-.L76)/2
 559 000d 2E       	 .byte (.L77-.L76)/2
 560 000e 04       	 .byte (.L75-.L76)/2
 561 000f 00       	 .p2align 1
 562              	.L75:
 371:Drivers/STM32G4xx_HAL_Driver/Src/stm32g4xx_hal_pwr_ex.c ****   {
 372:Drivers/STM32G4xx_HAL_Driver/Src/stm32g4xx_hal_pwr_ex.c ****     case PWR_GPIO_A:
 373:Drivers/STM32G4xx_HAL_Driver/Src/stm32g4xx_hal_pwr_ex.c ****        CLEAR_BIT(PWR->PUCRA, (GPIONumber & (~(PWR_GPIO_BIT_14))));
 374:Drivers/STM32G4xx_HAL_Driver/Src/stm32g4xx_hal_pwr_ex.c ****        break;
 375:Drivers/STM32G4xx_HAL_Driver/Src/stm32g4xx_hal_pwr_ex.c ****     case PWR_GPIO_B:
 376:Drivers/STM32G4xx_HAL_Driver/Src/stm32g4xx_hal_pwr_ex.c ****        CLEAR_BIT(PWR->PUCRB, GPIONumber);
 377:Drivers/STM32G4xx_HAL_Driver/Src/stm32g4xx_hal_pwr_ex.c ****        break;
 378:Drivers/STM32G4xx_HAL_Driver/Src/stm32g4xx_hal_pwr_ex.c ****     case PWR_GPIO_C:
 379:Drivers/STM32G4xx_HAL_Driver/Src/stm32g4xx_hal_pwr_ex.c ****        CLEAR_BIT(PWR->PUCRC, GPIONumber);
 380:Drivers/STM32G4xx_HAL_Driver/Src/stm32g4xx_hal_pwr_ex.c ****        break;
 381:Drivers/STM32G4xx_HAL_Driver/Src/stm32g4xx_hal_pwr_ex.c ****     case PWR_GPIO_D:
 382:Drivers/STM32G4xx_HAL_Driver/Src/stm32g4xx_hal_pwr_ex.c ****        CLEAR_BIT(PWR->PUCRD, GPIONumber);
 383:Drivers/STM32G4xx_HAL_Driver/Src/stm32g4xx_hal_pwr_ex.c ****        break;
 384:Drivers/STM32G4xx_HAL_Driver/Src/stm32g4xx_hal_pwr_ex.c ****     case PWR_GPIO_E:
 385:Drivers/STM32G4xx_HAL_Driver/Src/stm32g4xx_hal_pwr_ex.c ****        CLEAR_BIT(PWR->PUCRE, GPIONumber);
 386:Drivers/STM32G4xx_HAL_Driver/Src/stm32g4xx_hal_pwr_ex.c ****        break;
 387:Drivers/STM32G4xx_HAL_Driver/Src/stm32g4xx_hal_pwr_ex.c ****     case PWR_GPIO_F:
 388:Drivers/STM32G4xx_HAL_Driver/Src/stm32g4xx_hal_pwr_ex.c ****        CLEAR_BIT(PWR->PUCRF, (GPIONumber & PWR_PORTF_AVAILABLE_PINS));
 389:Drivers/STM32G4xx_HAL_Driver/Src/stm32g4xx_hal_pwr_ex.c ****        break;
 390:Drivers/STM32G4xx_HAL_Driver/Src/stm32g4xx_hal_pwr_ex.c ****     case PWR_GPIO_G:
 391:Drivers/STM32G4xx_HAL_Driver/Src/stm32g4xx_hal_pwr_ex.c ****        CLEAR_BIT(PWR->PUCRG, (GPIONumber & PWR_PORTG_AVAILABLE_PINS));
 563              	 .loc 1 391 8 view .LVU132
 564 0010 194A     	 ldr r2,.L85
 565 0012 136D     	 ldr r3,[r2,#80]
 566 0014 C1F30A01 	 ubfx r1,r1,#0,#11
 567              	.LVL27:
 568              	 .loc 1 391 8 is_stmt 0 view .LVU133
 569 0018 23EA0103 	 bic r3,r3,r1
 570 001c 1365     	 str r3,[r2,#80]
ARM GAS   			page 19


 392:Drivers/STM32G4xx_HAL_Driver/Src/stm32g4xx_hal_pwr_ex.c ****        break;
 571              	 .loc 1 392 8 is_stmt 1 view .LVU134
 572              	.L83:
 365:Drivers/STM32G4xx_HAL_Driver/Src/stm32g4xx_hal_pwr_ex.c **** 
 573              	 .loc 1 365 21 is_stmt 0 view .LVU135
 574 001e 0020     	 movs r0,#0
 575              	.LVL28:
 365:Drivers/STM32G4xx_HAL_Driver/Src/stm32g4xx_hal_pwr_ex.c **** 
 576              	 .loc 1 365 21 view .LVU136
 577 0020 7047     	 bx lr
 578              	.LVL29:
 579              	.L82:
 373:Drivers/STM32G4xx_HAL_Driver/Src/stm32g4xx_hal_pwr_ex.c ****        break;
 580              	 .loc 1 373 8 is_stmt 1 view .LVU137
 581 0022 154A     	 ldr r2,.L85
 582 0024 136A     	 ldr r3,[r2,#32]
 583 0026 21F48041 	 bic r1,r1,#16384
 584              	.LVL30:
 373:Drivers/STM32G4xx_HAL_Driver/Src/stm32g4xx_hal_pwr_ex.c ****        break;
 585              	 .loc 1 373 8 is_stmt 0 view .LVU138
 586 002a 23EA0103 	 bic r3,r3,r1
 587 002e 1362     	 str r3,[r2,#32]
 374:Drivers/STM32G4xx_HAL_Driver/Src/stm32g4xx_hal_pwr_ex.c ****     case PWR_GPIO_B:
 588              	 .loc 1 374 8 is_stmt 1 view .LVU139
 365:Drivers/STM32G4xx_HAL_Driver/Src/stm32g4xx_hal_pwr_ex.c **** 
 589              	 .loc 1 365 21 is_stmt 0 view .LVU140
 590 0030 0020     	 movs r0,#0
 591              	.LVL31:
 365:Drivers/STM32G4xx_HAL_Driver/Src/stm32g4xx_hal_pwr_ex.c **** 
 592              	 .loc 1 365 21 view .LVU141
 593 0032 7047     	 bx lr
 594              	.LVL32:
 595              	.L81:
 376:Drivers/STM32G4xx_HAL_Driver/Src/stm32g4xx_hal_pwr_ex.c ****        break;
 596              	 .loc 1 376 8 is_stmt 1 view .LVU142
 597 0034 104A     	 ldr r2,.L85
 598 0036 936A     	 ldr r3,[r2,#40]
 599 0038 23EA0103 	 bic r3,r3,r1
 600 003c 9362     	 str r3,[r2,#40]
 377:Drivers/STM32G4xx_HAL_Driver/Src/stm32g4xx_hal_pwr_ex.c ****     case PWR_GPIO_C:
 601              	 .loc 1 377 8 view .LVU143
 602 003e EEE7     	 b .L83
 603              	.L80:
 379:Drivers/STM32G4xx_HAL_Driver/Src/stm32g4xx_hal_pwr_ex.c ****        break;
 604              	 .loc 1 379 8 view .LVU144
 605 0040 0D4A     	 ldr r2,.L85
 606 0042 136B     	 ldr r3,[r2,#48]
 607 0044 23EA0103 	 bic r3,r3,r1
 608 0048 1363     	 str r3,[r2,#48]
 380:Drivers/STM32G4xx_HAL_Driver/Src/stm32g4xx_hal_pwr_ex.c ****     case PWR_GPIO_D:
 609              	 .loc 1 380 8 view .LVU145
 610 004a E8E7     	 b .L83
 611              	.L79:
 382:Drivers/STM32G4xx_HAL_Driver/Src/stm32g4xx_hal_pwr_ex.c ****        break;
 612              	 .loc 1 382 8 view .LVU146
 613 004c 0A4A     	 ldr r2,.L85
 614 004e 936B     	 ldr r3,[r2,#56]
ARM GAS   			page 20


 615 0050 23EA0103 	 bic r3,r3,r1
 616 0054 9363     	 str r3,[r2,#56]
 383:Drivers/STM32G4xx_HAL_Driver/Src/stm32g4xx_hal_pwr_ex.c ****     case PWR_GPIO_E:
 617              	 .loc 1 383 8 view .LVU147
 618 0056 E2E7     	 b .L83
 619              	.L78:
 385:Drivers/STM32G4xx_HAL_Driver/Src/stm32g4xx_hal_pwr_ex.c ****        break;
 620              	 .loc 1 385 8 view .LVU148
 621 0058 074A     	 ldr r2,.L85
 622 005a 136C     	 ldr r3,[r2,#64]
 623 005c 23EA0103 	 bic r3,r3,r1
 624 0060 1364     	 str r3,[r2,#64]
 386:Drivers/STM32G4xx_HAL_Driver/Src/stm32g4xx_hal_pwr_ex.c ****     case PWR_GPIO_F:
 625              	 .loc 1 386 8 view .LVU149
 626 0062 DCE7     	 b .L83
 627              	.L77:
 388:Drivers/STM32G4xx_HAL_Driver/Src/stm32g4xx_hal_pwr_ex.c ****        break;
 628              	 .loc 1 388 8 view .LVU150
 629 0064 044A     	 ldr r2,.L85
 630 0066 936C     	 ldr r3,[r2,#72]
 631 0068 89B2     	 uxth r1,r1
 632              	.LVL33:
 388:Drivers/STM32G4xx_HAL_Driver/Src/stm32g4xx_hal_pwr_ex.c ****        break;
 633              	 .loc 1 388 8 is_stmt 0 view .LVU151
 634 006a 23EA0103 	 bic r3,r3,r1
 635 006e 9364     	 str r3,[r2,#72]
 389:Drivers/STM32G4xx_HAL_Driver/Src/stm32g4xx_hal_pwr_ex.c ****     case PWR_GPIO_G:
 636              	 .loc 1 389 8 is_stmt 1 view .LVU152
 637 0070 D5E7     	 b .L83
 638              	.LVL34:
 639              	.L84:
 370:Drivers/STM32G4xx_HAL_Driver/Src/stm32g4xx_hal_pwr_ex.c ****   {
 640              	 .loc 1 370 3 is_stmt 0 view .LVU153
 641 0072 0120     	 movs r0,#1
 642              	.LVL35:
 393:Drivers/STM32G4xx_HAL_Driver/Src/stm32g4xx_hal_pwr_ex.c ****     default:
 394:Drivers/STM32G4xx_HAL_Driver/Src/stm32g4xx_hal_pwr_ex.c ****        status = HAL_ERROR;
 395:Drivers/STM32G4xx_HAL_Driver/Src/stm32g4xx_hal_pwr_ex.c ****        break;
 396:Drivers/STM32G4xx_HAL_Driver/Src/stm32g4xx_hal_pwr_ex.c ****   }
 397:Drivers/STM32G4xx_HAL_Driver/Src/stm32g4xx_hal_pwr_ex.c **** 
 398:Drivers/STM32G4xx_HAL_Driver/Src/stm32g4xx_hal_pwr_ex.c ****   return status;
 643              	 .loc 1 398 3 is_stmt 1 view .LVU154
 399:Drivers/STM32G4xx_HAL_Driver/Src/stm32g4xx_hal_pwr_ex.c **** }
 644              	 .loc 1 399 1 is_stmt 0 view .LVU155
 645 0074 7047     	 bx lr
 646              	.L86:
 647 0076 00BF     	 .align 2
 648              	.L85:
 649 0078 00700040 	 .word 1073770496
 650              	 .cfi_endproc
 651              	.LFE368:
 653              	 .section .text.HAL_PWREx_EnableGPIOPullDown,"ax",%progbits
 654              	 .align 1
 655              	 .p2align 2,,3
 656              	 .global HAL_PWREx_EnableGPIOPullDown
 657              	 .syntax unified
 658              	 .thumb
ARM GAS   			page 21


 659              	 .thumb_func
 661              	HAL_PWREx_EnableGPIOPullDown:
 662              	.LVL36:
 663              	.LFB369:
 400:Drivers/STM32G4xx_HAL_Driver/Src/stm32g4xx_hal_pwr_ex.c **** 
 401:Drivers/STM32G4xx_HAL_Driver/Src/stm32g4xx_hal_pwr_ex.c **** 
 402:Drivers/STM32G4xx_HAL_Driver/Src/stm32g4xx_hal_pwr_ex.c **** 
 403:Drivers/STM32G4xx_HAL_Driver/Src/stm32g4xx_hal_pwr_ex.c **** /**
 404:Drivers/STM32G4xx_HAL_Driver/Src/stm32g4xx_hal_pwr_ex.c ****   * @brief Enable GPIO pull-down state in Standby and Shutdown modes.
 405:Drivers/STM32G4xx_HAL_Driver/Src/stm32g4xx_hal_pwr_ex.c ****   * @note  Set the relevant PDy bits of PWR_PDCRx register to configure the I/O in
 406:Drivers/STM32G4xx_HAL_Driver/Src/stm32g4xx_hal_pwr_ex.c ****   *        pull-down state in Standby and Shutdown modes.
 407:Drivers/STM32G4xx_HAL_Driver/Src/stm32g4xx_hal_pwr_ex.c ****   * @note  This state is effective in Standby and Shutdown modes only if APC bit
 408:Drivers/STM32G4xx_HAL_Driver/Src/stm32g4xx_hal_pwr_ex.c ****   *        is set through HAL_PWREx_EnablePullUpPullDownConfig() API.
 409:Drivers/STM32G4xx_HAL_Driver/Src/stm32g4xx_hal_pwr_ex.c ****   * @note  The configuration is lost when exiting the Shutdown mode due to the
 410:Drivers/STM32G4xx_HAL_Driver/Src/stm32g4xx_hal_pwr_ex.c ****   *        power-on reset, maintained when exiting the Standby mode.
 411:Drivers/STM32G4xx_HAL_Driver/Src/stm32g4xx_hal_pwr_ex.c ****   * @note  To avoid any conflict at Standby and Shutdown modes exits, the corresponding
 412:Drivers/STM32G4xx_HAL_Driver/Src/stm32g4xx_hal_pwr_ex.c ****   *        PUy bit of PWR_PUCRx register is cleared unless it is reserved.
 413:Drivers/STM32G4xx_HAL_Driver/Src/stm32g4xx_hal_pwr_ex.c ****   * @note  Even if a PDy bit to set is reserved, the other PDy bits entered as input
 414:Drivers/STM32G4xx_HAL_Driver/Src/stm32g4xx_hal_pwr_ex.c ****   *        parameter at the same time are set.
 415:Drivers/STM32G4xx_HAL_Driver/Src/stm32g4xx_hal_pwr_ex.c ****   * @param  GPIO: Specify the IO port. This parameter can be PWR_GPIO_A..PWR_GPIO_G
 416:Drivers/STM32G4xx_HAL_Driver/Src/stm32g4xx_hal_pwr_ex.c ****   *         (or PWR_GPIO_I depending on the devices) to select the GPIO peripheral.
 417:Drivers/STM32G4xx_HAL_Driver/Src/stm32g4xx_hal_pwr_ex.c ****   * @param  GPIONumber: Specify the I/O pins numbers.
 418:Drivers/STM32G4xx_HAL_Driver/Src/stm32g4xx_hal_pwr_ex.c ****   *         This parameter can be one of the following values:
 419:Drivers/STM32G4xx_HAL_Driver/Src/stm32g4xx_hal_pwr_ex.c ****   *         PWR_GPIO_BIT_0, ..., PWR_GPIO_BIT_15 (except for the port where less
 420:Drivers/STM32G4xx_HAL_Driver/Src/stm32g4xx_hal_pwr_ex.c ****   *         I/O pins are available) or the logical OR of several of them to set
 421:Drivers/STM32G4xx_HAL_Driver/Src/stm32g4xx_hal_pwr_ex.c ****   *         several bits for a given port in a single API call.
 422:Drivers/STM32G4xx_HAL_Driver/Src/stm32g4xx_hal_pwr_ex.c ****   * @retval HAL Status
 423:Drivers/STM32G4xx_HAL_Driver/Src/stm32g4xx_hal_pwr_ex.c ****   */
 424:Drivers/STM32G4xx_HAL_Driver/Src/stm32g4xx_hal_pwr_ex.c **** HAL_StatusTypeDef HAL_PWREx_EnableGPIOPullDown(uint32_t GPIO, uint32_t GPIONumber)
 425:Drivers/STM32G4xx_HAL_Driver/Src/stm32g4xx_hal_pwr_ex.c **** {
 664              	 .loc 1 425 1 is_stmt 1 view-0
 665              	 .cfi_startproc
 666              	 
 667              	 
 668              	 
 426:Drivers/STM32G4xx_HAL_Driver/Src/stm32g4xx_hal_pwr_ex.c ****   HAL_StatusTypeDef status = HAL_OK;
 669              	 .loc 1 426 3 view .LVU157
 427:Drivers/STM32G4xx_HAL_Driver/Src/stm32g4xx_hal_pwr_ex.c **** 
 428:Drivers/STM32G4xx_HAL_Driver/Src/stm32g4xx_hal_pwr_ex.c ****   assert_param(IS_PWR_GPIO(GPIO));
 670              	 .loc 1 428 3 view .LVU158
 429:Drivers/STM32G4xx_HAL_Driver/Src/stm32g4xx_hal_pwr_ex.c ****   assert_param(IS_PWR_GPIO_BIT_NUMBER(GPIONumber));
 671              	 .loc 1 429 3 view .LVU159
 430:Drivers/STM32G4xx_HAL_Driver/Src/stm32g4xx_hal_pwr_ex.c **** 
 431:Drivers/STM32G4xx_HAL_Driver/Src/stm32g4xx_hal_pwr_ex.c ****   switch (GPIO)
 672              	 .loc 1 431 3 view .LVU160
 673 0000 0628     	 cmp r0,#6
 674 0002 51D8     	 bhi .L98
 675 0004 DFE800F0 	 tbb [pc,r0]
 676              	.L90:
 677 0008 12       	 .byte (.L96-.L90)/2
 678 0009 20       	 .byte (.L95-.L90)/2
 679 000a 2B       	 .byte (.L94-.L90)/2
 680 000b 34       	 .byte (.L93-.L90)/2
 681 000c 3D       	 .byte (.L92-.L90)/2
 682 000d 46       	 .byte (.L91-.L90)/2
 683 000e 04       	 .byte (.L89-.L90)/2
 684 000f 00       	 .p2align 1
ARM GAS   			page 22


 685              	.L89:
 432:Drivers/STM32G4xx_HAL_Driver/Src/stm32g4xx_hal_pwr_ex.c ****   {
 433:Drivers/STM32G4xx_HAL_Driver/Src/stm32g4xx_hal_pwr_ex.c ****     case PWR_GPIO_A:
 434:Drivers/STM32G4xx_HAL_Driver/Src/stm32g4xx_hal_pwr_ex.c ****        SET_BIT(PWR->PDCRA, (GPIONumber & (~(PWR_GPIO_BIT_13|PWR_GPIO_BIT_15))));
 435:Drivers/STM32G4xx_HAL_Driver/Src/stm32g4xx_hal_pwr_ex.c ****        CLEAR_BIT(PWR->PUCRA, (GPIONumber & (~(PWR_GPIO_BIT_14))));
 436:Drivers/STM32G4xx_HAL_Driver/Src/stm32g4xx_hal_pwr_ex.c ****        break;
 437:Drivers/STM32G4xx_HAL_Driver/Src/stm32g4xx_hal_pwr_ex.c ****     case PWR_GPIO_B:
 438:Drivers/STM32G4xx_HAL_Driver/Src/stm32g4xx_hal_pwr_ex.c ****        SET_BIT(PWR->PDCRB, (GPIONumber & (~(PWR_GPIO_BIT_4))));
 439:Drivers/STM32G4xx_HAL_Driver/Src/stm32g4xx_hal_pwr_ex.c ****        CLEAR_BIT(PWR->PUCRB, GPIONumber);
 440:Drivers/STM32G4xx_HAL_Driver/Src/stm32g4xx_hal_pwr_ex.c ****        break;
 441:Drivers/STM32G4xx_HAL_Driver/Src/stm32g4xx_hal_pwr_ex.c ****     case PWR_GPIO_C:
 442:Drivers/STM32G4xx_HAL_Driver/Src/stm32g4xx_hal_pwr_ex.c ****        SET_BIT(PWR->PDCRC, GPIONumber);
 443:Drivers/STM32G4xx_HAL_Driver/Src/stm32g4xx_hal_pwr_ex.c ****        CLEAR_BIT(PWR->PUCRC, GPIONumber);
 444:Drivers/STM32G4xx_HAL_Driver/Src/stm32g4xx_hal_pwr_ex.c ****        break;
 445:Drivers/STM32G4xx_HAL_Driver/Src/stm32g4xx_hal_pwr_ex.c ****     case PWR_GPIO_D:
 446:Drivers/STM32G4xx_HAL_Driver/Src/stm32g4xx_hal_pwr_ex.c ****        SET_BIT(PWR->PDCRD, GPIONumber);
 447:Drivers/STM32G4xx_HAL_Driver/Src/stm32g4xx_hal_pwr_ex.c ****        CLEAR_BIT(PWR->PUCRD, GPIONumber);
 448:Drivers/STM32G4xx_HAL_Driver/Src/stm32g4xx_hal_pwr_ex.c ****        break;
 449:Drivers/STM32G4xx_HAL_Driver/Src/stm32g4xx_hal_pwr_ex.c ****     case PWR_GPIO_E:
 450:Drivers/STM32G4xx_HAL_Driver/Src/stm32g4xx_hal_pwr_ex.c ****        SET_BIT(PWR->PDCRE, GPIONumber);
 451:Drivers/STM32G4xx_HAL_Driver/Src/stm32g4xx_hal_pwr_ex.c ****        CLEAR_BIT(PWR->PUCRE, GPIONumber);
 452:Drivers/STM32G4xx_HAL_Driver/Src/stm32g4xx_hal_pwr_ex.c ****        break;
 453:Drivers/STM32G4xx_HAL_Driver/Src/stm32g4xx_hal_pwr_ex.c ****     case PWR_GPIO_F:
 454:Drivers/STM32G4xx_HAL_Driver/Src/stm32g4xx_hal_pwr_ex.c ****        SET_BIT(PWR->PDCRF, (GPIONumber & PWR_PORTF_AVAILABLE_PINS));
 455:Drivers/STM32G4xx_HAL_Driver/Src/stm32g4xx_hal_pwr_ex.c ****        CLEAR_BIT(PWR->PUCRF, (GPIONumber & PWR_PORTF_AVAILABLE_PINS));
 456:Drivers/STM32G4xx_HAL_Driver/Src/stm32g4xx_hal_pwr_ex.c ****        break;
 457:Drivers/STM32G4xx_HAL_Driver/Src/stm32g4xx_hal_pwr_ex.c ****     case PWR_GPIO_G:
 458:Drivers/STM32G4xx_HAL_Driver/Src/stm32g4xx_hal_pwr_ex.c ****        SET_BIT(PWR->PDCRG, ((GPIONumber & PWR_PORTG_AVAILABLE_PINS) & (~(PWR_GPIO_BIT_10))));
 686              	 .loc 1 458 8 view .LVU161
 687 0010 264B     	 ldr r3,.L99
 688 0012 586D     	 ldr r0,[r3,#84]
 689              	.LVL37:
 690              	 .loc 1 458 8 is_stmt 0 view .LVU162
 691 0014 C1F30902 	 ubfx r2,r1,#0,#10
 692 0018 0243     	 orrs r2,r2,r0
 693 001a 5A65     	 str r2,[r3,#84]
 459:Drivers/STM32G4xx_HAL_Driver/Src/stm32g4xx_hal_pwr_ex.c ****        CLEAR_BIT(PWR->PUCRG, (GPIONumber & PWR_PORTG_AVAILABLE_PINS));
 694              	 .loc 1 459 8 is_stmt 1 view .LVU163
 695 001c 1A6D     	 ldr r2,[r3,#80]
 696 001e C1F30A01 	 ubfx r1,r1,#0,#11
 697              	.LVL38:
 698              	 .loc 1 459 8 is_stmt 0 view .LVU164
 699 0022 22EA0102 	 bic r2,r2,r1
 700 0026 1A65     	 str r2,[r3,#80]
 460:Drivers/STM32G4xx_HAL_Driver/Src/stm32g4xx_hal_pwr_ex.c ****        break;
 701              	 .loc 1 460 8 is_stmt 1 view .LVU165
 702              	.L97:
 426:Drivers/STM32G4xx_HAL_Driver/Src/stm32g4xx_hal_pwr_ex.c **** 
 703              	 .loc 1 426 21 is_stmt 0 view .LVU166
 704 0028 0020     	 movs r0,#0
 705 002a 7047     	 bx lr
 706              	.LVL39:
 707              	.L96:
 434:Drivers/STM32G4xx_HAL_Driver/Src/stm32g4xx_hal_pwr_ex.c ****        CLEAR_BIT(PWR->PUCRA, (GPIONumber & (~(PWR_GPIO_BIT_14))));
 708              	 .loc 1 434 8 is_stmt 1 view .LVU167
 709 002c 1F4B     	 ldr r3,.L99
 710 002e 586A     	 ldr r0,[r3,#36]
ARM GAS   			page 23


 711              	.LVL40:
 434:Drivers/STM32G4xx_HAL_Driver/Src/stm32g4xx_hal_pwr_ex.c ****        CLEAR_BIT(PWR->PUCRA, (GPIONumber & (~(PWR_GPIO_BIT_14))));
 712              	 .loc 1 434 8 is_stmt 0 view .LVU168
 713 0030 21F42042 	 bic r2,r1,#40960
 714 0034 0243     	 orrs r2,r2,r0
 715 0036 5A62     	 str r2,[r3,#36]
 435:Drivers/STM32G4xx_HAL_Driver/Src/stm32g4xx_hal_pwr_ex.c ****        break;
 716              	 .loc 1 435 8 is_stmt 1 view .LVU169
 717 0038 1A6A     	 ldr r2,[r3,#32]
 718 003a 21F48041 	 bic r1,r1,#16384
 719              	.LVL41:
 435:Drivers/STM32G4xx_HAL_Driver/Src/stm32g4xx_hal_pwr_ex.c ****        break;
 720              	 .loc 1 435 8 is_stmt 0 view .LVU170
 721 003e 22EA0102 	 bic r2,r2,r1
 722 0042 1A62     	 str r2,[r3,#32]
 436:Drivers/STM32G4xx_HAL_Driver/Src/stm32g4xx_hal_pwr_ex.c ****     case PWR_GPIO_B:
 723              	 .loc 1 436 8 is_stmt 1 view .LVU171
 426:Drivers/STM32G4xx_HAL_Driver/Src/stm32g4xx_hal_pwr_ex.c **** 
 724              	 .loc 1 426 21 is_stmt 0 view .LVU172
 725 0044 0020     	 movs r0,#0
 726 0046 7047     	 bx lr
 727              	.LVL42:
 728              	.L95:
 438:Drivers/STM32G4xx_HAL_Driver/Src/stm32g4xx_hal_pwr_ex.c ****        CLEAR_BIT(PWR->PUCRB, GPIONumber);
 729              	 .loc 1 438 8 is_stmt 1 view .LVU173
 730 0048 184B     	 ldr r3,.L99
 731 004a D86A     	 ldr r0,[r3,#44]
 732              	.LVL43:
 438:Drivers/STM32G4xx_HAL_Driver/Src/stm32g4xx_hal_pwr_ex.c ****        CLEAR_BIT(PWR->PUCRB, GPIONumber);
 733              	 .loc 1 438 8 is_stmt 0 view .LVU174
 734 004c 21F01002 	 bic r2,r1,#16
 735 0050 0243     	 orrs r2,r2,r0
 736 0052 DA62     	 str r2,[r3,#44]
 439:Drivers/STM32G4xx_HAL_Driver/Src/stm32g4xx_hal_pwr_ex.c ****        break;
 737              	 .loc 1 439 8 is_stmt 1 view .LVU175
 738 0054 9A6A     	 ldr r2,[r3,#40]
 739 0056 22EA0102 	 bic r2,r2,r1
 740 005a 9A62     	 str r2,[r3,#40]
 440:Drivers/STM32G4xx_HAL_Driver/Src/stm32g4xx_hal_pwr_ex.c ****     case PWR_GPIO_C:
 741              	 .loc 1 440 8 view .LVU176
 742 005c E4E7     	 b .L97
 743              	.LVL44:
 744              	.L94:
 442:Drivers/STM32G4xx_HAL_Driver/Src/stm32g4xx_hal_pwr_ex.c ****        CLEAR_BIT(PWR->PUCRC, GPIONumber);
 745              	 .loc 1 442 8 view .LVU177
 746 005e 134B     	 ldr r3,.L99
 747 0060 5A6B     	 ldr r2,[r3,#52]
 748 0062 0A43     	 orrs r2,r2,r1
 749 0064 5A63     	 str r2,[r3,#52]
 443:Drivers/STM32G4xx_HAL_Driver/Src/stm32g4xx_hal_pwr_ex.c ****        break;
 750              	 .loc 1 443 8 view .LVU178
 751 0066 1A6B     	 ldr r2,[r3,#48]
 752 0068 22EA0102 	 bic r2,r2,r1
 753 006c 1A63     	 str r2,[r3,#48]
 444:Drivers/STM32G4xx_HAL_Driver/Src/stm32g4xx_hal_pwr_ex.c ****     case PWR_GPIO_D:
 754              	 .loc 1 444 8 view .LVU179
 755 006e DBE7     	 b .L97
ARM GAS   			page 24


 756              	.L93:
 446:Drivers/STM32G4xx_HAL_Driver/Src/stm32g4xx_hal_pwr_ex.c ****        CLEAR_BIT(PWR->PUCRD, GPIONumber);
 757              	 .loc 1 446 8 view .LVU180
 758 0070 0E4B     	 ldr r3,.L99
 759 0072 DA6B     	 ldr r2,[r3,#60]
 760 0074 0A43     	 orrs r2,r2,r1
 761 0076 DA63     	 str r2,[r3,#60]
 447:Drivers/STM32G4xx_HAL_Driver/Src/stm32g4xx_hal_pwr_ex.c ****        break;
 762              	 .loc 1 447 8 view .LVU181
 763 0078 9A6B     	 ldr r2,[r3,#56]
 764 007a 22EA0102 	 bic r2,r2,r1
 765 007e 9A63     	 str r2,[r3,#56]
 448:Drivers/STM32G4xx_HAL_Driver/Src/stm32g4xx_hal_pwr_ex.c ****     case PWR_GPIO_E:
 766              	 .loc 1 448 8 view .LVU182
 767 0080 D2E7     	 b .L97
 768              	.L92:
 450:Drivers/STM32G4xx_HAL_Driver/Src/stm32g4xx_hal_pwr_ex.c ****        CLEAR_BIT(PWR->PUCRE, GPIONumber);
 769              	 .loc 1 450 8 view .LVU183
 770 0082 0A4B     	 ldr r3,.L99
 771 0084 5A6C     	 ldr r2,[r3,#68]
 772 0086 0A43     	 orrs r2,r2,r1
 773 0088 5A64     	 str r2,[r3,#68]
 451:Drivers/STM32G4xx_HAL_Driver/Src/stm32g4xx_hal_pwr_ex.c ****        break;
 774              	 .loc 1 451 8 view .LVU184
 775 008a 1A6C     	 ldr r2,[r3,#64]
 776 008c 22EA0102 	 bic r2,r2,r1
 777 0090 1A64     	 str r2,[r3,#64]
 452:Drivers/STM32G4xx_HAL_Driver/Src/stm32g4xx_hal_pwr_ex.c ****     case PWR_GPIO_F:
 778              	 .loc 1 452 8 view .LVU185
 779 0092 C9E7     	 b .L97
 780              	.L91:
 454:Drivers/STM32G4xx_HAL_Driver/Src/stm32g4xx_hal_pwr_ex.c ****        CLEAR_BIT(PWR->PUCRF, (GPIONumber & PWR_PORTF_AVAILABLE_PINS));
 781              	 .loc 1 454 8 view .LVU186
 782 0094 054B     	 ldr r3,.L99
 783 0096 DA6C     	 ldr r2,[r3,#76]
 784 0098 89B2     	 uxth r1,r1
 785              	.LVL45:
 454:Drivers/STM32G4xx_HAL_Driver/Src/stm32g4xx_hal_pwr_ex.c ****        CLEAR_BIT(PWR->PUCRF, (GPIONumber & PWR_PORTF_AVAILABLE_PINS));
 786              	 .loc 1 454 8 is_stmt 0 view .LVU187
 787 009a 0A43     	 orrs r2,r2,r1
 788 009c DA64     	 str r2,[r3,#76]
 455:Drivers/STM32G4xx_HAL_Driver/Src/stm32g4xx_hal_pwr_ex.c ****        break;
 789              	 .loc 1 455 8 is_stmt 1 view .LVU188
 790 009e 9A6C     	 ldr r2,[r3,#72]
 791 00a0 22EA0102 	 bic r2,r2,r1
 792 00a4 9A64     	 str r2,[r3,#72]
 456:Drivers/STM32G4xx_HAL_Driver/Src/stm32g4xx_hal_pwr_ex.c ****     case PWR_GPIO_G:
 793              	 .loc 1 456 8 view .LVU189
 794 00a6 BFE7     	 b .L97
 795              	.LVL46:
 796              	.L98:
 431:Drivers/STM32G4xx_HAL_Driver/Src/stm32g4xx_hal_pwr_ex.c ****   {
 797              	 .loc 1 431 3 is_stmt 0 view .LVU190
 798 00a8 0120     	 movs r0,#1
 799              	.LVL47:
 461:Drivers/STM32G4xx_HAL_Driver/Src/stm32g4xx_hal_pwr_ex.c ****     default:
 462:Drivers/STM32G4xx_HAL_Driver/Src/stm32g4xx_hal_pwr_ex.c ****       status = HAL_ERROR;
ARM GAS   			page 25


 463:Drivers/STM32G4xx_HAL_Driver/Src/stm32g4xx_hal_pwr_ex.c ****       break;
 464:Drivers/STM32G4xx_HAL_Driver/Src/stm32g4xx_hal_pwr_ex.c ****   }
 465:Drivers/STM32G4xx_HAL_Driver/Src/stm32g4xx_hal_pwr_ex.c **** 
 466:Drivers/STM32G4xx_HAL_Driver/Src/stm32g4xx_hal_pwr_ex.c ****   return status;
 800              	 .loc 1 466 3 is_stmt 1 view .LVU191
 467:Drivers/STM32G4xx_HAL_Driver/Src/stm32g4xx_hal_pwr_ex.c **** }
 801              	 .loc 1 467 1 is_stmt 0 view .LVU192
 802 00aa 7047     	 bx lr
 803              	.L100:
 804              	 .align 2
 805              	.L99:
 806 00ac 00700040 	 .word 1073770496
 807              	 .cfi_endproc
 808              	.LFE369:
 810              	 .section .text.HAL_PWREx_DisableGPIOPullDown,"ax",%progbits
 811              	 .align 1
 812              	 .p2align 2,,3
 813              	 .global HAL_PWREx_DisableGPIOPullDown
 814              	 .syntax unified
 815              	 .thumb
 816              	 .thumb_func
 818              	HAL_PWREx_DisableGPIOPullDown:
 819              	.LVL48:
 820              	.LFB370:
 468:Drivers/STM32G4xx_HAL_Driver/Src/stm32g4xx_hal_pwr_ex.c **** 
 469:Drivers/STM32G4xx_HAL_Driver/Src/stm32g4xx_hal_pwr_ex.c **** 
 470:Drivers/STM32G4xx_HAL_Driver/Src/stm32g4xx_hal_pwr_ex.c **** /**
 471:Drivers/STM32G4xx_HAL_Driver/Src/stm32g4xx_hal_pwr_ex.c ****   * @brief Disable GPIO pull-down state in Standby and Shutdown modes.
 472:Drivers/STM32G4xx_HAL_Driver/Src/stm32g4xx_hal_pwr_ex.c ****   * @note  Reset the relevant PDy bits of PWR_PDCRx register used to configure the I/O
 473:Drivers/STM32G4xx_HAL_Driver/Src/stm32g4xx_hal_pwr_ex.c ****   *        in pull-down state in Standby and Shutdown modes.
 474:Drivers/STM32G4xx_HAL_Driver/Src/stm32g4xx_hal_pwr_ex.c ****   * @note  Even if a PDy bit to reset is reserved, the other PDy bits entered as input
 475:Drivers/STM32G4xx_HAL_Driver/Src/stm32g4xx_hal_pwr_ex.c ****   *        parameter at the same time are reset.
 476:Drivers/STM32G4xx_HAL_Driver/Src/stm32g4xx_hal_pwr_ex.c ****   * @param  GPIO: Specifies the IO port. This parameter can be PWR_GPIO_A..PWR_GPIO_G
 477:Drivers/STM32G4xx_HAL_Driver/Src/stm32g4xx_hal_pwr_ex.c ****   *         (or PWR_GPIO_I depending on the devices) to select the GPIO peripheral.
 478:Drivers/STM32G4xx_HAL_Driver/Src/stm32g4xx_hal_pwr_ex.c ****   * @param  GPIONumber: Specify the I/O pins numbers.
 479:Drivers/STM32G4xx_HAL_Driver/Src/stm32g4xx_hal_pwr_ex.c ****   *         This parameter can be one of the following values:
 480:Drivers/STM32G4xx_HAL_Driver/Src/stm32g4xx_hal_pwr_ex.c ****   *         PWR_GPIO_BIT_0, ..., PWR_GPIO_BIT_15 (except for the port where less
 481:Drivers/STM32G4xx_HAL_Driver/Src/stm32g4xx_hal_pwr_ex.c ****   *         I/O pins are available) or the logical OR of several of them to reset
 482:Drivers/STM32G4xx_HAL_Driver/Src/stm32g4xx_hal_pwr_ex.c ****   *         several bits for a given port in a single API call.
 483:Drivers/STM32G4xx_HAL_Driver/Src/stm32g4xx_hal_pwr_ex.c ****   * @retval HAL Status
 484:Drivers/STM32G4xx_HAL_Driver/Src/stm32g4xx_hal_pwr_ex.c ****   */
 485:Drivers/STM32G4xx_HAL_Driver/Src/stm32g4xx_hal_pwr_ex.c **** HAL_StatusTypeDef HAL_PWREx_DisableGPIOPullDown(uint32_t GPIO, uint32_t GPIONumber)
 486:Drivers/STM32G4xx_HAL_Driver/Src/stm32g4xx_hal_pwr_ex.c **** {
 821              	 .loc 1 486 1 is_stmt 1 view-0
 822              	 .cfi_startproc
 823              	 
 824              	 
 825              	 
 487:Drivers/STM32G4xx_HAL_Driver/Src/stm32g4xx_hal_pwr_ex.c ****   HAL_StatusTypeDef status = HAL_OK;
 826              	 .loc 1 487 3 view .LVU194
 488:Drivers/STM32G4xx_HAL_Driver/Src/stm32g4xx_hal_pwr_ex.c **** 
 489:Drivers/STM32G4xx_HAL_Driver/Src/stm32g4xx_hal_pwr_ex.c ****   assert_param(IS_PWR_GPIO(GPIO));
 827              	 .loc 1 489 3 view .LVU195
 490:Drivers/STM32G4xx_HAL_Driver/Src/stm32g4xx_hal_pwr_ex.c ****   assert_param(IS_PWR_GPIO_BIT_NUMBER(GPIONumber));
 828              	 .loc 1 490 3 view .LVU196
 491:Drivers/STM32G4xx_HAL_Driver/Src/stm32g4xx_hal_pwr_ex.c **** 
 492:Drivers/STM32G4xx_HAL_Driver/Src/stm32g4xx_hal_pwr_ex.c ****   switch (GPIO)
ARM GAS   			page 26


 829              	 .loc 1 492 3 view .LVU197
 830 0000 0628     	 cmp r0,#6
 831 0002 38D8     	 bhi .L112
 832 0004 DFE800F0 	 tbb [pc,r0]
 833              	.L104:
 834 0008 0D       	 .byte (.L110-.L104)/2
 835 0009 16       	 .byte (.L109-.L104)/2
 836 000a 1E       	 .byte (.L108-.L104)/2
 837 000b 24       	 .byte (.L107-.L104)/2
 838 000c 2A       	 .byte (.L106-.L104)/2
 839 000d 30       	 .byte (.L105-.L104)/2
 840 000e 04       	 .byte (.L103-.L104)/2
 841 000f 00       	 .p2align 1
 842              	.L103:
 493:Drivers/STM32G4xx_HAL_Driver/Src/stm32g4xx_hal_pwr_ex.c ****   {
 494:Drivers/STM32G4xx_HAL_Driver/Src/stm32g4xx_hal_pwr_ex.c ****     case PWR_GPIO_A:
 495:Drivers/STM32G4xx_HAL_Driver/Src/stm32g4xx_hal_pwr_ex.c ****        CLEAR_BIT(PWR->PDCRA, (GPIONumber & (~(PWR_GPIO_BIT_13|PWR_GPIO_BIT_15))));
 496:Drivers/STM32G4xx_HAL_Driver/Src/stm32g4xx_hal_pwr_ex.c ****        break;
 497:Drivers/STM32G4xx_HAL_Driver/Src/stm32g4xx_hal_pwr_ex.c ****     case PWR_GPIO_B:
 498:Drivers/STM32G4xx_HAL_Driver/Src/stm32g4xx_hal_pwr_ex.c ****        CLEAR_BIT(PWR->PDCRB, (GPIONumber & (~(PWR_GPIO_BIT_4))));
 499:Drivers/STM32G4xx_HAL_Driver/Src/stm32g4xx_hal_pwr_ex.c ****        break;
 500:Drivers/STM32G4xx_HAL_Driver/Src/stm32g4xx_hal_pwr_ex.c ****     case PWR_GPIO_C:
 501:Drivers/STM32G4xx_HAL_Driver/Src/stm32g4xx_hal_pwr_ex.c ****        CLEAR_BIT(PWR->PDCRC, GPIONumber);
 502:Drivers/STM32G4xx_HAL_Driver/Src/stm32g4xx_hal_pwr_ex.c ****        break;
 503:Drivers/STM32G4xx_HAL_Driver/Src/stm32g4xx_hal_pwr_ex.c ****     case PWR_GPIO_D:
 504:Drivers/STM32G4xx_HAL_Driver/Src/stm32g4xx_hal_pwr_ex.c ****        CLEAR_BIT(PWR->PDCRD, GPIONumber);
 505:Drivers/STM32G4xx_HAL_Driver/Src/stm32g4xx_hal_pwr_ex.c ****        break;
 506:Drivers/STM32G4xx_HAL_Driver/Src/stm32g4xx_hal_pwr_ex.c ****     case PWR_GPIO_E:
 507:Drivers/STM32G4xx_HAL_Driver/Src/stm32g4xx_hal_pwr_ex.c ****        CLEAR_BIT(PWR->PDCRE, GPIONumber);
 508:Drivers/STM32G4xx_HAL_Driver/Src/stm32g4xx_hal_pwr_ex.c ****        break;
 509:Drivers/STM32G4xx_HAL_Driver/Src/stm32g4xx_hal_pwr_ex.c ****     case PWR_GPIO_F:
 510:Drivers/STM32G4xx_HAL_Driver/Src/stm32g4xx_hal_pwr_ex.c ****        CLEAR_BIT(PWR->PDCRF, (GPIONumber & PWR_PORTF_AVAILABLE_PINS));
 511:Drivers/STM32G4xx_HAL_Driver/Src/stm32g4xx_hal_pwr_ex.c ****        break;
 512:Drivers/STM32G4xx_HAL_Driver/Src/stm32g4xx_hal_pwr_ex.c ****     case PWR_GPIO_G:
 513:Drivers/STM32G4xx_HAL_Driver/Src/stm32g4xx_hal_pwr_ex.c ****        CLEAR_BIT(PWR->PDCRG, ((GPIONumber & PWR_PORTG_AVAILABLE_PINS) & (~(PWR_GPIO_BIT_10))));
 843              	 .loc 1 513 8 view .LVU198
 844 0010 1A4A     	 ldr r2,.L113
 845 0012 536D     	 ldr r3,[r2,#84]
 846 0014 C1F30901 	 ubfx r1,r1,#0,#10
 847              	.LVL49:
 848              	 .loc 1 513 8 is_stmt 0 view .LVU199
 849 0018 23EA0103 	 bic r3,r3,r1
 850 001c 5365     	 str r3,[r2,#84]
 514:Drivers/STM32G4xx_HAL_Driver/Src/stm32g4xx_hal_pwr_ex.c ****        break;
 851              	 .loc 1 514 8 is_stmt 1 view .LVU200
 852              	.L111:
 487:Drivers/STM32G4xx_HAL_Driver/Src/stm32g4xx_hal_pwr_ex.c **** 
 853              	 .loc 1 487 21 is_stmt 0 view .LVU201
 854 001e 0020     	 movs r0,#0
 855              	.LVL50:
 487:Drivers/STM32G4xx_HAL_Driver/Src/stm32g4xx_hal_pwr_ex.c **** 
 856              	 .loc 1 487 21 view .LVU202
 857 0020 7047     	 bx lr
 858              	.LVL51:
 859              	.L110:
 495:Drivers/STM32G4xx_HAL_Driver/Src/stm32g4xx_hal_pwr_ex.c ****        break;
 860              	 .loc 1 495 8 is_stmt 1 view .LVU203
ARM GAS   			page 27


 861 0022 164A     	 ldr r2,.L113
 862 0024 536A     	 ldr r3,[r2,#36]
 863 0026 21F42041 	 bic r1,r1,#40960
 864              	.LVL52:
 495:Drivers/STM32G4xx_HAL_Driver/Src/stm32g4xx_hal_pwr_ex.c ****        break;
 865              	 .loc 1 495 8 is_stmt 0 view .LVU204
 866 002a 23EA0103 	 bic r3,r3,r1
 867 002e 5362     	 str r3,[r2,#36]
 496:Drivers/STM32G4xx_HAL_Driver/Src/stm32g4xx_hal_pwr_ex.c ****     case PWR_GPIO_B:
 868              	 .loc 1 496 8 is_stmt 1 view .LVU205
 487:Drivers/STM32G4xx_HAL_Driver/Src/stm32g4xx_hal_pwr_ex.c **** 
 869              	 .loc 1 487 21 is_stmt 0 view .LVU206
 870 0030 0020     	 movs r0,#0
 871              	.LVL53:
 487:Drivers/STM32G4xx_HAL_Driver/Src/stm32g4xx_hal_pwr_ex.c **** 
 872              	 .loc 1 487 21 view .LVU207
 873 0032 7047     	 bx lr
 874              	.LVL54:
 875              	.L109:
 498:Drivers/STM32G4xx_HAL_Driver/Src/stm32g4xx_hal_pwr_ex.c ****        break;
 876              	 .loc 1 498 8 is_stmt 1 view .LVU208
 877 0034 114A     	 ldr r2,.L113
 878 0036 D36A     	 ldr r3,[r2,#44]
 879 0038 21F01001 	 bic r1,r1,#16
 880              	.LVL55:
 498:Drivers/STM32G4xx_HAL_Driver/Src/stm32g4xx_hal_pwr_ex.c ****        break;
 881              	 .loc 1 498 8 is_stmt 0 view .LVU209
 882 003c 23EA0103 	 bic r3,r3,r1
 883 0040 D362     	 str r3,[r2,#44]
 499:Drivers/STM32G4xx_HAL_Driver/Src/stm32g4xx_hal_pwr_ex.c ****     case PWR_GPIO_C:
 884              	 .loc 1 499 8 is_stmt 1 view .LVU210
 885 0042 ECE7     	 b .L111
 886              	.LVL56:
 887              	.L108:
 501:Drivers/STM32G4xx_HAL_Driver/Src/stm32g4xx_hal_pwr_ex.c ****        break;
 888              	 .loc 1 501 8 view .LVU211
 889 0044 0D4A     	 ldr r2,.L113
 890 0046 536B     	 ldr r3,[r2,#52]
 891 0048 23EA0103 	 bic r3,r3,r1
 892 004c 5363     	 str r3,[r2,#52]
 502:Drivers/STM32G4xx_HAL_Driver/Src/stm32g4xx_hal_pwr_ex.c ****     case PWR_GPIO_D:
 893              	 .loc 1 502 8 view .LVU212
 894 004e E6E7     	 b .L111
 895              	.L107:
 504:Drivers/STM32G4xx_HAL_Driver/Src/stm32g4xx_hal_pwr_ex.c ****        break;
 896              	 .loc 1 504 8 view .LVU213
 897 0050 0A4A     	 ldr r2,.L113
 898 0052 D36B     	 ldr r3,[r2,#60]
 899 0054 23EA0103 	 bic r3,r3,r1
 900 0058 D363     	 str r3,[r2,#60]
 505:Drivers/STM32G4xx_HAL_Driver/Src/stm32g4xx_hal_pwr_ex.c ****     case PWR_GPIO_E:
 901              	 .loc 1 505 8 view .LVU214
 902 005a E0E7     	 b .L111
 903              	.L106:
 507:Drivers/STM32G4xx_HAL_Driver/Src/stm32g4xx_hal_pwr_ex.c ****        break;
 904              	 .loc 1 507 8 view .LVU215
 905 005c 074A     	 ldr r2,.L113
ARM GAS   			page 28


 906 005e 536C     	 ldr r3,[r2,#68]
 907 0060 23EA0103 	 bic r3,r3,r1
 908 0064 5364     	 str r3,[r2,#68]
 508:Drivers/STM32G4xx_HAL_Driver/Src/stm32g4xx_hal_pwr_ex.c ****     case PWR_GPIO_F:
 909              	 .loc 1 508 8 view .LVU216
 910 0066 DAE7     	 b .L111
 911              	.L105:
 510:Drivers/STM32G4xx_HAL_Driver/Src/stm32g4xx_hal_pwr_ex.c ****        break;
 912              	 .loc 1 510 8 view .LVU217
 913 0068 044A     	 ldr r2,.L113
 914 006a D36C     	 ldr r3,[r2,#76]
 915 006c 89B2     	 uxth r1,r1
 916              	.LVL57:
 510:Drivers/STM32G4xx_HAL_Driver/Src/stm32g4xx_hal_pwr_ex.c ****        break;
 917              	 .loc 1 510 8 is_stmt 0 view .LVU218
 918 006e 23EA0103 	 bic r3,r3,r1
 919 0072 D364     	 str r3,[r2,#76]
 511:Drivers/STM32G4xx_HAL_Driver/Src/stm32g4xx_hal_pwr_ex.c ****     case PWR_GPIO_G:
 920              	 .loc 1 511 8 is_stmt 1 view .LVU219
 921 0074 D3E7     	 b .L111
 922              	.LVL58:
 923              	.L112:
 492:Drivers/STM32G4xx_HAL_Driver/Src/stm32g4xx_hal_pwr_ex.c ****   {
 924              	 .loc 1 492 3 is_stmt 0 view .LVU220
 925 0076 0120     	 movs r0,#1
 926              	.LVL59:
 515:Drivers/STM32G4xx_HAL_Driver/Src/stm32g4xx_hal_pwr_ex.c ****     default:
 516:Drivers/STM32G4xx_HAL_Driver/Src/stm32g4xx_hal_pwr_ex.c ****       status = HAL_ERROR;
 517:Drivers/STM32G4xx_HAL_Driver/Src/stm32g4xx_hal_pwr_ex.c ****       break;
 518:Drivers/STM32G4xx_HAL_Driver/Src/stm32g4xx_hal_pwr_ex.c ****   }
 519:Drivers/STM32G4xx_HAL_Driver/Src/stm32g4xx_hal_pwr_ex.c **** 
 520:Drivers/STM32G4xx_HAL_Driver/Src/stm32g4xx_hal_pwr_ex.c ****   return status;
 927              	 .loc 1 520 3 is_stmt 1 view .LVU221
 521:Drivers/STM32G4xx_HAL_Driver/Src/stm32g4xx_hal_pwr_ex.c **** }
 928              	 .loc 1 521 1 is_stmt 0 view .LVU222
 929 0078 7047     	 bx lr
 930              	.L114:
 931 007a 00BF     	 .align 2
 932              	.L113:
 933 007c 00700040 	 .word 1073770496
 934              	 .cfi_endproc
 935              	.LFE370:
 937              	 .section .text.HAL_PWREx_EnablePullUpPullDownConfig,"ax",%progbits
 938              	 .align 1
 939              	 .p2align 2,,3
 940              	 .global HAL_PWREx_EnablePullUpPullDownConfig
 941              	 .syntax unified
 942              	 .thumb
 943              	 .thumb_func
 945              	HAL_PWREx_EnablePullUpPullDownConfig:
 946              	.LFB371:
 522:Drivers/STM32G4xx_HAL_Driver/Src/stm32g4xx_hal_pwr_ex.c **** 
 523:Drivers/STM32G4xx_HAL_Driver/Src/stm32g4xx_hal_pwr_ex.c **** 
 524:Drivers/STM32G4xx_HAL_Driver/Src/stm32g4xx_hal_pwr_ex.c **** 
 525:Drivers/STM32G4xx_HAL_Driver/Src/stm32g4xx_hal_pwr_ex.c **** /**
 526:Drivers/STM32G4xx_HAL_Driver/Src/stm32g4xx_hal_pwr_ex.c ****   * @brief Enable pull-up and pull-down configuration.
 527:Drivers/STM32G4xx_HAL_Driver/Src/stm32g4xx_hal_pwr_ex.c ****   * @note  When APC bit is set, the I/O pull-up and pull-down configurations defined in
ARM GAS   			page 29


 528:Drivers/STM32G4xx_HAL_Driver/Src/stm32g4xx_hal_pwr_ex.c ****   *        PWR_PUCRx and PWR_PDCRx registers are applied in Standby and Shutdown modes.
 529:Drivers/STM32G4xx_HAL_Driver/Src/stm32g4xx_hal_pwr_ex.c ****   * @note  Pull-up set by PUy bit of PWR_PUCRx register is not activated if the corresponding
 530:Drivers/STM32G4xx_HAL_Driver/Src/stm32g4xx_hal_pwr_ex.c ****   *        PDy bit of PWR_PDCRx register is also set (pull-down configuration priority is higher).
 531:Drivers/STM32G4xx_HAL_Driver/Src/stm32g4xx_hal_pwr_ex.c ****   *        HAL_PWREx_EnableGPIOPullUp() and HAL_PWREx_EnableGPIOPullDown() API's ensure there
 532:Drivers/STM32G4xx_HAL_Driver/Src/stm32g4xx_hal_pwr_ex.c ****   *        is no conflict when setting PUy or PDy bit.
 533:Drivers/STM32G4xx_HAL_Driver/Src/stm32g4xx_hal_pwr_ex.c ****   * @retval None
 534:Drivers/STM32G4xx_HAL_Driver/Src/stm32g4xx_hal_pwr_ex.c ****   */
 535:Drivers/STM32G4xx_HAL_Driver/Src/stm32g4xx_hal_pwr_ex.c **** void HAL_PWREx_EnablePullUpPullDownConfig(void)
 536:Drivers/STM32G4xx_HAL_Driver/Src/stm32g4xx_hal_pwr_ex.c **** {
 947              	 .loc 1 536 1 is_stmt 1 view-0
 948              	 .cfi_startproc
 949              	 
 950              	 
 951              	 
 537:Drivers/STM32G4xx_HAL_Driver/Src/stm32g4xx_hal_pwr_ex.c ****   SET_BIT(PWR->CR3, PWR_CR3_APC);
 952              	 .loc 1 537 3 view .LVU224
 953 0000 024A     	 ldr r2,.L116
 954 0002 9368     	 ldr r3,[r2,#8]
 955 0004 43F48063 	 orr r3,r3,#1024
 956 0008 9360     	 str r3,[r2,#8]
 538:Drivers/STM32G4xx_HAL_Driver/Src/stm32g4xx_hal_pwr_ex.c **** }
 957              	 .loc 1 538 1 is_stmt 0 view .LVU225
 958 000a 7047     	 bx lr
 959              	.L117:
 960              	 .align 2
 961              	.L116:
 962 000c 00700040 	 .word 1073770496
 963              	 .cfi_endproc
 964              	.LFE371:
 966              	 .section .text.HAL_PWREx_DisablePullUpPullDownConfig,"ax",%progbits
 967              	 .align 1
 968              	 .p2align 2,,3
 969              	 .global HAL_PWREx_DisablePullUpPullDownConfig
 970              	 .syntax unified
 971              	 .thumb
 972              	 .thumb_func
 974              	HAL_PWREx_DisablePullUpPullDownConfig:
 975              	.LFB372:
 539:Drivers/STM32G4xx_HAL_Driver/Src/stm32g4xx_hal_pwr_ex.c **** 
 540:Drivers/STM32G4xx_HAL_Driver/Src/stm32g4xx_hal_pwr_ex.c **** 
 541:Drivers/STM32G4xx_HAL_Driver/Src/stm32g4xx_hal_pwr_ex.c **** /**
 542:Drivers/STM32G4xx_HAL_Driver/Src/stm32g4xx_hal_pwr_ex.c ****   * @brief Disable pull-up and pull-down configuration.
 543:Drivers/STM32G4xx_HAL_Driver/Src/stm32g4xx_hal_pwr_ex.c ****   * @note  When APC bit is cleared, the I/O pull-up and pull-down configurations defined in
 544:Drivers/STM32G4xx_HAL_Driver/Src/stm32g4xx_hal_pwr_ex.c ****   *        PWR_PUCRx and PWR_PDCRx registers are not applied in Standby and Shutdown modes.
 545:Drivers/STM32G4xx_HAL_Driver/Src/stm32g4xx_hal_pwr_ex.c ****   * @retval None
 546:Drivers/STM32G4xx_HAL_Driver/Src/stm32g4xx_hal_pwr_ex.c ****   */
 547:Drivers/STM32G4xx_HAL_Driver/Src/stm32g4xx_hal_pwr_ex.c **** void HAL_PWREx_DisablePullUpPullDownConfig(void)
 548:Drivers/STM32G4xx_HAL_Driver/Src/stm32g4xx_hal_pwr_ex.c **** {
 976              	 .loc 1 548 1 is_stmt 1 view-0
 977              	 .cfi_startproc
 978              	 
 979              	 
 980              	 
 549:Drivers/STM32G4xx_HAL_Driver/Src/stm32g4xx_hal_pwr_ex.c ****   CLEAR_BIT(PWR->CR3, PWR_CR3_APC);
 981              	 .loc 1 549 3 view .LVU227
 982 0000 024A     	 ldr r2,.L119
 983 0002 9368     	 ldr r3,[r2,#8]
ARM GAS   			page 30


 984 0004 23F48063 	 bic r3,r3,#1024
 985 0008 9360     	 str r3,[r2,#8]
 550:Drivers/STM32G4xx_HAL_Driver/Src/stm32g4xx_hal_pwr_ex.c **** }
 986              	 .loc 1 550 1 is_stmt 0 view .LVU228
 987 000a 7047     	 bx lr
 988              	.L120:
 989              	 .align 2
 990              	.L119:
 991 000c 00700040 	 .word 1073770496
 992              	 .cfi_endproc
 993              	.LFE372:
 995              	 .section .text.HAL_PWREx_EnableSRAM2ContentRetention,"ax",%progbits
 996              	 .align 1
 997              	 .p2align 2,,3
 998              	 .global HAL_PWREx_EnableSRAM2ContentRetention
 999              	 .syntax unified
 1000              	 .thumb
 1001              	 .thumb_func
 1003              	HAL_PWREx_EnableSRAM2ContentRetention:
 1004              	.LFB373:
 551:Drivers/STM32G4xx_HAL_Driver/Src/stm32g4xx_hal_pwr_ex.c **** 
 552:Drivers/STM32G4xx_HAL_Driver/Src/stm32g4xx_hal_pwr_ex.c **** 
 553:Drivers/STM32G4xx_HAL_Driver/Src/stm32g4xx_hal_pwr_ex.c **** #if defined (SRAM2_BASE)
 554:Drivers/STM32G4xx_HAL_Driver/Src/stm32g4xx_hal_pwr_ex.c **** /**
 555:Drivers/STM32G4xx_HAL_Driver/Src/stm32g4xx_hal_pwr_ex.c ****   * @brief Enable SRAM2 content retention in Standby mode.
 556:Drivers/STM32G4xx_HAL_Driver/Src/stm32g4xx_hal_pwr_ex.c ****   * @note  When RRS bit is set, SRAM2 is powered by the low-power regulator in
 557:Drivers/STM32G4xx_HAL_Driver/Src/stm32g4xx_hal_pwr_ex.c ****   *         Standby mode and its content is kept.
 558:Drivers/STM32G4xx_HAL_Driver/Src/stm32g4xx_hal_pwr_ex.c ****   * @retval None
 559:Drivers/STM32G4xx_HAL_Driver/Src/stm32g4xx_hal_pwr_ex.c ****   */
 560:Drivers/STM32G4xx_HAL_Driver/Src/stm32g4xx_hal_pwr_ex.c **** void HAL_PWREx_EnableSRAM2ContentRetention(void)
 561:Drivers/STM32G4xx_HAL_Driver/Src/stm32g4xx_hal_pwr_ex.c **** {
 1005              	 .loc 1 561 1 is_stmt 1 view-0
 1006              	 .cfi_startproc
 1007              	 
 1008              	 
 1009              	 
 562:Drivers/STM32G4xx_HAL_Driver/Src/stm32g4xx_hal_pwr_ex.c ****   SET_BIT(PWR->CR3, PWR_CR3_RRS);
 1010              	 .loc 1 562 3 view .LVU230
 1011 0000 024A     	 ldr r2,.L122
 1012 0002 9368     	 ldr r3,[r2,#8]
 1013 0004 43F48073 	 orr r3,r3,#256
 1014 0008 9360     	 str r3,[r2,#8]
 563:Drivers/STM32G4xx_HAL_Driver/Src/stm32g4xx_hal_pwr_ex.c **** }
 1015              	 .loc 1 563 1 is_stmt 0 view .LVU231
 1016 000a 7047     	 bx lr
 1017              	.L123:
 1018              	 .align 2
 1019              	.L122:
 1020 000c 00700040 	 .word 1073770496
 1021              	 .cfi_endproc
 1022              	.LFE373:
 1024              	 .section .text.HAL_PWREx_DisableSRAM2ContentRetention,"ax",%progbits
 1025              	 .align 1
 1026              	 .p2align 2,,3
 1027              	 .global HAL_PWREx_DisableSRAM2ContentRetention
 1028              	 .syntax unified
 1029              	 .thumb
ARM GAS   			page 31


 1030              	 .thumb_func
 1032              	HAL_PWREx_DisableSRAM2ContentRetention:
 1033              	.LFB374:
 564:Drivers/STM32G4xx_HAL_Driver/Src/stm32g4xx_hal_pwr_ex.c **** 
 565:Drivers/STM32G4xx_HAL_Driver/Src/stm32g4xx_hal_pwr_ex.c **** 
 566:Drivers/STM32G4xx_HAL_Driver/Src/stm32g4xx_hal_pwr_ex.c **** /**
 567:Drivers/STM32G4xx_HAL_Driver/Src/stm32g4xx_hal_pwr_ex.c ****   * @brief Disable SRAM2 content retention in Standby mode.
 568:Drivers/STM32G4xx_HAL_Driver/Src/stm32g4xx_hal_pwr_ex.c ****   * @note  When RRS bit is reset, SRAM2 is powered off in Standby mode
 569:Drivers/STM32G4xx_HAL_Driver/Src/stm32g4xx_hal_pwr_ex.c ****   *        and its content is lost.
 570:Drivers/STM32G4xx_HAL_Driver/Src/stm32g4xx_hal_pwr_ex.c ****   * @retval None
 571:Drivers/STM32G4xx_HAL_Driver/Src/stm32g4xx_hal_pwr_ex.c ****   */
 572:Drivers/STM32G4xx_HAL_Driver/Src/stm32g4xx_hal_pwr_ex.c **** void HAL_PWREx_DisableSRAM2ContentRetention(void)
 573:Drivers/STM32G4xx_HAL_Driver/Src/stm32g4xx_hal_pwr_ex.c **** {
 1034              	 .loc 1 573 1 is_stmt 1 view-0
 1035              	 .cfi_startproc
 1036              	 
 1037              	 
 1038              	 
 574:Drivers/STM32G4xx_HAL_Driver/Src/stm32g4xx_hal_pwr_ex.c ****   CLEAR_BIT(PWR->CR3, PWR_CR3_RRS);
 1039              	 .loc 1 574 3 view .LVU233
 1040 0000 024A     	 ldr r2,.L125
 1041 0002 9368     	 ldr r3,[r2,#8]
 1042 0004 23F48073 	 bic r3,r3,#256
 1043 0008 9360     	 str r3,[r2,#8]
 575:Drivers/STM32G4xx_HAL_Driver/Src/stm32g4xx_hal_pwr_ex.c **** }
 1044              	 .loc 1 575 1 is_stmt 0 view .LVU234
 1045 000a 7047     	 bx lr
 1046              	.L126:
 1047              	 .align 2
 1048              	.L125:
 1049 000c 00700040 	 .word 1073770496
 1050              	 .cfi_endproc
 1051              	.LFE374:
 1053              	 .section .text.HAL_PWREx_EnablePVM1,"ax",%progbits
 1054              	 .align 1
 1055              	 .p2align 2,,3
 1056              	 .global HAL_PWREx_EnablePVM1
 1057              	 .syntax unified
 1058              	 .thumb
 1059              	 .thumb_func
 1061              	HAL_PWREx_EnablePVM1:
 1062              	.LFB375:
 576:Drivers/STM32G4xx_HAL_Driver/Src/stm32g4xx_hal_pwr_ex.c **** #endif /* SRAM2_BASE */
 577:Drivers/STM32G4xx_HAL_Driver/Src/stm32g4xx_hal_pwr_ex.c **** 
 578:Drivers/STM32G4xx_HAL_Driver/Src/stm32g4xx_hal_pwr_ex.c **** 
 579:Drivers/STM32G4xx_HAL_Driver/Src/stm32g4xx_hal_pwr_ex.c **** 
 580:Drivers/STM32G4xx_HAL_Driver/Src/stm32g4xx_hal_pwr_ex.c **** #if defined(PWR_CR2_PVME1)
 581:Drivers/STM32G4xx_HAL_Driver/Src/stm32g4xx_hal_pwr_ex.c **** /**
 582:Drivers/STM32G4xx_HAL_Driver/Src/stm32g4xx_hal_pwr_ex.c ****   * @brief Enable the Power Voltage Monitoring 1: VDDA versus FASTCOMP minimum voltage.
 583:Drivers/STM32G4xx_HAL_Driver/Src/stm32g4xx_hal_pwr_ex.c ****   * @retval None
 584:Drivers/STM32G4xx_HAL_Driver/Src/stm32g4xx_hal_pwr_ex.c ****   */
 585:Drivers/STM32G4xx_HAL_Driver/Src/stm32g4xx_hal_pwr_ex.c **** void HAL_PWREx_EnablePVM1(void)
 586:Drivers/STM32G4xx_HAL_Driver/Src/stm32g4xx_hal_pwr_ex.c **** {
 1063              	 .loc 1 586 1 is_stmt 1 view-0
 1064              	 .cfi_startproc
 1065              	 
 1066              	 
ARM GAS   			page 32


 1067              	 
 587:Drivers/STM32G4xx_HAL_Driver/Src/stm32g4xx_hal_pwr_ex.c ****   SET_BIT(PWR->CR2, PWR_PVM_1);
 1068              	 .loc 1 587 3 view .LVU236
 1069 0000 024A     	 ldr r2,.L128
 1070 0002 5368     	 ldr r3,[r2,#4]
 1071 0004 43F01003 	 orr r3,r3,#16
 1072 0008 5360     	 str r3,[r2,#4]
 588:Drivers/STM32G4xx_HAL_Driver/Src/stm32g4xx_hal_pwr_ex.c **** }
 1073              	 .loc 1 588 1 is_stmt 0 view .LVU237
 1074 000a 7047     	 bx lr
 1075              	.L129:
 1076              	 .align 2
 1077              	.L128:
 1078 000c 00700040 	 .word 1073770496
 1079              	 .cfi_endproc
 1080              	.LFE375:
 1082              	 .section .text.HAL_PWREx_DisablePVM1,"ax",%progbits
 1083              	 .align 1
 1084              	 .p2align 2,,3
 1085              	 .global HAL_PWREx_DisablePVM1
 1086              	 .syntax unified
 1087              	 .thumb
 1088              	 .thumb_func
 1090              	HAL_PWREx_DisablePVM1:
 1091              	.LFB376:
 589:Drivers/STM32G4xx_HAL_Driver/Src/stm32g4xx_hal_pwr_ex.c **** 
 590:Drivers/STM32G4xx_HAL_Driver/Src/stm32g4xx_hal_pwr_ex.c **** /**
 591:Drivers/STM32G4xx_HAL_Driver/Src/stm32g4xx_hal_pwr_ex.c ****   * @brief Disable the Power Voltage Monitoring 1: VDDA versus FASTCOMP minimum voltage.
 592:Drivers/STM32G4xx_HAL_Driver/Src/stm32g4xx_hal_pwr_ex.c ****   * @retval None
 593:Drivers/STM32G4xx_HAL_Driver/Src/stm32g4xx_hal_pwr_ex.c ****   */
 594:Drivers/STM32G4xx_HAL_Driver/Src/stm32g4xx_hal_pwr_ex.c **** void HAL_PWREx_DisablePVM1(void)
 595:Drivers/STM32G4xx_HAL_Driver/Src/stm32g4xx_hal_pwr_ex.c **** {
 1092              	 .loc 1 595 1 is_stmt 1 view-0
 1093              	 .cfi_startproc
 1094              	 
 1095              	 
 1096              	 
 596:Drivers/STM32G4xx_HAL_Driver/Src/stm32g4xx_hal_pwr_ex.c ****   CLEAR_BIT(PWR->CR2, PWR_PVM_1);
 1097              	 .loc 1 596 3 view .LVU239
 1098 0000 024A     	 ldr r2,.L131
 1099 0002 5368     	 ldr r3,[r2,#4]
 1100 0004 23F01003 	 bic r3,r3,#16
 1101 0008 5360     	 str r3,[r2,#4]
 597:Drivers/STM32G4xx_HAL_Driver/Src/stm32g4xx_hal_pwr_ex.c **** }
 1102              	 .loc 1 597 1 is_stmt 0 view .LVU240
 1103 000a 7047     	 bx lr
 1104              	.L132:
 1105              	 .align 2
 1106              	.L131:
 1107 000c 00700040 	 .word 1073770496
 1108              	 .cfi_endproc
 1109              	.LFE376:
 1111              	 .section .text.HAL_PWREx_EnablePVM2,"ax",%progbits
 1112              	 .align 1
 1113              	 .p2align 2,,3
 1114              	 .global HAL_PWREx_EnablePVM2
 1115              	 .syntax unified
ARM GAS   			page 33


 1116              	 .thumb
 1117              	 .thumb_func
 1119              	HAL_PWREx_EnablePVM2:
 1120              	.LFB377:
 598:Drivers/STM32G4xx_HAL_Driver/Src/stm32g4xx_hal_pwr_ex.c **** #endif /* PWR_CR2_PVME1 */
 599:Drivers/STM32G4xx_HAL_Driver/Src/stm32g4xx_hal_pwr_ex.c **** 
 600:Drivers/STM32G4xx_HAL_Driver/Src/stm32g4xx_hal_pwr_ex.c **** 
 601:Drivers/STM32G4xx_HAL_Driver/Src/stm32g4xx_hal_pwr_ex.c **** #if defined(PWR_CR2_PVME2)
 602:Drivers/STM32G4xx_HAL_Driver/Src/stm32g4xx_hal_pwr_ex.c **** /**
 603:Drivers/STM32G4xx_HAL_Driver/Src/stm32g4xx_hal_pwr_ex.c ****   * @brief Enable the Power Voltage Monitoring 2: VDDA versus FASTDAC minimum voltage.
 604:Drivers/STM32G4xx_HAL_Driver/Src/stm32g4xx_hal_pwr_ex.c ****   * @retval None
 605:Drivers/STM32G4xx_HAL_Driver/Src/stm32g4xx_hal_pwr_ex.c ****   */
 606:Drivers/STM32G4xx_HAL_Driver/Src/stm32g4xx_hal_pwr_ex.c **** void HAL_PWREx_EnablePVM2(void)
 607:Drivers/STM32G4xx_HAL_Driver/Src/stm32g4xx_hal_pwr_ex.c **** {
 1121              	 .loc 1 607 1 is_stmt 1 view-0
 1122              	 .cfi_startproc
 1123              	 
 1124              	 
 1125              	 
 608:Drivers/STM32G4xx_HAL_Driver/Src/stm32g4xx_hal_pwr_ex.c ****   SET_BIT(PWR->CR2, PWR_PVM_2);
 1126              	 .loc 1 608 3 view .LVU242
 1127 0000 024A     	 ldr r2,.L134
 1128 0002 5368     	 ldr r3,[r2,#4]
 1129 0004 43F02003 	 orr r3,r3,#32
 1130 0008 5360     	 str r3,[r2,#4]
 609:Drivers/STM32G4xx_HAL_Driver/Src/stm32g4xx_hal_pwr_ex.c **** }
 1131              	 .loc 1 609 1 is_stmt 0 view .LVU243
 1132 000a 7047     	 bx lr
 1133              	.L135:
 1134              	 .align 2
 1135              	.L134:
 1136 000c 00700040 	 .word 1073770496
 1137              	 .cfi_endproc
 1138              	.LFE377:
 1140              	 .section .text.HAL_PWREx_DisablePVM2,"ax",%progbits
 1141              	 .align 1
 1142              	 .p2align 2,,3
 1143              	 .global HAL_PWREx_DisablePVM2
 1144              	 .syntax unified
 1145              	 .thumb
 1146              	 .thumb_func
 1148              	HAL_PWREx_DisablePVM2:
 1149              	.LFB378:
 610:Drivers/STM32G4xx_HAL_Driver/Src/stm32g4xx_hal_pwr_ex.c **** 
 611:Drivers/STM32G4xx_HAL_Driver/Src/stm32g4xx_hal_pwr_ex.c **** /**
 612:Drivers/STM32G4xx_HAL_Driver/Src/stm32g4xx_hal_pwr_ex.c ****   * @brief Disable the Power Voltage Monitoring 2: VDDA versus FASTDAC minimum voltage.
 613:Drivers/STM32G4xx_HAL_Driver/Src/stm32g4xx_hal_pwr_ex.c ****   * @retval None
 614:Drivers/STM32G4xx_HAL_Driver/Src/stm32g4xx_hal_pwr_ex.c ****   */
 615:Drivers/STM32G4xx_HAL_Driver/Src/stm32g4xx_hal_pwr_ex.c **** void HAL_PWREx_DisablePVM2(void)
 616:Drivers/STM32G4xx_HAL_Driver/Src/stm32g4xx_hal_pwr_ex.c **** {
 1150              	 .loc 1 616 1 is_stmt 1 view-0
 1151              	 .cfi_startproc
 1152              	 
 1153              	 
 1154              	 
 617:Drivers/STM32G4xx_HAL_Driver/Src/stm32g4xx_hal_pwr_ex.c ****   CLEAR_BIT(PWR->CR2, PWR_PVM_2);
 1155              	 .loc 1 617 3 view .LVU245
ARM GAS   			page 34


 1156 0000 024A     	 ldr r2,.L137
 1157 0002 5368     	 ldr r3,[r2,#4]
 1158 0004 23F02003 	 bic r3,r3,#32
 1159 0008 5360     	 str r3,[r2,#4]
 618:Drivers/STM32G4xx_HAL_Driver/Src/stm32g4xx_hal_pwr_ex.c **** }
 1160              	 .loc 1 618 1 is_stmt 0 view .LVU246
 1161 000a 7047     	 bx lr
 1162              	.L138:
 1163              	 .align 2
 1164              	.L137:
 1165 000c 00700040 	 .word 1073770496
 1166              	 .cfi_endproc
 1167              	.LFE378:
 1169              	 .section .text.HAL_PWREx_EnablePVM3,"ax",%progbits
 1170              	 .align 1
 1171              	 .p2align 2,,3
 1172              	 .global HAL_PWREx_EnablePVM3
 1173              	 .syntax unified
 1174              	 .thumb
 1175              	 .thumb_func
 1177              	HAL_PWREx_EnablePVM3:
 1178              	.LFB379:
 619:Drivers/STM32G4xx_HAL_Driver/Src/stm32g4xx_hal_pwr_ex.c **** #endif /* PWR_CR2_PVME2 */
 620:Drivers/STM32G4xx_HAL_Driver/Src/stm32g4xx_hal_pwr_ex.c **** 
 621:Drivers/STM32G4xx_HAL_Driver/Src/stm32g4xx_hal_pwr_ex.c **** 
 622:Drivers/STM32G4xx_HAL_Driver/Src/stm32g4xx_hal_pwr_ex.c **** /**
 623:Drivers/STM32G4xx_HAL_Driver/Src/stm32g4xx_hal_pwr_ex.c ****   * @brief Enable the Power Voltage Monitoring 3: VDDA versus ADC minimum voltage 1.62V.
 624:Drivers/STM32G4xx_HAL_Driver/Src/stm32g4xx_hal_pwr_ex.c ****   * @retval None
 625:Drivers/STM32G4xx_HAL_Driver/Src/stm32g4xx_hal_pwr_ex.c ****   */
 626:Drivers/STM32G4xx_HAL_Driver/Src/stm32g4xx_hal_pwr_ex.c **** void HAL_PWREx_EnablePVM3(void)
 627:Drivers/STM32G4xx_HAL_Driver/Src/stm32g4xx_hal_pwr_ex.c **** {
 1179              	 .loc 1 627 1 is_stmt 1 view-0
 1180              	 .cfi_startproc
 1181              	 
 1182              	 
 1183              	 
 628:Drivers/STM32G4xx_HAL_Driver/Src/stm32g4xx_hal_pwr_ex.c ****   SET_BIT(PWR->CR2, PWR_PVM_3);
 1184              	 .loc 1 628 3 view .LVU248
 1185 0000 024A     	 ldr r2,.L140
 1186 0002 5368     	 ldr r3,[r2,#4]
 1187 0004 43F04003 	 orr r3,r3,#64
 1188 0008 5360     	 str r3,[r2,#4]
 629:Drivers/STM32G4xx_HAL_Driver/Src/stm32g4xx_hal_pwr_ex.c **** }
 1189              	 .loc 1 629 1 is_stmt 0 view .LVU249
 1190 000a 7047     	 bx lr
 1191              	.L141:
 1192              	 .align 2
 1193              	.L140:
 1194 000c 00700040 	 .word 1073770496
 1195              	 .cfi_endproc
 1196              	.LFE379:
 1198              	 .section .text.HAL_PWREx_DisablePVM3,"ax",%progbits
 1199              	 .align 1
 1200              	 .p2align 2,,3
 1201              	 .global HAL_PWREx_DisablePVM3
 1202              	 .syntax unified
 1203              	 .thumb
ARM GAS   			page 35


 1204              	 .thumb_func
 1206              	HAL_PWREx_DisablePVM3:
 1207              	.LFB380:
 630:Drivers/STM32G4xx_HAL_Driver/Src/stm32g4xx_hal_pwr_ex.c **** 
 631:Drivers/STM32G4xx_HAL_Driver/Src/stm32g4xx_hal_pwr_ex.c **** /**
 632:Drivers/STM32G4xx_HAL_Driver/Src/stm32g4xx_hal_pwr_ex.c ****   * @brief Disable the Power Voltage Monitoring 3: VDDA versus ADC minimum voltage 1.62V.
 633:Drivers/STM32G4xx_HAL_Driver/Src/stm32g4xx_hal_pwr_ex.c ****   * @retval None
 634:Drivers/STM32G4xx_HAL_Driver/Src/stm32g4xx_hal_pwr_ex.c ****   */
 635:Drivers/STM32G4xx_HAL_Driver/Src/stm32g4xx_hal_pwr_ex.c **** void HAL_PWREx_DisablePVM3(void)
 636:Drivers/STM32G4xx_HAL_Driver/Src/stm32g4xx_hal_pwr_ex.c **** {
 1208              	 .loc 1 636 1 is_stmt 1 view-0
 1209              	 .cfi_startproc
 1210              	 
 1211              	 
 1212              	 
 637:Drivers/STM32G4xx_HAL_Driver/Src/stm32g4xx_hal_pwr_ex.c ****   CLEAR_BIT(PWR->CR2, PWR_PVM_3);
 1213              	 .loc 1 637 3 view .LVU251
 1214 0000 024A     	 ldr r2,.L143
 1215 0002 5368     	 ldr r3,[r2,#4]
 1216 0004 23F04003 	 bic r3,r3,#64
 1217 0008 5360     	 str r3,[r2,#4]
 638:Drivers/STM32G4xx_HAL_Driver/Src/stm32g4xx_hal_pwr_ex.c **** }
 1218              	 .loc 1 638 1 is_stmt 0 view .LVU252
 1219 000a 7047     	 bx lr
 1220              	.L144:
 1221              	 .align 2
 1222              	.L143:
 1223 000c 00700040 	 .word 1073770496
 1224              	 .cfi_endproc
 1225              	.LFE380:
 1227              	 .section .text.HAL_PWREx_EnablePVM4,"ax",%progbits
 1228              	 .align 1
 1229              	 .p2align 2,,3
 1230              	 .global HAL_PWREx_EnablePVM4
 1231              	 .syntax unified
 1232              	 .thumb
 1233              	 .thumb_func
 1235              	HAL_PWREx_EnablePVM4:
 1236              	.LFB381:
 639:Drivers/STM32G4xx_HAL_Driver/Src/stm32g4xx_hal_pwr_ex.c **** 
 640:Drivers/STM32G4xx_HAL_Driver/Src/stm32g4xx_hal_pwr_ex.c **** 
 641:Drivers/STM32G4xx_HAL_Driver/Src/stm32g4xx_hal_pwr_ex.c **** /**
 642:Drivers/STM32G4xx_HAL_Driver/Src/stm32g4xx_hal_pwr_ex.c ****   * @brief Enable the Power Voltage Monitoring 4: VDDA versus OPAMP/DAC minimum voltage 1.8V.
 643:Drivers/STM32G4xx_HAL_Driver/Src/stm32g4xx_hal_pwr_ex.c ****   * @retval None
 644:Drivers/STM32G4xx_HAL_Driver/Src/stm32g4xx_hal_pwr_ex.c ****   */
 645:Drivers/STM32G4xx_HAL_Driver/Src/stm32g4xx_hal_pwr_ex.c **** void HAL_PWREx_EnablePVM4(void)
 646:Drivers/STM32G4xx_HAL_Driver/Src/stm32g4xx_hal_pwr_ex.c **** {
 1237              	 .loc 1 646 1 is_stmt 1 view-0
 1238              	 .cfi_startproc
 1239              	 
 1240              	 
 1241              	 
 647:Drivers/STM32G4xx_HAL_Driver/Src/stm32g4xx_hal_pwr_ex.c ****   SET_BIT(PWR->CR2, PWR_PVM_4);
 1242              	 .loc 1 647 3 view .LVU254
 1243 0000 024A     	 ldr r2,.L146
 1244 0002 5368     	 ldr r3,[r2,#4]
 1245 0004 43F08003 	 orr r3,r3,#128
ARM GAS   			page 36


 1246 0008 5360     	 str r3,[r2,#4]
 648:Drivers/STM32G4xx_HAL_Driver/Src/stm32g4xx_hal_pwr_ex.c **** }
 1247              	 .loc 1 648 1 is_stmt 0 view .LVU255
 1248 000a 7047     	 bx lr
 1249              	.L147:
 1250              	 .align 2
 1251              	.L146:
 1252 000c 00700040 	 .word 1073770496
 1253              	 .cfi_endproc
 1254              	.LFE381:
 1256              	 .section .text.HAL_PWREx_DisablePVM4,"ax",%progbits
 1257              	 .align 1
 1258              	 .p2align 2,,3
 1259              	 .global HAL_PWREx_DisablePVM4
 1260              	 .syntax unified
 1261              	 .thumb
 1262              	 .thumb_func
 1264              	HAL_PWREx_DisablePVM4:
 1265              	.LFB382:
 649:Drivers/STM32G4xx_HAL_Driver/Src/stm32g4xx_hal_pwr_ex.c **** 
 650:Drivers/STM32G4xx_HAL_Driver/Src/stm32g4xx_hal_pwr_ex.c **** /**
 651:Drivers/STM32G4xx_HAL_Driver/Src/stm32g4xx_hal_pwr_ex.c ****   * @brief Disable the Power Voltage Monitoring 4: VDDA versus OPAMP/DAC minimum voltage 1.8V.
 652:Drivers/STM32G4xx_HAL_Driver/Src/stm32g4xx_hal_pwr_ex.c ****   * @retval None
 653:Drivers/STM32G4xx_HAL_Driver/Src/stm32g4xx_hal_pwr_ex.c ****   */
 654:Drivers/STM32G4xx_HAL_Driver/Src/stm32g4xx_hal_pwr_ex.c **** void HAL_PWREx_DisablePVM4(void)
 655:Drivers/STM32G4xx_HAL_Driver/Src/stm32g4xx_hal_pwr_ex.c **** {
 1266              	 .loc 1 655 1 is_stmt 1 view-0
 1267              	 .cfi_startproc
 1268              	 
 1269              	 
 1270              	 
 656:Drivers/STM32G4xx_HAL_Driver/Src/stm32g4xx_hal_pwr_ex.c ****   CLEAR_BIT(PWR->CR2, PWR_PVM_4);
 1271              	 .loc 1 656 3 view .LVU257
 1272 0000 024A     	 ldr r2,.L149
 1273 0002 5368     	 ldr r3,[r2,#4]
 1274 0004 23F08003 	 bic r3,r3,#128
 1275 0008 5360     	 str r3,[r2,#4]
 657:Drivers/STM32G4xx_HAL_Driver/Src/stm32g4xx_hal_pwr_ex.c **** }
 1276              	 .loc 1 657 1 is_stmt 0 view .LVU258
 1277 000a 7047     	 bx lr
 1278              	.L150:
 1279              	 .align 2
 1280              	.L149:
 1281 000c 00700040 	 .word 1073770496
 1282              	 .cfi_endproc
 1283              	.LFE382:
 1285              	 .section .text.HAL_PWREx_ConfigPVM,"ax",%progbits
 1286              	 .align 1
 1287              	 .p2align 2,,3
 1288              	 .global HAL_PWREx_ConfigPVM
 1289              	 .syntax unified
 1290              	 .thumb
 1291              	 .thumb_func
 1293              	HAL_PWREx_ConfigPVM:
 1294              	.LVL60:
 1295              	.LFB383:
 658:Drivers/STM32G4xx_HAL_Driver/Src/stm32g4xx_hal_pwr_ex.c **** 
ARM GAS   			page 37


 659:Drivers/STM32G4xx_HAL_Driver/Src/stm32g4xx_hal_pwr_ex.c **** 
 660:Drivers/STM32G4xx_HAL_Driver/Src/stm32g4xx_hal_pwr_ex.c **** 
 661:Drivers/STM32G4xx_HAL_Driver/Src/stm32g4xx_hal_pwr_ex.c **** 
 662:Drivers/STM32G4xx_HAL_Driver/Src/stm32g4xx_hal_pwr_ex.c **** /**
 663:Drivers/STM32G4xx_HAL_Driver/Src/stm32g4xx_hal_pwr_ex.c ****   * @brief Configure the Peripheral Voltage Monitoring (PVM).
 664:Drivers/STM32G4xx_HAL_Driver/Src/stm32g4xx_hal_pwr_ex.c ****   * @param sConfigPVM: pointer to a PWR_PVMTypeDef structure that contains the
 665:Drivers/STM32G4xx_HAL_Driver/Src/stm32g4xx_hal_pwr_ex.c ****   *        PVM configuration information.
 666:Drivers/STM32G4xx_HAL_Driver/Src/stm32g4xx_hal_pwr_ex.c ****   * @note The API configures a single PVM according to the information contained
 667:Drivers/STM32G4xx_HAL_Driver/Src/stm32g4xx_hal_pwr_ex.c ****   *       in the input structure. To configure several PVMs, the API must be singly
 668:Drivers/STM32G4xx_HAL_Driver/Src/stm32g4xx_hal_pwr_ex.c ****   *       called for each PVM used.
 669:Drivers/STM32G4xx_HAL_Driver/Src/stm32g4xx_hal_pwr_ex.c ****   * @note Refer to the electrical characteristics of your device datasheet for
 670:Drivers/STM32G4xx_HAL_Driver/Src/stm32g4xx_hal_pwr_ex.c ****   *         more details about the voltage thresholds corresponding to each
 671:Drivers/STM32G4xx_HAL_Driver/Src/stm32g4xx_hal_pwr_ex.c ****   *         detection level and to each monitored supply.
 672:Drivers/STM32G4xx_HAL_Driver/Src/stm32g4xx_hal_pwr_ex.c ****   * @retval HAL status
 673:Drivers/STM32G4xx_HAL_Driver/Src/stm32g4xx_hal_pwr_ex.c ****   */
 674:Drivers/STM32G4xx_HAL_Driver/Src/stm32g4xx_hal_pwr_ex.c **** HAL_StatusTypeDef HAL_PWREx_ConfigPVM(PWR_PVMTypeDef *sConfigPVM)
 675:Drivers/STM32G4xx_HAL_Driver/Src/stm32g4xx_hal_pwr_ex.c **** {
 1296              	 .loc 1 675 1 is_stmt 1 view-0
 1297              	 .cfi_startproc
 1298              	 
 1299              	 
 1300              	 
 676:Drivers/STM32G4xx_HAL_Driver/Src/stm32g4xx_hal_pwr_ex.c ****   HAL_StatusTypeDef status = HAL_OK;
 1301              	 .loc 1 676 3 view .LVU260
 677:Drivers/STM32G4xx_HAL_Driver/Src/stm32g4xx_hal_pwr_ex.c **** 
 678:Drivers/STM32G4xx_HAL_Driver/Src/stm32g4xx_hal_pwr_ex.c ****   /* Check the parameters */
 679:Drivers/STM32G4xx_HAL_Driver/Src/stm32g4xx_hal_pwr_ex.c ****   assert_param(IS_PWR_PVM_TYPE(sConfigPVM->PVMType));
 1302              	 .loc 1 679 3 view .LVU261
 680:Drivers/STM32G4xx_HAL_Driver/Src/stm32g4xx_hal_pwr_ex.c ****   assert_param(IS_PWR_PVM_MODE(sConfigPVM->Mode));
 1303              	 .loc 1 680 3 view .LVU262
 681:Drivers/STM32G4xx_HAL_Driver/Src/stm32g4xx_hal_pwr_ex.c **** 
 682:Drivers/STM32G4xx_HAL_Driver/Src/stm32g4xx_hal_pwr_ex.c **** 
 683:Drivers/STM32G4xx_HAL_Driver/Src/stm32g4xx_hal_pwr_ex.c ****   /* Configure EXTI 35 to 38 interrupts if so required:
 684:Drivers/STM32G4xx_HAL_Driver/Src/stm32g4xx_hal_pwr_ex.c ****      scan through PVMType to detect which PVMx is set and
 685:Drivers/STM32G4xx_HAL_Driver/Src/stm32g4xx_hal_pwr_ex.c ****      configure the corresponding EXTI line accordingly. */
 686:Drivers/STM32G4xx_HAL_Driver/Src/stm32g4xx_hal_pwr_ex.c ****   switch (sConfigPVM->PVMType)
 1304              	 .loc 1 686 3 view .LVU263
 1305              	 .loc 1 686 21 is_stmt 0 view .LVU264
 1306 0000 0368     	 ldr r3,[r0]
 1307              	 .loc 1 686 3 view .LVU265
 1308 0002 402B     	 cmp r3,#64
 1309 0004 00F09580 	 beq .L152
 1310 0008 33D8     	 bhi .L153
 1311 000a 102B     	 cmp r3,#16
 1312 000c 63D0     	 beq .L154
 1313 000e 202B     	 cmp r3,#32
 1314 0010 5FD1     	 bne .L218
 687:Drivers/STM32G4xx_HAL_Driver/Src/stm32g4xx_hal_pwr_ex.c ****   {
 688:Drivers/STM32G4xx_HAL_Driver/Src/stm32g4xx_hal_pwr_ex.c **** #if defined(PWR_CR2_PVME1)
 689:Drivers/STM32G4xx_HAL_Driver/Src/stm32g4xx_hal_pwr_ex.c ****     case PWR_PVM_1:
 690:Drivers/STM32G4xx_HAL_Driver/Src/stm32g4xx_hal_pwr_ex.c ****       /* Clear any previous config. Keep it clear if no event or IT mode is selected */
 691:Drivers/STM32G4xx_HAL_Driver/Src/stm32g4xx_hal_pwr_ex.c ****       __HAL_PWR_PVM1_EXTI_DISABLE_EVENT();
 692:Drivers/STM32G4xx_HAL_Driver/Src/stm32g4xx_hal_pwr_ex.c ****       __HAL_PWR_PVM1_EXTI_DISABLE_IT();
 693:Drivers/STM32G4xx_HAL_Driver/Src/stm32g4xx_hal_pwr_ex.c ****       __HAL_PWR_PVM1_EXTI_DISABLE_FALLING_EDGE();
 694:Drivers/STM32G4xx_HAL_Driver/Src/stm32g4xx_hal_pwr_ex.c ****       __HAL_PWR_PVM1_EXTI_DISABLE_RISING_EDGE();
 695:Drivers/STM32G4xx_HAL_Driver/Src/stm32g4xx_hal_pwr_ex.c **** 
 696:Drivers/STM32G4xx_HAL_Driver/Src/stm32g4xx_hal_pwr_ex.c ****       /* Configure interrupt mode */
ARM GAS   			page 38


 697:Drivers/STM32G4xx_HAL_Driver/Src/stm32g4xx_hal_pwr_ex.c ****       if((sConfigPVM->Mode & PVM_MODE_IT) == PVM_MODE_IT)
 698:Drivers/STM32G4xx_HAL_Driver/Src/stm32g4xx_hal_pwr_ex.c ****       {
 699:Drivers/STM32G4xx_HAL_Driver/Src/stm32g4xx_hal_pwr_ex.c ****         __HAL_PWR_PVM1_EXTI_ENABLE_IT();
 700:Drivers/STM32G4xx_HAL_Driver/Src/stm32g4xx_hal_pwr_ex.c ****       }
 701:Drivers/STM32G4xx_HAL_Driver/Src/stm32g4xx_hal_pwr_ex.c **** 
 702:Drivers/STM32G4xx_HAL_Driver/Src/stm32g4xx_hal_pwr_ex.c ****       /* Configure event mode */
 703:Drivers/STM32G4xx_HAL_Driver/Src/stm32g4xx_hal_pwr_ex.c ****       if((sConfigPVM->Mode & PVM_MODE_EVT) == PVM_MODE_EVT)
 704:Drivers/STM32G4xx_HAL_Driver/Src/stm32g4xx_hal_pwr_ex.c ****       {
 705:Drivers/STM32G4xx_HAL_Driver/Src/stm32g4xx_hal_pwr_ex.c ****         __HAL_PWR_PVM1_EXTI_ENABLE_EVENT();
 706:Drivers/STM32G4xx_HAL_Driver/Src/stm32g4xx_hal_pwr_ex.c ****       }
 707:Drivers/STM32G4xx_HAL_Driver/Src/stm32g4xx_hal_pwr_ex.c **** 
 708:Drivers/STM32G4xx_HAL_Driver/Src/stm32g4xx_hal_pwr_ex.c ****       /* Configure the edge */
 709:Drivers/STM32G4xx_HAL_Driver/Src/stm32g4xx_hal_pwr_ex.c ****       if((sConfigPVM->Mode & PVM_RISING_EDGE) == PVM_RISING_EDGE)
 710:Drivers/STM32G4xx_HAL_Driver/Src/stm32g4xx_hal_pwr_ex.c ****       {
 711:Drivers/STM32G4xx_HAL_Driver/Src/stm32g4xx_hal_pwr_ex.c ****         __HAL_PWR_PVM1_EXTI_ENABLE_RISING_EDGE();
 712:Drivers/STM32G4xx_HAL_Driver/Src/stm32g4xx_hal_pwr_ex.c ****       }
 713:Drivers/STM32G4xx_HAL_Driver/Src/stm32g4xx_hal_pwr_ex.c **** 
 714:Drivers/STM32G4xx_HAL_Driver/Src/stm32g4xx_hal_pwr_ex.c ****       if((sConfigPVM->Mode & PVM_FALLING_EDGE) == PVM_FALLING_EDGE)
 715:Drivers/STM32G4xx_HAL_Driver/Src/stm32g4xx_hal_pwr_ex.c ****       {
 716:Drivers/STM32G4xx_HAL_Driver/Src/stm32g4xx_hal_pwr_ex.c ****         __HAL_PWR_PVM1_EXTI_ENABLE_FALLING_EDGE();
 717:Drivers/STM32G4xx_HAL_Driver/Src/stm32g4xx_hal_pwr_ex.c ****       }
 718:Drivers/STM32G4xx_HAL_Driver/Src/stm32g4xx_hal_pwr_ex.c ****       break;
 719:Drivers/STM32G4xx_HAL_Driver/Src/stm32g4xx_hal_pwr_ex.c **** #endif /* PWR_CR2_PVME1 */
 720:Drivers/STM32G4xx_HAL_Driver/Src/stm32g4xx_hal_pwr_ex.c **** 
 721:Drivers/STM32G4xx_HAL_Driver/Src/stm32g4xx_hal_pwr_ex.c **** #if defined(PWR_CR2_PVME2)
 722:Drivers/STM32G4xx_HAL_Driver/Src/stm32g4xx_hal_pwr_ex.c ****     case PWR_PVM_2:
 723:Drivers/STM32G4xx_HAL_Driver/Src/stm32g4xx_hal_pwr_ex.c ****       /* Clear any previous config. Keep it clear if no event or IT mode is selected */
 724:Drivers/STM32G4xx_HAL_Driver/Src/stm32g4xx_hal_pwr_ex.c ****       __HAL_PWR_PVM2_EXTI_DISABLE_EVENT();
 1315              	 .loc 1 724 7 is_stmt 1 view .LVU266
 1316 0012 5F4B     	 ldr r3,.L219
 1317 0014 5A6A     	 ldr r2,[r3,#36]
 1318 0016 22F01002 	 bic r2,r2,#16
 1319 001a 5A62     	 str r2,[r3,#36]
 725:Drivers/STM32G4xx_HAL_Driver/Src/stm32g4xx_hal_pwr_ex.c ****       __HAL_PWR_PVM2_EXTI_DISABLE_IT();
 1320              	 .loc 1 725 7 view .LVU267
 1321 001c 1A6A     	 ldr r2,[r3,#32]
 1322 001e 22F01002 	 bic r2,r2,#16
 1323 0022 1A62     	 str r2,[r3,#32]
 726:Drivers/STM32G4xx_HAL_Driver/Src/stm32g4xx_hal_pwr_ex.c ****       __HAL_PWR_PVM2_EXTI_DISABLE_FALLING_EDGE();
 1324              	 .loc 1 726 7 view .LVU268
 1325 0024 DA6A     	 ldr r2,[r3,#44]
 1326 0026 22F01002 	 bic r2,r2,#16
 1327 002a DA62     	 str r2,[r3,#44]
 727:Drivers/STM32G4xx_HAL_Driver/Src/stm32g4xx_hal_pwr_ex.c ****       __HAL_PWR_PVM2_EXTI_DISABLE_RISING_EDGE();
 1328              	 .loc 1 727 7 view .LVU269
 1329 002c 9A6A     	 ldr r2,[r3,#40]
 1330 002e 22F01002 	 bic r2,r2,#16
 1331 0032 9A62     	 str r2,[r3,#40]
 728:Drivers/STM32G4xx_HAL_Driver/Src/stm32g4xx_hal_pwr_ex.c **** 
 729:Drivers/STM32G4xx_HAL_Driver/Src/stm32g4xx_hal_pwr_ex.c ****       /* Configure interrupt mode */
 730:Drivers/STM32G4xx_HAL_Driver/Src/stm32g4xx_hal_pwr_ex.c ****       if((sConfigPVM->Mode & PVM_MODE_IT) == PVM_MODE_IT)
 1332              	 .loc 1 730 7 view .LVU270
 1333              	 .loc 1 730 21 is_stmt 0 view .LVU271
 1334 0034 4268     	 ldr r2,[r0,#4]
 1335              	 .loc 1 730 9 view .LVU272
 1336 0036 D103     	 lsls r1,r2,#15
 1337 0038 03D5     	 bpl .L163
ARM GAS   			page 39


 731:Drivers/STM32G4xx_HAL_Driver/Src/stm32g4xx_hal_pwr_ex.c ****       {
 732:Drivers/STM32G4xx_HAL_Driver/Src/stm32g4xx_hal_pwr_ex.c ****         __HAL_PWR_PVM2_EXTI_ENABLE_IT();
 1338              	 .loc 1 732 9 is_stmt 1 view .LVU273
 1339 003a 196A     	 ldr r1,[r3,#32]
 1340 003c 41F01001 	 orr r1,r1,#16
 1341 0040 1962     	 str r1,[r3,#32]
 1342              	.L163:
 733:Drivers/STM32G4xx_HAL_Driver/Src/stm32g4xx_hal_pwr_ex.c ****       }
 734:Drivers/STM32G4xx_HAL_Driver/Src/stm32g4xx_hal_pwr_ex.c **** 
 735:Drivers/STM32G4xx_HAL_Driver/Src/stm32g4xx_hal_pwr_ex.c ****       /* Configure event mode */
 736:Drivers/STM32G4xx_HAL_Driver/Src/stm32g4xx_hal_pwr_ex.c ****       if((sConfigPVM->Mode & PVM_MODE_EVT) == PVM_MODE_EVT)
 1343              	 .loc 1 736 7 view .LVU274
 1344              	 .loc 1 736 9 is_stmt 0 view .LVU275
 1345 0042 9003     	 lsls r0,r2,#14
 1346              	.LVL61:
 1347              	 .loc 1 736 9 view .LVU276
 1348 0044 04D5     	 bpl .L164
 737:Drivers/STM32G4xx_HAL_Driver/Src/stm32g4xx_hal_pwr_ex.c ****       {
 738:Drivers/STM32G4xx_HAL_Driver/Src/stm32g4xx_hal_pwr_ex.c ****         __HAL_PWR_PVM2_EXTI_ENABLE_EVENT();
 1349              	 .loc 1 738 9 is_stmt 1 view .LVU277
 1350 0046 5249     	 ldr r1,.L219
 1351 0048 4B6A     	 ldr r3,[r1,#36]
 1352 004a 43F01003 	 orr r3,r3,#16
 1353 004e 4B62     	 str r3,[r1,#36]
 1354              	.L164:
 739:Drivers/STM32G4xx_HAL_Driver/Src/stm32g4xx_hal_pwr_ex.c ****       }
 740:Drivers/STM32G4xx_HAL_Driver/Src/stm32g4xx_hal_pwr_ex.c **** 
 741:Drivers/STM32G4xx_HAL_Driver/Src/stm32g4xx_hal_pwr_ex.c ****       /* Configure the edge */
 742:Drivers/STM32G4xx_HAL_Driver/Src/stm32g4xx_hal_pwr_ex.c ****       if((sConfigPVM->Mode & PVM_RISING_EDGE) == PVM_RISING_EDGE)
 1355              	 .loc 1 742 7 view .LVU278
 1356              	 .loc 1 742 9 is_stmt 0 view .LVU279
 1357 0050 D107     	 lsls r1,r2,#31
 1358 0052 04D5     	 bpl .L165
 743:Drivers/STM32G4xx_HAL_Driver/Src/stm32g4xx_hal_pwr_ex.c ****       {
 744:Drivers/STM32G4xx_HAL_Driver/Src/stm32g4xx_hal_pwr_ex.c ****         __HAL_PWR_PVM2_EXTI_ENABLE_RISING_EDGE();
 1359              	 .loc 1 744 9 is_stmt 1 view .LVU280
 1360 0054 4E49     	 ldr r1,.L219
 1361 0056 8B6A     	 ldr r3,[r1,#40]
 1362 0058 43F01003 	 orr r3,r3,#16
 1363 005c 8B62     	 str r3,[r1,#40]
 1364              	.L165:
 745:Drivers/STM32G4xx_HAL_Driver/Src/stm32g4xx_hal_pwr_ex.c ****       }
 746:Drivers/STM32G4xx_HAL_Driver/Src/stm32g4xx_hal_pwr_ex.c **** 
 747:Drivers/STM32G4xx_HAL_Driver/Src/stm32g4xx_hal_pwr_ex.c ****       if((sConfigPVM->Mode & PVM_FALLING_EDGE) == PVM_FALLING_EDGE)
 1365              	 .loc 1 747 7 view .LVU281
 1366              	 .loc 1 747 9 is_stmt 0 view .LVU282
 1367 005e 9307     	 lsls r3,r2,#30
 1368 0060 40F19480 	 bpl .L162
 748:Drivers/STM32G4xx_HAL_Driver/Src/stm32g4xx_hal_pwr_ex.c ****       {
 749:Drivers/STM32G4xx_HAL_Driver/Src/stm32g4xx_hal_pwr_ex.c ****         __HAL_PWR_PVM2_EXTI_ENABLE_FALLING_EDGE();
 1369              	 .loc 1 749 9 is_stmt 1 view .LVU283
 1370 0064 4A4A     	 ldr r2,.L219
 1371 0066 D36A     	 ldr r3,[r2,#44]
 1372 0068 43F01003 	 orr r3,r3,#16
 1373 006c D362     	 str r3,[r2,#44]
 676:Drivers/STM32G4xx_HAL_Driver/Src/stm32g4xx_hal_pwr_ex.c **** 
 1374              	 .loc 1 676 21 is_stmt 0 view .LVU284
ARM GAS   			page 40


 1375 006e 0020     	 movs r0,#0
 1376              	.LVL62:
 750:Drivers/STM32G4xx_HAL_Driver/Src/stm32g4xx_hal_pwr_ex.c ****       }
 751:Drivers/STM32G4xx_HAL_Driver/Src/stm32g4xx_hal_pwr_ex.c ****       break;
 752:Drivers/STM32G4xx_HAL_Driver/Src/stm32g4xx_hal_pwr_ex.c **** #endif /* PWR_CR2_PVME2 */
 753:Drivers/STM32G4xx_HAL_Driver/Src/stm32g4xx_hal_pwr_ex.c **** 
 754:Drivers/STM32G4xx_HAL_Driver/Src/stm32g4xx_hal_pwr_ex.c ****     case PWR_PVM_3:
 755:Drivers/STM32G4xx_HAL_Driver/Src/stm32g4xx_hal_pwr_ex.c ****       /* Clear any previous config. Keep it clear if no event or IT mode is selected */
 756:Drivers/STM32G4xx_HAL_Driver/Src/stm32g4xx_hal_pwr_ex.c ****       __HAL_PWR_PVM3_EXTI_DISABLE_EVENT();
 757:Drivers/STM32G4xx_HAL_Driver/Src/stm32g4xx_hal_pwr_ex.c ****       __HAL_PWR_PVM3_EXTI_DISABLE_IT();
 758:Drivers/STM32G4xx_HAL_Driver/Src/stm32g4xx_hal_pwr_ex.c ****       __HAL_PWR_PVM3_EXTI_DISABLE_FALLING_EDGE();
 759:Drivers/STM32G4xx_HAL_Driver/Src/stm32g4xx_hal_pwr_ex.c ****       __HAL_PWR_PVM3_EXTI_DISABLE_RISING_EDGE();
 760:Drivers/STM32G4xx_HAL_Driver/Src/stm32g4xx_hal_pwr_ex.c **** 
 761:Drivers/STM32G4xx_HAL_Driver/Src/stm32g4xx_hal_pwr_ex.c ****       /* Configure interrupt mode */
 762:Drivers/STM32G4xx_HAL_Driver/Src/stm32g4xx_hal_pwr_ex.c ****       if((sConfigPVM->Mode & PVM_MODE_IT) == PVM_MODE_IT)
 763:Drivers/STM32G4xx_HAL_Driver/Src/stm32g4xx_hal_pwr_ex.c ****       {
 764:Drivers/STM32G4xx_HAL_Driver/Src/stm32g4xx_hal_pwr_ex.c ****         __HAL_PWR_PVM3_EXTI_ENABLE_IT();
 765:Drivers/STM32G4xx_HAL_Driver/Src/stm32g4xx_hal_pwr_ex.c ****       }
 766:Drivers/STM32G4xx_HAL_Driver/Src/stm32g4xx_hal_pwr_ex.c **** 
 767:Drivers/STM32G4xx_HAL_Driver/Src/stm32g4xx_hal_pwr_ex.c ****       /* Configure event mode */
 768:Drivers/STM32G4xx_HAL_Driver/Src/stm32g4xx_hal_pwr_ex.c ****       if((sConfigPVM->Mode & PVM_MODE_EVT) == PVM_MODE_EVT)
 769:Drivers/STM32G4xx_HAL_Driver/Src/stm32g4xx_hal_pwr_ex.c ****       {
 770:Drivers/STM32G4xx_HAL_Driver/Src/stm32g4xx_hal_pwr_ex.c ****         __HAL_PWR_PVM3_EXTI_ENABLE_EVENT();
 771:Drivers/STM32G4xx_HAL_Driver/Src/stm32g4xx_hal_pwr_ex.c ****       }
 772:Drivers/STM32G4xx_HAL_Driver/Src/stm32g4xx_hal_pwr_ex.c **** 
 773:Drivers/STM32G4xx_HAL_Driver/Src/stm32g4xx_hal_pwr_ex.c ****       /* Configure the edge */
 774:Drivers/STM32G4xx_HAL_Driver/Src/stm32g4xx_hal_pwr_ex.c ****       if((sConfigPVM->Mode & PVM_RISING_EDGE) == PVM_RISING_EDGE)
 775:Drivers/STM32G4xx_HAL_Driver/Src/stm32g4xx_hal_pwr_ex.c ****       {
 776:Drivers/STM32G4xx_HAL_Driver/Src/stm32g4xx_hal_pwr_ex.c ****         __HAL_PWR_PVM3_EXTI_ENABLE_RISING_EDGE();
 777:Drivers/STM32G4xx_HAL_Driver/Src/stm32g4xx_hal_pwr_ex.c ****       }
 778:Drivers/STM32G4xx_HAL_Driver/Src/stm32g4xx_hal_pwr_ex.c **** 
 779:Drivers/STM32G4xx_HAL_Driver/Src/stm32g4xx_hal_pwr_ex.c ****       if((sConfigPVM->Mode & PVM_FALLING_EDGE) == PVM_FALLING_EDGE)
 780:Drivers/STM32G4xx_HAL_Driver/Src/stm32g4xx_hal_pwr_ex.c ****       {
 781:Drivers/STM32G4xx_HAL_Driver/Src/stm32g4xx_hal_pwr_ex.c ****         __HAL_PWR_PVM3_EXTI_ENABLE_FALLING_EDGE();
 782:Drivers/STM32G4xx_HAL_Driver/Src/stm32g4xx_hal_pwr_ex.c ****       }
 783:Drivers/STM32G4xx_HAL_Driver/Src/stm32g4xx_hal_pwr_ex.c ****       break;
 784:Drivers/STM32G4xx_HAL_Driver/Src/stm32g4xx_hal_pwr_ex.c **** 
 785:Drivers/STM32G4xx_HAL_Driver/Src/stm32g4xx_hal_pwr_ex.c ****     case PWR_PVM_4:
 786:Drivers/STM32G4xx_HAL_Driver/Src/stm32g4xx_hal_pwr_ex.c ****       /* Clear any previous config. Keep it clear if no event or IT mode is selected */
 787:Drivers/STM32G4xx_HAL_Driver/Src/stm32g4xx_hal_pwr_ex.c ****       __HAL_PWR_PVM4_EXTI_DISABLE_EVENT();
 788:Drivers/STM32G4xx_HAL_Driver/Src/stm32g4xx_hal_pwr_ex.c ****       __HAL_PWR_PVM4_EXTI_DISABLE_IT();
 789:Drivers/STM32G4xx_HAL_Driver/Src/stm32g4xx_hal_pwr_ex.c ****       __HAL_PWR_PVM4_EXTI_DISABLE_FALLING_EDGE();
 790:Drivers/STM32G4xx_HAL_Driver/Src/stm32g4xx_hal_pwr_ex.c ****       __HAL_PWR_PVM4_EXTI_DISABLE_RISING_EDGE();
 791:Drivers/STM32G4xx_HAL_Driver/Src/stm32g4xx_hal_pwr_ex.c **** 
 792:Drivers/STM32G4xx_HAL_Driver/Src/stm32g4xx_hal_pwr_ex.c ****       /* Configure interrupt mode */
 793:Drivers/STM32G4xx_HAL_Driver/Src/stm32g4xx_hal_pwr_ex.c ****       if((sConfigPVM->Mode & PVM_MODE_IT) == PVM_MODE_IT)
 794:Drivers/STM32G4xx_HAL_Driver/Src/stm32g4xx_hal_pwr_ex.c ****       {
 795:Drivers/STM32G4xx_HAL_Driver/Src/stm32g4xx_hal_pwr_ex.c ****         __HAL_PWR_PVM4_EXTI_ENABLE_IT();
 796:Drivers/STM32G4xx_HAL_Driver/Src/stm32g4xx_hal_pwr_ex.c ****       }
 797:Drivers/STM32G4xx_HAL_Driver/Src/stm32g4xx_hal_pwr_ex.c **** 
 798:Drivers/STM32G4xx_HAL_Driver/Src/stm32g4xx_hal_pwr_ex.c ****       /* Configure event mode */
 799:Drivers/STM32G4xx_HAL_Driver/Src/stm32g4xx_hal_pwr_ex.c ****       if((sConfigPVM->Mode & PVM_MODE_EVT) == PVM_MODE_EVT)
 800:Drivers/STM32G4xx_HAL_Driver/Src/stm32g4xx_hal_pwr_ex.c ****       {
 801:Drivers/STM32G4xx_HAL_Driver/Src/stm32g4xx_hal_pwr_ex.c ****         __HAL_PWR_PVM4_EXTI_ENABLE_EVENT();
 802:Drivers/STM32G4xx_HAL_Driver/Src/stm32g4xx_hal_pwr_ex.c ****       }
 803:Drivers/STM32G4xx_HAL_Driver/Src/stm32g4xx_hal_pwr_ex.c **** 
 804:Drivers/STM32G4xx_HAL_Driver/Src/stm32g4xx_hal_pwr_ex.c ****       /* Configure the edge */
ARM GAS   			page 41


 805:Drivers/STM32G4xx_HAL_Driver/Src/stm32g4xx_hal_pwr_ex.c ****       if((sConfigPVM->Mode & PVM_RISING_EDGE) == PVM_RISING_EDGE)
 806:Drivers/STM32G4xx_HAL_Driver/Src/stm32g4xx_hal_pwr_ex.c ****       {
 807:Drivers/STM32G4xx_HAL_Driver/Src/stm32g4xx_hal_pwr_ex.c ****         __HAL_PWR_PVM4_EXTI_ENABLE_RISING_EDGE();
 808:Drivers/STM32G4xx_HAL_Driver/Src/stm32g4xx_hal_pwr_ex.c ****       }
 809:Drivers/STM32G4xx_HAL_Driver/Src/stm32g4xx_hal_pwr_ex.c **** 
 810:Drivers/STM32G4xx_HAL_Driver/Src/stm32g4xx_hal_pwr_ex.c ****       if((sConfigPVM->Mode & PVM_FALLING_EDGE) == PVM_FALLING_EDGE)
 811:Drivers/STM32G4xx_HAL_Driver/Src/stm32g4xx_hal_pwr_ex.c ****       {
 812:Drivers/STM32G4xx_HAL_Driver/Src/stm32g4xx_hal_pwr_ex.c ****         __HAL_PWR_PVM4_EXTI_ENABLE_FALLING_EDGE();
 813:Drivers/STM32G4xx_HAL_Driver/Src/stm32g4xx_hal_pwr_ex.c ****       }
 814:Drivers/STM32G4xx_HAL_Driver/Src/stm32g4xx_hal_pwr_ex.c ****       break;
 815:Drivers/STM32G4xx_HAL_Driver/Src/stm32g4xx_hal_pwr_ex.c **** 
 816:Drivers/STM32G4xx_HAL_Driver/Src/stm32g4xx_hal_pwr_ex.c ****     default:
 817:Drivers/STM32G4xx_HAL_Driver/Src/stm32g4xx_hal_pwr_ex.c ****       status = HAL_ERROR;
 818:Drivers/STM32G4xx_HAL_Driver/Src/stm32g4xx_hal_pwr_ex.c ****       break;
 819:Drivers/STM32G4xx_HAL_Driver/Src/stm32g4xx_hal_pwr_ex.c ****   }
 820:Drivers/STM32G4xx_HAL_Driver/Src/stm32g4xx_hal_pwr_ex.c **** 
 821:Drivers/STM32G4xx_HAL_Driver/Src/stm32g4xx_hal_pwr_ex.c ****   return status;
 1377              	 .loc 1 821 3 is_stmt 1 view .LVU285
 822:Drivers/STM32G4xx_HAL_Driver/Src/stm32g4xx_hal_pwr_ex.c **** }
 1378              	 .loc 1 822 1 is_stmt 0 view .LVU286
 1379 0070 7047     	 bx lr
 1380              	.LVL63:
 1381              	.L153:
 686:Drivers/STM32G4xx_HAL_Driver/Src/stm32g4xx_hal_pwr_ex.c ****   {
 1382              	 .loc 1 686 3 view .LVU287
 1383 0072 802B     	 cmp r3,#128
 1384 0074 2DD1     	 bne .L218
 787:Drivers/STM32G4xx_HAL_Driver/Src/stm32g4xx_hal_pwr_ex.c ****       __HAL_PWR_PVM4_EXTI_DISABLE_IT();
 1385              	 .loc 1 787 7 is_stmt 1 view .LVU288
 1386 0076 464B     	 ldr r3,.L219
 1387 0078 5A6A     	 ldr r2,[r3,#36]
 1388 007a 22F04002 	 bic r2,r2,#64
 1389 007e 5A62     	 str r2,[r3,#36]
 788:Drivers/STM32G4xx_HAL_Driver/Src/stm32g4xx_hal_pwr_ex.c ****       __HAL_PWR_PVM4_EXTI_DISABLE_FALLING_EDGE();
 1390              	 .loc 1 788 7 view .LVU289
 1391 0080 1A6A     	 ldr r2,[r3,#32]
 1392 0082 22F04002 	 bic r2,r2,#64
 1393 0086 1A62     	 str r2,[r3,#32]
 789:Drivers/STM32G4xx_HAL_Driver/Src/stm32g4xx_hal_pwr_ex.c ****       __HAL_PWR_PVM4_EXTI_DISABLE_RISING_EDGE();
 1394              	 .loc 1 789 7 view .LVU290
 1395 0088 DA6A     	 ldr r2,[r3,#44]
 1396 008a 22F04002 	 bic r2,r2,#64
 1397 008e DA62     	 str r2,[r3,#44]
 790:Drivers/STM32G4xx_HAL_Driver/Src/stm32g4xx_hal_pwr_ex.c **** 
 1398              	 .loc 1 790 7 view .LVU291
 1399 0090 9A6A     	 ldr r2,[r3,#40]
 1400 0092 22F04002 	 bic r2,r2,#64
 1401 0096 9A62     	 str r2,[r3,#40]
 793:Drivers/STM32G4xx_HAL_Driver/Src/stm32g4xx_hal_pwr_ex.c ****       {
 1402              	 .loc 1 793 7 view .LVU292
 793:Drivers/STM32G4xx_HAL_Driver/Src/stm32g4xx_hal_pwr_ex.c ****       {
 1403              	 .loc 1 793 21 is_stmt 0 view .LVU293
 1404 0098 4268     	 ldr r2,[r0,#4]
 793:Drivers/STM32G4xx_HAL_Driver/Src/stm32g4xx_hal_pwr_ex.c ****       {
 1405              	 .loc 1 793 9 view .LVU294
 1406 009a D103     	 lsls r1,r2,#15
 1407 009c 03D5     	 bpl .L170
ARM GAS   			page 42


 795:Drivers/STM32G4xx_HAL_Driver/Src/stm32g4xx_hal_pwr_ex.c ****       }
 1408              	 .loc 1 795 9 is_stmt 1 view .LVU295
 1409 009e 196A     	 ldr r1,[r3,#32]
 1410 00a0 41F04001 	 orr r1,r1,#64
 1411 00a4 1962     	 str r1,[r3,#32]
 1412              	.L170:
 799:Drivers/STM32G4xx_HAL_Driver/Src/stm32g4xx_hal_pwr_ex.c ****       {
 1413              	 .loc 1 799 7 view .LVU296
 799:Drivers/STM32G4xx_HAL_Driver/Src/stm32g4xx_hal_pwr_ex.c ****       {
 1414              	 .loc 1 799 9 is_stmt 0 view .LVU297
 1415 00a6 9003     	 lsls r0,r2,#14
 1416              	.LVL64:
 799:Drivers/STM32G4xx_HAL_Driver/Src/stm32g4xx_hal_pwr_ex.c ****       {
 1417              	 .loc 1 799 9 view .LVU298
 1418 00a8 04D5     	 bpl .L171
 801:Drivers/STM32G4xx_HAL_Driver/Src/stm32g4xx_hal_pwr_ex.c ****       }
 1419              	 .loc 1 801 9 is_stmt 1 view .LVU299
 1420 00aa 3949     	 ldr r1,.L219
 1421 00ac 4B6A     	 ldr r3,[r1,#36]
 1422 00ae 43F04003 	 orr r3,r3,#64
 1423 00b2 4B62     	 str r3,[r1,#36]
 1424              	.L171:
 805:Drivers/STM32G4xx_HAL_Driver/Src/stm32g4xx_hal_pwr_ex.c ****       {
 1425              	 .loc 1 805 7 view .LVU300
 805:Drivers/STM32G4xx_HAL_Driver/Src/stm32g4xx_hal_pwr_ex.c ****       {
 1426              	 .loc 1 805 9 is_stmt 0 view .LVU301
 1427 00b4 D107     	 lsls r1,r2,#31
 1428 00b6 04D5     	 bpl .L172
 807:Drivers/STM32G4xx_HAL_Driver/Src/stm32g4xx_hal_pwr_ex.c ****       }
 1429              	 .loc 1 807 9 is_stmt 1 view .LVU302
 1430 00b8 3549     	 ldr r1,.L219
 1431 00ba 8B6A     	 ldr r3,[r1,#40]
 1432 00bc 43F04003 	 orr r3,r3,#64
 1433 00c0 8B62     	 str r3,[r1,#40]
 1434              	.L172:
 810:Drivers/STM32G4xx_HAL_Driver/Src/stm32g4xx_hal_pwr_ex.c ****       {
 1435              	 .loc 1 810 7 view .LVU303
 810:Drivers/STM32G4xx_HAL_Driver/Src/stm32g4xx_hal_pwr_ex.c ****       {
 1436              	 .loc 1 810 9 is_stmt 0 view .LVU304
 1437 00c2 9307     	 lsls r3,r2,#30
 1438 00c4 62D5     	 bpl .L162
 812:Drivers/STM32G4xx_HAL_Driver/Src/stm32g4xx_hal_pwr_ex.c ****       }
 1439              	 .loc 1 812 9 is_stmt 1 view .LVU305
 1440 00c6 324A     	 ldr r2,.L219
 1441 00c8 D36A     	 ldr r3,[r2,#44]
 1442 00ca 43F04003 	 orr r3,r3,#64
 1443 00ce D362     	 str r3,[r2,#44]
 1444 00d0 5CE0     	 b .L162
 1445              	.LVL65:
 1446              	.L218:
 686:Drivers/STM32G4xx_HAL_Driver/Src/stm32g4xx_hal_pwr_ex.c ****   {
 1447              	 .loc 1 686 3 is_stmt 0 view .LVU306
 1448 00d2 0120     	 movs r0,#1
 1449              	.LVL66:
 686:Drivers/STM32G4xx_HAL_Driver/Src/stm32g4xx_hal_pwr_ex.c ****   {
 1450              	 .loc 1 686 3 view .LVU307
 1451 00d4 7047     	 bx lr
ARM GAS   			page 43


 1452              	.LVL67:
 1453              	.L154:
 691:Drivers/STM32G4xx_HAL_Driver/Src/stm32g4xx_hal_pwr_ex.c ****       __HAL_PWR_PVM1_EXTI_DISABLE_IT();
 1454              	 .loc 1 691 7 is_stmt 1 view .LVU308
 1455 00d6 2E4B     	 ldr r3,.L219
 1456 00d8 5A6A     	 ldr r2,[r3,#36]
 1457 00da 22F00802 	 bic r2,r2,#8
 1458 00de 5A62     	 str r2,[r3,#36]
 692:Drivers/STM32G4xx_HAL_Driver/Src/stm32g4xx_hal_pwr_ex.c ****       __HAL_PWR_PVM1_EXTI_DISABLE_FALLING_EDGE();
 1459              	 .loc 1 692 7 view .LVU309
 1460 00e0 1A6A     	 ldr r2,[r3,#32]
 1461 00e2 22F00802 	 bic r2,r2,#8
 1462 00e6 1A62     	 str r2,[r3,#32]
 693:Drivers/STM32G4xx_HAL_Driver/Src/stm32g4xx_hal_pwr_ex.c ****       __HAL_PWR_PVM1_EXTI_DISABLE_RISING_EDGE();
 1463              	 .loc 1 693 7 view .LVU310
 1464 00e8 DA6A     	 ldr r2,[r3,#44]
 1465 00ea 22F00802 	 bic r2,r2,#8
 1466 00ee DA62     	 str r2,[r3,#44]
 694:Drivers/STM32G4xx_HAL_Driver/Src/stm32g4xx_hal_pwr_ex.c **** 
 1467              	 .loc 1 694 7 view .LVU311
 1468 00f0 9A6A     	 ldr r2,[r3,#40]
 1469 00f2 22F00802 	 bic r2,r2,#8
 1470 00f6 9A62     	 str r2,[r3,#40]
 697:Drivers/STM32G4xx_HAL_Driver/Src/stm32g4xx_hal_pwr_ex.c ****       {
 1471              	 .loc 1 697 7 view .LVU312
 697:Drivers/STM32G4xx_HAL_Driver/Src/stm32g4xx_hal_pwr_ex.c ****       {
 1472              	 .loc 1 697 21 is_stmt 0 view .LVU313
 1473 00f8 4268     	 ldr r2,[r0,#4]
 697:Drivers/STM32G4xx_HAL_Driver/Src/stm32g4xx_hal_pwr_ex.c ****       {
 1474              	 .loc 1 697 9 view .LVU314
 1475 00fa D003     	 lsls r0,r2,#15
 1476              	.LVL68:
 697:Drivers/STM32G4xx_HAL_Driver/Src/stm32g4xx_hal_pwr_ex.c ****       {
 1477              	 .loc 1 697 9 view .LVU315
 1478 00fc 03D5     	 bpl .L158
 699:Drivers/STM32G4xx_HAL_Driver/Src/stm32g4xx_hal_pwr_ex.c ****       }
 1479              	 .loc 1 699 9 is_stmt 1 view .LVU316
 1480 00fe 196A     	 ldr r1,[r3,#32]
 1481 0100 41F00801 	 orr r1,r1,#8
 1482 0104 1962     	 str r1,[r3,#32]
 1483              	.L158:
 703:Drivers/STM32G4xx_HAL_Driver/Src/stm32g4xx_hal_pwr_ex.c ****       {
 1484              	 .loc 1 703 7 view .LVU317
 703:Drivers/STM32G4xx_HAL_Driver/Src/stm32g4xx_hal_pwr_ex.c ****       {
 1485              	 .loc 1 703 9 is_stmt 0 view .LVU318
 1486 0106 9103     	 lsls r1,r2,#14
 1487 0108 04D5     	 bpl .L159
 705:Drivers/STM32G4xx_HAL_Driver/Src/stm32g4xx_hal_pwr_ex.c ****       }
 1488              	 .loc 1 705 9 is_stmt 1 view .LVU319
 1489 010a 2149     	 ldr r1,.L219
 1490 010c 4B6A     	 ldr r3,[r1,#36]
 1491 010e 43F00803 	 orr r3,r3,#8
 1492 0112 4B62     	 str r3,[r1,#36]
 1493              	.L159:
 709:Drivers/STM32G4xx_HAL_Driver/Src/stm32g4xx_hal_pwr_ex.c ****       {
 1494              	 .loc 1 709 7 view .LVU320
 709:Drivers/STM32G4xx_HAL_Driver/Src/stm32g4xx_hal_pwr_ex.c ****       {
ARM GAS   			page 44


 1495              	 .loc 1 709 9 is_stmt 0 view .LVU321
 1496 0114 D307     	 lsls r3,r2,#31
 1497 0116 04D5     	 bpl .L160
 711:Drivers/STM32G4xx_HAL_Driver/Src/stm32g4xx_hal_pwr_ex.c ****       }
 1498              	 .loc 1 711 9 is_stmt 1 view .LVU322
 1499 0118 1D49     	 ldr r1,.L219
 1500 011a 8B6A     	 ldr r3,[r1,#40]
 1501 011c 43F00803 	 orr r3,r3,#8
 1502 0120 8B62     	 str r3,[r1,#40]
 1503              	.L160:
 714:Drivers/STM32G4xx_HAL_Driver/Src/stm32g4xx_hal_pwr_ex.c ****       {
 1504              	 .loc 1 714 7 view .LVU323
 714:Drivers/STM32G4xx_HAL_Driver/Src/stm32g4xx_hal_pwr_ex.c ****       {
 1505              	 .loc 1 714 9 is_stmt 0 view .LVU324
 1506 0122 9007     	 lsls r0,r2,#30
 1507 0124 32D5     	 bpl .L162
 716:Drivers/STM32G4xx_HAL_Driver/Src/stm32g4xx_hal_pwr_ex.c ****       }
 1508              	 .loc 1 716 9 is_stmt 1 view .LVU325
 1509 0126 1A4A     	 ldr r2,.L219
 1510 0128 D36A     	 ldr r3,[r2,#44]
 1511 012a 43F00803 	 orr r3,r3,#8
 1512 012e D362     	 str r3,[r2,#44]
 1513 0130 2CE0     	 b .L162
 1514              	.LVL69:
 1515              	.L152:
 756:Drivers/STM32G4xx_HAL_Driver/Src/stm32g4xx_hal_pwr_ex.c ****       __HAL_PWR_PVM3_EXTI_DISABLE_IT();
 1516              	 .loc 1 756 7 view .LVU326
 1517 0132 174B     	 ldr r3,.L219
 1518 0134 5A6A     	 ldr r2,[r3,#36]
 1519 0136 22F02002 	 bic r2,r2,#32
 1520 013a 5A62     	 str r2,[r3,#36]
 757:Drivers/STM32G4xx_HAL_Driver/Src/stm32g4xx_hal_pwr_ex.c ****       __HAL_PWR_PVM3_EXTI_DISABLE_FALLING_EDGE();
 1521              	 .loc 1 757 7 view .LVU327
 1522 013c 1A6A     	 ldr r2,[r3,#32]
 1523 013e 22F02002 	 bic r2,r2,#32
 1524 0142 1A62     	 str r2,[r3,#32]
 758:Drivers/STM32G4xx_HAL_Driver/Src/stm32g4xx_hal_pwr_ex.c ****       __HAL_PWR_PVM3_EXTI_DISABLE_RISING_EDGE();
 1525              	 .loc 1 758 7 view .LVU328
 1526 0144 DA6A     	 ldr r2,[r3,#44]
 1527 0146 22F02002 	 bic r2,r2,#32
 1528 014a DA62     	 str r2,[r3,#44]
 759:Drivers/STM32G4xx_HAL_Driver/Src/stm32g4xx_hal_pwr_ex.c **** 
 1529              	 .loc 1 759 7 view .LVU329
 1530 014c 9A6A     	 ldr r2,[r3,#40]
 1531 014e 22F02002 	 bic r2,r2,#32
 1532 0152 9A62     	 str r2,[r3,#40]
 762:Drivers/STM32G4xx_HAL_Driver/Src/stm32g4xx_hal_pwr_ex.c ****       {
 1533              	 .loc 1 762 7 view .LVU330
 762:Drivers/STM32G4xx_HAL_Driver/Src/stm32g4xx_hal_pwr_ex.c ****       {
 1534              	 .loc 1 762 21 is_stmt 0 view .LVU331
 1535 0154 4268     	 ldr r2,[r0,#4]
 762:Drivers/STM32G4xx_HAL_Driver/Src/stm32g4xx_hal_pwr_ex.c ****       {
 1536              	 .loc 1 762 9 view .LVU332
 1537 0156 D003     	 lsls r0,r2,#15
 1538              	.LVL70:
 762:Drivers/STM32G4xx_HAL_Driver/Src/stm32g4xx_hal_pwr_ex.c ****       {
 1539              	 .loc 1 762 9 view .LVU333
ARM GAS   			page 45


 1540 0158 03D5     	 bpl .L167
 764:Drivers/STM32G4xx_HAL_Driver/Src/stm32g4xx_hal_pwr_ex.c ****       }
 1541              	 .loc 1 764 9 is_stmt 1 view .LVU334
 1542 015a 196A     	 ldr r1,[r3,#32]
 1543 015c 41F02001 	 orr r1,r1,#32
 1544 0160 1962     	 str r1,[r3,#32]
 1545              	.L167:
 768:Drivers/STM32G4xx_HAL_Driver/Src/stm32g4xx_hal_pwr_ex.c ****       {
 1546              	 .loc 1 768 7 view .LVU335
 768:Drivers/STM32G4xx_HAL_Driver/Src/stm32g4xx_hal_pwr_ex.c ****       {
 1547              	 .loc 1 768 9 is_stmt 0 view .LVU336
 1548 0162 9103     	 lsls r1,r2,#14
 1549 0164 04D5     	 bpl .L168
 770:Drivers/STM32G4xx_HAL_Driver/Src/stm32g4xx_hal_pwr_ex.c ****       }
 1550              	 .loc 1 770 9 is_stmt 1 view .LVU337
 1551 0166 0A49     	 ldr r1,.L219
 1552 0168 4B6A     	 ldr r3,[r1,#36]
 1553 016a 43F02003 	 orr r3,r3,#32
 1554 016e 4B62     	 str r3,[r1,#36]
 1555              	.L168:
 774:Drivers/STM32G4xx_HAL_Driver/Src/stm32g4xx_hal_pwr_ex.c ****       {
 1556              	 .loc 1 774 7 view .LVU338
 774:Drivers/STM32G4xx_HAL_Driver/Src/stm32g4xx_hal_pwr_ex.c ****       {
 1557              	 .loc 1 774 9 is_stmt 0 view .LVU339
 1558 0170 D307     	 lsls r3,r2,#31
 1559 0172 04D5     	 bpl .L169
 776:Drivers/STM32G4xx_HAL_Driver/Src/stm32g4xx_hal_pwr_ex.c ****       }
 1560              	 .loc 1 776 9 is_stmt 1 view .LVU340
 1561 0174 0649     	 ldr r1,.L219
 1562 0176 8B6A     	 ldr r3,[r1,#40]
 1563 0178 43F02003 	 orr r3,r3,#32
 1564 017c 8B62     	 str r3,[r1,#40]
 1565              	.L169:
 779:Drivers/STM32G4xx_HAL_Driver/Src/stm32g4xx_hal_pwr_ex.c ****       {
 1566              	 .loc 1 779 7 view .LVU341
 779:Drivers/STM32G4xx_HAL_Driver/Src/stm32g4xx_hal_pwr_ex.c ****       {
 1567              	 .loc 1 779 9 is_stmt 0 view .LVU342
 1568 017e 9007     	 lsls r0,r2,#30
 1569 0180 04D5     	 bpl .L162
 781:Drivers/STM32G4xx_HAL_Driver/Src/stm32g4xx_hal_pwr_ex.c ****       }
 1570              	 .loc 1 781 9 is_stmt 1 view .LVU343
 1571 0182 034A     	 ldr r2,.L219
 1572 0184 D36A     	 ldr r3,[r2,#44]
 1573 0186 43F02003 	 orr r3,r3,#32
 1574 018a D362     	 str r3,[r2,#44]
 1575              	.L162:
 676:Drivers/STM32G4xx_HAL_Driver/Src/stm32g4xx_hal_pwr_ex.c **** 
 1576              	 .loc 1 676 21 is_stmt 0 view .LVU344
 1577 018c 0020     	 movs r0,#0
 1578              	.LVL71:
 821:Drivers/STM32G4xx_HAL_Driver/Src/stm32g4xx_hal_pwr_ex.c **** }
 1579              	 .loc 1 821 3 is_stmt 1 view .LVU345
 1580              	 .loc 1 822 1 is_stmt 0 view .LVU346
 1581 018e 7047     	 bx lr
 1582              	.L220:
 1583              	 .align 2
 1584              	.L219:
ARM GAS   			page 46


 1585 0190 00040140 	 .word 1073808384
 1586              	 .cfi_endproc
 1587              	.LFE383:
 1589              	 .section .text.HAL_PWREx_EnableLowPowerRunMode,"ax",%progbits
 1590              	 .align 1
 1591              	 .p2align 2,,3
 1592              	 .global HAL_PWREx_EnableLowPowerRunMode
 1593              	 .syntax unified
 1594              	 .thumb
 1595              	 .thumb_func
 1597              	HAL_PWREx_EnableLowPowerRunMode:
 1598              	.LFB384:
 823:Drivers/STM32G4xx_HAL_Driver/Src/stm32g4xx_hal_pwr_ex.c **** 
 824:Drivers/STM32G4xx_HAL_Driver/Src/stm32g4xx_hal_pwr_ex.c **** 
 825:Drivers/STM32G4xx_HAL_Driver/Src/stm32g4xx_hal_pwr_ex.c **** /**
 826:Drivers/STM32G4xx_HAL_Driver/Src/stm32g4xx_hal_pwr_ex.c ****   * @brief Enter Low-power Run mode
 827:Drivers/STM32G4xx_HAL_Driver/Src/stm32g4xx_hal_pwr_ex.c ****   * @note  In Low-power Run mode, all I/O pins keep the same state as in Run mode.
 828:Drivers/STM32G4xx_HAL_Driver/Src/stm32g4xx_hal_pwr_ex.c ****   * @note  When Regulator is set to PWR_LOWPOWERREGULATOR_ON, the user can optionally configure the
 829:Drivers/STM32G4xx_HAL_Driver/Src/stm32g4xx_hal_pwr_ex.c ****   *        Flash in power-down monde in setting the RUN_PD bit in FLASH_ACR register.
 830:Drivers/STM32G4xx_HAL_Driver/Src/stm32g4xx_hal_pwr_ex.c ****   *        Additionally, the clock frequency must be reduced below 2 MHz.
 831:Drivers/STM32G4xx_HAL_Driver/Src/stm32g4xx_hal_pwr_ex.c ****   *        Setting RUN_PD in FLASH_ACR then appropriately reducing the clock frequency must
 832:Drivers/STM32G4xx_HAL_Driver/Src/stm32g4xx_hal_pwr_ex.c ****   *        be done before calling HAL_PWREx_EnableLowPowerRunMode() API.
 833:Drivers/STM32G4xx_HAL_Driver/Src/stm32g4xx_hal_pwr_ex.c ****   * @retval None
 834:Drivers/STM32G4xx_HAL_Driver/Src/stm32g4xx_hal_pwr_ex.c ****   */
 835:Drivers/STM32G4xx_HAL_Driver/Src/stm32g4xx_hal_pwr_ex.c **** void HAL_PWREx_EnableLowPowerRunMode(void)
 836:Drivers/STM32G4xx_HAL_Driver/Src/stm32g4xx_hal_pwr_ex.c **** {
 1599              	 .loc 1 836 1 is_stmt 1 view-0
 1600              	 .cfi_startproc
 1601              	 
 1602              	 
 1603              	 
 837:Drivers/STM32G4xx_HAL_Driver/Src/stm32g4xx_hal_pwr_ex.c ****   /* Set Regulator parameter */
 838:Drivers/STM32G4xx_HAL_Driver/Src/stm32g4xx_hal_pwr_ex.c ****   SET_BIT(PWR->CR1, PWR_CR1_LPR);
 1604              	 .loc 1 838 3 view .LVU348
 1605 0000 024A     	 ldr r2,.L222
 1606 0002 1368     	 ldr r3,[r2]
 1607 0004 43F48043 	 orr r3,r3,#16384
 1608 0008 1360     	 str r3,[r2]
 839:Drivers/STM32G4xx_HAL_Driver/Src/stm32g4xx_hal_pwr_ex.c **** }
 1609              	 .loc 1 839 1 is_stmt 0 view .LVU349
 1610 000a 7047     	 bx lr
 1611              	.L223:
 1612              	 .align 2
 1613              	.L222:
 1614 000c 00700040 	 .word 1073770496
 1615              	 .cfi_endproc
 1616              	.LFE384:
 1618              	 .section .text.HAL_PWREx_DisableLowPowerRunMode,"ax",%progbits
 1619              	 .align 1
 1620              	 .p2align 2,,3
 1621              	 .global HAL_PWREx_DisableLowPowerRunMode
 1622              	 .syntax unified
 1623              	 .thumb
 1624              	 .thumb_func
 1626              	HAL_PWREx_DisableLowPowerRunMode:
 1627              	.LFB385:
 840:Drivers/STM32G4xx_HAL_Driver/Src/stm32g4xx_hal_pwr_ex.c **** 
ARM GAS   			page 47


 841:Drivers/STM32G4xx_HAL_Driver/Src/stm32g4xx_hal_pwr_ex.c **** 
 842:Drivers/STM32G4xx_HAL_Driver/Src/stm32g4xx_hal_pwr_ex.c **** /**
 843:Drivers/STM32G4xx_HAL_Driver/Src/stm32g4xx_hal_pwr_ex.c ****   * @brief Exit Low-power Run mode.
 844:Drivers/STM32G4xx_HAL_Driver/Src/stm32g4xx_hal_pwr_ex.c ****   * @note  Before HAL_PWREx_DisableLowPowerRunMode() completion, the function checks that
 845:Drivers/STM32G4xx_HAL_Driver/Src/stm32g4xx_hal_pwr_ex.c ****   *        REGLPF has been properly reset (otherwise, HAL_PWREx_DisableLowPowerRunMode
 846:Drivers/STM32G4xx_HAL_Driver/Src/stm32g4xx_hal_pwr_ex.c ****   *        returns HAL_TIMEOUT status). The system clock frequency can then be
 847:Drivers/STM32G4xx_HAL_Driver/Src/stm32g4xx_hal_pwr_ex.c ****   *        increased above 2 MHz.
 848:Drivers/STM32G4xx_HAL_Driver/Src/stm32g4xx_hal_pwr_ex.c ****   * @retval HAL Status
 849:Drivers/STM32G4xx_HAL_Driver/Src/stm32g4xx_hal_pwr_ex.c ****   */
 850:Drivers/STM32G4xx_HAL_Driver/Src/stm32g4xx_hal_pwr_ex.c **** HAL_StatusTypeDef HAL_PWREx_DisableLowPowerRunMode(void)
 851:Drivers/STM32G4xx_HAL_Driver/Src/stm32g4xx_hal_pwr_ex.c **** {
 1628              	 .loc 1 851 1 is_stmt 1 view-0
 1629              	 .cfi_startproc
 1630              	 
 1631              	 
 1632              	 
 852:Drivers/STM32G4xx_HAL_Driver/Src/stm32g4xx_hal_pwr_ex.c ****   uint32_t wait_loop_index;
 1633              	 .loc 1 852 3 view .LVU351
 853:Drivers/STM32G4xx_HAL_Driver/Src/stm32g4xx_hal_pwr_ex.c **** 
 854:Drivers/STM32G4xx_HAL_Driver/Src/stm32g4xx_hal_pwr_ex.c ****   /* Clear LPR bit */
 855:Drivers/STM32G4xx_HAL_Driver/Src/stm32g4xx_hal_pwr_ex.c ****   CLEAR_BIT(PWR->CR1, PWR_CR1_LPR);
 1634              	 .loc 1 855 3 view .LVU352
 1635 0000 0F49     	 ldr r1,.L240
 856:Drivers/STM32G4xx_HAL_Driver/Src/stm32g4xx_hal_pwr_ex.c **** 
 857:Drivers/STM32G4xx_HAL_Driver/Src/stm32g4xx_hal_pwr_ex.c ****   /* Wait until REGLPF is reset */
 858:Drivers/STM32G4xx_HAL_Driver/Src/stm32g4xx_hal_pwr_ex.c ****   wait_loop_index = (PWR_FLAG_SETTING_DELAY_US * (SystemCoreClock / 1000000U));
 1636              	 .loc 1 858 67 is_stmt 0 view .LVU353
 1637 0002 1048     	 ldr r0,.L240+4
 855:Drivers/STM32G4xx_HAL_Driver/Src/stm32g4xx_hal_pwr_ex.c **** 
 1638              	 .loc 1 855 3 view .LVU354
 1639 0004 0B68     	 ldr r3,[r1]
 1640              	 .loc 1 858 67 view .LVU355
 1641 0006 104A     	 ldr r2,.L240+8
 855:Drivers/STM32G4xx_HAL_Driver/Src/stm32g4xx_hal_pwr_ex.c **** 
 1642              	 .loc 1 855 3 view .LVU356
 1643 0008 23F48043 	 bic r3,r3,#16384
 1644 000c 0B60     	 str r3,[r1]
 1645              	 .loc 1 858 3 is_stmt 1 view .LVU357
 1646              	 .loc 1 858 67 is_stmt 0 view .LVU358
 1647 000e 0368     	 ldr r3,[r0]
 859:Drivers/STM32G4xx_HAL_Driver/Src/stm32g4xx_hal_pwr_ex.c ****   while ((HAL_IS_BIT_SET(PWR->SR2, PWR_SR2_REGLPF)) && (wait_loop_index != 0U))
 1648              	 .loc 1 859 11 view .LVU359
 1649 0010 4869     	 ldr r0,[r1,#20]
 858:Drivers/STM32G4xx_HAL_Driver/Src/stm32g4xx_hal_pwr_ex.c ****   while ((HAL_IS_BIT_SET(PWR->SR2, PWR_SR2_REGLPF)) && (wait_loop_index != 0U))
 1650              	 .loc 1 858 67 view .LVU360
 1651 0012 A2FB0323 	 umull r2,r3,r2,r3
 858:Drivers/STM32G4xx_HAL_Driver/Src/stm32g4xx_hal_pwr_ex.c ****   while ((HAL_IS_BIT_SET(PWR->SR2, PWR_SR2_REGLPF)) && (wait_loop_index != 0U))
 1652              	 .loc 1 858 19 view .LVU361
 1653 0016 4FF0320C 	 mov ip,#50
 858:Drivers/STM32G4xx_HAL_Driver/Src/stm32g4xx_hal_pwr_ex.c ****   while ((HAL_IS_BIT_SET(PWR->SR2, PWR_SR2_REGLPF)) && (wait_loop_index != 0U))
 1654              	 .loc 1 858 67 view .LVU362
 1655 001a 9B0C     	 lsrs r3,r3,#18
 1656              	 .loc 1 859 53 view .LVU363
 1657 001c 8205     	 lsls r2,r0,#22
 858:Drivers/STM32G4xx_HAL_Driver/Src/stm32g4xx_hal_pwr_ex.c ****   while ((HAL_IS_BIT_SET(PWR->SR2, PWR_SR2_REGLPF)) && (wait_loop_index != 0U))
 1658              	 .loc 1 858 19 view .LVU364
 1659 001e 0CFB03F3 	 mul r3,ip,r3
ARM GAS   			page 48


 1660              	.LVL72:
 1661              	 .loc 1 859 3 is_stmt 1 view .LVU365
 1662              	 .loc 1 859 53 view .LVU366
 1663 0022 05D5     	 bpl .L225
 1664              	.L239:
 1665              	 .loc 1 859 53 is_stmt 0 discriminator 1 view .LVU367
 1666 0024 23B1     	 cbz r3,.L225
 860:Drivers/STM32G4xx_HAL_Driver/Src/stm32g4xx_hal_pwr_ex.c ****   {
 861:Drivers/STM32G4xx_HAL_Driver/Src/stm32g4xx_hal_pwr_ex.c ****     wait_loop_index--;
 1667              	 .loc 1 861 5 is_stmt 1 view .LVU368
 859:Drivers/STM32G4xx_HAL_Driver/Src/stm32g4xx_hal_pwr_ex.c ****   {
 1668              	 .loc 1 859 11 is_stmt 0 view .LVU369
 1669 0026 4A69     	 ldr r2,[r1,#20]
 859:Drivers/STM32G4xx_HAL_Driver/Src/stm32g4xx_hal_pwr_ex.c ****   {
 1670              	 .loc 1 859 53 view .LVU370
 1671 0028 9205     	 lsls r2,r2,#22
 1672              	 .loc 1 861 20 view .LVU371
 1673 002a 03F1FF33 	 add r3,r3,#-1
 1674              	.LVL73:
 859:Drivers/STM32G4xx_HAL_Driver/Src/stm32g4xx_hal_pwr_ex.c ****   {
 1675              	 .loc 1 859 53 is_stmt 1 view .LVU372
 1676 002e F9D4     	 bmi .L239
 1677              	.L225:
 862:Drivers/STM32G4xx_HAL_Driver/Src/stm32g4xx_hal_pwr_ex.c ****   }
 863:Drivers/STM32G4xx_HAL_Driver/Src/stm32g4xx_hal_pwr_ex.c ****   if (HAL_IS_BIT_SET(PWR->SR2, PWR_SR2_REGLPF))
 1678              	 .loc 1 863 3 view .LVU373
 1679              	 .loc 1 863 7 is_stmt 0 view .LVU374
 1680 0030 034B     	 ldr r3,.L240
 1681              	.LVL74:
 1682              	 .loc 1 863 7 view .LVU375
 1683 0032 5B69     	 ldr r3,[r3,#20]
 864:Drivers/STM32G4xx_HAL_Driver/Src/stm32g4xx_hal_pwr_ex.c ****   {
 865:Drivers/STM32G4xx_HAL_Driver/Src/stm32g4xx_hal_pwr_ex.c ****     return HAL_TIMEOUT;
 866:Drivers/STM32G4xx_HAL_Driver/Src/stm32g4xx_hal_pwr_ex.c ****   }
 867:Drivers/STM32G4xx_HAL_Driver/Src/stm32g4xx_hal_pwr_ex.c **** 
 868:Drivers/STM32G4xx_HAL_Driver/Src/stm32g4xx_hal_pwr_ex.c ****   return HAL_OK;
 1684              	 .loc 1 868 10 view .LVU376
 1685 0034 13F4007F 	 tst r3,#512
 869:Drivers/STM32G4xx_HAL_Driver/Src/stm32g4xx_hal_pwr_ex.c **** }
 1686              	 .loc 1 869 1 view .LVU377
 1687 0038 14BF     	 ite ne
 1688 003a 0320     	 movne r0,#3
 1689 003c 0020     	 moveq r0,#0
 1690 003e 7047     	 bx lr
 1691              	.L241:
 1692              	 .align 2
 1693              	.L240:
 1694 0040 00700040 	 .word 1073770496
 1695 0044 00000000 	 .word SystemCoreClock
 1696 0048 83DE1B43 	 .word 1125899907
 1697              	 .cfi_endproc
 1698              	.LFE385:
 1700              	 .section .text.HAL_PWREx_EnterSTOP0Mode,"ax",%progbits
 1701              	 .align 1
 1702              	 .p2align 2,,3
 1703              	 .global HAL_PWREx_EnterSTOP0Mode
 1704              	 .syntax unified
ARM GAS   			page 49


 1705              	 .thumb
 1706              	 .thumb_func
 1708              	HAL_PWREx_EnterSTOP0Mode:
 1709              	.LVL75:
 1710              	.LFB386:
 870:Drivers/STM32G4xx_HAL_Driver/Src/stm32g4xx_hal_pwr_ex.c **** 
 871:Drivers/STM32G4xx_HAL_Driver/Src/stm32g4xx_hal_pwr_ex.c **** 
 872:Drivers/STM32G4xx_HAL_Driver/Src/stm32g4xx_hal_pwr_ex.c **** /**
 873:Drivers/STM32G4xx_HAL_Driver/Src/stm32g4xx_hal_pwr_ex.c ****   * @brief Enter Stop 0 mode.
 874:Drivers/STM32G4xx_HAL_Driver/Src/stm32g4xx_hal_pwr_ex.c ****   * @note  In Stop 0 mode, main and low voltage regulators are ON.
 875:Drivers/STM32G4xx_HAL_Driver/Src/stm32g4xx_hal_pwr_ex.c ****   * @note  In Stop 0 mode, all I/O pins keep the same state as in Run mode.
 876:Drivers/STM32G4xx_HAL_Driver/Src/stm32g4xx_hal_pwr_ex.c ****   * @note  All clocks in the VCORE domain are stopped; the PLL, the HSI
 877:Drivers/STM32G4xx_HAL_Driver/Src/stm32g4xx_hal_pwr_ex.c ****   *        and the HSE oscillators are disabled. Some peripherals with the wakeup capability
 878:Drivers/STM32G4xx_HAL_Driver/Src/stm32g4xx_hal_pwr_ex.c ****   *        (I2Cx, USARTx and LPUART) can switch on the HSI to receive a frame, and switch off the H
 879:Drivers/STM32G4xx_HAL_Driver/Src/stm32g4xx_hal_pwr_ex.c ****   *        after receiving the frame if it is not a wakeup frame. In this case, the HSI clock is pr
 880:Drivers/STM32G4xx_HAL_Driver/Src/stm32g4xx_hal_pwr_ex.c ****   *        only to the peripheral requesting it.
 881:Drivers/STM32G4xx_HAL_Driver/Src/stm32g4xx_hal_pwr_ex.c ****   *        SRAM1, SRAM2 and register contents are preserved.
 882:Drivers/STM32G4xx_HAL_Driver/Src/stm32g4xx_hal_pwr_ex.c ****   *        The BOR is available.
 883:Drivers/STM32G4xx_HAL_Driver/Src/stm32g4xx_hal_pwr_ex.c ****   * @note  When exiting Stop 0 mode by issuing an interrupt or a wakeup event,
 884:Drivers/STM32G4xx_HAL_Driver/Src/stm32g4xx_hal_pwr_ex.c ****   *         the HSI RC oscillator is selected as system clock if STOPWUCK bit in RCC_CFGR register
 885:Drivers/STM32G4xx_HAL_Driver/Src/stm32g4xx_hal_pwr_ex.c ****   *         is set; the HSI oscillator is selected if STOPWUCK is cleared.
 886:Drivers/STM32G4xx_HAL_Driver/Src/stm32g4xx_hal_pwr_ex.c ****   * @note  By keeping the internal regulator ON during Stop 0 mode, the consumption
 887:Drivers/STM32G4xx_HAL_Driver/Src/stm32g4xx_hal_pwr_ex.c ****   *         is higher although the startup time is reduced.
 888:Drivers/STM32G4xx_HAL_Driver/Src/stm32g4xx_hal_pwr_ex.c ****   * @param STOPEntry  specifies if Stop mode in entered with WFI or WFE instruction.
 889:Drivers/STM32G4xx_HAL_Driver/Src/stm32g4xx_hal_pwr_ex.c ****   *          This parameter can be one of the following values:
 890:Drivers/STM32G4xx_HAL_Driver/Src/stm32g4xx_hal_pwr_ex.c ****   *            @arg @ref PWR_STOPENTRY_WFI  Enter Stop mode with WFI instruction
 891:Drivers/STM32G4xx_HAL_Driver/Src/stm32g4xx_hal_pwr_ex.c ****   *            @arg @ref PWR_STOPENTRY_WFE  Enter Stop mode with WFE instruction
 892:Drivers/STM32G4xx_HAL_Driver/Src/stm32g4xx_hal_pwr_ex.c ****   * @retval None
 893:Drivers/STM32G4xx_HAL_Driver/Src/stm32g4xx_hal_pwr_ex.c ****   */
 894:Drivers/STM32G4xx_HAL_Driver/Src/stm32g4xx_hal_pwr_ex.c **** void HAL_PWREx_EnterSTOP0Mode(uint8_t STOPEntry)
 895:Drivers/STM32G4xx_HAL_Driver/Src/stm32g4xx_hal_pwr_ex.c **** {
 1711              	 .loc 1 895 1 is_stmt 1 view-0
 1712              	 .cfi_startproc
 1713              	 
 1714              	 
 1715              	 
 896:Drivers/STM32G4xx_HAL_Driver/Src/stm32g4xx_hal_pwr_ex.c ****   /* Check the parameters */
 897:Drivers/STM32G4xx_HAL_Driver/Src/stm32g4xx_hal_pwr_ex.c ****   assert_param(IS_PWR_STOP_ENTRY(STOPEntry));
 1716              	 .loc 1 897 3 view .LVU379
 898:Drivers/STM32G4xx_HAL_Driver/Src/stm32g4xx_hal_pwr_ex.c **** 
 899:Drivers/STM32G4xx_HAL_Driver/Src/stm32g4xx_hal_pwr_ex.c ****   /* Stop 0 mode with Main Regulator */
 900:Drivers/STM32G4xx_HAL_Driver/Src/stm32g4xx_hal_pwr_ex.c ****   MODIFY_REG(PWR->CR1, PWR_CR1_LPMS, PWR_CR1_LPMS_STOP0);
 1717              	 .loc 1 900 3 view .LVU380
 1718 0000 0B49     	 ldr r1,.L246
 901:Drivers/STM32G4xx_HAL_Driver/Src/stm32g4xx_hal_pwr_ex.c **** 
 902:Drivers/STM32G4xx_HAL_Driver/Src/stm32g4xx_hal_pwr_ex.c ****   /* Set SLEEPDEEP bit of Cortex System Control Register */
 903:Drivers/STM32G4xx_HAL_Driver/Src/stm32g4xx_hal_pwr_ex.c ****   SET_BIT(SCB->SCR, ((uint32_t)SCB_SCR_SLEEPDEEP_Msk));
 1719              	 .loc 1 903 3 is_stmt 0 view .LVU381
 1720 0002 0C4A     	 ldr r2,.L246+4
 900:Drivers/STM32G4xx_HAL_Driver/Src/stm32g4xx_hal_pwr_ex.c **** 
 1721              	 .loc 1 900 3 view .LVU382
 1722 0004 0B68     	 ldr r3,[r1]
 1723 0006 23F00703 	 bic r3,r3,#7
 1724 000a 0B60     	 str r3,[r1]
 1725              	 .loc 1 903 3 is_stmt 1 view .LVU383
 1726 000c 1369     	 ldr r3,[r2,#16]
 904:Drivers/STM32G4xx_HAL_Driver/Src/stm32g4xx_hal_pwr_ex.c **** 
ARM GAS   			page 50


 905:Drivers/STM32G4xx_HAL_Driver/Src/stm32g4xx_hal_pwr_ex.c ****   /* Select Stop mode entry --------------------------------------------------*/
 906:Drivers/STM32G4xx_HAL_Driver/Src/stm32g4xx_hal_pwr_ex.c ****   if(STOPEntry == PWR_STOPENTRY_WFI)
 1727              	 .loc 1 906 5 is_stmt 0 view .LVU384
 1728 000e 0128     	 cmp r0,#1
 903:Drivers/STM32G4xx_HAL_Driver/Src/stm32g4xx_hal_pwr_ex.c **** 
 1729              	 .loc 1 903 3 view .LVU385
 1730 0010 43F00403 	 orr r3,r3,#4
 1731 0014 1361     	 str r3,[r2,#16]
 1732              	 .loc 1 906 3 is_stmt 1 view .LVU386
 1733              	 .loc 1 906 5 is_stmt 0 view .LVU387
 1734 0016 08D0     	 beq .L245
 907:Drivers/STM32G4xx_HAL_Driver/Src/stm32g4xx_hal_pwr_ex.c ****   {
 908:Drivers/STM32G4xx_HAL_Driver/Src/stm32g4xx_hal_pwr_ex.c ****     /* Request Wait For Interrupt */
 909:Drivers/STM32G4xx_HAL_Driver/Src/stm32g4xx_hal_pwr_ex.c ****     __WFI();
 910:Drivers/STM32G4xx_HAL_Driver/Src/stm32g4xx_hal_pwr_ex.c ****   }
 911:Drivers/STM32G4xx_HAL_Driver/Src/stm32g4xx_hal_pwr_ex.c ****   else
 912:Drivers/STM32G4xx_HAL_Driver/Src/stm32g4xx_hal_pwr_ex.c ****   {
 913:Drivers/STM32G4xx_HAL_Driver/Src/stm32g4xx_hal_pwr_ex.c ****     /* Request Wait For Event */
 914:Drivers/STM32G4xx_HAL_Driver/Src/stm32g4xx_hal_pwr_ex.c ****     __SEV();
 1735              	 .loc 1 914 5 is_stmt 1 view .LVU388
 1736              	 .syntax unified
 1737              	
 1738 0018 40BF     	 sev
 1739              	
 915:Drivers/STM32G4xx_HAL_Driver/Src/stm32g4xx_hal_pwr_ex.c ****     __WFE();
 1740              	 .loc 1 915 5 view .LVU389
 1741              	
 1742 001a 20BF     	 wfe
 1743              	
 916:Drivers/STM32G4xx_HAL_Driver/Src/stm32g4xx_hal_pwr_ex.c ****     __WFE();
 1744              	 .loc 1 916 5 view .LVU390
 1745              	
 1746 001c 20BF     	 wfe
 1747              	
 1748              	 .thumb
 1749              	 .syntax unified
 1750              	.L244:
 917:Drivers/STM32G4xx_HAL_Driver/Src/stm32g4xx_hal_pwr_ex.c ****   }
 918:Drivers/STM32G4xx_HAL_Driver/Src/stm32g4xx_hal_pwr_ex.c **** 
 919:Drivers/STM32G4xx_HAL_Driver/Src/stm32g4xx_hal_pwr_ex.c ****   /* Reset SLEEPDEEP bit of Cortex System Control Register */
 920:Drivers/STM32G4xx_HAL_Driver/Src/stm32g4xx_hal_pwr_ex.c ****   CLEAR_BIT(SCB->SCR, ((uint32_t)SCB_SCR_SLEEPDEEP_Msk));
 1751              	 .loc 1 920 3 view .LVU391
 1752 001e 054A     	 ldr r2,.L246+4
 1753 0020 1369     	 ldr r3,[r2,#16]
 1754 0022 23F00403 	 bic r3,r3,#4
 1755 0026 1361     	 str r3,[r2,#16]
 921:Drivers/STM32G4xx_HAL_Driver/Src/stm32g4xx_hal_pwr_ex.c **** }
 1756              	 .loc 1 921 1 is_stmt 0 view .LVU392
 1757 0028 7047     	 bx lr
 1758              	.L245:
 909:Drivers/STM32G4xx_HAL_Driver/Src/stm32g4xx_hal_pwr_ex.c ****   }
 1759              	 .loc 1 909 5 is_stmt 1 view .LVU393
 1760              	 .syntax unified
 1761              	
 1762 002a 30BF     	 wfi
 1763              	
 1764              	 .thumb
ARM GAS   			page 51


 1765              	 .syntax unified
 1766 002c F7E7     	 b .L244
 1767              	.L247:
 1768 002e 00BF     	 .align 2
 1769              	.L246:
 1770 0030 00700040 	 .word 1073770496
 1771 0034 00ED00E0 	 .word -536810240
 1772              	 .cfi_endproc
 1773              	.LFE386:
 1775              	 .section .text.HAL_PWREx_EnterSTOP1Mode,"ax",%progbits
 1776              	 .align 1
 1777              	 .p2align 2,,3
 1778              	 .global HAL_PWREx_EnterSTOP1Mode
 1779              	 .syntax unified
 1780              	 .thumb
 1781              	 .thumb_func
 1783              	HAL_PWREx_EnterSTOP1Mode:
 1784              	.LVL76:
 1785              	.LFB387:
 922:Drivers/STM32G4xx_HAL_Driver/Src/stm32g4xx_hal_pwr_ex.c **** 
 923:Drivers/STM32G4xx_HAL_Driver/Src/stm32g4xx_hal_pwr_ex.c **** 
 924:Drivers/STM32G4xx_HAL_Driver/Src/stm32g4xx_hal_pwr_ex.c **** /**
 925:Drivers/STM32G4xx_HAL_Driver/Src/stm32g4xx_hal_pwr_ex.c ****   * @brief Enter Stop 1 mode.
 926:Drivers/STM32G4xx_HAL_Driver/Src/stm32g4xx_hal_pwr_ex.c ****   * @note  In Stop 1 mode, only low power voltage regulator is ON.
 927:Drivers/STM32G4xx_HAL_Driver/Src/stm32g4xx_hal_pwr_ex.c ****   * @note  In Stop 1 mode, all I/O pins keep the same state as in Run mode.
 928:Drivers/STM32G4xx_HAL_Driver/Src/stm32g4xx_hal_pwr_ex.c ****   * @note  All clocks in the VCORE domain are stopped; the PLL, the HSI
 929:Drivers/STM32G4xx_HAL_Driver/Src/stm32g4xx_hal_pwr_ex.c ****   *        and the HSE oscillators are disabled. Some peripherals with the wakeup capability
 930:Drivers/STM32G4xx_HAL_Driver/Src/stm32g4xx_hal_pwr_ex.c ****   *        (I2Cx, USARTx and LPUART) can switch on the HSI to receive a frame, and switch off the H
 931:Drivers/STM32G4xx_HAL_Driver/Src/stm32g4xx_hal_pwr_ex.c ****   *        after receiving the frame if it is not a wakeup frame. In this case, the HSI clock is pr
 932:Drivers/STM32G4xx_HAL_Driver/Src/stm32g4xx_hal_pwr_ex.c ****   *        only to the peripheral requesting it.
 933:Drivers/STM32G4xx_HAL_Driver/Src/stm32g4xx_hal_pwr_ex.c ****   *        SRAM1, SRAM2 and register contents are preserved.
 934:Drivers/STM32G4xx_HAL_Driver/Src/stm32g4xx_hal_pwr_ex.c ****   *        The BOR is available.
 935:Drivers/STM32G4xx_HAL_Driver/Src/stm32g4xx_hal_pwr_ex.c ****   * @note  When exiting Stop 1 mode by issuing an interrupt or a wakeup event,
 936:Drivers/STM32G4xx_HAL_Driver/Src/stm32g4xx_hal_pwr_ex.c ****   *         the HSI RC oscillator is selected as system clock if STOPWUCK bit in RCC_CFGR register
 937:Drivers/STM32G4xx_HAL_Driver/Src/stm32g4xx_hal_pwr_ex.c ****   *         is set.
 938:Drivers/STM32G4xx_HAL_Driver/Src/stm32g4xx_hal_pwr_ex.c ****   * @note  Due to low power mode, an additional startup delay is incurred when waking up from Stop 
 939:Drivers/STM32G4xx_HAL_Driver/Src/stm32g4xx_hal_pwr_ex.c ****   * @param STOPEntry  specifies if Stop mode in entered with WFI or WFE instruction.
 940:Drivers/STM32G4xx_HAL_Driver/Src/stm32g4xx_hal_pwr_ex.c ****   *          This parameter can be one of the following values:
 941:Drivers/STM32G4xx_HAL_Driver/Src/stm32g4xx_hal_pwr_ex.c ****   *            @arg @ref PWR_STOPENTRY_WFI  Enter Stop mode with WFI instruction
 942:Drivers/STM32G4xx_HAL_Driver/Src/stm32g4xx_hal_pwr_ex.c ****   *            @arg @ref PWR_STOPENTRY_WFE  Enter Stop mode with WFE instruction
 943:Drivers/STM32G4xx_HAL_Driver/Src/stm32g4xx_hal_pwr_ex.c ****   * @retval None
 944:Drivers/STM32G4xx_HAL_Driver/Src/stm32g4xx_hal_pwr_ex.c ****   */
 945:Drivers/STM32G4xx_HAL_Driver/Src/stm32g4xx_hal_pwr_ex.c **** void HAL_PWREx_EnterSTOP1Mode(uint8_t STOPEntry)
 946:Drivers/STM32G4xx_HAL_Driver/Src/stm32g4xx_hal_pwr_ex.c **** {
 1786              	 .loc 1 946 1 view-0
 1787              	 .cfi_startproc
 1788              	 
 1789              	 
 1790              	 
 947:Drivers/STM32G4xx_HAL_Driver/Src/stm32g4xx_hal_pwr_ex.c ****   /* Check the parameters */
 948:Drivers/STM32G4xx_HAL_Driver/Src/stm32g4xx_hal_pwr_ex.c ****   assert_param(IS_PWR_STOP_ENTRY(STOPEntry));
 1791              	 .loc 1 948 3 view .LVU395
 949:Drivers/STM32G4xx_HAL_Driver/Src/stm32g4xx_hal_pwr_ex.c **** 
 950:Drivers/STM32G4xx_HAL_Driver/Src/stm32g4xx_hal_pwr_ex.c ****   /* Stop 1 mode with Low-Power Regulator */
 951:Drivers/STM32G4xx_HAL_Driver/Src/stm32g4xx_hal_pwr_ex.c ****   MODIFY_REG(PWR->CR1, PWR_CR1_LPMS, PWR_CR1_LPMS_STOP1);
 1792              	 .loc 1 951 3 view .LVU396
 1793 0000 0C49     	 ldr r1,.L252
ARM GAS   			page 52


 952:Drivers/STM32G4xx_HAL_Driver/Src/stm32g4xx_hal_pwr_ex.c **** 
 953:Drivers/STM32G4xx_HAL_Driver/Src/stm32g4xx_hal_pwr_ex.c ****   /* Set SLEEPDEEP bit of Cortex System Control Register */
 954:Drivers/STM32G4xx_HAL_Driver/Src/stm32g4xx_hal_pwr_ex.c ****   SET_BIT(SCB->SCR, ((uint32_t)SCB_SCR_SLEEPDEEP_Msk));
 1794              	 .loc 1 954 3 is_stmt 0 view .LVU397
 1795 0002 0D4A     	 ldr r2,.L252+4
 951:Drivers/STM32G4xx_HAL_Driver/Src/stm32g4xx_hal_pwr_ex.c **** 
 1796              	 .loc 1 951 3 view .LVU398
 1797 0004 0B68     	 ldr r3,[r1]
 1798 0006 23F00703 	 bic r3,r3,#7
 1799 000a 43F00103 	 orr r3,r3,#1
 1800 000e 0B60     	 str r3,[r1]
 1801              	 .loc 1 954 3 is_stmt 1 view .LVU399
 1802 0010 1369     	 ldr r3,[r2,#16]
 955:Drivers/STM32G4xx_HAL_Driver/Src/stm32g4xx_hal_pwr_ex.c **** 
 956:Drivers/STM32G4xx_HAL_Driver/Src/stm32g4xx_hal_pwr_ex.c ****   /* Select Stop mode entry --------------------------------------------------*/
 957:Drivers/STM32G4xx_HAL_Driver/Src/stm32g4xx_hal_pwr_ex.c ****   if(STOPEntry == PWR_STOPENTRY_WFI)
 1803              	 .loc 1 957 5 is_stmt 0 view .LVU400
 1804 0012 0128     	 cmp r0,#1
 954:Drivers/STM32G4xx_HAL_Driver/Src/stm32g4xx_hal_pwr_ex.c **** 
 1805              	 .loc 1 954 3 view .LVU401
 1806 0014 43F00403 	 orr r3,r3,#4
 1807 0018 1361     	 str r3,[r2,#16]
 1808              	 .loc 1 957 3 is_stmt 1 view .LVU402
 1809              	 .loc 1 957 5 is_stmt 0 view .LVU403
 1810 001a 08D0     	 beq .L251
 958:Drivers/STM32G4xx_HAL_Driver/Src/stm32g4xx_hal_pwr_ex.c ****   {
 959:Drivers/STM32G4xx_HAL_Driver/Src/stm32g4xx_hal_pwr_ex.c ****     /* Request Wait For Interrupt */
 960:Drivers/STM32G4xx_HAL_Driver/Src/stm32g4xx_hal_pwr_ex.c ****     __WFI();
 961:Drivers/STM32G4xx_HAL_Driver/Src/stm32g4xx_hal_pwr_ex.c ****   }
 962:Drivers/STM32G4xx_HAL_Driver/Src/stm32g4xx_hal_pwr_ex.c ****   else
 963:Drivers/STM32G4xx_HAL_Driver/Src/stm32g4xx_hal_pwr_ex.c ****   {
 964:Drivers/STM32G4xx_HAL_Driver/Src/stm32g4xx_hal_pwr_ex.c ****     /* Request Wait For Event */
 965:Drivers/STM32G4xx_HAL_Driver/Src/stm32g4xx_hal_pwr_ex.c ****     __SEV();
 1811              	 .loc 1 965 5 is_stmt 1 view .LVU404
 1812              	 .syntax unified
 1813              	
 1814 001c 40BF     	 sev
 1815              	
 966:Drivers/STM32G4xx_HAL_Driver/Src/stm32g4xx_hal_pwr_ex.c ****     __WFE();
 1816              	 .loc 1 966 5 view .LVU405
 1817              	
 1818 001e 20BF     	 wfe
 1819              	
 967:Drivers/STM32G4xx_HAL_Driver/Src/stm32g4xx_hal_pwr_ex.c ****     __WFE();
 1820              	 .loc 1 967 5 view .LVU406
 1821              	
 1822 0020 20BF     	 wfe
 1823              	
 1824              	 .thumb
 1825              	 .syntax unified
 1826              	.L250:
 968:Drivers/STM32G4xx_HAL_Driver/Src/stm32g4xx_hal_pwr_ex.c ****   }
 969:Drivers/STM32G4xx_HAL_Driver/Src/stm32g4xx_hal_pwr_ex.c **** 
 970:Drivers/STM32G4xx_HAL_Driver/Src/stm32g4xx_hal_pwr_ex.c ****   /* Reset SLEEPDEEP bit of Cortex System Control Register */
 971:Drivers/STM32G4xx_HAL_Driver/Src/stm32g4xx_hal_pwr_ex.c ****   CLEAR_BIT(SCB->SCR, ((uint32_t)SCB_SCR_SLEEPDEEP_Msk));
 1827              	 .loc 1 971 3 view .LVU407
 1828 0022 054A     	 ldr r2,.L252+4
ARM GAS   			page 53


 1829 0024 1369     	 ldr r3,[r2,#16]
 1830 0026 23F00403 	 bic r3,r3,#4
 1831 002a 1361     	 str r3,[r2,#16]
 972:Drivers/STM32G4xx_HAL_Driver/Src/stm32g4xx_hal_pwr_ex.c **** }
 1832              	 .loc 1 972 1 is_stmt 0 view .LVU408
 1833 002c 7047     	 bx lr
 1834              	.L251:
 960:Drivers/STM32G4xx_HAL_Driver/Src/stm32g4xx_hal_pwr_ex.c ****   }
 1835              	 .loc 1 960 5 is_stmt 1 view .LVU409
 1836              	 .syntax unified
 1837              	
 1838 002e 30BF     	 wfi
 1839              	
 1840              	 .thumb
 1841              	 .syntax unified
 1842 0030 F7E7     	 b .L250
 1843              	.L253:
 1844 0032 00BF     	 .align 2
 1845              	.L252:
 1846 0034 00700040 	 .word 1073770496
 1847 0038 00ED00E0 	 .word -536810240
 1848              	 .cfi_endproc
 1849              	.LFE387:
 1851              	 .section .text.HAL_PWREx_EnterSHUTDOWNMode,"ax",%progbits
 1852              	 .align 1
 1853              	 .p2align 2,,3
 1854              	 .global HAL_PWREx_EnterSHUTDOWNMode
 1855              	 .syntax unified
 1856              	 .thumb
 1857              	 .thumb_func
 1859              	HAL_PWREx_EnterSHUTDOWNMode:
 1860              	.LFB388:
 973:Drivers/STM32G4xx_HAL_Driver/Src/stm32g4xx_hal_pwr_ex.c **** 
 974:Drivers/STM32G4xx_HAL_Driver/Src/stm32g4xx_hal_pwr_ex.c **** 
 975:Drivers/STM32G4xx_HAL_Driver/Src/stm32g4xx_hal_pwr_ex.c **** 
 976:Drivers/STM32G4xx_HAL_Driver/Src/stm32g4xx_hal_pwr_ex.c **** 
 977:Drivers/STM32G4xx_HAL_Driver/Src/stm32g4xx_hal_pwr_ex.c **** /**
 978:Drivers/STM32G4xx_HAL_Driver/Src/stm32g4xx_hal_pwr_ex.c ****   * @brief Enter Shutdown mode.
 979:Drivers/STM32G4xx_HAL_Driver/Src/stm32g4xx_hal_pwr_ex.c ****   * @note  In Shutdown mode, the PLL, the HSI, the LSI and the HSE oscillators are switched
 980:Drivers/STM32G4xx_HAL_Driver/Src/stm32g4xx_hal_pwr_ex.c ****   *        off. The voltage regulator is disabled and Vcore domain is powered off.
 981:Drivers/STM32G4xx_HAL_Driver/Src/stm32g4xx_hal_pwr_ex.c ****   *        SRAM1, SRAM2 and registers contents are lost except for registers in the Backup domain.
 982:Drivers/STM32G4xx_HAL_Driver/Src/stm32g4xx_hal_pwr_ex.c ****   *        The BOR is not available.
 983:Drivers/STM32G4xx_HAL_Driver/Src/stm32g4xx_hal_pwr_ex.c ****   * @note  The I/Os can be configured either with a pull-up or pull-down or can be kept in analog s
 984:Drivers/STM32G4xx_HAL_Driver/Src/stm32g4xx_hal_pwr_ex.c ****   * @retval None
 985:Drivers/STM32G4xx_HAL_Driver/Src/stm32g4xx_hal_pwr_ex.c ****   */
 986:Drivers/STM32G4xx_HAL_Driver/Src/stm32g4xx_hal_pwr_ex.c **** void HAL_PWREx_EnterSHUTDOWNMode(void)
 987:Drivers/STM32G4xx_HAL_Driver/Src/stm32g4xx_hal_pwr_ex.c **** {
 1861              	 .loc 1 987 1 view-0
 1862              	 .cfi_startproc
 1863              	 
 1864              	 
 1865              	 
 988:Drivers/STM32G4xx_HAL_Driver/Src/stm32g4xx_hal_pwr_ex.c **** 
 989:Drivers/STM32G4xx_HAL_Driver/Src/stm32g4xx_hal_pwr_ex.c ****   /* Set Shutdown mode */
 990:Drivers/STM32G4xx_HAL_Driver/Src/stm32g4xx_hal_pwr_ex.c ****   MODIFY_REG(PWR->CR1, PWR_CR1_LPMS, PWR_CR1_LPMS_SHUTDOWN);
 1866              	 .loc 1 990 3 view .LVU411
 1867 0000 0649     	 ldr r1,.L255
ARM GAS   			page 54


 991:Drivers/STM32G4xx_HAL_Driver/Src/stm32g4xx_hal_pwr_ex.c **** 
 992:Drivers/STM32G4xx_HAL_Driver/Src/stm32g4xx_hal_pwr_ex.c ****   /* Set SLEEPDEEP bit of Cortex System Control Register */
 993:Drivers/STM32G4xx_HAL_Driver/Src/stm32g4xx_hal_pwr_ex.c ****   SET_BIT(SCB->SCR, ((uint32_t)SCB_SCR_SLEEPDEEP_Msk));
 1868              	 .loc 1 993 3 is_stmt 0 view .LVU412
 1869 0002 074A     	 ldr r2,.L255+4
 990:Drivers/STM32G4xx_HAL_Driver/Src/stm32g4xx_hal_pwr_ex.c **** 
 1870              	 .loc 1 990 3 view .LVU413
 1871 0004 0B68     	 ldr r3,[r1]
 1872 0006 23F00703 	 bic r3,r3,#7
 1873 000a 43F00403 	 orr r3,r3,#4
 1874 000e 0B60     	 str r3,[r1]
 1875              	 .loc 1 993 3 is_stmt 1 view .LVU414
 1876 0010 1369     	 ldr r3,[r2,#16]
 1877 0012 43F00403 	 orr r3,r3,#4
 1878 0016 1361     	 str r3,[r2,#16]
 994:Drivers/STM32G4xx_HAL_Driver/Src/stm32g4xx_hal_pwr_ex.c **** 
 995:Drivers/STM32G4xx_HAL_Driver/Src/stm32g4xx_hal_pwr_ex.c **** /* This option is used to ensure that store operations are completed */
 996:Drivers/STM32G4xx_HAL_Driver/Src/stm32g4xx_hal_pwr_ex.c **** #if defined ( __CC_ARM)
 997:Drivers/STM32G4xx_HAL_Driver/Src/stm32g4xx_hal_pwr_ex.c ****   __force_stores();
 998:Drivers/STM32G4xx_HAL_Driver/Src/stm32g4xx_hal_pwr_ex.c **** #endif
 999:Drivers/STM32G4xx_HAL_Driver/Src/stm32g4xx_hal_pwr_ex.c ****   /* Request Wait For Interrupt */
1000:Drivers/STM32G4xx_HAL_Driver/Src/stm32g4xx_hal_pwr_ex.c ****   __WFI();
 1879              	 .loc 1 1000 3 view .LVU415
 1880              	 .syntax unified
 1881              	
 1882 0018 30BF     	 wfi
 1883              	
1001:Drivers/STM32G4xx_HAL_Driver/Src/stm32g4xx_hal_pwr_ex.c **** }
 1884              	 .loc 1 1001 1 is_stmt 0 view .LVU416
 1885              	 .thumb
 1886              	 .syntax unified
 1887 001a 7047     	 bx lr
 1888              	.L256:
 1889              	 .align 2
 1890              	.L255:
 1891 001c 00700040 	 .word 1073770496
 1892 0020 00ED00E0 	 .word -536810240
 1893              	 .cfi_endproc
 1894              	.LFE388:
 1896              	 .section .text.HAL_PWREx_PVM1Callback,"ax",%progbits
 1897              	 .align 1
 1898              	 .p2align 2,,3
 1899              	 .weak HAL_PWREx_PVM1Callback
 1900              	 .syntax unified
 1901              	 .thumb
 1902              	 .thumb_func
 1904              	HAL_PWREx_PVM1Callback:
 1905              	.LFB390:
1002:Drivers/STM32G4xx_HAL_Driver/Src/stm32g4xx_hal_pwr_ex.c **** 
1003:Drivers/STM32G4xx_HAL_Driver/Src/stm32g4xx_hal_pwr_ex.c **** 
1004:Drivers/STM32G4xx_HAL_Driver/Src/stm32g4xx_hal_pwr_ex.c **** 
1005:Drivers/STM32G4xx_HAL_Driver/Src/stm32g4xx_hal_pwr_ex.c **** 
1006:Drivers/STM32G4xx_HAL_Driver/Src/stm32g4xx_hal_pwr_ex.c **** /**
1007:Drivers/STM32G4xx_HAL_Driver/Src/stm32g4xx_hal_pwr_ex.c ****   * @brief This function handles the PWR PVD/PVMx interrupt request.
1008:Drivers/STM32G4xx_HAL_Driver/Src/stm32g4xx_hal_pwr_ex.c ****   * @note This API should be called under the PVD_PVM_IRQHandler().
1009:Drivers/STM32G4xx_HAL_Driver/Src/stm32g4xx_hal_pwr_ex.c ****   * @retval None
1010:Drivers/STM32G4xx_HAL_Driver/Src/stm32g4xx_hal_pwr_ex.c ****   */
ARM GAS   			page 55


1011:Drivers/STM32G4xx_HAL_Driver/Src/stm32g4xx_hal_pwr_ex.c **** void HAL_PWREx_PVD_PVM_IRQHandler(void)
1012:Drivers/STM32G4xx_HAL_Driver/Src/stm32g4xx_hal_pwr_ex.c **** {
1013:Drivers/STM32G4xx_HAL_Driver/Src/stm32g4xx_hal_pwr_ex.c ****   /* Check PWR exti flag */
1014:Drivers/STM32G4xx_HAL_Driver/Src/stm32g4xx_hal_pwr_ex.c ****   if(__HAL_PWR_PVD_EXTI_GET_FLAG() != 0U)
1015:Drivers/STM32G4xx_HAL_Driver/Src/stm32g4xx_hal_pwr_ex.c ****   {
1016:Drivers/STM32G4xx_HAL_Driver/Src/stm32g4xx_hal_pwr_ex.c ****     /* PWR PVD interrupt user callback */
1017:Drivers/STM32G4xx_HAL_Driver/Src/stm32g4xx_hal_pwr_ex.c ****     HAL_PWR_PVDCallback();
1018:Drivers/STM32G4xx_HAL_Driver/Src/stm32g4xx_hal_pwr_ex.c **** 
1019:Drivers/STM32G4xx_HAL_Driver/Src/stm32g4xx_hal_pwr_ex.c ****     /* Clear PVD exti pending bit */
1020:Drivers/STM32G4xx_HAL_Driver/Src/stm32g4xx_hal_pwr_ex.c ****     __HAL_PWR_PVD_EXTI_CLEAR_FLAG();
1021:Drivers/STM32G4xx_HAL_Driver/Src/stm32g4xx_hal_pwr_ex.c ****   }
1022:Drivers/STM32G4xx_HAL_Driver/Src/stm32g4xx_hal_pwr_ex.c ****   /* Next, successively check PVMx exti flags */
1023:Drivers/STM32G4xx_HAL_Driver/Src/stm32g4xx_hal_pwr_ex.c **** #if defined(PWR_CR2_PVME1)
1024:Drivers/STM32G4xx_HAL_Driver/Src/stm32g4xx_hal_pwr_ex.c ****   if(__HAL_PWR_PVM1_EXTI_GET_FLAG() != 0U)
1025:Drivers/STM32G4xx_HAL_Driver/Src/stm32g4xx_hal_pwr_ex.c ****   {
1026:Drivers/STM32G4xx_HAL_Driver/Src/stm32g4xx_hal_pwr_ex.c ****     /* PWR PVM1 interrupt user callback */
1027:Drivers/STM32G4xx_HAL_Driver/Src/stm32g4xx_hal_pwr_ex.c ****     HAL_PWREx_PVM1Callback();
1028:Drivers/STM32G4xx_HAL_Driver/Src/stm32g4xx_hal_pwr_ex.c **** 
1029:Drivers/STM32G4xx_HAL_Driver/Src/stm32g4xx_hal_pwr_ex.c ****     /* Clear PVM1 exti pending bit */
1030:Drivers/STM32G4xx_HAL_Driver/Src/stm32g4xx_hal_pwr_ex.c ****     __HAL_PWR_PVM1_EXTI_CLEAR_FLAG();
1031:Drivers/STM32G4xx_HAL_Driver/Src/stm32g4xx_hal_pwr_ex.c ****   }
1032:Drivers/STM32G4xx_HAL_Driver/Src/stm32g4xx_hal_pwr_ex.c **** #endif /* PWR_CR2_PVME1 */
1033:Drivers/STM32G4xx_HAL_Driver/Src/stm32g4xx_hal_pwr_ex.c **** #if defined(PWR_CR2_PVME2)
1034:Drivers/STM32G4xx_HAL_Driver/Src/stm32g4xx_hal_pwr_ex.c ****   if(__HAL_PWR_PVM2_EXTI_GET_FLAG() != 0U)
1035:Drivers/STM32G4xx_HAL_Driver/Src/stm32g4xx_hal_pwr_ex.c ****   {
1036:Drivers/STM32G4xx_HAL_Driver/Src/stm32g4xx_hal_pwr_ex.c ****     /* PWR PVM2 interrupt user callback */
1037:Drivers/STM32G4xx_HAL_Driver/Src/stm32g4xx_hal_pwr_ex.c ****     HAL_PWREx_PVM2Callback();
1038:Drivers/STM32G4xx_HAL_Driver/Src/stm32g4xx_hal_pwr_ex.c **** 
1039:Drivers/STM32G4xx_HAL_Driver/Src/stm32g4xx_hal_pwr_ex.c ****     /* Clear PVM2 exti pending bit */
1040:Drivers/STM32G4xx_HAL_Driver/Src/stm32g4xx_hal_pwr_ex.c ****     __HAL_PWR_PVM2_EXTI_CLEAR_FLAG();
1041:Drivers/STM32G4xx_HAL_Driver/Src/stm32g4xx_hal_pwr_ex.c ****   }
1042:Drivers/STM32G4xx_HAL_Driver/Src/stm32g4xx_hal_pwr_ex.c **** #endif /* PWR_CR2_PVME2 */
1043:Drivers/STM32G4xx_HAL_Driver/Src/stm32g4xx_hal_pwr_ex.c ****   if(__HAL_PWR_PVM3_EXTI_GET_FLAG() != 0U)
1044:Drivers/STM32G4xx_HAL_Driver/Src/stm32g4xx_hal_pwr_ex.c ****   {
1045:Drivers/STM32G4xx_HAL_Driver/Src/stm32g4xx_hal_pwr_ex.c ****     /* PWR PVM3 interrupt user callback */
1046:Drivers/STM32G4xx_HAL_Driver/Src/stm32g4xx_hal_pwr_ex.c ****     HAL_PWREx_PVM3Callback();
1047:Drivers/STM32G4xx_HAL_Driver/Src/stm32g4xx_hal_pwr_ex.c **** 
1048:Drivers/STM32G4xx_HAL_Driver/Src/stm32g4xx_hal_pwr_ex.c ****     /* Clear PVM3 exti pending bit */
1049:Drivers/STM32G4xx_HAL_Driver/Src/stm32g4xx_hal_pwr_ex.c ****     __HAL_PWR_PVM3_EXTI_CLEAR_FLAG();
1050:Drivers/STM32G4xx_HAL_Driver/Src/stm32g4xx_hal_pwr_ex.c ****   }
1051:Drivers/STM32G4xx_HAL_Driver/Src/stm32g4xx_hal_pwr_ex.c ****   if(__HAL_PWR_PVM4_EXTI_GET_FLAG() != 0U)
1052:Drivers/STM32G4xx_HAL_Driver/Src/stm32g4xx_hal_pwr_ex.c ****   {
1053:Drivers/STM32G4xx_HAL_Driver/Src/stm32g4xx_hal_pwr_ex.c ****     /* PWR PVM4 interrupt user callback */
1054:Drivers/STM32G4xx_HAL_Driver/Src/stm32g4xx_hal_pwr_ex.c ****     HAL_PWREx_PVM4Callback();
1055:Drivers/STM32G4xx_HAL_Driver/Src/stm32g4xx_hal_pwr_ex.c **** 
1056:Drivers/STM32G4xx_HAL_Driver/Src/stm32g4xx_hal_pwr_ex.c ****     /* Clear PVM4 exti pending bit */
1057:Drivers/STM32G4xx_HAL_Driver/Src/stm32g4xx_hal_pwr_ex.c ****     __HAL_PWR_PVM4_EXTI_CLEAR_FLAG();
1058:Drivers/STM32G4xx_HAL_Driver/Src/stm32g4xx_hal_pwr_ex.c ****   }
1059:Drivers/STM32G4xx_HAL_Driver/Src/stm32g4xx_hal_pwr_ex.c **** }
1060:Drivers/STM32G4xx_HAL_Driver/Src/stm32g4xx_hal_pwr_ex.c **** 
1061:Drivers/STM32G4xx_HAL_Driver/Src/stm32g4xx_hal_pwr_ex.c **** 
1062:Drivers/STM32G4xx_HAL_Driver/Src/stm32g4xx_hal_pwr_ex.c **** #if defined(PWR_CR2_PVME1)
1063:Drivers/STM32G4xx_HAL_Driver/Src/stm32g4xx_hal_pwr_ex.c **** /**
1064:Drivers/STM32G4xx_HAL_Driver/Src/stm32g4xx_hal_pwr_ex.c ****   * @brief PWR PVM1 interrupt callback
1065:Drivers/STM32G4xx_HAL_Driver/Src/stm32g4xx_hal_pwr_ex.c ****   * @retval None
1066:Drivers/STM32G4xx_HAL_Driver/Src/stm32g4xx_hal_pwr_ex.c ****   */
1067:Drivers/STM32G4xx_HAL_Driver/Src/stm32g4xx_hal_pwr_ex.c **** __weak void HAL_PWREx_PVM1Callback(void)
ARM GAS   			page 56


1068:Drivers/STM32G4xx_HAL_Driver/Src/stm32g4xx_hal_pwr_ex.c **** {
 1906              	 .loc 1 1068 1 is_stmt 1 view-0
 1907              	 .cfi_startproc
 1908              	 
 1909              	 
 1910              	 
1069:Drivers/STM32G4xx_HAL_Driver/Src/stm32g4xx_hal_pwr_ex.c ****   /* NOTE : This function should not be modified; when the callback is needed,
1070:Drivers/STM32G4xx_HAL_Driver/Src/stm32g4xx_hal_pwr_ex.c ****             HAL_PWREx_PVM1Callback() API can be implemented in the user file
1071:Drivers/STM32G4xx_HAL_Driver/Src/stm32g4xx_hal_pwr_ex.c ****    */
1072:Drivers/STM32G4xx_HAL_Driver/Src/stm32g4xx_hal_pwr_ex.c **** }
 1911              	 .loc 1 1072 1 view .LVU418
 1912 0000 7047     	 bx lr
 1913              	 .cfi_endproc
 1914              	.LFE390:
 1916 0002 00BF     	 .section .text.HAL_PWREx_PVM2Callback,"ax",%progbits
 1917              	 .align 1
 1918              	 .p2align 2,,3
 1919              	 .weak HAL_PWREx_PVM2Callback
 1920              	 .syntax unified
 1921              	 .thumb
 1922              	 .thumb_func
 1924              	HAL_PWREx_PVM2Callback:
 1925              	.LFB399:
 1926              	 .cfi_startproc
1073:Drivers/STM32G4xx_HAL_Driver/Src/stm32g4xx_hal_pwr_ex.c **** #endif /* PWR_CR2_PVME1 */
1074:Drivers/STM32G4xx_HAL_Driver/Src/stm32g4xx_hal_pwr_ex.c **** 
1075:Drivers/STM32G4xx_HAL_Driver/Src/stm32g4xx_hal_pwr_ex.c **** #if defined(PWR_CR2_PVME2)
1076:Drivers/STM32G4xx_HAL_Driver/Src/stm32g4xx_hal_pwr_ex.c **** /**
1077:Drivers/STM32G4xx_HAL_Driver/Src/stm32g4xx_hal_pwr_ex.c ****   * @brief PWR PVM2 interrupt callback
1078:Drivers/STM32G4xx_HAL_Driver/Src/stm32g4xx_hal_pwr_ex.c ****   * @retval None
1079:Drivers/STM32G4xx_HAL_Driver/Src/stm32g4xx_hal_pwr_ex.c ****   */
1080:Drivers/STM32G4xx_HAL_Driver/Src/stm32g4xx_hal_pwr_ex.c **** __weak void HAL_PWREx_PVM2Callback(void)
 1927              	 .loc 1 1080 13 view-0
 1928              	 
 1929              	 
 1930              	 
 1931 0000 7047     	 bx lr
 1932              	 .cfi_endproc
 1933              	.LFE399:
 1935 0002 00BF     	 .section .text.HAL_PWREx_PVM3Callback,"ax",%progbits
 1936              	 .align 1
 1937              	 .p2align 2,,3
 1938              	 .weak HAL_PWREx_PVM3Callback
 1939              	 .syntax unified
 1940              	 .thumb
 1941              	 .thumb_func
 1943              	HAL_PWREx_PVM3Callback:
 1944              	.LFB401:
 1945              	 .cfi_startproc
1081:Drivers/STM32G4xx_HAL_Driver/Src/stm32g4xx_hal_pwr_ex.c **** {
1082:Drivers/STM32G4xx_HAL_Driver/Src/stm32g4xx_hal_pwr_ex.c ****   /* NOTE : This function should not be modified; when the callback is needed,
1083:Drivers/STM32G4xx_HAL_Driver/Src/stm32g4xx_hal_pwr_ex.c ****             HAL_PWREx_PVM2Callback() API can be implemented in the user file
1084:Drivers/STM32G4xx_HAL_Driver/Src/stm32g4xx_hal_pwr_ex.c ****    */
1085:Drivers/STM32G4xx_HAL_Driver/Src/stm32g4xx_hal_pwr_ex.c **** }
1086:Drivers/STM32G4xx_HAL_Driver/Src/stm32g4xx_hal_pwr_ex.c **** #endif /* PWR_CR2_PVME2 */
1087:Drivers/STM32G4xx_HAL_Driver/Src/stm32g4xx_hal_pwr_ex.c **** 
1088:Drivers/STM32G4xx_HAL_Driver/Src/stm32g4xx_hal_pwr_ex.c **** /**
ARM GAS   			page 57


1089:Drivers/STM32G4xx_HAL_Driver/Src/stm32g4xx_hal_pwr_ex.c ****   * @brief PWR PVM3 interrupt callback
1090:Drivers/STM32G4xx_HAL_Driver/Src/stm32g4xx_hal_pwr_ex.c ****   * @retval None
1091:Drivers/STM32G4xx_HAL_Driver/Src/stm32g4xx_hal_pwr_ex.c ****   */
1092:Drivers/STM32G4xx_HAL_Driver/Src/stm32g4xx_hal_pwr_ex.c **** __weak void HAL_PWREx_PVM3Callback(void)
 1946              	 .loc 1 1092 13 view-0
 1947              	 
 1948              	 
 1949              	 
 1950 0000 7047     	 bx lr
 1951              	 .cfi_endproc
 1952              	.LFE401:
 1954 0002 00BF     	 .section .text.HAL_PWREx_PVM4Callback,"ax",%progbits
 1955              	 .align 1
 1956              	 .p2align 2,,3
 1957              	 .weak HAL_PWREx_PVM4Callback
 1958              	 .syntax unified
 1959              	 .thumb
 1960              	 .thumb_func
 1962              	HAL_PWREx_PVM4Callback:
 1963              	.LFB403:
 1964              	 .cfi_startproc
1093:Drivers/STM32G4xx_HAL_Driver/Src/stm32g4xx_hal_pwr_ex.c **** {
1094:Drivers/STM32G4xx_HAL_Driver/Src/stm32g4xx_hal_pwr_ex.c ****   /* NOTE : This function should not be modified; when the callback is needed,
1095:Drivers/STM32G4xx_HAL_Driver/Src/stm32g4xx_hal_pwr_ex.c ****             HAL_PWREx_PVM3Callback() API can be implemented in the user file
1096:Drivers/STM32G4xx_HAL_Driver/Src/stm32g4xx_hal_pwr_ex.c ****    */
1097:Drivers/STM32G4xx_HAL_Driver/Src/stm32g4xx_hal_pwr_ex.c **** }
1098:Drivers/STM32G4xx_HAL_Driver/Src/stm32g4xx_hal_pwr_ex.c **** 
1099:Drivers/STM32G4xx_HAL_Driver/Src/stm32g4xx_hal_pwr_ex.c **** /**
1100:Drivers/STM32G4xx_HAL_Driver/Src/stm32g4xx_hal_pwr_ex.c ****   * @brief PWR PVM4 interrupt callback
1101:Drivers/STM32G4xx_HAL_Driver/Src/stm32g4xx_hal_pwr_ex.c ****   * @retval None
1102:Drivers/STM32G4xx_HAL_Driver/Src/stm32g4xx_hal_pwr_ex.c ****   */
1103:Drivers/STM32G4xx_HAL_Driver/Src/stm32g4xx_hal_pwr_ex.c **** __weak void HAL_PWREx_PVM4Callback(void)
 1965              	 .loc 1 1103 13 view-0
 1966              	 
 1967              	 
 1968              	 
 1969 0000 7047     	 bx lr
 1970              	 .cfi_endproc
 1971              	.LFE403:
 1973 0002 00BF     	 .section .text.HAL_PWREx_PVD_PVM_IRQHandler,"ax",%progbits
 1974              	 .align 1
 1975              	 .p2align 2,,3
 1976              	 .global HAL_PWREx_PVD_PVM_IRQHandler
 1977              	 .syntax unified
 1978              	 .thumb
 1979              	 .thumb_func
 1981              	HAL_PWREx_PVD_PVM_IRQHandler:
 1982              	.LFB389:
1012:Drivers/STM32G4xx_HAL_Driver/Src/stm32g4xx_hal_pwr_ex.c ****   /* Check PWR exti flag */
 1983              	 .loc 1 1012 1 view-0
 1984              	 .cfi_startproc
 1985              	 
 1986              	 
1014:Drivers/STM32G4xx_HAL_Driver/Src/stm32g4xx_hal_pwr_ex.c ****   {
 1987              	 .loc 1 1014 3 view .LVU423
1012:Drivers/STM32G4xx_HAL_Driver/Src/stm32g4xx_hal_pwr_ex.c ****   /* Check PWR exti flag */
 1988              	 .loc 1 1012 1 is_stmt 0 view .LVU424
ARM GAS   			page 58


 1989 0000 10B5     	 push {r4,lr}
 1990              	 .cfi_def_cfa_offset 8
 1991              	 .cfi_offset 4,-8
 1992              	 .cfi_offset 14,-4
1014:Drivers/STM32G4xx_HAL_Driver/Src/stm32g4xx_hal_pwr_ex.c ****   {
 1993              	 .loc 1 1014 6 view .LVU425
 1994 0002 174C     	 ldr r4,.L288
 1995 0004 6369     	 ldr r3,[r4,#20]
1014:Drivers/STM32G4xx_HAL_Driver/Src/stm32g4xx_hal_pwr_ex.c ****   {
 1996              	 .loc 1 1014 5 view .LVU426
 1997 0006 DB03     	 lsls r3,r3,#15
 1998 0008 24D4     	 bmi .L283
 1999              	.L262:
1024:Drivers/STM32G4xx_HAL_Driver/Src/stm32g4xx_hal_pwr_ex.c ****   {
 2000              	 .loc 1 1024 3 is_stmt 1 view .LVU427
1024:Drivers/STM32G4xx_HAL_Driver/Src/stm32g4xx_hal_pwr_ex.c ****   {
 2001              	 .loc 1 1024 6 is_stmt 0 view .LVU428
 2002 000a 154C     	 ldr r4,.L288
 2003 000c 636B     	 ldr r3,[r4,#52]
1024:Drivers/STM32G4xx_HAL_Driver/Src/stm32g4xx_hal_pwr_ex.c ****   {
 2004              	 .loc 1 1024 5 view .LVU429
 2005 000e 1807     	 lsls r0,r3,#28
 2006 0010 1BD4     	 bmi .L284
 2007              	.L263:
1034:Drivers/STM32G4xx_HAL_Driver/Src/stm32g4xx_hal_pwr_ex.c ****   {
 2008              	 .loc 1 1034 3 is_stmt 1 view .LVU430
1034:Drivers/STM32G4xx_HAL_Driver/Src/stm32g4xx_hal_pwr_ex.c ****   {
 2009              	 .loc 1 1034 6 is_stmt 0 view .LVU431
 2010 0012 134C     	 ldr r4,.L288
 2011 0014 636B     	 ldr r3,[r4,#52]
1034:Drivers/STM32G4xx_HAL_Driver/Src/stm32g4xx_hal_pwr_ex.c ****   {
 2012              	 .loc 1 1034 5 view .LVU432
 2013 0016 D906     	 lsls r1,r3,#27
 2014 0018 12D4     	 bmi .L285
 2015              	.L264:
1043:Drivers/STM32G4xx_HAL_Driver/Src/stm32g4xx_hal_pwr_ex.c ****   {
 2016              	 .loc 1 1043 3 is_stmt 1 view .LVU433
1043:Drivers/STM32G4xx_HAL_Driver/Src/stm32g4xx_hal_pwr_ex.c ****   {
 2017              	 .loc 1 1043 6 is_stmt 0 view .LVU434
 2018 001a 114C     	 ldr r4,.L288
 2019 001c 636B     	 ldr r3,[r4,#52]
1043:Drivers/STM32G4xx_HAL_Driver/Src/stm32g4xx_hal_pwr_ex.c ****   {
 2020              	 .loc 1 1043 5 view .LVU435
 2021 001e 9A06     	 lsls r2,r3,#26
 2022 0020 09D4     	 bmi .L286
 2023              	.L265:
1051:Drivers/STM32G4xx_HAL_Driver/Src/stm32g4xx_hal_pwr_ex.c ****   {
 2024              	 .loc 1 1051 3 is_stmt 1 view .LVU436
1051:Drivers/STM32G4xx_HAL_Driver/Src/stm32g4xx_hal_pwr_ex.c ****   {
 2025              	 .loc 1 1051 6 is_stmt 0 view .LVU437
 2026 0022 0F4C     	 ldr r4,.L288
 2027 0024 636B     	 ldr r3,[r4,#52]
1051:Drivers/STM32G4xx_HAL_Driver/Src/stm32g4xx_hal_pwr_ex.c ****   {
 2028              	 .loc 1 1051 5 view .LVU438
 2029 0026 5B06     	 lsls r3,r3,#25
 2030 0028 00D4     	 bmi .L287
1059:Drivers/STM32G4xx_HAL_Driver/Src/stm32g4xx_hal_pwr_ex.c **** 
ARM GAS   			page 59


 2031              	 .loc 1 1059 1 view .LVU439
 2032 002a 10BD     	 pop {r4,pc}
 2033              	.L287:
1054:Drivers/STM32G4xx_HAL_Driver/Src/stm32g4xx_hal_pwr_ex.c **** 
 2034              	 .loc 1 1054 5 is_stmt 1 view .LVU440
 2035 002c FFF7FEFF 	 bl HAL_PWREx_PVM4Callback
 2036              	.LVL77:
1057:Drivers/STM32G4xx_HAL_Driver/Src/stm32g4xx_hal_pwr_ex.c ****   }
 2037              	 .loc 1 1057 5 view .LVU441
 2038 0030 4023     	 movs r3,#64
 2039 0032 6363     	 str r3,[r4,#52]
1059:Drivers/STM32G4xx_HAL_Driver/Src/stm32g4xx_hal_pwr_ex.c **** 
 2040              	 .loc 1 1059 1 is_stmt 0 view .LVU442
 2041 0034 10BD     	 pop {r4,pc}
 2042              	.L286:
1046:Drivers/STM32G4xx_HAL_Driver/Src/stm32g4xx_hal_pwr_ex.c **** 
 2043              	 .loc 1 1046 5 is_stmt 1 view .LVU443
 2044 0036 FFF7FEFF 	 bl HAL_PWREx_PVM3Callback
 2045              	.LVL78:
1049:Drivers/STM32G4xx_HAL_Driver/Src/stm32g4xx_hal_pwr_ex.c ****   }
 2046              	 .loc 1 1049 5 view .LVU444
 2047 003a 2023     	 movs r3,#32
 2048 003c 6363     	 str r3,[r4,#52]
 2049 003e F0E7     	 b .L265
 2050              	.L285:
1037:Drivers/STM32G4xx_HAL_Driver/Src/stm32g4xx_hal_pwr_ex.c **** 
 2051              	 .loc 1 1037 5 view .LVU445
 2052 0040 FFF7FEFF 	 bl HAL_PWREx_PVM2Callback
 2053              	.LVL79:
1040:Drivers/STM32G4xx_HAL_Driver/Src/stm32g4xx_hal_pwr_ex.c ****   }
 2054              	 .loc 1 1040 5 view .LVU446
 2055 0044 1023     	 movs r3,#16
 2056 0046 6363     	 str r3,[r4,#52]
 2057 0048 E7E7     	 b .L264
 2058              	.L284:
1027:Drivers/STM32G4xx_HAL_Driver/Src/stm32g4xx_hal_pwr_ex.c **** 
 2059              	 .loc 1 1027 5 view .LVU447
 2060 004a FFF7FEFF 	 bl HAL_PWREx_PVM1Callback
 2061              	.LVL80:
1030:Drivers/STM32G4xx_HAL_Driver/Src/stm32g4xx_hal_pwr_ex.c ****   }
 2062              	 .loc 1 1030 5 view .LVU448
 2063 004e 0823     	 movs r3,#8
 2064 0050 6363     	 str r3,[r4,#52]
 2065 0052 DEE7     	 b .L263
 2066              	.L283:
1017:Drivers/STM32G4xx_HAL_Driver/Src/stm32g4xx_hal_pwr_ex.c **** 
 2067              	 .loc 1 1017 5 view .LVU449
 2068 0054 FFF7FEFF 	 bl HAL_PWR_PVDCallback
 2069              	.LVL81:
1020:Drivers/STM32G4xx_HAL_Driver/Src/stm32g4xx_hal_pwr_ex.c ****   }
 2070              	 .loc 1 1020 5 view .LVU450
 2071 0058 4FF48033 	 mov r3,#65536
 2072 005c 6361     	 str r3,[r4,#20]
 2073 005e D4E7     	 b .L262
 2074              	.L289:
 2075              	 .align 2
 2076              	.L288:
ARM GAS   			page 60


 2077 0060 00040140 	 .word 1073808384
 2078              	 .cfi_endproc
 2079              	.LFE389:
 2081              	 .section .text.HAL_PWREx_EnableUCPDStandbyMode,"ax",%progbits
 2082              	 .align 1
 2083              	 .p2align 2,,3
 2084              	 .global HAL_PWREx_EnableUCPDStandbyMode
 2085              	 .syntax unified
 2086              	 .thumb
 2087              	 .thumb_func
 2089              	HAL_PWREx_EnableUCPDStandbyMode:
 2090              	.LFB394:
1104:Drivers/STM32G4xx_HAL_Driver/Src/stm32g4xx_hal_pwr_ex.c **** {
1105:Drivers/STM32G4xx_HAL_Driver/Src/stm32g4xx_hal_pwr_ex.c ****   /* NOTE : This function should not be modified; when the callback is needed,
1106:Drivers/STM32G4xx_HAL_Driver/Src/stm32g4xx_hal_pwr_ex.c ****             HAL_PWREx_PVM4Callback() API can be implemented in the user file
1107:Drivers/STM32G4xx_HAL_Driver/Src/stm32g4xx_hal_pwr_ex.c ****    */
1108:Drivers/STM32G4xx_HAL_Driver/Src/stm32g4xx_hal_pwr_ex.c **** }
1109:Drivers/STM32G4xx_HAL_Driver/Src/stm32g4xx_hal_pwr_ex.c **** 
1110:Drivers/STM32G4xx_HAL_Driver/Src/stm32g4xx_hal_pwr_ex.c **** #if defined(PWR_CR3_UCPD_STDBY)
1111:Drivers/STM32G4xx_HAL_Driver/Src/stm32g4xx_hal_pwr_ex.c **** /**
1112:Drivers/STM32G4xx_HAL_Driver/Src/stm32g4xx_hal_pwr_ex.c ****   * @brief Enable UCPD configuration memorization in Standby.
1113:Drivers/STM32G4xx_HAL_Driver/Src/stm32g4xx_hal_pwr_ex.c ****   * @retval None
1114:Drivers/STM32G4xx_HAL_Driver/Src/stm32g4xx_hal_pwr_ex.c ****   */
1115:Drivers/STM32G4xx_HAL_Driver/Src/stm32g4xx_hal_pwr_ex.c **** void HAL_PWREx_EnableUCPDStandbyMode(void)
1116:Drivers/STM32G4xx_HAL_Driver/Src/stm32g4xx_hal_pwr_ex.c **** {
 2091              	 .loc 1 1116 1 view-0
 2092              	 .cfi_startproc
 2093              	 
 2094              	 
 2095              	 
1117:Drivers/STM32G4xx_HAL_Driver/Src/stm32g4xx_hal_pwr_ex.c ****   /* Memorize UCPD configuration when entering standby mode */
1118:Drivers/STM32G4xx_HAL_Driver/Src/stm32g4xx_hal_pwr_ex.c ****   SET_BIT(PWR->CR3, PWR_CR3_UCPD_STDBY);
 2096              	 .loc 1 1118 3 view .LVU452
 2097 0000 024A     	 ldr r2,.L291
 2098 0002 9368     	 ldr r3,[r2,#8]
 2099 0004 43F40053 	 orr r3,r3,#8192
 2100 0008 9360     	 str r3,[r2,#8]
1119:Drivers/STM32G4xx_HAL_Driver/Src/stm32g4xx_hal_pwr_ex.c **** }
 2101              	 .loc 1 1119 1 is_stmt 0 view .LVU453
 2102 000a 7047     	 bx lr
 2103              	.L292:
 2104              	 .align 2
 2105              	.L291:
 2106 000c 00700040 	 .word 1073770496
 2107              	 .cfi_endproc
 2108              	.LFE394:
 2110              	 .section .text.HAL_PWREx_DisableUCPDStandbyMode,"ax",%progbits
 2111              	 .align 1
 2112              	 .p2align 2,,3
 2113              	 .global HAL_PWREx_DisableUCPDStandbyMode
 2114              	 .syntax unified
 2115              	 .thumb
 2116              	 .thumb_func
 2118              	HAL_PWREx_DisableUCPDStandbyMode:
 2119              	.LFB395:
1120:Drivers/STM32G4xx_HAL_Driver/Src/stm32g4xx_hal_pwr_ex.c **** 
1121:Drivers/STM32G4xx_HAL_Driver/Src/stm32g4xx_hal_pwr_ex.c **** /**
ARM GAS   			page 61


1122:Drivers/STM32G4xx_HAL_Driver/Src/stm32g4xx_hal_pwr_ex.c ****   * @brief Disable UCPD configuration memorization in Standby.
1123:Drivers/STM32G4xx_HAL_Driver/Src/stm32g4xx_hal_pwr_ex.c ****   * @note  This function must be called on exiting the Standby mode and before any UCPD
1124:Drivers/STM32G4xx_HAL_Driver/Src/stm32g4xx_hal_pwr_ex.c ****   *        configuration update.
1125:Drivers/STM32G4xx_HAL_Driver/Src/stm32g4xx_hal_pwr_ex.c ****   * @retval None
1126:Drivers/STM32G4xx_HAL_Driver/Src/stm32g4xx_hal_pwr_ex.c ****   */
1127:Drivers/STM32G4xx_HAL_Driver/Src/stm32g4xx_hal_pwr_ex.c **** void HAL_PWREx_DisableUCPDStandbyMode(void)
1128:Drivers/STM32G4xx_HAL_Driver/Src/stm32g4xx_hal_pwr_ex.c **** {
 2120              	 .loc 1 1128 1 is_stmt 1 view-0
 2121              	 .cfi_startproc
 2122              	 
 2123              	 
 2124              	 
1129:Drivers/STM32G4xx_HAL_Driver/Src/stm32g4xx_hal_pwr_ex.c ****   /* Write 0 immediately after Standby exit when using UCPD,
1130:Drivers/STM32G4xx_HAL_Driver/Src/stm32g4xx_hal_pwr_ex.c ****      and before writing any UCPD registers */
1131:Drivers/STM32G4xx_HAL_Driver/Src/stm32g4xx_hal_pwr_ex.c ****   CLEAR_BIT(PWR->CR3, PWR_CR3_UCPD_STDBY);
 2125              	 .loc 1 1131 3 view .LVU455
 2126 0000 024A     	 ldr r2,.L294
 2127 0002 9368     	 ldr r3,[r2,#8]
 2128 0004 23F40053 	 bic r3,r3,#8192
 2129 0008 9360     	 str r3,[r2,#8]
1132:Drivers/STM32G4xx_HAL_Driver/Src/stm32g4xx_hal_pwr_ex.c **** }
 2130              	 .loc 1 1132 1 is_stmt 0 view .LVU456
 2131 000a 7047     	 bx lr
 2132              	.L295:
 2133              	 .align 2
 2134              	.L294:
 2135 000c 00700040 	 .word 1073770496
 2136              	 .cfi_endproc
 2137              	.LFE395:
 2139              	 .section .text.HAL_PWREx_EnableUCPDDeadBattery,"ax",%progbits
 2140              	 .align 1
 2141              	 .p2align 2,,3
 2142              	 .global HAL_PWREx_EnableUCPDDeadBattery
 2143              	 .syntax unified
 2144              	 .thumb
 2145              	 .thumb_func
 2147              	HAL_PWREx_EnableUCPDDeadBattery:
 2148              	.LFB396:
1133:Drivers/STM32G4xx_HAL_Driver/Src/stm32g4xx_hal_pwr_ex.c **** #endif /* PWR_CR3_UCPD_STDBY */
1134:Drivers/STM32G4xx_HAL_Driver/Src/stm32g4xx_hal_pwr_ex.c **** 
1135:Drivers/STM32G4xx_HAL_Driver/Src/stm32g4xx_hal_pwr_ex.c **** #if defined(PWR_CR3_UCPD_DBDIS)
1136:Drivers/STM32G4xx_HAL_Driver/Src/stm32g4xx_hal_pwr_ex.c **** /**
1137:Drivers/STM32G4xx_HAL_Driver/Src/stm32g4xx_hal_pwr_ex.c ****   * @brief Enable the USB Type-C dead battery pull-down behavior
1138:Drivers/STM32G4xx_HAL_Driver/Src/stm32g4xx_hal_pwr_ex.c ****   *        on UCPDx_CC1 and UCPDx_CC2 pins
1139:Drivers/STM32G4xx_HAL_Driver/Src/stm32g4xx_hal_pwr_ex.c ****   * @retval None
1140:Drivers/STM32G4xx_HAL_Driver/Src/stm32g4xx_hal_pwr_ex.c ****   */
1141:Drivers/STM32G4xx_HAL_Driver/Src/stm32g4xx_hal_pwr_ex.c **** void HAL_PWREx_EnableUCPDDeadBattery(void)
1142:Drivers/STM32G4xx_HAL_Driver/Src/stm32g4xx_hal_pwr_ex.c **** {
 2149              	 .loc 1 1142 1 is_stmt 1 view-0
 2150              	 .cfi_startproc
 2151              	 
 2152              	 
 2153              	 
1143:Drivers/STM32G4xx_HAL_Driver/Src/stm32g4xx_hal_pwr_ex.c ****   /* Write 0 to enable the USB Type-C dead battery pull-down behavior */
1144:Drivers/STM32G4xx_HAL_Driver/Src/stm32g4xx_hal_pwr_ex.c ****   CLEAR_BIT(PWR->CR3, PWR_CR3_UCPD_DBDIS);
 2154              	 .loc 1 1144 3 view .LVU458
 2155 0000 024A     	 ldr r2,.L297
ARM GAS   			page 62


 2156 0002 9368     	 ldr r3,[r2,#8]
 2157 0004 23F48043 	 bic r3,r3,#16384
 2158 0008 9360     	 str r3,[r2,#8]
1145:Drivers/STM32G4xx_HAL_Driver/Src/stm32g4xx_hal_pwr_ex.c **** }
 2159              	 .loc 1 1145 1 is_stmt 0 view .LVU459
 2160 000a 7047     	 bx lr
 2161              	.L298:
 2162              	 .align 2
 2163              	.L297:
 2164 000c 00700040 	 .word 1073770496
 2165              	 .cfi_endproc
 2166              	.LFE396:
 2168              	 .section .text.HAL_PWREx_DisableUCPDDeadBattery,"ax",%progbits
 2169              	 .align 1
 2170              	 .p2align 2,,3
 2171              	 .global HAL_PWREx_DisableUCPDDeadBattery
 2172              	 .syntax unified
 2173              	 .thumb
 2174              	 .thumb_func
 2176              	HAL_PWREx_DisableUCPDDeadBattery:
 2177              	.LFB397:
1146:Drivers/STM32G4xx_HAL_Driver/Src/stm32g4xx_hal_pwr_ex.c **** 
1147:Drivers/STM32G4xx_HAL_Driver/Src/stm32g4xx_hal_pwr_ex.c **** /**
1148:Drivers/STM32G4xx_HAL_Driver/Src/stm32g4xx_hal_pwr_ex.c ****   * @brief Disable the USB Type-C dead battery pull-down behavior
1149:Drivers/STM32G4xx_HAL_Driver/Src/stm32g4xx_hal_pwr_ex.c ****   *        on UCPDx_CC1 and UCPDx_CC2 pins
1150:Drivers/STM32G4xx_HAL_Driver/Src/stm32g4xx_hal_pwr_ex.c ****   * @note After exiting reset, the USB Type-C dead battery behavior will be enabled,
1151:Drivers/STM32G4xx_HAL_Driver/Src/stm32g4xx_hal_pwr_ex.c ****   *       which may have a pull-down effect on CC1 and CC2 pins.
1152:Drivers/STM32G4xx_HAL_Driver/Src/stm32g4xx_hal_pwr_ex.c ****   *       It is recommended to disable it in all cases, either to stop this pull-down
1153:Drivers/STM32G4xx_HAL_Driver/Src/stm32g4xx_hal_pwr_ex.c ****   *       or to hand over control to the UCPD (which should therefore be
1154:Drivers/STM32G4xx_HAL_Driver/Src/stm32g4xx_hal_pwr_ex.c ****   *       initialized before doing the disable).
1155:Drivers/STM32G4xx_HAL_Driver/Src/stm32g4xx_hal_pwr_ex.c ****   * @retval None
1156:Drivers/STM32G4xx_HAL_Driver/Src/stm32g4xx_hal_pwr_ex.c ****   */
1157:Drivers/STM32G4xx_HAL_Driver/Src/stm32g4xx_hal_pwr_ex.c **** void HAL_PWREx_DisableUCPDDeadBattery(void)
1158:Drivers/STM32G4xx_HAL_Driver/Src/stm32g4xx_hal_pwr_ex.c **** {
 2178              	 .loc 1 1158 1 is_stmt 1 view-0
 2179              	 .cfi_startproc
 2180              	 
 2181              	 
 2182              	 
1159:Drivers/STM32G4xx_HAL_Driver/Src/stm32g4xx_hal_pwr_ex.c ****   /* Write 1 to disable the USB Type-C dead battery pull-down behavior */
1160:Drivers/STM32G4xx_HAL_Driver/Src/stm32g4xx_hal_pwr_ex.c ****   SET_BIT(PWR->CR3, PWR_CR3_UCPD_DBDIS);
 2183              	 .loc 1 1160 3 view .LVU461
 2184 0000 024A     	 ldr r2,.L300
 2185 0002 9368     	 ldr r3,[r2,#8]
 2186 0004 43F48043 	 orr r3,r3,#16384
 2187 0008 9360     	 str r3,[r2,#8]
1161:Drivers/STM32G4xx_HAL_Driver/Src/stm32g4xx_hal_pwr_ex.c **** }
 2188              	 .loc 1 1161 1 is_stmt 0 view .LVU462
 2189 000a 7047     	 bx lr
 2190              	.L301:
 2191              	 .align 2
 2192              	.L300:
 2193 000c 00700040 	 .word 1073770496
 2194              	 .cfi_endproc
 2195              	.LFE397:
 2197              	 .text
 2198              	.Letext0:
ARM GAS   			page 63


 2199              	 .file 2 "D:/msys2/mingw64/arm-none-eabi/include/machine/_default_types.h"
 2200              	 .file 3 "D:/msys2/mingw64/arm-none-eabi/include/sys/_stdint.h"
 2201              	 .file 4 "Drivers/CMSIS/Include/core_cm4.h"
 2202              	 .file 5 "Drivers/CMSIS/Device/ST/STM32G4xx/Include/stm32g474xx.h"
 2203              	 .file 6 "Drivers/STM32G4xx_HAL_Driver/Inc/stm32g4xx_hal_def.h"
 2204              	 .file 7 "Drivers/STM32G4xx_HAL_Driver/Inc/stm32g4xx_hal_pwr_ex.h"
 2205              	 .file 8 "Drivers/STM32G4xx_HAL_Driver/Inc/stm32g4xx_hal_pwr.h"
 2206              	 .file 9 "Drivers/CMSIS/Device/ST/STM32G4xx/Include/system_stm32g4xx.h"
ARM GAS   			page 64


DEFINED SYMBOLS
                            *ABS*:00000000 stm32g4xx_hal_pwr_ex.c
    {standard input}:19     .text.HAL_PWREx_GetVoltageRange:00000000 $t
    {standard input}:26     .text.HAL_PWREx_GetVoltageRange:00000000 HAL_PWREx_GetVoltageRange
    {standard input}:53     .text.HAL_PWREx_GetVoltageRange:0000001c $d
    {standard input}:58     .text.HAL_PWREx_ControlVoltageScaling:00000000 $t
    {standard input}:65     .text.HAL_PWREx_ControlVoltageScaling:00000000 HAL_PWREx_ControlVoltageScaling
    {standard input}:244    .text.HAL_PWREx_ControlVoltageScaling:000000d8 $d
    {standard input}:251    .text.HAL_PWREx_EnableBatteryCharging:00000000 $t
    {standard input}:258    .text.HAL_PWREx_EnableBatteryCharging:00000000 HAL_PWREx_EnableBatteryCharging
    {standard input}:282    .text.HAL_PWREx_EnableBatteryCharging:00000018 $d
    {standard input}:287    .text.HAL_PWREx_DisableBatteryCharging:00000000 $t
    {standard input}:294    .text.HAL_PWREx_DisableBatteryCharging:00000000 HAL_PWREx_DisableBatteryCharging
    {standard input}:311    .text.HAL_PWREx_DisableBatteryCharging:0000000c $d
    {standard input}:316    .text.HAL_PWREx_EnableInternalWakeUpLine:00000000 $t
    {standard input}:323    .text.HAL_PWREx_EnableInternalWakeUpLine:00000000 HAL_PWREx_EnableInternalWakeUpLine
    {standard input}:340    .text.HAL_PWREx_EnableInternalWakeUpLine:0000000c $d
    {standard input}:345    .text.HAL_PWREx_DisableInternalWakeUpLine:00000000 $t
    {standard input}:352    .text.HAL_PWREx_DisableInternalWakeUpLine:00000000 HAL_PWREx_DisableInternalWakeUpLine
    {standard input}:369    .text.HAL_PWREx_DisableInternalWakeUpLine:0000000c $d
    {standard input}:374    .text.HAL_PWREx_EnableGPIOPullUp:00000000 $t
    {standard input}:381    .text.HAL_PWREx_EnableGPIOPullUp:00000000 HAL_PWREx_EnableGPIOPullUp
    {standard input}:397    .text.HAL_PWREx_EnableGPIOPullUp:00000008 $d
    {standard input}:526    .text.HAL_PWREx_EnableGPIOPullUp:000000ac $d
    {standard input}:531    .text.HAL_PWREx_DisableGPIOPullUp:00000000 $t
    {standard input}:538    .text.HAL_PWREx_DisableGPIOPullUp:00000000 HAL_PWREx_DisableGPIOPullUp
    {standard input}:554    .text.HAL_PWREx_DisableGPIOPullUp:00000008 $d
    {standard input}:649    .text.HAL_PWREx_DisableGPIOPullUp:00000078 $d
    {standard input}:654    .text.HAL_PWREx_EnableGPIOPullDown:00000000 $t
    {standard input}:661    .text.HAL_PWREx_EnableGPIOPullDown:00000000 HAL_PWREx_EnableGPIOPullDown
    {standard input}:677    .text.HAL_PWREx_EnableGPIOPullDown:00000008 $d
    {standard input}:806    .text.HAL_PWREx_EnableGPIOPullDown:000000ac $d
    {standard input}:811    .text.HAL_PWREx_DisableGPIOPullDown:00000000 $t
    {standard input}:818    .text.HAL_PWREx_DisableGPIOPullDown:00000000 HAL_PWREx_DisableGPIOPullDown
    {standard input}:834    .text.HAL_PWREx_DisableGPIOPullDown:00000008 $d
    {standard input}:933    .text.HAL_PWREx_DisableGPIOPullDown:0000007c $d
    {standard input}:938    .text.HAL_PWREx_EnablePullUpPullDownConfig:00000000 $t
    {standard input}:945    .text.HAL_PWREx_EnablePullUpPullDownConfig:00000000 HAL_PWREx_EnablePullUpPullDownConfig
    {standard input}:962    .text.HAL_PWREx_EnablePullUpPullDownConfig:0000000c $d
    {standard input}:967    .text.HAL_PWREx_DisablePullUpPullDownConfig:00000000 $t
    {standard input}:974    .text.HAL_PWREx_DisablePullUpPullDownConfig:00000000 HAL_PWREx_DisablePullUpPullDownConfig
    {standard input}:991    .text.HAL_PWREx_DisablePullUpPullDownConfig:0000000c $d
    {standard input}:996    .text.HAL_PWREx_EnableSRAM2ContentRetention:00000000 $t
    {standard input}:1003   .text.HAL_PWREx_EnableSRAM2ContentRetention:00000000 HAL_PWREx_EnableSRAM2ContentRetention
    {standard input}:1020   .text.HAL_PWREx_EnableSRAM2ContentRetention:0000000c $d
    {standard input}:1025   .text.HAL_PWREx_DisableSRAM2ContentRetention:00000000 $t
    {standard input}:1032   .text.HAL_PWREx_DisableSRAM2ContentRetention:00000000 HAL_PWREx_DisableSRAM2ContentRetention
    {standard input}:1049   .text.HAL_PWREx_DisableSRAM2ContentRetention:0000000c $d
    {standard input}:1054   .text.HAL_PWREx_EnablePVM1:00000000 $t
    {standard input}:1061   .text.HAL_PWREx_EnablePVM1:00000000 HAL_PWREx_EnablePVM1
    {standard input}:1078   .text.HAL_PWREx_EnablePVM1:0000000c $d
    {standard input}:1083   .text.HAL_PWREx_DisablePVM1:00000000 $t
    {standard input}:1090   .text.HAL_PWREx_DisablePVM1:00000000 HAL_PWREx_DisablePVM1
    {standard input}:1107   .text.HAL_PWREx_DisablePVM1:0000000c $d
    {standard input}:1112   .text.HAL_PWREx_EnablePVM2:00000000 $t
    {standard input}:1119   .text.HAL_PWREx_EnablePVM2:00000000 HAL_PWREx_EnablePVM2
    {standard input}:1136   .text.HAL_PWREx_EnablePVM2:0000000c $d
ARM GAS   			page 65


    {standard input}:1141   .text.HAL_PWREx_DisablePVM2:00000000 $t
    {standard input}:1148   .text.HAL_PWREx_DisablePVM2:00000000 HAL_PWREx_DisablePVM2
    {standard input}:1165   .text.HAL_PWREx_DisablePVM2:0000000c $d
    {standard input}:1170   .text.HAL_PWREx_EnablePVM3:00000000 $t
    {standard input}:1177   .text.HAL_PWREx_EnablePVM3:00000000 HAL_PWREx_EnablePVM3
    {standard input}:1194   .text.HAL_PWREx_EnablePVM3:0000000c $d
    {standard input}:1199   .text.HAL_PWREx_DisablePVM3:00000000 $t
    {standard input}:1206   .text.HAL_PWREx_DisablePVM3:00000000 HAL_PWREx_DisablePVM3
    {standard input}:1223   .text.HAL_PWREx_DisablePVM3:0000000c $d
    {standard input}:1228   .text.HAL_PWREx_EnablePVM4:00000000 $t
    {standard input}:1235   .text.HAL_PWREx_EnablePVM4:00000000 HAL_PWREx_EnablePVM4
    {standard input}:1252   .text.HAL_PWREx_EnablePVM4:0000000c $d
    {standard input}:1257   .text.HAL_PWREx_DisablePVM4:00000000 $t
    {standard input}:1264   .text.HAL_PWREx_DisablePVM4:00000000 HAL_PWREx_DisablePVM4
    {standard input}:1281   .text.HAL_PWREx_DisablePVM4:0000000c $d
    {standard input}:1286   .text.HAL_PWREx_ConfigPVM:00000000 $t
    {standard input}:1293   .text.HAL_PWREx_ConfigPVM:00000000 HAL_PWREx_ConfigPVM
    {standard input}:1585   .text.HAL_PWREx_ConfigPVM:00000190 $d
    {standard input}:1590   .text.HAL_PWREx_EnableLowPowerRunMode:00000000 $t
    {standard input}:1597   .text.HAL_PWREx_EnableLowPowerRunMode:00000000 HAL_PWREx_EnableLowPowerRunMode
    {standard input}:1614   .text.HAL_PWREx_EnableLowPowerRunMode:0000000c $d
    {standard input}:1619   .text.HAL_PWREx_DisableLowPowerRunMode:00000000 $t
    {standard input}:1626   .text.HAL_PWREx_DisableLowPowerRunMode:00000000 HAL_PWREx_DisableLowPowerRunMode
    {standard input}:1694   .text.HAL_PWREx_DisableLowPowerRunMode:00000040 $d
    {standard input}:1701   .text.HAL_PWREx_EnterSTOP0Mode:00000000 $t
    {standard input}:1708   .text.HAL_PWREx_EnterSTOP0Mode:00000000 HAL_PWREx_EnterSTOP0Mode
    {standard input}:1770   .text.HAL_PWREx_EnterSTOP0Mode:00000030 $d
    {standard input}:1776   .text.HAL_PWREx_EnterSTOP1Mode:00000000 $t
    {standard input}:1783   .text.HAL_PWREx_EnterSTOP1Mode:00000000 HAL_PWREx_EnterSTOP1Mode
    {standard input}:1846   .text.HAL_PWREx_EnterSTOP1Mode:00000034 $d
    {standard input}:1852   .text.HAL_PWREx_EnterSHUTDOWNMode:00000000 $t
    {standard input}:1859   .text.HAL_PWREx_EnterSHUTDOWNMode:00000000 HAL_PWREx_EnterSHUTDOWNMode
    {standard input}:1891   .text.HAL_PWREx_EnterSHUTDOWNMode:0000001c $d
    {standard input}:1897   .text.HAL_PWREx_PVM1Callback:00000000 $t
    {standard input}:1904   .text.HAL_PWREx_PVM1Callback:00000000 HAL_PWREx_PVM1Callback
    {standard input}:1917   .text.HAL_PWREx_PVM2Callback:00000000 $t
    {standard input}:1924   .text.HAL_PWREx_PVM2Callback:00000000 HAL_PWREx_PVM2Callback
    {standard input}:1936   .text.HAL_PWREx_PVM3Callback:00000000 $t
    {standard input}:1943   .text.HAL_PWREx_PVM3Callback:00000000 HAL_PWREx_PVM3Callback
    {standard input}:1955   .text.HAL_PWREx_PVM4Callback:00000000 $t
    {standard input}:1962   .text.HAL_PWREx_PVM4Callback:00000000 HAL_PWREx_PVM4Callback
    {standard input}:1974   .text.HAL_PWREx_PVD_PVM_IRQHandler:00000000 $t
    {standard input}:1981   .text.HAL_PWREx_PVD_PVM_IRQHandler:00000000 HAL_PWREx_PVD_PVM_IRQHandler
    {standard input}:2077   .text.HAL_PWREx_PVD_PVM_IRQHandler:00000060 $d
    {standard input}:2082   .text.HAL_PWREx_EnableUCPDStandbyMode:00000000 $t
    {standard input}:2089   .text.HAL_PWREx_EnableUCPDStandbyMode:00000000 HAL_PWREx_EnableUCPDStandbyMode
    {standard input}:2106   .text.HAL_PWREx_EnableUCPDStandbyMode:0000000c $d
    {standard input}:2111   .text.HAL_PWREx_DisableUCPDStandbyMode:00000000 $t
    {standard input}:2118   .text.HAL_PWREx_DisableUCPDStandbyMode:00000000 HAL_PWREx_DisableUCPDStandbyMode
    {standard input}:2135   .text.HAL_PWREx_DisableUCPDStandbyMode:0000000c $d
    {standard input}:2140   .text.HAL_PWREx_EnableUCPDDeadBattery:00000000 $t
    {standard input}:2147   .text.HAL_PWREx_EnableUCPDDeadBattery:00000000 HAL_PWREx_EnableUCPDDeadBattery
    {standard input}:2164   .text.HAL_PWREx_EnableUCPDDeadBattery:0000000c $d
    {standard input}:2169   .text.HAL_PWREx_DisableUCPDDeadBattery:00000000 $t
    {standard input}:2176   .text.HAL_PWREx_DisableUCPDDeadBattery:00000000 HAL_PWREx_DisableUCPDDeadBattery
    {standard input}:2193   .text.HAL_PWREx_DisableUCPDDeadBattery:0000000c $d
    {standard input}:404    .text.HAL_PWREx_EnableGPIOPullUp:0000000f $d
ARM GAS   			page 66


    {standard input}:404    .text.HAL_PWREx_EnableGPIOPullUp:00000010 $t
    {standard input}:561    .text.HAL_PWREx_DisableGPIOPullUp:0000000f $d
    {standard input}:561    .text.HAL_PWREx_DisableGPIOPullUp:00000010 $t
    {standard input}:684    .text.HAL_PWREx_EnableGPIOPullDown:0000000f $d
    {standard input}:684    .text.HAL_PWREx_EnableGPIOPullDown:00000010 $t
    {standard input}:841    .text.HAL_PWREx_DisableGPIOPullDown:0000000f $d
    {standard input}:841    .text.HAL_PWREx_DisableGPIOPullDown:00000010 $t
                           .group:00000000 wm4.0.0a7385083264a66d46f50bd0ca9333d7
                           .group:00000000 wm4.stm32g4xx_hal_conf.h.23.29f848e16b8f40ab9160f466e02fbac5
                           .group:00000000 wm4.stm32g4xx.h.38.4ce5d67cecf3db23972af81b516b937b
                           .group:00000000 wm4.stm32g474xx.h.34.0f14ed7ce45f8c3c7c55af7520d7efa5
                           .group:00000000 wm4._newlib_version.h.4.0eb654b64686e2bd29646258853f6c22
                           .group:00000000 wm4.features.h.33.d554620bb17bd3b714c3fb5c268772bc
                           .group:00000000 wm4._default_types.h.15.247e5cd201eca3442cbf5404108c4935
                           .group:00000000 wm4._intsup.h.10.48bafbb683905c4daa4565a85aeeb264
                           .group:00000000 wm4._stdint.h.10.c24fa3af3bc1706662bb5593a907e841
                           .group:00000000 wm4.stdint.h.23.d53047a68f4a85177f80b422d52785ed
                           .group:00000000 wm4.cmsis_version.h.32.46e8eccfa2cfeaae11d008bb2823a3ed
                           .group:00000000 wm4.core_cm4.h.66.e4ff136c4a17abc46741866f64f8e729
                           .group:00000000 wm4.cmsis_gcc.h.26.78077cef1206e937f7b56043ffca496a
                           .group:00000000 wm4.core_cm4.h.174.fcddd62df80231752fa39eb9b61dadfe
                           .group:00000000 wm4.mpu_armv7.h.32.4049752bb5792d4e15357775e9506cfc
                           .group:00000000 wm4.stm32g474xx.h.714.40df4d5d8bd1a3a0e2dcb49e18b09038
                           .group:00000000 wm4.stm32g4xx.h.158.aa4340ed3b15fb0d4b1741cf5ce96563
                           .group:00000000 wm4.stm32_hal_legacy.h.22.e1e932ae083ad1562e3b1af87ae47999
                           .group:00000000 wm4.stddef.h.39.0dc9006b34572d4d9cae4c8b422c4971
                           .group:00000000 wm4.stm32g4xx_hal_def.h.57.460ac21f0caebde175d7222cb23afe15
                           .group:00000000 wm4.stm32g4xx_hal_rcc.h.135.8d28bdf720f4165758e115c83d05a7c2
                           .group:00000000 wm4.stm32g4xx_hal_rcc_ex.h.20.a381de89af88802207f549f948fabbc4
                           .group:00000000 wm4.stm32g4xx_hal_gpio.h.21.2ca30689d7a5ad939e06f5298d557243
                           .group:00000000 wm4.stm32g4xx_hal_gpio_ex.h.22.1b7da6fc7615b2341724123ae8e461d9
                           .group:00000000 wm4.stm32g4xx_hal_dma.h.21.2e23b0d56595a6b838cda841e78b2cf2
                           .group:00000000 wm4.stm32g4xx_hal_dma_ex.h.21.93a1fe56678997ad72754076070f4a0d
                           .group:00000000 wm4.stm32g4xx_hal_dma.h.803.dd88ea57b632f588d556f066658ac8d8
                           .group:00000000 wm4.stm32g4xx_hal_cortex.h.20.1ad77fb6b4fc679887cb0a980ea44a7a
                           .group:00000000 wm4.stm32g4xx_ll_adc.h.21.8052bcc80fb264686ac0eb0df096b4eb
                           .group:00000000 wm4.stm32g4xx_hal_adc.h.441.b9143c2a34e1e7389f3042e2226178dc
                           .group:00000000 wm4.stm32g4xx_hal_adc_ex.h.21.bf5e513b0c782ac53971b6599734b8c4
                           .group:00000000 wm4.stm32g4xx_ll_exti.h.21.3148a6980741767f71761eb445f346e9
                           .group:00000000 wm4.stm32g4xx_hal_comp.h.74.993852ecfac8b19c902e64e33c61511c
                           .group:00000000 wm4.stm32g4xx_hal_dac.h.21.db627068e52007634376a4c972c5d419
                           .group:00000000 wm4.stm32g4xx_hal_dac_ex.h.21.3725e9b2e9e08a08e2a598b2d2f18a92
                           .group:00000000 wm4.stm32g4xx_hal_exti.h.21.723acd8e98480aae634680651af4eb2a
                           .group:00000000 wm4.stm32g4xx_hal_fdcan.h.21.7e3b4b48cfc4adf8b669f7e4b16ec2a0
                           .group:00000000 wm4.stm32g4xx_hal_flash.h.20.d5eb04c7abbe2eb79b40a04b3414a774
                           .group:00000000 wm4.stm32g4xx_hal_flash.h.868.06dd2f9ca2f40ac164951ad647480079
                           .group:00000000 wm4.stm32g4xx_hal_hrtim.h.21.5bb9cc2116aa63503a68d53ce84fbb8c
                           .group:00000000 wm4.stm32g4xx_hal_opamp.h.21.0de86917e81e98dccfa125838db59b66
                           .group:00000000 wm4.stm32g4xx_hal_pwr.h.21.9b149e14c0ecf58cee46e8fb7f654b77
                           .group:00000000 wm4.stm32g4xx_hal_pwr_ex.h.21.32206cbbd2cbec024b8600a98cfa3df7
                           .group:00000000 wm4.stm32g4xx_hal_tim.h.21.48998681c932026239437f6645b6b47f
                           .group:00000000 wm4.stm32g4xx_hal_tim_ex.h.21.931c546f492dcdbc9ac587da38712500
                           .group:00000000 wm4.stm32g4xx_hal.h.49.77ad48c45d6a59e5132483403b560be0

UNDEFINED SYMBOLS
SystemCoreClock
HAL_PWR_PVDCallback
ARM GAS   			page 67


